   1              		.syntax unified
   2              		.cpu cortex-m4
   3              		.eabi_attribute 27, 3
   4              		.fpu fpv4-sp-d16
   5              		.eabi_attribute 20, 1
   6              		.eabi_attribute 21, 1
   7              		.eabi_attribute 23, 3
   8              		.eabi_attribute 24, 1
   9              		.eabi_attribute 25, 1
  10              		.eabi_attribute 26, 1
  11              		.eabi_attribute 30, 6
  12              		.eabi_attribute 34, 1
  13              		.eabi_attribute 18, 4
  14              		.thumb
  15              		.file	"list.c"
  16              		.text
  17              	.Ltext0:
  18              		.cfi_sections	.debug_frame
  19              		.section	.text.vListInitialise,"ax",%progbits
  20              		.align	2
  21              		.global	vListInitialise
  22              		.thumb
  23              		.thumb_func
  25              	vListInitialise:
  26              	.LFB110:
  27              		.file 1 "Source/list.c"
   1:Source/list.c **** /*
   2:Source/list.c ****     FreeRTOS V7.5.3 - Copyright (C) 2013 Real Time Engineers Ltd. 
   3:Source/list.c ****     All rights reserved
   4:Source/list.c **** 
   5:Source/list.c ****     VISIT http://www.FreeRTOS.org TO ENSURE YOU ARE USING THE LATEST VERSION.
   6:Source/list.c **** 
   7:Source/list.c ****     ***************************************************************************
   8:Source/list.c ****      *                                                                       *
   9:Source/list.c ****      *    FreeRTOS provides completely free yet professionally developed,    *
  10:Source/list.c ****      *    robust, strictly quality controlled, supported, and cross          *
  11:Source/list.c ****      *    platform software that has become a de facto standard.             *
  12:Source/list.c ****      *                                                                       *
  13:Source/list.c ****      *    Help yourself get started quickly and support the FreeRTOS         *
  14:Source/list.c ****      *    project by purchasing a FreeRTOS tutorial book, reference          *
  15:Source/list.c ****      *    manual, or both from: http://www.FreeRTOS.org/Documentation        *
  16:Source/list.c ****      *                                                                       *
  17:Source/list.c ****      *    Thank you!                                                         *
  18:Source/list.c ****      *                                                                       *
  19:Source/list.c ****     ***************************************************************************
  20:Source/list.c **** 
  21:Source/list.c ****     This file is part of the FreeRTOS distribution.
  22:Source/list.c **** 
  23:Source/list.c ****     FreeRTOS is free software; you can redistribute it and/or modify it under
  24:Source/list.c ****     the terms of the GNU General Public License (version 2) as published by the
  25:Source/list.c ****     Free Software Foundation >>!AND MODIFIED BY!<< the FreeRTOS exception.
  26:Source/list.c **** 
  27:Source/list.c ****     >>! NOTE: The modification to the GPL is included to allow you to distribute
  28:Source/list.c ****     >>! a combined work that includes FreeRTOS without being obliged to provide
  29:Source/list.c ****     >>! the source code for proprietary components outside of the FreeRTOS
  30:Source/list.c ****     >>! kernel.
  31:Source/list.c **** 
  32:Source/list.c ****     FreeRTOS is distributed in the hope that it will be useful, but WITHOUT ANY
  33:Source/list.c ****     WARRANTY; without even the implied warranty of MERCHANTABILITY or FITNESS
  34:Source/list.c ****     FOR A PARTICULAR PURPOSE.  Full license text is available from the following
  35:Source/list.c ****     link: http://www.freertos.org/a00114.html
  36:Source/list.c **** 
  37:Source/list.c ****     1 tab == 4 spaces!
  38:Source/list.c **** 
  39:Source/list.c ****     ***************************************************************************
  40:Source/list.c ****      *                                                                       *
  41:Source/list.c ****      *    Having a problem?  Start by reading the FAQ "My application does   *
  42:Source/list.c ****      *    not run, what could be wrong?"                                     *
  43:Source/list.c ****      *                                                                       *
  44:Source/list.c ****      *    http://www.FreeRTOS.org/FAQHelp.html                               *
  45:Source/list.c ****      *                                                                       *
  46:Source/list.c ****     ***************************************************************************
  47:Source/list.c **** 
  48:Source/list.c ****     http://www.FreeRTOS.org - Documentation, books, training, latest versions,
  49:Source/list.c ****     license and Real Time Engineers Ltd. contact details.
  50:Source/list.c **** 
  51:Source/list.c ****     http://www.FreeRTOS.org/plus - A selection of FreeRTOS ecosystem products,
  52:Source/list.c ****     including FreeRTOS+Trace - an indispensable productivity tool, a DOS
  53:Source/list.c ****     compatible FAT file system, and our tiny thread aware UDP/IP stack.
  54:Source/list.c **** 
  55:Source/list.c ****     http://www.OpenRTOS.com - Real Time Engineers ltd license FreeRTOS to High
  56:Source/list.c ****     Integrity Systems to sell under the OpenRTOS brand.  Low cost OpenRTOS
  57:Source/list.c ****     licenses offer ticketed support, indemnification and middleware.
  58:Source/list.c **** 
  59:Source/list.c ****     http://www.SafeRTOS.com - High Integrity Systems also provide a safety
  60:Source/list.c ****     engineered and independently SIL3 certified version for use in safety and
  61:Source/list.c ****     mission critical applications that require provable dependability.
  62:Source/list.c **** 
  63:Source/list.c ****     1 tab == 4 spaces!
  64:Source/list.c **** */
  65:Source/list.c **** 
  66:Source/list.c **** 
  67:Source/list.c **** #include <stdlib.h>
  68:Source/list.c **** #include "FreeRTOS.h"
  69:Source/list.c **** #include "list.h"
  70:Source/list.c **** 
  71:Source/list.c **** /*-----------------------------------------------------------
  72:Source/list.c ****  * PUBLIC LIST API documented in list.h
  73:Source/list.c ****  *----------------------------------------------------------*/
  74:Source/list.c **** 
  75:Source/list.c **** void vListInitialise( xList * const pxList )
  76:Source/list.c **** {
  28              		.loc 1 76 0
  29              		.cfi_startproc
  30              		@ args = 0, pretend = 0, frame = 8
  31              		@ frame_needed = 1, uses_anonymous_args = 0
  32              		@ link register save eliminated.
  33 0000 80B4     		push	{r7}
  34              	.LCFI0:
  35              		.cfi_def_cfa_offset 4
  36              		.cfi_offset 7, -4
  37 0002 83B0     		sub	sp, sp, #12
  38              	.LCFI1:
  39              		.cfi_def_cfa_offset 16
  40 0004 00AF     		add	r7, sp, #0
  41              	.LCFI2:
  42              		.cfi_def_cfa_register 7
  43 0006 7860     		str	r0, [r7, #4]
  77:Source/list.c **** 	/* The list structure contains a list item which is used to mark the
  78:Source/list.c **** 	end of the list.  To initialise the list the list end is inserted
  79:Source/list.c **** 	as the only list entry. */
  80:Source/list.c **** 	pxList->pxIndex = ( xListItem * ) &( pxList->xListEnd );			/*lint !e826 !e740 The mini list struct
  44              		.loc 1 80 0
  45 0008 7B68     		ldr	r3, [r7, #4]
  46 000a 03F10802 		add	r2, r3, #8
  47 000e 7B68     		ldr	r3, [r7, #4]
  48 0010 5A60     		str	r2, [r3, #4]
  81:Source/list.c **** 
  82:Source/list.c **** 	/* The list end value is the highest possible value in the list to
  83:Source/list.c **** 	ensure it remains at the end of the list. */
  84:Source/list.c **** 	pxList->xListEnd.xItemValue = portMAX_DELAY;
  49              		.loc 1 84 0
  50 0012 7B68     		ldr	r3, [r7, #4]
  51 0014 4FF0FF32 		mov	r2, #-1
  52 0018 9A60     		str	r2, [r3, #8]
  85:Source/list.c **** 
  86:Source/list.c **** 	/* The list end next and previous pointers point to itself so we know
  87:Source/list.c **** 	when the list is empty. */
  88:Source/list.c **** 	pxList->xListEnd.pxNext = ( xListItem * ) &( pxList->xListEnd );	/*lint !e826 !e740 The mini list 
  53              		.loc 1 88 0
  54 001a 7B68     		ldr	r3, [r7, #4]
  55 001c 03F10802 		add	r2, r3, #8
  56 0020 7B68     		ldr	r3, [r7, #4]
  57 0022 DA60     		str	r2, [r3, #12]
  89:Source/list.c **** 	pxList->xListEnd.pxPrevious = ( xListItem * ) &( pxList->xListEnd );/*lint !e826 !e740 The mini li
  58              		.loc 1 89 0
  59 0024 7B68     		ldr	r3, [r7, #4]
  60 0026 03F10802 		add	r2, r3, #8
  61 002a 7B68     		ldr	r3, [r7, #4]
  62 002c 1A61     		str	r2, [r3, #16]
  90:Source/list.c **** 
  91:Source/list.c **** 	pxList->uxNumberOfItems = ( unsigned portBASE_TYPE ) 0U;
  63              		.loc 1 91 0
  64 002e 7B68     		ldr	r3, [r7, #4]
  65 0030 4FF00002 		mov	r2, #0
  66 0034 1A60     		str	r2, [r3, #0]
  92:Source/list.c **** }
  67              		.loc 1 92 0
  68 0036 07F10C07 		add	r7, r7, #12
  69 003a BD46     		mov	sp, r7
  70 003c 80BC     		pop	{r7}
  71 003e 7047     		bx	lr
  72              		.cfi_endproc
  73              	.LFE110:
  75              		.section	.text.vListInitialiseItem,"ax",%progbits
  76              		.align	2
  77              		.global	vListInitialiseItem
  78              		.thumb
  79              		.thumb_func
  81              	vListInitialiseItem:
  82              	.LFB111:
  93:Source/list.c **** /*-----------------------------------------------------------*/
  94:Source/list.c **** 
  95:Source/list.c **** void vListInitialiseItem( xListItem * const pxItem )
  96:Source/list.c **** {
  83              		.loc 1 96 0
  84              		.cfi_startproc
  85              		@ args = 0, pretend = 0, frame = 8
  86              		@ frame_needed = 1, uses_anonymous_args = 0
  87              		@ link register save eliminated.
  88 0000 80B4     		push	{r7}
  89              	.LCFI3:
  90              		.cfi_def_cfa_offset 4
  91              		.cfi_offset 7, -4
  92 0002 83B0     		sub	sp, sp, #12
  93              	.LCFI4:
  94              		.cfi_def_cfa_offset 16
  95 0004 00AF     		add	r7, sp, #0
  96              	.LCFI5:
  97              		.cfi_def_cfa_register 7
  98 0006 7860     		str	r0, [r7, #4]
  97:Source/list.c **** 	/* Make sure the list item is not recorded as being on a list. */
  98:Source/list.c **** 	pxItem->pvContainer = NULL;
  99              		.loc 1 98 0
 100 0008 7B68     		ldr	r3, [r7, #4]
 101 000a 4FF00002 		mov	r2, #0
 102 000e 1A61     		str	r2, [r3, #16]
  99:Source/list.c **** }
 103              		.loc 1 99 0
 104 0010 07F10C07 		add	r7, r7, #12
 105 0014 BD46     		mov	sp, r7
 106 0016 80BC     		pop	{r7}
 107 0018 7047     		bx	lr
 108              		.cfi_endproc
 109              	.LFE111:
 111 001a 00BF     		.section	.text.vListInsertEnd,"ax",%progbits
 112              		.align	2
 113              		.global	vListInsertEnd
 114              		.thumb
 115              		.thumb_func
 117              	vListInsertEnd:
 118              	.LFB112:
 100:Source/list.c **** /*-----------------------------------------------------------*/
 101:Source/list.c **** 
 102:Source/list.c **** void vListInsertEnd( xList * const pxList, xListItem * const pxNewListItem )
 103:Source/list.c **** {
 119              		.loc 1 103 0
 120              		.cfi_startproc
 121              		@ args = 0, pretend = 0, frame = 16
 122              		@ frame_needed = 1, uses_anonymous_args = 0
 123              		@ link register save eliminated.
 124 0000 80B4     		push	{r7}
 125              	.LCFI6:
 126              		.cfi_def_cfa_offset 4
 127              		.cfi_offset 7, -4
 128 0002 85B0     		sub	sp, sp, #20
 129              	.LCFI7:
 130              		.cfi_def_cfa_offset 24
 131 0004 00AF     		add	r7, sp, #0
 132              	.LCFI8:
 133              		.cfi_def_cfa_register 7
 134 0006 7860     		str	r0, [r7, #4]
 135 0008 3960     		str	r1, [r7, #0]
 104:Source/list.c **** xListItem * pxIndex;
 105:Source/list.c **** 
 106:Source/list.c **** 	/* Insert a new list item into pxList, but rather than sort the list,
 107:Source/list.c **** 	makes the new list item the last item to be removed by a call to
 108:Source/list.c **** 	pvListGetOwnerOfNextEntry. */
 109:Source/list.c **** 	pxIndex = pxList->pxIndex;
 136              		.loc 1 109 0
 137 000a 7B68     		ldr	r3, [r7, #4]
 138 000c 5B68     		ldr	r3, [r3, #4]
 139 000e FB60     		str	r3, [r7, #12]
 110:Source/list.c **** 
 111:Source/list.c **** 	pxNewListItem->pxNext = pxIndex;
 140              		.loc 1 111 0
 141 0010 3B68     		ldr	r3, [r7, #0]
 142 0012 FA68     		ldr	r2, [r7, #12]
 143 0014 5A60     		str	r2, [r3, #4]
 112:Source/list.c **** 	pxNewListItem->pxPrevious = pxIndex->pxPrevious;
 144              		.loc 1 112 0
 145 0016 FB68     		ldr	r3, [r7, #12]
 146 0018 9A68     		ldr	r2, [r3, #8]
 147 001a 3B68     		ldr	r3, [r7, #0]
 148 001c 9A60     		str	r2, [r3, #8]
 113:Source/list.c **** 	pxIndex->pxPrevious->pxNext = pxNewListItem;
 149              		.loc 1 113 0
 150 001e FB68     		ldr	r3, [r7, #12]
 151 0020 9B68     		ldr	r3, [r3, #8]
 152 0022 3A68     		ldr	r2, [r7, #0]
 153 0024 5A60     		str	r2, [r3, #4]
 114:Source/list.c **** 	pxIndex->pxPrevious = pxNewListItem;
 154              		.loc 1 114 0
 155 0026 FB68     		ldr	r3, [r7, #12]
 156 0028 3A68     		ldr	r2, [r7, #0]
 157 002a 9A60     		str	r2, [r3, #8]
 115:Source/list.c **** 
 116:Source/list.c **** 	/* Remember which list the item is in. */
 117:Source/list.c **** 	pxNewListItem->pvContainer = ( void * ) pxList;
 158              		.loc 1 117 0
 159 002c 3B68     		ldr	r3, [r7, #0]
 160 002e 7A68     		ldr	r2, [r7, #4]
 161 0030 1A61     		str	r2, [r3, #16]
 118:Source/list.c **** 
 119:Source/list.c **** 	( pxList->uxNumberOfItems )++;
 162              		.loc 1 119 0
 163 0032 7B68     		ldr	r3, [r7, #4]
 164 0034 1B68     		ldr	r3, [r3, #0]
 165 0036 03F10102 		add	r2, r3, #1
 166 003a 7B68     		ldr	r3, [r7, #4]
 167 003c 1A60     		str	r2, [r3, #0]
 120:Source/list.c **** }
 168              		.loc 1 120 0
 169 003e 07F11407 		add	r7, r7, #20
 170 0042 BD46     		mov	sp, r7
 171 0044 80BC     		pop	{r7}
 172 0046 7047     		bx	lr
 173              		.cfi_endproc
 174              	.LFE112:
 176              		.section	.text.vListInsert,"ax",%progbits
 177              		.align	2
 178              		.global	vListInsert
 179              		.thumb
 180              		.thumb_func
 182              	vListInsert:
 183              	.LFB113:
 121:Source/list.c **** /*-----------------------------------------------------------*/
 122:Source/list.c **** 
 123:Source/list.c **** void vListInsert( xList * const pxList, xListItem * const pxNewListItem )
 124:Source/list.c **** {
 184              		.loc 1 124 0
 185              		.cfi_startproc
 186              		@ args = 0, pretend = 0, frame = 16
 187              		@ frame_needed = 1, uses_anonymous_args = 0
 188              		@ link register save eliminated.
 189 0000 80B4     		push	{r7}
 190              	.LCFI9:
 191              		.cfi_def_cfa_offset 4
 192              		.cfi_offset 7, -4
 193 0002 85B0     		sub	sp, sp, #20
 194              	.LCFI10:
 195              		.cfi_def_cfa_offset 24
 196 0004 00AF     		add	r7, sp, #0
 197              	.LCFI11:
 198              		.cfi_def_cfa_register 7
 199 0006 7860     		str	r0, [r7, #4]
 200 0008 3960     		str	r1, [r7, #0]
 125:Source/list.c **** xListItem *pxIterator;
 126:Source/list.c **** portTickType xValueOfInsertion;
 127:Source/list.c **** 
 128:Source/list.c **** 	/* Insert the new list item into the list, sorted in ulListItem order. */
 129:Source/list.c **** 	xValueOfInsertion = pxNewListItem->xItemValue;
 201              		.loc 1 129 0
 202 000a 3B68     		ldr	r3, [r7, #0]
 203 000c 1B68     		ldr	r3, [r3, #0]
 204 000e BB60     		str	r3, [r7, #8]
 130:Source/list.c **** 
 131:Source/list.c **** 	/* If the list already contains a list item with the same item value then
 132:Source/list.c **** 	the new list item should be placed after it.  This ensures that TCB's which
 133:Source/list.c **** 	are stored in ready lists (all of which have the same ulListItem value)
 134:Source/list.c **** 	get an equal share of the CPU.  However, if the xItemValue is the same as
 135:Source/list.c **** 	the back marker the iteration loop below will not end.  This means we need
 136:Source/list.c **** 	to guard against this by checking the value first and modifying the
 137:Source/list.c **** 	algorithm slightly if necessary. */
 138:Source/list.c **** 	if( xValueOfInsertion == portMAX_DELAY )
 205              		.loc 1 138 0
 206 0010 BB68     		ldr	r3, [r7, #8]
 207 0012 B3F1FF3F 		cmp	r3, #-1
 208 0016 03D1     		bne	.L5
 139:Source/list.c **** 	{
 140:Source/list.c **** 		pxIterator = pxList->xListEnd.pxPrevious;
 209              		.loc 1 140 0
 210 0018 7B68     		ldr	r3, [r7, #4]
 211 001a 1B69     		ldr	r3, [r3, #16]
 212 001c FB60     		str	r3, [r7, #12]
 213 001e 0DE0     		b	.L6
 214              	.L5:
 141:Source/list.c **** 	}
 142:Source/list.c **** 	else
 143:Source/list.c **** 	{
 144:Source/list.c **** 		/* *** NOTE ***********************************************************
 145:Source/list.c **** 		If you find your application is crashing here then likely causes are:
 146:Source/list.c **** 			1) Stack overflow -
 147:Source/list.c **** 			   see http://www.freertos.org/Stacks-and-stack-overflow-checking.html
 148:Source/list.c **** 			2) Incorrect interrupt priority assignment, especially on Cortex-M3
 149:Source/list.c **** 			   parts where numerically high priority values denote low actual
 150:Source/list.c **** 			   interrupt priories, which can seem counter intuitive.  See
 151:Source/list.c **** 			   configMAX_SYSCALL_INTERRUPT_PRIORITY on http://www.freertos.org/a00110.html
 152:Source/list.c **** 			3) Calling an API function from within a critical section or when
 153:Source/list.c **** 			   the scheduler is suspended, or calling an API function that does
 154:Source/list.c **** 			   not end in "FromISR" from an interrupt.
 155:Source/list.c **** 			4) Using a queue or semaphore before it has been initialised or
 156:Source/list.c **** 			   before the scheduler has been started (are interrupts firing
 157:Source/list.c **** 			   before vTaskStartScheduler() has been called?).
 158:Source/list.c **** 		See http://www.freertos.org/FAQHelp.html for more tips.
 159:Source/list.c **** 		**********************************************************************/
 160:Source/list.c **** 
 161:Source/list.c **** 		for( pxIterator = ( xListItem * ) &( pxList->xListEnd ); pxIterator->pxNext->xItemValue <= xValue
 215              		.loc 1 161 0
 216 0020 7B68     		ldr	r3, [r7, #4]
 217 0022 03F10803 		add	r3, r3, #8
 218 0026 FB60     		str	r3, [r7, #12]
 219 0028 02E0     		b	.L7
 220              	.L8:
 221              		.loc 1 161 0 is_stmt 0 discriminator 2
 222 002a FB68     		ldr	r3, [r7, #12]
 223 002c 5B68     		ldr	r3, [r3, #4]
 224 002e FB60     		str	r3, [r7, #12]
 225              	.L7:
 226              		.loc 1 161 0 discriminator 1
 227 0030 FB68     		ldr	r3, [r7, #12]
 228 0032 5B68     		ldr	r3, [r3, #4]
 229 0034 1A68     		ldr	r2, [r3, #0]
 230 0036 BB68     		ldr	r3, [r7, #8]
 231 0038 9A42     		cmp	r2, r3
 232 003a F6D9     		bls	.L8
 233              	.L6:
 162:Source/list.c **** 		{
 163:Source/list.c **** 			/* There is nothing to do here, we are just iterating to the
 164:Source/list.c **** 			wanted insertion position. */
 165:Source/list.c **** 		}
 166:Source/list.c **** 	}
 167:Source/list.c **** 
 168:Source/list.c **** 	pxNewListItem->pxNext = pxIterator->pxNext;
 234              		.loc 1 168 0 is_stmt 1
 235 003c FB68     		ldr	r3, [r7, #12]
 236 003e 5A68     		ldr	r2, [r3, #4]
 237 0040 3B68     		ldr	r3, [r7, #0]
 238 0042 5A60     		str	r2, [r3, #4]
 169:Source/list.c **** 	pxNewListItem->pxNext->pxPrevious = pxNewListItem;
 239              		.loc 1 169 0
 240 0044 3B68     		ldr	r3, [r7, #0]
 241 0046 5B68     		ldr	r3, [r3, #4]
 242 0048 3A68     		ldr	r2, [r7, #0]
 243 004a 9A60     		str	r2, [r3, #8]
 170:Source/list.c **** 	pxNewListItem->pxPrevious = pxIterator;
 244              		.loc 1 170 0
 245 004c 3B68     		ldr	r3, [r7, #0]
 246 004e FA68     		ldr	r2, [r7, #12]
 247 0050 9A60     		str	r2, [r3, #8]
 171:Source/list.c **** 	pxIterator->pxNext = pxNewListItem;
 248              		.loc 1 171 0
 249 0052 FB68     		ldr	r3, [r7, #12]
 250 0054 3A68     		ldr	r2, [r7, #0]
 251 0056 5A60     		str	r2, [r3, #4]
 172:Source/list.c **** 
 173:Source/list.c **** 	/* Remember which list the item is in.  This allows fast removal of the
 174:Source/list.c **** 	item later. */
 175:Source/list.c **** 	pxNewListItem->pvContainer = ( void * ) pxList;
 252              		.loc 1 175 0
 253 0058 3B68     		ldr	r3, [r7, #0]
 254 005a 7A68     		ldr	r2, [r7, #4]
 255 005c 1A61     		str	r2, [r3, #16]
 176:Source/list.c **** 
 177:Source/list.c **** 	( pxList->uxNumberOfItems )++;
 256              		.loc 1 177 0
 257 005e 7B68     		ldr	r3, [r7, #4]
 258 0060 1B68     		ldr	r3, [r3, #0]
 259 0062 03F10102 		add	r2, r3, #1
 260 0066 7B68     		ldr	r3, [r7, #4]
 261 0068 1A60     		str	r2, [r3, #0]
 178:Source/list.c **** }
 262              		.loc 1 178 0
 263 006a 07F11407 		add	r7, r7, #20
 264 006e BD46     		mov	sp, r7
 265 0070 80BC     		pop	{r7}
 266 0072 7047     		bx	lr
 267              		.cfi_endproc
 268              	.LFE113:
 270              		.section	.text.uxListRemove,"ax",%progbits
 271              		.align	2
 272              		.global	uxListRemove
 273              		.thumb
 274              		.thumb_func
 276              	uxListRemove:
 277              	.LFB114:
 179:Source/list.c **** /*-----------------------------------------------------------*/
 180:Source/list.c **** 
 181:Source/list.c **** unsigned portBASE_TYPE uxListRemove( xListItem * const pxItemToRemove )
 182:Source/list.c **** {
 278              		.loc 1 182 0
 279              		.cfi_startproc
 280              		@ args = 0, pretend = 0, frame = 16
 281              		@ frame_needed = 1, uses_anonymous_args = 0
 282              		@ link register save eliminated.
 283 0000 80B4     		push	{r7}
 284              	.LCFI12:
 285              		.cfi_def_cfa_offset 4
 286              		.cfi_offset 7, -4
 287 0002 85B0     		sub	sp, sp, #20
 288              	.LCFI13:
 289              		.cfi_def_cfa_offset 24
 290 0004 00AF     		add	r7, sp, #0
 291              	.LCFI14:
 292              		.cfi_def_cfa_register 7
 293 0006 7860     		str	r0, [r7, #4]
 183:Source/list.c **** xList * pxList;
 184:Source/list.c **** 
 185:Source/list.c **** 	pxItemToRemove->pxNext->pxPrevious = pxItemToRemove->pxPrevious;
 294              		.loc 1 185 0
 295 0008 7B68     		ldr	r3, [r7, #4]
 296 000a 5B68     		ldr	r3, [r3, #4]
 297 000c 7A68     		ldr	r2, [r7, #4]
 298 000e 9268     		ldr	r2, [r2, #8]
 299 0010 9A60     		str	r2, [r3, #8]
 186:Source/list.c **** 	pxItemToRemove->pxPrevious->pxNext = pxItemToRemove->pxNext;
 300              		.loc 1 186 0
 301 0012 7B68     		ldr	r3, [r7, #4]
 302 0014 9B68     		ldr	r3, [r3, #8]
 303 0016 7A68     		ldr	r2, [r7, #4]
 304 0018 5268     		ldr	r2, [r2, #4]
 305 001a 5A60     		str	r2, [r3, #4]
 187:Source/list.c **** 
 188:Source/list.c **** 	/* The list item knows which list it is in.  Obtain the list from the list
 189:Source/list.c **** 	item. */
 190:Source/list.c **** 	pxList = ( xList * ) pxItemToRemove->pvContainer;
 306              		.loc 1 190 0
 307 001c 7B68     		ldr	r3, [r7, #4]
 308 001e 1B69     		ldr	r3, [r3, #16]
 309 0020 FB60     		str	r3, [r7, #12]
 191:Source/list.c **** 
 192:Source/list.c **** 	/* Make sure the index is left pointing to a valid item. */
 193:Source/list.c **** 	if( pxList->pxIndex == pxItemToRemove )
 310              		.loc 1 193 0
 311 0022 FB68     		ldr	r3, [r7, #12]
 312 0024 5A68     		ldr	r2, [r3, #4]
 313 0026 7B68     		ldr	r3, [r7, #4]
 314 0028 9A42     		cmp	r2, r3
 315 002a 03D1     		bne	.L10
 194:Source/list.c **** 	{
 195:Source/list.c **** 		pxList->pxIndex = pxItemToRemove->pxPrevious;
 316              		.loc 1 195 0
 317 002c 7B68     		ldr	r3, [r7, #4]
 318 002e 9A68     		ldr	r2, [r3, #8]
 319 0030 FB68     		ldr	r3, [r7, #12]
 320 0032 5A60     		str	r2, [r3, #4]
 321              	.L10:
 196:Source/list.c **** 	}
 197:Source/list.c **** 
 198:Source/list.c **** 	pxItemToRemove->pvContainer = NULL;
 322              		.loc 1 198 0
 323 0034 7B68     		ldr	r3, [r7, #4]
 324 0036 4FF00002 		mov	r2, #0
 325 003a 1A61     		str	r2, [r3, #16]
 199:Source/list.c **** 	( pxList->uxNumberOfItems )--;
 326              		.loc 1 199 0
 327 003c FB68     		ldr	r3, [r7, #12]
 328 003e 1B68     		ldr	r3, [r3, #0]
 329 0040 03F1FF32 		add	r2, r3, #-1
 330 0044 FB68     		ldr	r3, [r7, #12]
 331 0046 1A60     		str	r2, [r3, #0]
 200:Source/list.c **** 
 201:Source/list.c **** 	return pxList->uxNumberOfItems;
 332              		.loc 1 201 0
 333 0048 FB68     		ldr	r3, [r7, #12]
 334 004a 1B68     		ldr	r3, [r3, #0]
 202:Source/list.c **** }
 335              		.loc 1 202 0
 336 004c 1846     		mov	r0, r3
 337 004e 07F11407 		add	r7, r7, #20
 338 0052 BD46     		mov	sp, r7
 339 0054 80BC     		pop	{r7}
 340 0056 7047     		bx	lr
 341              		.cfi_endproc
 342              	.LFE114:
 344              		.text
 345              	.Letext0:
 346              		.file 2 "/home/thanhtruong/embedded-development/toolchain/gcc-arm-none-eabi-4_7-2013q1/bin/../lib/
 347              		.file 3 "Source/portable/GCC/ARM_CM4F/portmacro.h"
 348              		.file 4 "Source/include/list.h"
 349              		.file 5 "App/STM32F4-Discovery/Libraries/CMSIS/Include/core_cm4.h"