   1              		.syntax unified
   2              		.cpu cortex-m4
   3              		.eabi_attribute 27, 3
   4              		.fpu fpv4-sp-d16
   5              		.eabi_attribute 20, 1
   6              		.eabi_attribute 21, 1
   7              		.eabi_attribute 23, 3
   8              		.eabi_attribute 24, 1
   9              		.eabi_attribute 25, 1
  10              		.eabi_attribute 26, 1
  11              		.eabi_attribute 30, 6
  12              		.eabi_attribute 34, 1
  13              		.eabi_attribute 18, 4
  14              		.thumb
  15              		.file	"stm32f4xx_rcc.c"
  16              		.text
  17              	.Ltext0:
  18              		.cfi_sections	.debug_frame
  19              		.section	.data.APBAHBPrescTable,"aw",%progbits
  20              		.align	2
  23              	APBAHBPrescTable:
  24 0000 00       		.byte	0
  25 0001 00       		.byte	0
  26 0002 00       		.byte	0
  27 0003 00       		.byte	0
  28 0004 01       		.byte	1
  29 0005 02       		.byte	2
  30 0006 03       		.byte	3
  31 0007 04       		.byte	4
  32 0008 01       		.byte	1
  33 0009 02       		.byte	2
  34 000a 03       		.byte	3
  35 000b 04       		.byte	4
  36 000c 06       		.byte	6
  37 000d 07       		.byte	7
  38 000e 08       		.byte	8
  39 000f 09       		.byte	9
  40              		.section	.text.RCC_DeInit,"ax",%progbits
  41              		.align	2
  42              		.global	RCC_DeInit
  43              		.thumb
  44              		.thumb_func
  46              	RCC_DeInit:
  47              	.LFB110:
  48              		.file 1 "App/STM32F4-Discovery/Libraries/STM32F4xx_StdPeriph_Driver/src/stm32f4xx_rcc.c"
   1:App/STM32F4-Discovery/Libraries/STM32F4xx_StdPeriph_Driver/src/stm32f4xx_rcc.c **** /**
   2:App/STM32F4-Discovery/Libraries/STM32F4xx_StdPeriph_Driver/src/stm32f4xx_rcc.c ****   ******************************************************************************
   3:App/STM32F4-Discovery/Libraries/STM32F4xx_StdPeriph_Driver/src/stm32f4xx_rcc.c ****   * @file    stm32f4xx_rcc.c
   4:App/STM32F4-Discovery/Libraries/STM32F4xx_StdPeriph_Driver/src/stm32f4xx_rcc.c ****   * @author  MCD Application Team
   5:App/STM32F4-Discovery/Libraries/STM32F4xx_StdPeriph_Driver/src/stm32f4xx_rcc.c ****   * @version V1.0.0
   6:App/STM32F4-Discovery/Libraries/STM32F4xx_StdPeriph_Driver/src/stm32f4xx_rcc.c ****   * @date    30-September-2011
   7:App/STM32F4-Discovery/Libraries/STM32F4xx_StdPeriph_Driver/src/stm32f4xx_rcc.c ****   * @brief   This file provides firmware functions to manage the following 
   8:App/STM32F4-Discovery/Libraries/STM32F4xx_StdPeriph_Driver/src/stm32f4xx_rcc.c ****   *          functionalities of the Reset and clock control (RCC) peripheral:
   9:App/STM32F4-Discovery/Libraries/STM32F4xx_StdPeriph_Driver/src/stm32f4xx_rcc.c ****   *           - Internal/external clocks, PLL, CSS and MCO configuration
  10:App/STM32F4-Discovery/Libraries/STM32F4xx_StdPeriph_Driver/src/stm32f4xx_rcc.c ****   *           - System, AHB and APB busses clocks configuration
  11:App/STM32F4-Discovery/Libraries/STM32F4xx_StdPeriph_Driver/src/stm32f4xx_rcc.c ****   *           - Peripheral clocks configuration
  12:App/STM32F4-Discovery/Libraries/STM32F4xx_StdPeriph_Driver/src/stm32f4xx_rcc.c ****   *           - Interrupts and flags management
  13:App/STM32F4-Discovery/Libraries/STM32F4xx_StdPeriph_Driver/src/stm32f4xx_rcc.c ****   *
  14:App/STM32F4-Discovery/Libraries/STM32F4xx_StdPeriph_Driver/src/stm32f4xx_rcc.c ****   *  @verbatim
  15:App/STM32F4-Discovery/Libraries/STM32F4xx_StdPeriph_Driver/src/stm32f4xx_rcc.c ****   *               
  16:App/STM32F4-Discovery/Libraries/STM32F4xx_StdPeriph_Driver/src/stm32f4xx_rcc.c ****   *          ===================================================================
  17:App/STM32F4-Discovery/Libraries/STM32F4xx_StdPeriph_Driver/src/stm32f4xx_rcc.c ****   *                               RCC specific features
  18:App/STM32F4-Discovery/Libraries/STM32F4xx_StdPeriph_Driver/src/stm32f4xx_rcc.c ****   *          ===================================================================
  19:App/STM32F4-Discovery/Libraries/STM32F4xx_StdPeriph_Driver/src/stm32f4xx_rcc.c ****   *    
  20:App/STM32F4-Discovery/Libraries/STM32F4xx_StdPeriph_Driver/src/stm32f4xx_rcc.c ****   *          After reset the device is running from Internal High Speed oscillator 
  21:App/STM32F4-Discovery/Libraries/STM32F4xx_StdPeriph_Driver/src/stm32f4xx_rcc.c ****   *          (HSI 16MHz) with Flash 0 wait state, Flash prefetch buffer, D-Cache 
  22:App/STM32F4-Discovery/Libraries/STM32F4xx_StdPeriph_Driver/src/stm32f4xx_rcc.c ****   *          and I-Cache are disabled, and all peripherals are off except internal
  23:App/STM32F4-Discovery/Libraries/STM32F4xx_StdPeriph_Driver/src/stm32f4xx_rcc.c ****   *          SRAM, Flash and JTAG.
  24:App/STM32F4-Discovery/Libraries/STM32F4xx_StdPeriph_Driver/src/stm32f4xx_rcc.c ****   *           - There is no prescaler on High speed (AHB) and Low speed (APB) busses;
  25:App/STM32F4-Discovery/Libraries/STM32F4xx_StdPeriph_Driver/src/stm32f4xx_rcc.c ****   *             all peripherals mapped on these busses are running at HSI speed.
  26:App/STM32F4-Discovery/Libraries/STM32F4xx_StdPeriph_Driver/src/stm32f4xx_rcc.c ****   *       	  - The clock for all peripherals is switched off, except the SRAM and FLASH.
  27:App/STM32F4-Discovery/Libraries/STM32F4xx_StdPeriph_Driver/src/stm32f4xx_rcc.c ****   *           - All GPIOs are in input floating state, except the JTAG pins which
  28:App/STM32F4-Discovery/Libraries/STM32F4xx_StdPeriph_Driver/src/stm32f4xx_rcc.c ****   *             are assigned to be used for debug purpose.
  29:App/STM32F4-Discovery/Libraries/STM32F4xx_StdPeriph_Driver/src/stm32f4xx_rcc.c ****   *        
  30:App/STM32F4-Discovery/Libraries/STM32F4xx_StdPeriph_Driver/src/stm32f4xx_rcc.c ****   *          Once the device started from reset, the user application has to:        
  31:App/STM32F4-Discovery/Libraries/STM32F4xx_StdPeriph_Driver/src/stm32f4xx_rcc.c ****   *           - Configure the clock source to be used to drive the System clock
  32:App/STM32F4-Discovery/Libraries/STM32F4xx_StdPeriph_Driver/src/stm32f4xx_rcc.c ****   *             (if the application needs higher frequency/performance)
  33:App/STM32F4-Discovery/Libraries/STM32F4xx_StdPeriph_Driver/src/stm32f4xx_rcc.c ****   *           - Configure the System clock frequency and Flash settings  
  34:App/STM32F4-Discovery/Libraries/STM32F4xx_StdPeriph_Driver/src/stm32f4xx_rcc.c ****   *           - Configure the AHB and APB busses prescalers
  35:App/STM32F4-Discovery/Libraries/STM32F4xx_StdPeriph_Driver/src/stm32f4xx_rcc.c ****   *           - Enable the clock for the peripheral(s) to be used
  36:App/STM32F4-Discovery/Libraries/STM32F4xx_StdPeriph_Driver/src/stm32f4xx_rcc.c ****   *           - Configure the clock source(s) for peripherals which clocks are not
  37:App/STM32F4-Discovery/Libraries/STM32F4xx_StdPeriph_Driver/src/stm32f4xx_rcc.c ****   *             derived from the System clock (I2S, RTC, ADC, USB OTG FS/SDIO/RNG)      
  38:App/STM32F4-Discovery/Libraries/STM32F4xx_StdPeriph_Driver/src/stm32f4xx_rcc.c ****   *                        
  39:App/STM32F4-Discovery/Libraries/STM32F4xx_StdPeriph_Driver/src/stm32f4xx_rcc.c ****   *  @endverbatim
  40:App/STM32F4-Discovery/Libraries/STM32F4xx_StdPeriph_Driver/src/stm32f4xx_rcc.c ****   *    
  41:App/STM32F4-Discovery/Libraries/STM32F4xx_StdPeriph_Driver/src/stm32f4xx_rcc.c ****   ******************************************************************************
  42:App/STM32F4-Discovery/Libraries/STM32F4xx_StdPeriph_Driver/src/stm32f4xx_rcc.c ****   * @attention
  43:App/STM32F4-Discovery/Libraries/STM32F4xx_StdPeriph_Driver/src/stm32f4xx_rcc.c ****   *
  44:App/STM32F4-Discovery/Libraries/STM32F4xx_StdPeriph_Driver/src/stm32f4xx_rcc.c ****   * THE PRESENT FIRMWARE WHICH IS FOR GUIDANCE ONLY AIMS AT PROVIDING CUSTOMERS
  45:App/STM32F4-Discovery/Libraries/STM32F4xx_StdPeriph_Driver/src/stm32f4xx_rcc.c ****   * WITH CODING INFORMATION REGARDING THEIR PRODUCTS IN ORDER FOR THEM TO SAVE
  46:App/STM32F4-Discovery/Libraries/STM32F4xx_StdPeriph_Driver/src/stm32f4xx_rcc.c ****   * TIME. AS A RESULT, STMICROELECTRONICS SHALL NOT BE HELD LIABLE FOR ANY
  47:App/STM32F4-Discovery/Libraries/STM32F4xx_StdPeriph_Driver/src/stm32f4xx_rcc.c ****   * DIRECT, INDIRECT OR CONSEQUENTIAL DAMAGES WITH RESPECT TO ANY CLAIMS ARISING
  48:App/STM32F4-Discovery/Libraries/STM32F4xx_StdPeriph_Driver/src/stm32f4xx_rcc.c ****   * FROM THE CONTENT OF SUCH FIRMWARE AND/OR THE USE MADE BY CUSTOMERS OF THE
  49:App/STM32F4-Discovery/Libraries/STM32F4xx_StdPeriph_Driver/src/stm32f4xx_rcc.c ****   * CODING INFORMATION CONTAINED HEREIN IN CONNECTION WITH THEIR PRODUCTS.
  50:App/STM32F4-Discovery/Libraries/STM32F4xx_StdPeriph_Driver/src/stm32f4xx_rcc.c ****   *
  51:App/STM32F4-Discovery/Libraries/STM32F4xx_StdPeriph_Driver/src/stm32f4xx_rcc.c ****   * <h2><center>&copy; COPYRIGHT 2011 STMicroelectronics</center></h2>
  52:App/STM32F4-Discovery/Libraries/STM32F4xx_StdPeriph_Driver/src/stm32f4xx_rcc.c ****   ******************************************************************************
  53:App/STM32F4-Discovery/Libraries/STM32F4xx_StdPeriph_Driver/src/stm32f4xx_rcc.c ****   */
  54:App/STM32F4-Discovery/Libraries/STM32F4xx_StdPeriph_Driver/src/stm32f4xx_rcc.c **** 
  55:App/STM32F4-Discovery/Libraries/STM32F4xx_StdPeriph_Driver/src/stm32f4xx_rcc.c **** /* Includes ------------------------------------------------------------------*/
  56:App/STM32F4-Discovery/Libraries/STM32F4xx_StdPeriph_Driver/src/stm32f4xx_rcc.c **** #include "stm32f4xx_rcc.h"
  57:App/STM32F4-Discovery/Libraries/STM32F4xx_StdPeriph_Driver/src/stm32f4xx_rcc.c **** 
  58:App/STM32F4-Discovery/Libraries/STM32F4xx_StdPeriph_Driver/src/stm32f4xx_rcc.c **** /** @addtogroup STM32F4xx_StdPeriph_Driver
  59:App/STM32F4-Discovery/Libraries/STM32F4xx_StdPeriph_Driver/src/stm32f4xx_rcc.c ****   * @{
  60:App/STM32F4-Discovery/Libraries/STM32F4xx_StdPeriph_Driver/src/stm32f4xx_rcc.c ****   */
  61:App/STM32F4-Discovery/Libraries/STM32F4xx_StdPeriph_Driver/src/stm32f4xx_rcc.c **** 
  62:App/STM32F4-Discovery/Libraries/STM32F4xx_StdPeriph_Driver/src/stm32f4xx_rcc.c **** /** @defgroup RCC 
  63:App/STM32F4-Discovery/Libraries/STM32F4xx_StdPeriph_Driver/src/stm32f4xx_rcc.c ****   * @brief RCC driver modules
  64:App/STM32F4-Discovery/Libraries/STM32F4xx_StdPeriph_Driver/src/stm32f4xx_rcc.c ****   * @{
  65:App/STM32F4-Discovery/Libraries/STM32F4xx_StdPeriph_Driver/src/stm32f4xx_rcc.c ****   */ 
  66:App/STM32F4-Discovery/Libraries/STM32F4xx_StdPeriph_Driver/src/stm32f4xx_rcc.c **** 
  67:App/STM32F4-Discovery/Libraries/STM32F4xx_StdPeriph_Driver/src/stm32f4xx_rcc.c **** /* Private typedef -----------------------------------------------------------*/
  68:App/STM32F4-Discovery/Libraries/STM32F4xx_StdPeriph_Driver/src/stm32f4xx_rcc.c **** /* Private define ------------------------------------------------------------*/
  69:App/STM32F4-Discovery/Libraries/STM32F4xx_StdPeriph_Driver/src/stm32f4xx_rcc.c **** /* ------------ RCC registers bit address in the alias region ----------- */
  70:App/STM32F4-Discovery/Libraries/STM32F4xx_StdPeriph_Driver/src/stm32f4xx_rcc.c **** #define RCC_OFFSET                (RCC_BASE - PERIPH_BASE)
  71:App/STM32F4-Discovery/Libraries/STM32F4xx_StdPeriph_Driver/src/stm32f4xx_rcc.c **** /* --- CR Register ---*/
  72:App/STM32F4-Discovery/Libraries/STM32F4xx_StdPeriph_Driver/src/stm32f4xx_rcc.c **** /* Alias word address of HSION bit */
  73:App/STM32F4-Discovery/Libraries/STM32F4xx_StdPeriph_Driver/src/stm32f4xx_rcc.c **** #define CR_OFFSET                 (RCC_OFFSET + 0x00)
  74:App/STM32F4-Discovery/Libraries/STM32F4xx_StdPeriph_Driver/src/stm32f4xx_rcc.c **** #define HSION_BitNumber           0x00
  75:App/STM32F4-Discovery/Libraries/STM32F4xx_StdPeriph_Driver/src/stm32f4xx_rcc.c **** #define CR_HSION_BB               (PERIPH_BB_BASE + (CR_OFFSET * 32) + (HSION_BitNumber * 4))
  76:App/STM32F4-Discovery/Libraries/STM32F4xx_StdPeriph_Driver/src/stm32f4xx_rcc.c **** /* Alias word address of CSSON bit */
  77:App/STM32F4-Discovery/Libraries/STM32F4xx_StdPeriph_Driver/src/stm32f4xx_rcc.c **** #define CSSON_BitNumber           0x13
  78:App/STM32F4-Discovery/Libraries/STM32F4xx_StdPeriph_Driver/src/stm32f4xx_rcc.c **** #define CR_CSSON_BB               (PERIPH_BB_BASE + (CR_OFFSET * 32) + (CSSON_BitNumber * 4))
  79:App/STM32F4-Discovery/Libraries/STM32F4xx_StdPeriph_Driver/src/stm32f4xx_rcc.c **** /* Alias word address of PLLON bit */
  80:App/STM32F4-Discovery/Libraries/STM32F4xx_StdPeriph_Driver/src/stm32f4xx_rcc.c **** #define PLLON_BitNumber           0x18
  81:App/STM32F4-Discovery/Libraries/STM32F4xx_StdPeriph_Driver/src/stm32f4xx_rcc.c **** #define CR_PLLON_BB               (PERIPH_BB_BASE + (CR_OFFSET * 32) + (PLLON_BitNumber * 4))
  82:App/STM32F4-Discovery/Libraries/STM32F4xx_StdPeriph_Driver/src/stm32f4xx_rcc.c **** /* Alias word address of PLLI2SON bit */
  83:App/STM32F4-Discovery/Libraries/STM32F4xx_StdPeriph_Driver/src/stm32f4xx_rcc.c **** #define PLLI2SON_BitNumber        0x1A
  84:App/STM32F4-Discovery/Libraries/STM32F4xx_StdPeriph_Driver/src/stm32f4xx_rcc.c **** #define CR_PLLI2SON_BB            (PERIPH_BB_BASE + (CR_OFFSET * 32) + (PLLI2SON_BitNumber * 4))
  85:App/STM32F4-Discovery/Libraries/STM32F4xx_StdPeriph_Driver/src/stm32f4xx_rcc.c **** 
  86:App/STM32F4-Discovery/Libraries/STM32F4xx_StdPeriph_Driver/src/stm32f4xx_rcc.c **** /* --- CFGR Register ---*/
  87:App/STM32F4-Discovery/Libraries/STM32F4xx_StdPeriph_Driver/src/stm32f4xx_rcc.c **** /* Alias word address of I2SSRC bit */
  88:App/STM32F4-Discovery/Libraries/STM32F4xx_StdPeriph_Driver/src/stm32f4xx_rcc.c **** #define CFGR_OFFSET               (RCC_OFFSET + 0x08)
  89:App/STM32F4-Discovery/Libraries/STM32F4xx_StdPeriph_Driver/src/stm32f4xx_rcc.c **** #define I2SSRC_BitNumber          0x17
  90:App/STM32F4-Discovery/Libraries/STM32F4xx_StdPeriph_Driver/src/stm32f4xx_rcc.c **** #define CFGR_I2SSRC_BB            (PERIPH_BB_BASE + (CFGR_OFFSET * 32) + (I2SSRC_BitNumber * 4))
  91:App/STM32F4-Discovery/Libraries/STM32F4xx_StdPeriph_Driver/src/stm32f4xx_rcc.c **** 
  92:App/STM32F4-Discovery/Libraries/STM32F4xx_StdPeriph_Driver/src/stm32f4xx_rcc.c **** /* --- BDCR Register ---*/
  93:App/STM32F4-Discovery/Libraries/STM32F4xx_StdPeriph_Driver/src/stm32f4xx_rcc.c **** /* Alias word address of RTCEN bit */
  94:App/STM32F4-Discovery/Libraries/STM32F4xx_StdPeriph_Driver/src/stm32f4xx_rcc.c **** #define BDCR_OFFSET               (RCC_OFFSET + 0x70)
  95:App/STM32F4-Discovery/Libraries/STM32F4xx_StdPeriph_Driver/src/stm32f4xx_rcc.c **** #define RTCEN_BitNumber           0x0F
  96:App/STM32F4-Discovery/Libraries/STM32F4xx_StdPeriph_Driver/src/stm32f4xx_rcc.c **** #define BDCR_RTCEN_BB             (PERIPH_BB_BASE + (BDCR_OFFSET * 32) + (RTCEN_BitNumber * 4))
  97:App/STM32F4-Discovery/Libraries/STM32F4xx_StdPeriph_Driver/src/stm32f4xx_rcc.c **** /* Alias word address of BDRST bit */
  98:App/STM32F4-Discovery/Libraries/STM32F4xx_StdPeriph_Driver/src/stm32f4xx_rcc.c **** #define BDRST_BitNumber           0x10
  99:App/STM32F4-Discovery/Libraries/STM32F4xx_StdPeriph_Driver/src/stm32f4xx_rcc.c **** #define BDCR_BDRST_BB             (PERIPH_BB_BASE + (BDCR_OFFSET * 32) + (BDRST_BitNumber * 4))
 100:App/STM32F4-Discovery/Libraries/STM32F4xx_StdPeriph_Driver/src/stm32f4xx_rcc.c **** /* --- CSR Register ---*/
 101:App/STM32F4-Discovery/Libraries/STM32F4xx_StdPeriph_Driver/src/stm32f4xx_rcc.c **** /* Alias word address of LSION bit */
 102:App/STM32F4-Discovery/Libraries/STM32F4xx_StdPeriph_Driver/src/stm32f4xx_rcc.c **** #define CSR_OFFSET                (RCC_OFFSET + 0x74)
 103:App/STM32F4-Discovery/Libraries/STM32F4xx_StdPeriph_Driver/src/stm32f4xx_rcc.c **** #define LSION_BitNumber           0x00
 104:App/STM32F4-Discovery/Libraries/STM32F4xx_StdPeriph_Driver/src/stm32f4xx_rcc.c **** #define CSR_LSION_BB              (PERIPH_BB_BASE + (CSR_OFFSET * 32) + (LSION_BitNumber * 4))
 105:App/STM32F4-Discovery/Libraries/STM32F4xx_StdPeriph_Driver/src/stm32f4xx_rcc.c **** /* ---------------------- RCC registers bit mask ------------------------ */
 106:App/STM32F4-Discovery/Libraries/STM32F4xx_StdPeriph_Driver/src/stm32f4xx_rcc.c **** /* CFGR register bit mask */
 107:App/STM32F4-Discovery/Libraries/STM32F4xx_StdPeriph_Driver/src/stm32f4xx_rcc.c **** #define CFGR_MCO2_RESET_MASK      ((uint32_t)0x07FFFFFF)
 108:App/STM32F4-Discovery/Libraries/STM32F4xx_StdPeriph_Driver/src/stm32f4xx_rcc.c **** #define CFGR_MCO1_RESET_MASK      ((uint32_t)0xF89FFFFF)
 109:App/STM32F4-Discovery/Libraries/STM32F4xx_StdPeriph_Driver/src/stm32f4xx_rcc.c **** 
 110:App/STM32F4-Discovery/Libraries/STM32F4xx_StdPeriph_Driver/src/stm32f4xx_rcc.c **** /* RCC Flag Mask */
 111:App/STM32F4-Discovery/Libraries/STM32F4xx_StdPeriph_Driver/src/stm32f4xx_rcc.c **** #define FLAG_MASK                 ((uint8_t)0x1F)
 112:App/STM32F4-Discovery/Libraries/STM32F4xx_StdPeriph_Driver/src/stm32f4xx_rcc.c **** 
 113:App/STM32F4-Discovery/Libraries/STM32F4xx_StdPeriph_Driver/src/stm32f4xx_rcc.c **** /* CR register byte 3 (Bits[23:16]) base address */
 114:App/STM32F4-Discovery/Libraries/STM32F4xx_StdPeriph_Driver/src/stm32f4xx_rcc.c **** #define CR_BYTE3_ADDRESS          ((uint32_t)0x40023802)
 115:App/STM32F4-Discovery/Libraries/STM32F4xx_StdPeriph_Driver/src/stm32f4xx_rcc.c **** 
 116:App/STM32F4-Discovery/Libraries/STM32F4xx_StdPeriph_Driver/src/stm32f4xx_rcc.c **** /* CIR register byte 2 (Bits[15:8]) base address */
 117:App/STM32F4-Discovery/Libraries/STM32F4xx_StdPeriph_Driver/src/stm32f4xx_rcc.c **** #define CIR_BYTE2_ADDRESS         ((uint32_t)(RCC_BASE + 0x0C + 0x01))
 118:App/STM32F4-Discovery/Libraries/STM32F4xx_StdPeriph_Driver/src/stm32f4xx_rcc.c **** 
 119:App/STM32F4-Discovery/Libraries/STM32F4xx_StdPeriph_Driver/src/stm32f4xx_rcc.c **** /* CIR register byte 3 (Bits[23:16]) base address */
 120:App/STM32F4-Discovery/Libraries/STM32F4xx_StdPeriph_Driver/src/stm32f4xx_rcc.c **** #define CIR_BYTE3_ADDRESS         ((uint32_t)(RCC_BASE + 0x0C + 0x02))
 121:App/STM32F4-Discovery/Libraries/STM32F4xx_StdPeriph_Driver/src/stm32f4xx_rcc.c **** 
 122:App/STM32F4-Discovery/Libraries/STM32F4xx_StdPeriph_Driver/src/stm32f4xx_rcc.c **** /* BDCR register base address */
 123:App/STM32F4-Discovery/Libraries/STM32F4xx_StdPeriph_Driver/src/stm32f4xx_rcc.c **** #define BDCR_ADDRESS              (PERIPH_BASE + BDCR_OFFSET)
 124:App/STM32F4-Discovery/Libraries/STM32F4xx_StdPeriph_Driver/src/stm32f4xx_rcc.c **** 
 125:App/STM32F4-Discovery/Libraries/STM32F4xx_StdPeriph_Driver/src/stm32f4xx_rcc.c **** /* Private macro -------------------------------------------------------------*/
 126:App/STM32F4-Discovery/Libraries/STM32F4xx_StdPeriph_Driver/src/stm32f4xx_rcc.c **** /* Private variables ---------------------------------------------------------*/
 127:App/STM32F4-Discovery/Libraries/STM32F4xx_StdPeriph_Driver/src/stm32f4xx_rcc.c **** static __I uint8_t APBAHBPrescTable[16] = {0, 0, 0, 0, 1, 2, 3, 4, 1, 2, 3, 4, 6, 7, 8, 9};
 128:App/STM32F4-Discovery/Libraries/STM32F4xx_StdPeriph_Driver/src/stm32f4xx_rcc.c **** 
 129:App/STM32F4-Discovery/Libraries/STM32F4xx_StdPeriph_Driver/src/stm32f4xx_rcc.c **** /* Private function prototypes -----------------------------------------------*/
 130:App/STM32F4-Discovery/Libraries/STM32F4xx_StdPeriph_Driver/src/stm32f4xx_rcc.c **** /* Private functions ---------------------------------------------------------*/
 131:App/STM32F4-Discovery/Libraries/STM32F4xx_StdPeriph_Driver/src/stm32f4xx_rcc.c **** 
 132:App/STM32F4-Discovery/Libraries/STM32F4xx_StdPeriph_Driver/src/stm32f4xx_rcc.c **** /** @defgroup RCC_Private_Functions
 133:App/STM32F4-Discovery/Libraries/STM32F4xx_StdPeriph_Driver/src/stm32f4xx_rcc.c ****   * @{
 134:App/STM32F4-Discovery/Libraries/STM32F4xx_StdPeriph_Driver/src/stm32f4xx_rcc.c ****   */ 
 135:App/STM32F4-Discovery/Libraries/STM32F4xx_StdPeriph_Driver/src/stm32f4xx_rcc.c **** 
 136:App/STM32F4-Discovery/Libraries/STM32F4xx_StdPeriph_Driver/src/stm32f4xx_rcc.c **** /** @defgroup RCC_Group1 Internal and external clocks, PLL, CSS and MCO configuration functions
 137:App/STM32F4-Discovery/Libraries/STM32F4xx_StdPeriph_Driver/src/stm32f4xx_rcc.c ****  *  @brief   Internal and external clocks, PLL, CSS and MCO configuration functions 
 138:App/STM32F4-Discovery/Libraries/STM32F4xx_StdPeriph_Driver/src/stm32f4xx_rcc.c ****  *
 139:App/STM32F4-Discovery/Libraries/STM32F4xx_StdPeriph_Driver/src/stm32f4xx_rcc.c **** @verbatim   
 140:App/STM32F4-Discovery/Libraries/STM32F4xx_StdPeriph_Driver/src/stm32f4xx_rcc.c ****  ===============================================================================
 141:App/STM32F4-Discovery/Libraries/STM32F4xx_StdPeriph_Driver/src/stm32f4xx_rcc.c ****       Internal/external clocks, PLL, CSS and MCO configuration functions
 142:App/STM32F4-Discovery/Libraries/STM32F4xx_StdPeriph_Driver/src/stm32f4xx_rcc.c ****  ===============================================================================  
 143:App/STM32F4-Discovery/Libraries/STM32F4xx_StdPeriph_Driver/src/stm32f4xx_rcc.c **** 
 144:App/STM32F4-Discovery/Libraries/STM32F4xx_StdPeriph_Driver/src/stm32f4xx_rcc.c ****   This section provide functions allowing to configure the internal/external clocks,
 145:App/STM32F4-Discovery/Libraries/STM32F4xx_StdPeriph_Driver/src/stm32f4xx_rcc.c ****   PLLs, CSS and MCO pins.
 146:App/STM32F4-Discovery/Libraries/STM32F4xx_StdPeriph_Driver/src/stm32f4xx_rcc.c ****   
 147:App/STM32F4-Discovery/Libraries/STM32F4xx_StdPeriph_Driver/src/stm32f4xx_rcc.c ****   1. HSI (high-speed internal), 16 MHz factory-trimmed RC used directly or through
 148:App/STM32F4-Discovery/Libraries/STM32F4xx_StdPeriph_Driver/src/stm32f4xx_rcc.c ****      the PLL as System clock source.
 149:App/STM32F4-Discovery/Libraries/STM32F4xx_StdPeriph_Driver/src/stm32f4xx_rcc.c **** 
 150:App/STM32F4-Discovery/Libraries/STM32F4xx_StdPeriph_Driver/src/stm32f4xx_rcc.c ****   2. LSI (low-speed internal), 32 KHz low consumption RC used as IWDG and/or RTC
 151:App/STM32F4-Discovery/Libraries/STM32F4xx_StdPeriph_Driver/src/stm32f4xx_rcc.c ****      clock source.
 152:App/STM32F4-Discovery/Libraries/STM32F4xx_StdPeriph_Driver/src/stm32f4xx_rcc.c **** 
 153:App/STM32F4-Discovery/Libraries/STM32F4xx_StdPeriph_Driver/src/stm32f4xx_rcc.c ****   3. HSE (high-speed external), 4 to 26 MHz crystal oscillator used directly or
 154:App/STM32F4-Discovery/Libraries/STM32F4xx_StdPeriph_Driver/src/stm32f4xx_rcc.c ****      through the PLL as System clock source. Can be used also as RTC clock source.
 155:App/STM32F4-Discovery/Libraries/STM32F4xx_StdPeriph_Driver/src/stm32f4xx_rcc.c **** 
 156:App/STM32F4-Discovery/Libraries/STM32F4xx_StdPeriph_Driver/src/stm32f4xx_rcc.c ****   4. LSE (low-speed external), 32 KHz oscillator used as RTC clock source.   
 157:App/STM32F4-Discovery/Libraries/STM32F4xx_StdPeriph_Driver/src/stm32f4xx_rcc.c **** 
 158:App/STM32F4-Discovery/Libraries/STM32F4xx_StdPeriph_Driver/src/stm32f4xx_rcc.c ****   5. PLL (clocked by HSI or HSE), featuring two different output clocks:
 159:App/STM32F4-Discovery/Libraries/STM32F4xx_StdPeriph_Driver/src/stm32f4xx_rcc.c ****       - The first output is used to generate the high speed system clock (up to 168 MHz)
 160:App/STM32F4-Discovery/Libraries/STM32F4xx_StdPeriph_Driver/src/stm32f4xx_rcc.c ****       - The second output is used to generate the clock for the USB OTG FS (48 MHz),
 161:App/STM32F4-Discovery/Libraries/STM32F4xx_StdPeriph_Driver/src/stm32f4xx_rcc.c ****         the random analog generator (<=48 MHz) and the SDIO (<= 48 MHz).
 162:App/STM32F4-Discovery/Libraries/STM32F4xx_StdPeriph_Driver/src/stm32f4xx_rcc.c **** 
 163:App/STM32F4-Discovery/Libraries/STM32F4xx_StdPeriph_Driver/src/stm32f4xx_rcc.c ****   6. PLLI2S (clocked by HSI or HSE), used to generate an accurate clock to achieve 
 164:App/STM32F4-Discovery/Libraries/STM32F4xx_StdPeriph_Driver/src/stm32f4xx_rcc.c ****      high-quality audio performance on the I2S interface.
 165:App/STM32F4-Discovery/Libraries/STM32F4xx_StdPeriph_Driver/src/stm32f4xx_rcc.c ****   
 166:App/STM32F4-Discovery/Libraries/STM32F4xx_StdPeriph_Driver/src/stm32f4xx_rcc.c ****   7. CSS (Clock security system), once enable and if a HSE clock failure occurs 
 167:App/STM32F4-Discovery/Libraries/STM32F4xx_StdPeriph_Driver/src/stm32f4xx_rcc.c ****      (HSE used directly or through PLL as System clock source), the System clock
 168:App/STM32F4-Discovery/Libraries/STM32F4xx_StdPeriph_Driver/src/stm32f4xx_rcc.c ****      is automatically switched to HSI and an interrupt is generated if enabled. 
 169:App/STM32F4-Discovery/Libraries/STM32F4xx_StdPeriph_Driver/src/stm32f4xx_rcc.c ****      The interrupt is linked to the Cortex-M4 NMI (Non-Maskable Interrupt) 
 170:App/STM32F4-Discovery/Libraries/STM32F4xx_StdPeriph_Driver/src/stm32f4xx_rcc.c ****      exception vector.   
 171:App/STM32F4-Discovery/Libraries/STM32F4xx_StdPeriph_Driver/src/stm32f4xx_rcc.c **** 
 172:App/STM32F4-Discovery/Libraries/STM32F4xx_StdPeriph_Driver/src/stm32f4xx_rcc.c ****   8. MCO1 (microcontroller clock output), used to output HSI, LSE, HSE or PLL
 173:App/STM32F4-Discovery/Libraries/STM32F4xx_StdPeriph_Driver/src/stm32f4xx_rcc.c ****      clock (through a configurable prescaler) on PA8 pin.
 174:App/STM32F4-Discovery/Libraries/STM32F4xx_StdPeriph_Driver/src/stm32f4xx_rcc.c **** 
 175:App/STM32F4-Discovery/Libraries/STM32F4xx_StdPeriph_Driver/src/stm32f4xx_rcc.c ****   9. MCO2 (microcontroller clock output), used to output HSE, PLL, SYSCLK or PLLI2S
 176:App/STM32F4-Discovery/Libraries/STM32F4xx_StdPeriph_Driver/src/stm32f4xx_rcc.c ****      clock (through a configurable prescaler) on PC9 pin.
 177:App/STM32F4-Discovery/Libraries/STM32F4xx_StdPeriph_Driver/src/stm32f4xx_rcc.c **** 
 178:App/STM32F4-Discovery/Libraries/STM32F4xx_StdPeriph_Driver/src/stm32f4xx_rcc.c **** @endverbatim
 179:App/STM32F4-Discovery/Libraries/STM32F4xx_StdPeriph_Driver/src/stm32f4xx_rcc.c ****   * @{
 180:App/STM32F4-Discovery/Libraries/STM32F4xx_StdPeriph_Driver/src/stm32f4xx_rcc.c ****   */
 181:App/STM32F4-Discovery/Libraries/STM32F4xx_StdPeriph_Driver/src/stm32f4xx_rcc.c **** 
 182:App/STM32F4-Discovery/Libraries/STM32F4xx_StdPeriph_Driver/src/stm32f4xx_rcc.c **** /**
 183:App/STM32F4-Discovery/Libraries/STM32F4xx_StdPeriph_Driver/src/stm32f4xx_rcc.c ****   * @brief  Resets the RCC clock configuration to the default reset state.
 184:App/STM32F4-Discovery/Libraries/STM32F4xx_StdPeriph_Driver/src/stm32f4xx_rcc.c ****   * @note   The default reset state of the clock configuration is given below:
 185:App/STM32F4-Discovery/Libraries/STM32F4xx_StdPeriph_Driver/src/stm32f4xx_rcc.c ****   *            - HSI ON and used as system clock source
 186:App/STM32F4-Discovery/Libraries/STM32F4xx_StdPeriph_Driver/src/stm32f4xx_rcc.c ****   *            - HSE, PLL and PLLI2S OFF
 187:App/STM32F4-Discovery/Libraries/STM32F4xx_StdPeriph_Driver/src/stm32f4xx_rcc.c ****   *            - AHB, APB1 and APB2 prescaler set to 1.
 188:App/STM32F4-Discovery/Libraries/STM32F4xx_StdPeriph_Driver/src/stm32f4xx_rcc.c ****   *            - CSS, MCO1 and MCO2 OFF
 189:App/STM32F4-Discovery/Libraries/STM32F4xx_StdPeriph_Driver/src/stm32f4xx_rcc.c ****   *            - All interrupts disabled
 190:App/STM32F4-Discovery/Libraries/STM32F4xx_StdPeriph_Driver/src/stm32f4xx_rcc.c ****   * @note   This function doesn't modify the configuration of the
 191:App/STM32F4-Discovery/Libraries/STM32F4xx_StdPeriph_Driver/src/stm32f4xx_rcc.c ****   *            - Peripheral clocks
 192:App/STM32F4-Discovery/Libraries/STM32F4xx_StdPeriph_Driver/src/stm32f4xx_rcc.c ****   *            - LSI, LSE and RTC clocks 
 193:App/STM32F4-Discovery/Libraries/STM32F4xx_StdPeriph_Driver/src/stm32f4xx_rcc.c ****   * @param  None
 194:App/STM32F4-Discovery/Libraries/STM32F4xx_StdPeriph_Driver/src/stm32f4xx_rcc.c ****   * @retval None
 195:App/STM32F4-Discovery/Libraries/STM32F4xx_StdPeriph_Driver/src/stm32f4xx_rcc.c ****   */
 196:App/STM32F4-Discovery/Libraries/STM32F4xx_StdPeriph_Driver/src/stm32f4xx_rcc.c **** void RCC_DeInit(void)
 197:App/STM32F4-Discovery/Libraries/STM32F4xx_StdPeriph_Driver/src/stm32f4xx_rcc.c **** {
  49              		.loc 1 197 0
  50              		.cfi_startproc
  51              		@ args = 0, pretend = 0, frame = 0
  52              		@ frame_needed = 1, uses_anonymous_args = 0
  53              		@ link register save eliminated.
  54 0000 80B4     		push	{r7}
  55              	.LCFI0:
  56              		.cfi_def_cfa_offset 4
  57              		.cfi_offset 7, -4
  58 0002 00AF     		add	r7, sp, #0
  59              	.LCFI1:
  60              		.cfi_def_cfa_register 7
 198:App/STM32F4-Discovery/Libraries/STM32F4xx_StdPeriph_Driver/src/stm32f4xx_rcc.c ****   /* Set HSION bit */
 199:App/STM32F4-Discovery/Libraries/STM32F4xx_StdPeriph_Driver/src/stm32f4xx_rcc.c ****   RCC->CR |= (uint32_t)0x00000001;
  61              		.loc 1 199 0
  62 0004 4FF46053 		mov	r3, #14336
  63 0008 C4F20203 		movt	r3, 16386
  64 000c 4FF46052 		mov	r2, #14336
  65 0010 C4F20202 		movt	r2, 16386
  66 0014 1268     		ldr	r2, [r2, #0]
  67 0016 42F00102 		orr	r2, r2, #1
  68 001a 1A60     		str	r2, [r3, #0]
 200:App/STM32F4-Discovery/Libraries/STM32F4xx_StdPeriph_Driver/src/stm32f4xx_rcc.c **** 
 201:App/STM32F4-Discovery/Libraries/STM32F4xx_StdPeriph_Driver/src/stm32f4xx_rcc.c ****   /* Reset CFGR register */
 202:App/STM32F4-Discovery/Libraries/STM32F4xx_StdPeriph_Driver/src/stm32f4xx_rcc.c ****   RCC->CFGR = 0x00000000;
  69              		.loc 1 202 0
  70 001c 4FF46053 		mov	r3, #14336
  71 0020 C4F20203 		movt	r3, 16386
  72 0024 4FF00002 		mov	r2, #0
  73 0028 9A60     		str	r2, [r3, #8]
 203:App/STM32F4-Discovery/Libraries/STM32F4xx_StdPeriph_Driver/src/stm32f4xx_rcc.c **** 
 204:App/STM32F4-Discovery/Libraries/STM32F4xx_StdPeriph_Driver/src/stm32f4xx_rcc.c ****   /* Reset HSEON, CSSON and PLLON bits */
 205:App/STM32F4-Discovery/Libraries/STM32F4xx_StdPeriph_Driver/src/stm32f4xx_rcc.c ****   RCC->CR &= (uint32_t)0xFEF6FFFF;
  74              		.loc 1 205 0
  75 002a 4FF46053 		mov	r3, #14336
  76 002e C4F20203 		movt	r3, 16386
  77 0032 4FF46052 		mov	r2, #14336
  78 0036 C4F20202 		movt	r2, 16386
  79 003a 1268     		ldr	r2, [r2, #0]
  80 003c 22F08472 		bic	r2, r2, #17301504
  81 0040 22F48032 		bic	r2, r2, #65536
  82 0044 1A60     		str	r2, [r3, #0]
 206:App/STM32F4-Discovery/Libraries/STM32F4xx_StdPeriph_Driver/src/stm32f4xx_rcc.c **** 
 207:App/STM32F4-Discovery/Libraries/STM32F4xx_StdPeriph_Driver/src/stm32f4xx_rcc.c ****   /* Reset PLLCFGR register */
 208:App/STM32F4-Discovery/Libraries/STM32F4xx_StdPeriph_Driver/src/stm32f4xx_rcc.c ****   RCC->PLLCFGR = 0x24003010;
  83              		.loc 1 208 0
  84 0046 4FF46053 		mov	r3, #14336
  85 004a C4F20203 		movt	r3, 16386
  86 004e 43F21002 		movw	r2, #12304
  87 0052 C2F20042 		movt	r2, 9216
  88 0056 5A60     		str	r2, [r3, #4]
 209:App/STM32F4-Discovery/Libraries/STM32F4xx_StdPeriph_Driver/src/stm32f4xx_rcc.c **** 
 210:App/STM32F4-Discovery/Libraries/STM32F4xx_StdPeriph_Driver/src/stm32f4xx_rcc.c ****   /* Reset HSEBYP bit */
 211:App/STM32F4-Discovery/Libraries/STM32F4xx_StdPeriph_Driver/src/stm32f4xx_rcc.c ****   RCC->CR &= (uint32_t)0xFFFBFFFF;
  89              		.loc 1 211 0
  90 0058 4FF46053 		mov	r3, #14336
  91 005c C4F20203 		movt	r3, 16386
  92 0060 4FF46052 		mov	r2, #14336
  93 0064 C4F20202 		movt	r2, 16386
  94 0068 1268     		ldr	r2, [r2, #0]
  95 006a 22F48022 		bic	r2, r2, #262144
  96 006e 1A60     		str	r2, [r3, #0]
 212:App/STM32F4-Discovery/Libraries/STM32F4xx_StdPeriph_Driver/src/stm32f4xx_rcc.c **** 
 213:App/STM32F4-Discovery/Libraries/STM32F4xx_StdPeriph_Driver/src/stm32f4xx_rcc.c ****   /* Disable all interrupts */
 214:App/STM32F4-Discovery/Libraries/STM32F4xx_StdPeriph_Driver/src/stm32f4xx_rcc.c ****   RCC->CIR = 0x00000000;
  97              		.loc 1 214 0
  98 0070 4FF46053 		mov	r3, #14336
  99 0074 C4F20203 		movt	r3, 16386
 100 0078 4FF00002 		mov	r2, #0
 101 007c DA60     		str	r2, [r3, #12]
 215:App/STM32F4-Discovery/Libraries/STM32F4xx_StdPeriph_Driver/src/stm32f4xx_rcc.c **** }
 102              		.loc 1 215 0
 103 007e BD46     		mov	sp, r7
 104 0080 80BC     		pop	{r7}
 105 0082 7047     		bx	lr
 106              		.cfi_endproc
 107              	.LFE110:
 109              		.section	.rodata
 110              		.align	2
 111              	.LC0:
 112 0000 4170702F 		.ascii	"App/STM32F4-Discovery/Libraries/STM32F4xx_StdPeriph"
 112      53544D33 
 112      3246342D 
 112      44697363 
 112      6F766572 
 113 0033 5F447269 		.ascii	"_Driver/src/stm32f4xx_rcc.c\000"
 113      7665722F 
 113      7372632F 
 113      73746D33 
 113      32663478 
 114 004f 00       		.section	.text.RCC_HSEConfig,"ax",%progbits
 115              		.align	2
 116              		.global	RCC_HSEConfig
 117              		.thumb
 118              		.thumb_func
 120              	RCC_HSEConfig:
 121              	.LFB111:
 216:App/STM32F4-Discovery/Libraries/STM32F4xx_StdPeriph_Driver/src/stm32f4xx_rcc.c **** 
 217:App/STM32F4-Discovery/Libraries/STM32F4xx_StdPeriph_Driver/src/stm32f4xx_rcc.c **** /**
 218:App/STM32F4-Discovery/Libraries/STM32F4xx_StdPeriph_Driver/src/stm32f4xx_rcc.c ****   * @brief  Configures the External High Speed oscillator (HSE).
 219:App/STM32F4-Discovery/Libraries/STM32F4xx_StdPeriph_Driver/src/stm32f4xx_rcc.c ****   * @note   After enabling the HSE (RCC_HSE_ON or RCC_HSE_Bypass), the application
 220:App/STM32F4-Discovery/Libraries/STM32F4xx_StdPeriph_Driver/src/stm32f4xx_rcc.c ****   *         software should wait on HSERDY flag to be set indicating that HSE clock
 221:App/STM32F4-Discovery/Libraries/STM32F4xx_StdPeriph_Driver/src/stm32f4xx_rcc.c ****   *         is stable and can be used to clock the PLL and/or system clock.
 222:App/STM32F4-Discovery/Libraries/STM32F4xx_StdPeriph_Driver/src/stm32f4xx_rcc.c ****   * @note   HSE state can not be changed if it is used directly or through the
 223:App/STM32F4-Discovery/Libraries/STM32F4xx_StdPeriph_Driver/src/stm32f4xx_rcc.c ****   *         PLL as system clock. In this case, you have to select another source
 224:App/STM32F4-Discovery/Libraries/STM32F4xx_StdPeriph_Driver/src/stm32f4xx_rcc.c ****   *         of the system clock then change the HSE state (ex. disable it).
 225:App/STM32F4-Discovery/Libraries/STM32F4xx_StdPeriph_Driver/src/stm32f4xx_rcc.c ****   * @note   The HSE is stopped by hardware when entering STOP and STANDBY modes.  
 226:App/STM32F4-Discovery/Libraries/STM32F4xx_StdPeriph_Driver/src/stm32f4xx_rcc.c ****   * @note   This function reset the CSSON bit, so if the Clock security system(CSS)
 227:App/STM32F4-Discovery/Libraries/STM32F4xx_StdPeriph_Driver/src/stm32f4xx_rcc.c ****   *         was previously enabled you have to enable it again after calling this
 228:App/STM32F4-Discovery/Libraries/STM32F4xx_StdPeriph_Driver/src/stm32f4xx_rcc.c ****   *         function.    
 229:App/STM32F4-Discovery/Libraries/STM32F4xx_StdPeriph_Driver/src/stm32f4xx_rcc.c ****   * @param  RCC_HSE: specifies the new state of the HSE.
 230:App/STM32F4-Discovery/Libraries/STM32F4xx_StdPeriph_Driver/src/stm32f4xx_rcc.c ****   *          This parameter can be one of the following values:
 231:App/STM32F4-Discovery/Libraries/STM32F4xx_StdPeriph_Driver/src/stm32f4xx_rcc.c ****   *            @arg RCC_HSE_OFF: turn OFF the HSE oscillator, HSERDY flag goes low after
 232:App/STM32F4-Discovery/Libraries/STM32F4xx_StdPeriph_Driver/src/stm32f4xx_rcc.c ****   *                              6 HSE oscillator clock cycles.
 233:App/STM32F4-Discovery/Libraries/STM32F4xx_StdPeriph_Driver/src/stm32f4xx_rcc.c ****   *            @arg RCC_HSE_ON: turn ON the HSE oscillator
 234:App/STM32F4-Discovery/Libraries/STM32F4xx_StdPeriph_Driver/src/stm32f4xx_rcc.c ****   *            @arg RCC_HSE_Bypass: HSE oscillator bypassed with external clock
 235:App/STM32F4-Discovery/Libraries/STM32F4xx_StdPeriph_Driver/src/stm32f4xx_rcc.c ****   * @retval None
 236:App/STM32F4-Discovery/Libraries/STM32F4xx_StdPeriph_Driver/src/stm32f4xx_rcc.c ****   */
 237:App/STM32F4-Discovery/Libraries/STM32F4xx_StdPeriph_Driver/src/stm32f4xx_rcc.c **** void RCC_HSEConfig(uint8_t RCC_HSE)
 238:App/STM32F4-Discovery/Libraries/STM32F4xx_StdPeriph_Driver/src/stm32f4xx_rcc.c **** {
 122              		.loc 1 238 0
 123              		.cfi_startproc
 124              		@ args = 0, pretend = 0, frame = 8
 125              		@ frame_needed = 1, uses_anonymous_args = 0
 126 0000 80B5     		push	{r7, lr}
 127              	.LCFI2:
 128              		.cfi_def_cfa_offset 8
 129              		.cfi_offset 7, -8
 130              		.cfi_offset 14, -4
 131 0002 82B0     		sub	sp, sp, #8
 132              	.LCFI3:
 133              		.cfi_def_cfa_offset 16
 134 0004 00AF     		add	r7, sp, #0
 135              	.LCFI4:
 136              		.cfi_def_cfa_register 7
 137 0006 0346     		mov	r3, r0
 138 0008 FB71     		strb	r3, [r7, #7]
 239:App/STM32F4-Discovery/Libraries/STM32F4xx_StdPeriph_Driver/src/stm32f4xx_rcc.c ****   /* Check the parameters */
 240:App/STM32F4-Discovery/Libraries/STM32F4xx_StdPeriph_Driver/src/stm32f4xx_rcc.c ****   assert_param(IS_RCC_HSE(RCC_HSE));
 139              		.loc 1 240 0
 140 000a FB79     		ldrb	r3, [r7, #7]	@ zero_extendqisi2
 141 000c 002B     		cmp	r3, #0
 142 000e 0DD0     		beq	.L3
 143              		.loc 1 240 0 is_stmt 0 discriminator 1
 144 0010 FB79     		ldrb	r3, [r7, #7]	@ zero_extendqisi2
 145 0012 012B     		cmp	r3, #1
 146 0014 0AD0     		beq	.L3
 147              		.loc 1 240 0 discriminator 2
 148 0016 FB79     		ldrb	r3, [r7, #7]	@ zero_extendqisi2
 149 0018 052B     		cmp	r3, #5
 150 001a 07D0     		beq	.L3
 151              		.loc 1 240 0 discriminator 3
 152 001c 40F20000 		movw	r0, #:lower16:.LC0
 153 0020 C0F20000 		movt	r0, #:upper16:.LC0
 154 0024 4FF0F001 		mov	r1, #240
 155 0028 FFF7FEFF 		bl	assert_failed
 156              	.L3:
 241:App/STM32F4-Discovery/Libraries/STM32F4xx_StdPeriph_Driver/src/stm32f4xx_rcc.c **** 
 242:App/STM32F4-Discovery/Libraries/STM32F4xx_StdPeriph_Driver/src/stm32f4xx_rcc.c ****   /* Reset HSEON and HSEBYP bits before configuring the HSE ------------------*/
 243:App/STM32F4-Discovery/Libraries/STM32F4xx_StdPeriph_Driver/src/stm32f4xx_rcc.c ****   *(__IO uint8_t *) CR_BYTE3_ADDRESS = RCC_HSE_OFF;
 157              		.loc 1 243 0 is_stmt 1
 158 002c 43F60203 		movw	r3, #14338
 159 0030 C4F20203 		movt	r3, 16386
 160 0034 4FF00002 		mov	r2, #0
 161 0038 1A70     		strb	r2, [r3, #0]
 244:App/STM32F4-Discovery/Libraries/STM32F4xx_StdPeriph_Driver/src/stm32f4xx_rcc.c **** 
 245:App/STM32F4-Discovery/Libraries/STM32F4xx_StdPeriph_Driver/src/stm32f4xx_rcc.c ****   /* Set the new HSE configuration -------------------------------------------*/
 246:App/STM32F4-Discovery/Libraries/STM32F4xx_StdPeriph_Driver/src/stm32f4xx_rcc.c ****   *(__IO uint8_t *) CR_BYTE3_ADDRESS = RCC_HSE;
 162              		.loc 1 246 0
 163 003a 43F60203 		movw	r3, #14338
 164 003e C4F20203 		movt	r3, 16386
 165 0042 FA79     		ldrb	r2, [r7, #7]
 166 0044 1A70     		strb	r2, [r3, #0]
 247:App/STM32F4-Discovery/Libraries/STM32F4xx_StdPeriph_Driver/src/stm32f4xx_rcc.c **** }
 167              		.loc 1 247 0
 168 0046 07F10807 		add	r7, r7, #8
 169 004a BD46     		mov	sp, r7
 170 004c 80BD     		pop	{r7, pc}
 171              		.cfi_endproc
 172              	.LFE111:
 174 004e 00BF     		.section	.text.RCC_WaitForHSEStartUp,"ax",%progbits
 175              		.align	2
 176              		.global	RCC_WaitForHSEStartUp
 177              		.thumb
 178              		.thumb_func
 180              	RCC_WaitForHSEStartUp:
 181              	.LFB112:
 248:App/STM32F4-Discovery/Libraries/STM32F4xx_StdPeriph_Driver/src/stm32f4xx_rcc.c **** 
 249:App/STM32F4-Discovery/Libraries/STM32F4xx_StdPeriph_Driver/src/stm32f4xx_rcc.c **** /**
 250:App/STM32F4-Discovery/Libraries/STM32F4xx_StdPeriph_Driver/src/stm32f4xx_rcc.c ****   * @brief  Waits for HSE start-up.
 251:App/STM32F4-Discovery/Libraries/STM32F4xx_StdPeriph_Driver/src/stm32f4xx_rcc.c ****   * @note   This functions waits on HSERDY flag to be set and return SUCCESS if 
 252:App/STM32F4-Discovery/Libraries/STM32F4xx_StdPeriph_Driver/src/stm32f4xx_rcc.c ****   *         this flag is set, otherwise returns ERROR if the timeout is reached 
 253:App/STM32F4-Discovery/Libraries/STM32F4xx_StdPeriph_Driver/src/stm32f4xx_rcc.c ****   *         and this flag is not set. The timeout value is defined by the constant
 254:App/STM32F4-Discovery/Libraries/STM32F4xx_StdPeriph_Driver/src/stm32f4xx_rcc.c ****   *         HSE_STARTUP_TIMEOUT in stm32f4xx.h file. You can tailor it depending
 255:App/STM32F4-Discovery/Libraries/STM32F4xx_StdPeriph_Driver/src/stm32f4xx_rcc.c ****   *         on the HSE crystal used in your application. 
 256:App/STM32F4-Discovery/Libraries/STM32F4xx_StdPeriph_Driver/src/stm32f4xx_rcc.c ****   * @param  None
 257:App/STM32F4-Discovery/Libraries/STM32F4xx_StdPeriph_Driver/src/stm32f4xx_rcc.c ****   * @retval An ErrorStatus enumeration value:
 258:App/STM32F4-Discovery/Libraries/STM32F4xx_StdPeriph_Driver/src/stm32f4xx_rcc.c ****   *          - SUCCESS: HSE oscillator is stable and ready to use
 259:App/STM32F4-Discovery/Libraries/STM32F4xx_StdPeriph_Driver/src/stm32f4xx_rcc.c ****   *          - ERROR: HSE oscillator not yet ready
 260:App/STM32F4-Discovery/Libraries/STM32F4xx_StdPeriph_Driver/src/stm32f4xx_rcc.c ****   */
 261:App/STM32F4-Discovery/Libraries/STM32F4xx_StdPeriph_Driver/src/stm32f4xx_rcc.c **** ErrorStatus RCC_WaitForHSEStartUp(void)
 262:App/STM32F4-Discovery/Libraries/STM32F4xx_StdPeriph_Driver/src/stm32f4xx_rcc.c **** {
 182              		.loc 1 262 0
 183              		.cfi_startproc
 184              		@ args = 0, pretend = 0, frame = 8
 185              		@ frame_needed = 1, uses_anonymous_args = 0
 186 0000 80B5     		push	{r7, lr}
 187              	.LCFI5:
 188              		.cfi_def_cfa_offset 8
 189              		.cfi_offset 7, -8
 190              		.cfi_offset 14, -4
 191 0002 82B0     		sub	sp, sp, #8
 192              	.LCFI6:
 193              		.cfi_def_cfa_offset 16
 194 0004 00AF     		add	r7, sp, #0
 195              	.LCFI7:
 196              		.cfi_def_cfa_register 7
 263:App/STM32F4-Discovery/Libraries/STM32F4xx_StdPeriph_Driver/src/stm32f4xx_rcc.c ****   __IO uint32_t startupcounter = 0;
 197              		.loc 1 263 0
 198 0006 4FF00003 		mov	r3, #0
 199 000a 3B60     		str	r3, [r7, #0]
 264:App/STM32F4-Discovery/Libraries/STM32F4xx_StdPeriph_Driver/src/stm32f4xx_rcc.c ****   ErrorStatus status = ERROR;
 200              		.loc 1 264 0
 201 000c 4FF00003 		mov	r3, #0
 202 0010 FB71     		strb	r3, [r7, #7]
 265:App/STM32F4-Discovery/Libraries/STM32F4xx_StdPeriph_Driver/src/stm32f4xx_rcc.c ****   FlagStatus hsestatus = RESET;
 203              		.loc 1 265 0
 204 0012 4FF00003 		mov	r3, #0
 205 0016 BB71     		strb	r3, [r7, #6]
 206              	.L6:
 266:App/STM32F4-Discovery/Libraries/STM32F4xx_StdPeriph_Driver/src/stm32f4xx_rcc.c ****   /* Wait till HSE is ready and if Time out is reached exit */
 267:App/STM32F4-Discovery/Libraries/STM32F4xx_StdPeriph_Driver/src/stm32f4xx_rcc.c ****   do
 268:App/STM32F4-Discovery/Libraries/STM32F4xx_StdPeriph_Driver/src/stm32f4xx_rcc.c ****   {
 269:App/STM32F4-Discovery/Libraries/STM32F4xx_StdPeriph_Driver/src/stm32f4xx_rcc.c ****     hsestatus = RCC_GetFlagStatus(RCC_FLAG_HSERDY);
 207              		.loc 1 269 0 discriminator 1
 208 0018 4FF03100 		mov	r0, #49
 209 001c FFF7FEFF 		bl	RCC_GetFlagStatus
 210 0020 0346     		mov	r3, r0
 211 0022 BB71     		strb	r3, [r7, #6]
 270:App/STM32F4-Discovery/Libraries/STM32F4xx_StdPeriph_Driver/src/stm32f4xx_rcc.c ****     startupcounter++;
 212              		.loc 1 270 0 discriminator 1
 213 0024 3B68     		ldr	r3, [r7, #0]
 214 0026 03F10103 		add	r3, r3, #1
 215 002a 3B60     		str	r3, [r7, #0]
 271:App/STM32F4-Discovery/Libraries/STM32F4xx_StdPeriph_Driver/src/stm32f4xx_rcc.c ****   } while((startupcounter != HSE_STARTUP_TIMEOUT) && (hsestatus == RESET));
 216              		.loc 1 271 0 discriminator 1
 217 002c 3B68     		ldr	r3, [r7, #0]
 218 002e B3F5A06F 		cmp	r3, #1280
 219 0032 02D0     		beq	.L5
 220 0034 BB79     		ldrb	r3, [r7, #6]	@ zero_extendqisi2
 221 0036 002B     		cmp	r3, #0
 222 0038 EED0     		beq	.L6
 223              	.L5:
 272:App/STM32F4-Discovery/Libraries/STM32F4xx_StdPeriph_Driver/src/stm32f4xx_rcc.c **** 
 273:App/STM32F4-Discovery/Libraries/STM32F4xx_StdPeriph_Driver/src/stm32f4xx_rcc.c ****   if (RCC_GetFlagStatus(RCC_FLAG_HSERDY) != RESET)
 224              		.loc 1 273 0
 225 003a 4FF03100 		mov	r0, #49
 226 003e FFF7FEFF 		bl	RCC_GetFlagStatus
 227 0042 0346     		mov	r3, r0
 228 0044 002B     		cmp	r3, #0
 229 0046 03D0     		beq	.L7
 274:App/STM32F4-Discovery/Libraries/STM32F4xx_StdPeriph_Driver/src/stm32f4xx_rcc.c ****   {
 275:App/STM32F4-Discovery/Libraries/STM32F4xx_StdPeriph_Driver/src/stm32f4xx_rcc.c ****     status = SUCCESS;
 230              		.loc 1 275 0
 231 0048 4FF00103 		mov	r3, #1
 232 004c FB71     		strb	r3, [r7, #7]
 233 004e 02E0     		b	.L8
 234              	.L7:
 276:App/STM32F4-Discovery/Libraries/STM32F4xx_StdPeriph_Driver/src/stm32f4xx_rcc.c ****   }
 277:App/STM32F4-Discovery/Libraries/STM32F4xx_StdPeriph_Driver/src/stm32f4xx_rcc.c ****   else
 278:App/STM32F4-Discovery/Libraries/STM32F4xx_StdPeriph_Driver/src/stm32f4xx_rcc.c ****   {
 279:App/STM32F4-Discovery/Libraries/STM32F4xx_StdPeriph_Driver/src/stm32f4xx_rcc.c ****     status = ERROR;
 235              		.loc 1 279 0
 236 0050 4FF00003 		mov	r3, #0
 237 0054 FB71     		strb	r3, [r7, #7]
 238              	.L8:
 280:App/STM32F4-Discovery/Libraries/STM32F4xx_StdPeriph_Driver/src/stm32f4xx_rcc.c ****   }
 281:App/STM32F4-Discovery/Libraries/STM32F4xx_StdPeriph_Driver/src/stm32f4xx_rcc.c ****   return (status);
 239              		.loc 1 281 0
 240 0056 FB79     		ldrb	r3, [r7, #7]	@ zero_extendqisi2
 282:App/STM32F4-Discovery/Libraries/STM32F4xx_StdPeriph_Driver/src/stm32f4xx_rcc.c **** }
 241              		.loc 1 282 0
 242 0058 1846     		mov	r0, r3
 243 005a 07F10807 		add	r7, r7, #8
 244 005e BD46     		mov	sp, r7
 245 0060 80BD     		pop	{r7, pc}
 246              		.cfi_endproc
 247              	.LFE112:
 249 0062 00BF     		.section	.text.RCC_AdjustHSICalibrationValue,"ax",%progbits
 250              		.align	2
 251              		.global	RCC_AdjustHSICalibrationValue
 252              		.thumb
 253              		.thumb_func
 255              	RCC_AdjustHSICalibrationValue:
 256              	.LFB113:
 283:App/STM32F4-Discovery/Libraries/STM32F4xx_StdPeriph_Driver/src/stm32f4xx_rcc.c **** 
 284:App/STM32F4-Discovery/Libraries/STM32F4xx_StdPeriph_Driver/src/stm32f4xx_rcc.c **** /**
 285:App/STM32F4-Discovery/Libraries/STM32F4xx_StdPeriph_Driver/src/stm32f4xx_rcc.c ****   * @brief  Adjusts the Internal High Speed oscillator (HSI) calibration value.
 286:App/STM32F4-Discovery/Libraries/STM32F4xx_StdPeriph_Driver/src/stm32f4xx_rcc.c ****   * @note   The calibration is used to compensate for the variations in voltage
 287:App/STM32F4-Discovery/Libraries/STM32F4xx_StdPeriph_Driver/src/stm32f4xx_rcc.c ****   *         and temperature that influence the frequency of the internal HSI RC.
 288:App/STM32F4-Discovery/Libraries/STM32F4xx_StdPeriph_Driver/src/stm32f4xx_rcc.c ****   * @param  HSICalibrationValue: specifies the calibration trimming value.
 289:App/STM32F4-Discovery/Libraries/STM32F4xx_StdPeriph_Driver/src/stm32f4xx_rcc.c ****   *         This parameter must be a number between 0 and 0x1F.
 290:App/STM32F4-Discovery/Libraries/STM32F4xx_StdPeriph_Driver/src/stm32f4xx_rcc.c ****   * @retval None
 291:App/STM32F4-Discovery/Libraries/STM32F4xx_StdPeriph_Driver/src/stm32f4xx_rcc.c ****   */
 292:App/STM32F4-Discovery/Libraries/STM32F4xx_StdPeriph_Driver/src/stm32f4xx_rcc.c **** void RCC_AdjustHSICalibrationValue(uint8_t HSICalibrationValue)
 293:App/STM32F4-Discovery/Libraries/STM32F4xx_StdPeriph_Driver/src/stm32f4xx_rcc.c **** {
 257              		.loc 1 293 0
 258              		.cfi_startproc
 259              		@ args = 0, pretend = 0, frame = 16
 260              		@ frame_needed = 1, uses_anonymous_args = 0
 261 0000 80B5     		push	{r7, lr}
 262              	.LCFI8:
 263              		.cfi_def_cfa_offset 8
 264              		.cfi_offset 7, -8
 265              		.cfi_offset 14, -4
 266 0002 84B0     		sub	sp, sp, #16
 267              	.LCFI9:
 268              		.cfi_def_cfa_offset 24
 269 0004 00AF     		add	r7, sp, #0
 270              	.LCFI10:
 271              		.cfi_def_cfa_register 7
 272 0006 0346     		mov	r3, r0
 273 0008 FB71     		strb	r3, [r7, #7]
 294:App/STM32F4-Discovery/Libraries/STM32F4xx_StdPeriph_Driver/src/stm32f4xx_rcc.c ****   uint32_t tmpreg = 0;
 274              		.loc 1 294 0
 275 000a 4FF00003 		mov	r3, #0
 276 000e FB60     		str	r3, [r7, #12]
 295:App/STM32F4-Discovery/Libraries/STM32F4xx_StdPeriph_Driver/src/stm32f4xx_rcc.c ****   /* Check the parameters */
 296:App/STM32F4-Discovery/Libraries/STM32F4xx_StdPeriph_Driver/src/stm32f4xx_rcc.c ****   assert_param(IS_RCC_CALIBRATION_VALUE(HSICalibrationValue));
 277              		.loc 1 296 0
 278 0010 FB79     		ldrb	r3, [r7, #7]	@ zero_extendqisi2
 279 0012 1F2B     		cmp	r3, #31
 280 0014 07D9     		bls	.L11
 281              		.loc 1 296 0 is_stmt 0 discriminator 1
 282 0016 40F20000 		movw	r0, #:lower16:.LC0
 283 001a C0F20000 		movt	r0, #:upper16:.LC0
 284 001e 4FF49471 		mov	r1, #296
 285 0022 FFF7FEFF 		bl	assert_failed
 286              	.L11:
 297:App/STM32F4-Discovery/Libraries/STM32F4xx_StdPeriph_Driver/src/stm32f4xx_rcc.c **** 
 298:App/STM32F4-Discovery/Libraries/STM32F4xx_StdPeriph_Driver/src/stm32f4xx_rcc.c ****   tmpreg = RCC->CR;
 287              		.loc 1 298 0 is_stmt 1
 288 0026 4FF46053 		mov	r3, #14336
 289 002a C4F20203 		movt	r3, 16386
 290 002e 1B68     		ldr	r3, [r3, #0]
 291 0030 FB60     		str	r3, [r7, #12]
 299:App/STM32F4-Discovery/Libraries/STM32F4xx_StdPeriph_Driver/src/stm32f4xx_rcc.c **** 
 300:App/STM32F4-Discovery/Libraries/STM32F4xx_StdPeriph_Driver/src/stm32f4xx_rcc.c ****   /* Clear HSITRIM[4:0] bits */
 301:App/STM32F4-Discovery/Libraries/STM32F4xx_StdPeriph_Driver/src/stm32f4xx_rcc.c ****   tmpreg &= ~RCC_CR_HSITRIM;
 292              		.loc 1 301 0
 293 0032 FB68     		ldr	r3, [r7, #12]
 294 0034 23F0F803 		bic	r3, r3, #248
 295 0038 FB60     		str	r3, [r7, #12]
 302:App/STM32F4-Discovery/Libraries/STM32F4xx_StdPeriph_Driver/src/stm32f4xx_rcc.c **** 
 303:App/STM32F4-Discovery/Libraries/STM32F4xx_StdPeriph_Driver/src/stm32f4xx_rcc.c ****   /* Set the HSITRIM[4:0] bits according to HSICalibrationValue value */
 304:App/STM32F4-Discovery/Libraries/STM32F4xx_StdPeriph_Driver/src/stm32f4xx_rcc.c ****   tmpreg |= (uint32_t)HSICalibrationValue << 3;
 296              		.loc 1 304 0
 297 003a FB79     		ldrb	r3, [r7, #7]	@ zero_extendqisi2
 298 003c 4FEAC303 		lsl	r3, r3, #3
 299 0040 FA68     		ldr	r2, [r7, #12]
 300 0042 1343     		orrs	r3, r3, r2
 301 0044 FB60     		str	r3, [r7, #12]
 305:App/STM32F4-Discovery/Libraries/STM32F4xx_StdPeriph_Driver/src/stm32f4xx_rcc.c **** 
 306:App/STM32F4-Discovery/Libraries/STM32F4xx_StdPeriph_Driver/src/stm32f4xx_rcc.c ****   /* Store the new value */
 307:App/STM32F4-Discovery/Libraries/STM32F4xx_StdPeriph_Driver/src/stm32f4xx_rcc.c ****   RCC->CR = tmpreg;
 302              		.loc 1 307 0
 303 0046 4FF46053 		mov	r3, #14336
 304 004a C4F20203 		movt	r3, 16386
 305 004e FA68     		ldr	r2, [r7, #12]
 306 0050 1A60     		str	r2, [r3, #0]
 308:App/STM32F4-Discovery/Libraries/STM32F4xx_StdPeriph_Driver/src/stm32f4xx_rcc.c **** }
 307              		.loc 1 308 0
 308 0052 07F11007 		add	r7, r7, #16
 309 0056 BD46     		mov	sp, r7
 310 0058 80BD     		pop	{r7, pc}
 311              		.cfi_endproc
 312              	.LFE113:
 314 005a 00BF     		.section	.text.RCC_HSICmd,"ax",%progbits
 315              		.align	2
 316              		.global	RCC_HSICmd
 317              		.thumb
 318              		.thumb_func
 320              	RCC_HSICmd:
 321              	.LFB114:
 309:App/STM32F4-Discovery/Libraries/STM32F4xx_StdPeriph_Driver/src/stm32f4xx_rcc.c **** 
 310:App/STM32F4-Discovery/Libraries/STM32F4xx_StdPeriph_Driver/src/stm32f4xx_rcc.c **** /**
 311:App/STM32F4-Discovery/Libraries/STM32F4xx_StdPeriph_Driver/src/stm32f4xx_rcc.c ****   * @brief  Enables or disables the Internal High Speed oscillator (HSI).
 312:App/STM32F4-Discovery/Libraries/STM32F4xx_StdPeriph_Driver/src/stm32f4xx_rcc.c ****   * @note   The HSI is stopped by hardware when entering STOP and STANDBY modes.
 313:App/STM32F4-Discovery/Libraries/STM32F4xx_StdPeriph_Driver/src/stm32f4xx_rcc.c ****   *         It is used (enabled by hardware) as system clock source after startup
 314:App/STM32F4-Discovery/Libraries/STM32F4xx_StdPeriph_Driver/src/stm32f4xx_rcc.c ****   *         from Reset, wakeup from STOP and STANDBY mode, or in case of failure
 315:App/STM32F4-Discovery/Libraries/STM32F4xx_StdPeriph_Driver/src/stm32f4xx_rcc.c ****   *         of the HSE used directly or indirectly as system clock (if the Clock
 316:App/STM32F4-Discovery/Libraries/STM32F4xx_StdPeriph_Driver/src/stm32f4xx_rcc.c ****   *         Security System CSS is enabled).             
 317:App/STM32F4-Discovery/Libraries/STM32F4xx_StdPeriph_Driver/src/stm32f4xx_rcc.c ****   * @note   HSI can not be stopped if it is used as system clock source. In this case,
 318:App/STM32F4-Discovery/Libraries/STM32F4xx_StdPeriph_Driver/src/stm32f4xx_rcc.c ****   *         you have to select another source of the system clock then stop the HSI.  
 319:App/STM32F4-Discovery/Libraries/STM32F4xx_StdPeriph_Driver/src/stm32f4xx_rcc.c ****   * @note   After enabling the HSI, the application software should wait on HSIRDY
 320:App/STM32F4-Discovery/Libraries/STM32F4xx_StdPeriph_Driver/src/stm32f4xx_rcc.c ****   *         flag to be set indicating that HSI clock is stable and can be used as
 321:App/STM32F4-Discovery/Libraries/STM32F4xx_StdPeriph_Driver/src/stm32f4xx_rcc.c ****   *         system clock source.  
 322:App/STM32F4-Discovery/Libraries/STM32F4xx_StdPeriph_Driver/src/stm32f4xx_rcc.c ****   * @param  NewState: new state of the HSI.
 323:App/STM32F4-Discovery/Libraries/STM32F4xx_StdPeriph_Driver/src/stm32f4xx_rcc.c ****   *          This parameter can be: ENABLE or DISABLE.
 324:App/STM32F4-Discovery/Libraries/STM32F4xx_StdPeriph_Driver/src/stm32f4xx_rcc.c ****   * @note   When the HSI is stopped, HSIRDY flag goes low after 6 HSI oscillator
 325:App/STM32F4-Discovery/Libraries/STM32F4xx_StdPeriph_Driver/src/stm32f4xx_rcc.c ****   *         clock cycles.  
 326:App/STM32F4-Discovery/Libraries/STM32F4xx_StdPeriph_Driver/src/stm32f4xx_rcc.c ****   * @retval None
 327:App/STM32F4-Discovery/Libraries/STM32F4xx_StdPeriph_Driver/src/stm32f4xx_rcc.c ****   */
 328:App/STM32F4-Discovery/Libraries/STM32F4xx_StdPeriph_Driver/src/stm32f4xx_rcc.c **** void RCC_HSICmd(FunctionalState NewState)
 329:App/STM32F4-Discovery/Libraries/STM32F4xx_StdPeriph_Driver/src/stm32f4xx_rcc.c **** {
 322              		.loc 1 329 0
 323              		.cfi_startproc
 324              		@ args = 0, pretend = 0, frame = 8
 325              		@ frame_needed = 1, uses_anonymous_args = 0
 326 0000 80B5     		push	{r7, lr}
 327              	.LCFI11:
 328              		.cfi_def_cfa_offset 8
 329              		.cfi_offset 7, -8
 330              		.cfi_offset 14, -4
 331 0002 82B0     		sub	sp, sp, #8
 332              	.LCFI12:
 333              		.cfi_def_cfa_offset 16
 334 0004 00AF     		add	r7, sp, #0
 335              	.LCFI13:
 336              		.cfi_def_cfa_register 7
 337 0006 0346     		mov	r3, r0
 338 0008 FB71     		strb	r3, [r7, #7]
 330:App/STM32F4-Discovery/Libraries/STM32F4xx_StdPeriph_Driver/src/stm32f4xx_rcc.c ****   /* Check the parameters */
 331:App/STM32F4-Discovery/Libraries/STM32F4xx_StdPeriph_Driver/src/stm32f4xx_rcc.c ****   assert_param(IS_FUNCTIONAL_STATE(NewState));
 339              		.loc 1 331 0
 340 000a FB79     		ldrb	r3, [r7, #7]	@ zero_extendqisi2
 341 000c 002B     		cmp	r3, #0
 342 000e 0AD0     		beq	.L13
 343              		.loc 1 331 0 is_stmt 0 discriminator 1
 344 0010 FB79     		ldrb	r3, [r7, #7]	@ zero_extendqisi2
 345 0012 012B     		cmp	r3, #1
 346 0014 07D0     		beq	.L13
 347              		.loc 1 331 0 discriminator 2
 348 0016 40F20000 		movw	r0, #:lower16:.LC0
 349 001a C0F20000 		movt	r0, #:upper16:.LC0
 350 001e 40F24B11 		movw	r1, #331
 351 0022 FFF7FEFF 		bl	assert_failed
 352              	.L13:
 332:App/STM32F4-Discovery/Libraries/STM32F4xx_StdPeriph_Driver/src/stm32f4xx_rcc.c **** 
 333:App/STM32F4-Discovery/Libraries/STM32F4xx_StdPeriph_Driver/src/stm32f4xx_rcc.c ****   *(__IO uint32_t *) CR_HSION_BB = (uint32_t)NewState;
 353              		.loc 1 333 0 is_stmt 1
 354 0026 4FF00003 		mov	r3, #0
 355 002a C4F24723 		movt	r3, 16967
 356 002e FA79     		ldrb	r2, [r7, #7]	@ zero_extendqisi2
 357 0030 1A60     		str	r2, [r3, #0]
 334:App/STM32F4-Discovery/Libraries/STM32F4xx_StdPeriph_Driver/src/stm32f4xx_rcc.c **** }
 358              		.loc 1 334 0
 359 0032 07F10807 		add	r7, r7, #8
 360 0036 BD46     		mov	sp, r7
 361 0038 80BD     		pop	{r7, pc}
 362              		.cfi_endproc
 363              	.LFE114:
 365 003a 00BF     		.section	.text.RCC_LSEConfig,"ax",%progbits
 366              		.align	2
 367              		.global	RCC_LSEConfig
 368              		.thumb
 369              		.thumb_func
 371              	RCC_LSEConfig:
 372              	.LFB115:
 335:App/STM32F4-Discovery/Libraries/STM32F4xx_StdPeriph_Driver/src/stm32f4xx_rcc.c **** 
 336:App/STM32F4-Discovery/Libraries/STM32F4xx_StdPeriph_Driver/src/stm32f4xx_rcc.c **** /**
 337:App/STM32F4-Discovery/Libraries/STM32F4xx_StdPeriph_Driver/src/stm32f4xx_rcc.c ****   * @brief  Configures the External Low Speed oscillator (LSE).
 338:App/STM32F4-Discovery/Libraries/STM32F4xx_StdPeriph_Driver/src/stm32f4xx_rcc.c ****   * @note   As the LSE is in the Backup domain and write access is denied to
 339:App/STM32F4-Discovery/Libraries/STM32F4xx_StdPeriph_Driver/src/stm32f4xx_rcc.c ****   *         this domain after reset, you have to enable write access using 
 340:App/STM32F4-Discovery/Libraries/STM32F4xx_StdPeriph_Driver/src/stm32f4xx_rcc.c ****   *         PWR_BackupAccessCmd(ENABLE) function before to configure the LSE
 341:App/STM32F4-Discovery/Libraries/STM32F4xx_StdPeriph_Driver/src/stm32f4xx_rcc.c ****   *         (to be done once after reset).  
 342:App/STM32F4-Discovery/Libraries/STM32F4xx_StdPeriph_Driver/src/stm32f4xx_rcc.c ****   * @note   After enabling the LSE (RCC_LSE_ON or RCC_LSE_Bypass), the application
 343:App/STM32F4-Discovery/Libraries/STM32F4xx_StdPeriph_Driver/src/stm32f4xx_rcc.c ****   *         software should wait on LSERDY flag to be set indicating that LSE clock
 344:App/STM32F4-Discovery/Libraries/STM32F4xx_StdPeriph_Driver/src/stm32f4xx_rcc.c ****   *         is stable and can be used to clock the RTC.
 345:App/STM32F4-Discovery/Libraries/STM32F4xx_StdPeriph_Driver/src/stm32f4xx_rcc.c ****   * @param  RCC_LSE: specifies the new state of the LSE.
 346:App/STM32F4-Discovery/Libraries/STM32F4xx_StdPeriph_Driver/src/stm32f4xx_rcc.c ****   *          This parameter can be one of the following values:
 347:App/STM32F4-Discovery/Libraries/STM32F4xx_StdPeriph_Driver/src/stm32f4xx_rcc.c ****   *            @arg RCC_LSE_OFF: turn OFF the LSE oscillator, LSERDY flag goes low after
 348:App/STM32F4-Discovery/Libraries/STM32F4xx_StdPeriph_Driver/src/stm32f4xx_rcc.c ****   *                              6 LSE oscillator clock cycles.
 349:App/STM32F4-Discovery/Libraries/STM32F4xx_StdPeriph_Driver/src/stm32f4xx_rcc.c ****   *            @arg RCC_LSE_ON: turn ON the LSE oscillator
 350:App/STM32F4-Discovery/Libraries/STM32F4xx_StdPeriph_Driver/src/stm32f4xx_rcc.c ****   *            @arg RCC_LSE_Bypass: LSE oscillator bypassed with external clock
 351:App/STM32F4-Discovery/Libraries/STM32F4xx_StdPeriph_Driver/src/stm32f4xx_rcc.c ****   * @retval None
 352:App/STM32F4-Discovery/Libraries/STM32F4xx_StdPeriph_Driver/src/stm32f4xx_rcc.c ****   */
 353:App/STM32F4-Discovery/Libraries/STM32F4xx_StdPeriph_Driver/src/stm32f4xx_rcc.c **** void RCC_LSEConfig(uint8_t RCC_LSE)
 354:App/STM32F4-Discovery/Libraries/STM32F4xx_StdPeriph_Driver/src/stm32f4xx_rcc.c **** {
 373              		.loc 1 354 0
 374              		.cfi_startproc
 375              		@ args = 0, pretend = 0, frame = 8
 376              		@ frame_needed = 1, uses_anonymous_args = 0
 377 0000 80B5     		push	{r7, lr}
 378              	.LCFI14:
 379              		.cfi_def_cfa_offset 8
 380              		.cfi_offset 7, -8
 381              		.cfi_offset 14, -4
 382 0002 82B0     		sub	sp, sp, #8
 383              	.LCFI15:
 384              		.cfi_def_cfa_offset 16
 385 0004 00AF     		add	r7, sp, #0
 386              	.LCFI16:
 387              		.cfi_def_cfa_register 7
 388 0006 0346     		mov	r3, r0
 389 0008 FB71     		strb	r3, [r7, #7]
 355:App/STM32F4-Discovery/Libraries/STM32F4xx_StdPeriph_Driver/src/stm32f4xx_rcc.c ****   /* Check the parameters */
 356:App/STM32F4-Discovery/Libraries/STM32F4xx_StdPeriph_Driver/src/stm32f4xx_rcc.c ****   assert_param(IS_RCC_LSE(RCC_LSE));
 390              		.loc 1 356 0
 391 000a FB79     		ldrb	r3, [r7, #7]	@ zero_extendqisi2
 392 000c 002B     		cmp	r3, #0
 393 000e 0DD0     		beq	.L15
 394              		.loc 1 356 0 is_stmt 0 discriminator 1
 395 0010 FB79     		ldrb	r3, [r7, #7]	@ zero_extendqisi2
 396 0012 012B     		cmp	r3, #1
 397 0014 0AD0     		beq	.L15
 398              		.loc 1 356 0 discriminator 2
 399 0016 FB79     		ldrb	r3, [r7, #7]	@ zero_extendqisi2
 400 0018 042B     		cmp	r3, #4
 401 001a 07D0     		beq	.L15
 402              		.loc 1 356 0 discriminator 3
 403 001c 40F20000 		movw	r0, #:lower16:.LC0
 404 0020 C0F20000 		movt	r0, #:upper16:.LC0
 405 0024 4FF4B271 		mov	r1, #356
 406 0028 FFF7FEFF 		bl	assert_failed
 407              	.L15:
 357:App/STM32F4-Discovery/Libraries/STM32F4xx_StdPeriph_Driver/src/stm32f4xx_rcc.c **** 
 358:App/STM32F4-Discovery/Libraries/STM32F4xx_StdPeriph_Driver/src/stm32f4xx_rcc.c ****   /* Reset LSEON and LSEBYP bits before configuring the LSE ------------------*/
 359:App/STM32F4-Discovery/Libraries/STM32F4xx_StdPeriph_Driver/src/stm32f4xx_rcc.c ****   /* Reset LSEON bit */
 360:App/STM32F4-Discovery/Libraries/STM32F4xx_StdPeriph_Driver/src/stm32f4xx_rcc.c ****   *(__IO uint8_t *) BDCR_ADDRESS = RCC_LSE_OFF;
 408              		.loc 1 360 0 is_stmt 1
 409 002c 43F67003 		movw	r3, #14448
 410 0030 C4F20203 		movt	r3, 16386
 411 0034 4FF00002 		mov	r2, #0
 412 0038 1A70     		strb	r2, [r3, #0]
 361:App/STM32F4-Discovery/Libraries/STM32F4xx_StdPeriph_Driver/src/stm32f4xx_rcc.c **** 
 362:App/STM32F4-Discovery/Libraries/STM32F4xx_StdPeriph_Driver/src/stm32f4xx_rcc.c ****   /* Reset LSEBYP bit */
 363:App/STM32F4-Discovery/Libraries/STM32F4xx_StdPeriph_Driver/src/stm32f4xx_rcc.c ****   *(__IO uint8_t *) BDCR_ADDRESS = RCC_LSE_OFF;
 413              		.loc 1 363 0
 414 003a 43F67003 		movw	r3, #14448
 415 003e C4F20203 		movt	r3, 16386
 416 0042 4FF00002 		mov	r2, #0
 417 0046 1A70     		strb	r2, [r3, #0]
 364:App/STM32F4-Discovery/Libraries/STM32F4xx_StdPeriph_Driver/src/stm32f4xx_rcc.c **** 
 365:App/STM32F4-Discovery/Libraries/STM32F4xx_StdPeriph_Driver/src/stm32f4xx_rcc.c ****   /* Configure LSE (RCC_LSE_OFF is already covered by the code section above) */
 366:App/STM32F4-Discovery/Libraries/STM32F4xx_StdPeriph_Driver/src/stm32f4xx_rcc.c ****   switch (RCC_LSE)
 418              		.loc 1 366 0
 419 0048 FB79     		ldrb	r3, [r7, #7]	@ zero_extendqisi2
 420 004a 012B     		cmp	r3, #1
 421 004c 02D0     		beq	.L17
 422 004e 042B     		cmp	r3, #4
 423 0050 08D0     		beq	.L18
 424 0052 0FE0     		b	.L20
 425              	.L17:
 367:App/STM32F4-Discovery/Libraries/STM32F4xx_StdPeriph_Driver/src/stm32f4xx_rcc.c ****   {
 368:App/STM32F4-Discovery/Libraries/STM32F4xx_StdPeriph_Driver/src/stm32f4xx_rcc.c ****     case RCC_LSE_ON:
 369:App/STM32F4-Discovery/Libraries/STM32F4xx_StdPeriph_Driver/src/stm32f4xx_rcc.c ****       /* Set LSEON bit */
 370:App/STM32F4-Discovery/Libraries/STM32F4xx_StdPeriph_Driver/src/stm32f4xx_rcc.c ****       *(__IO uint8_t *) BDCR_ADDRESS = RCC_LSE_ON;
 426              		.loc 1 370 0
 427 0054 43F67003 		movw	r3, #14448
 428 0058 C4F20203 		movt	r3, 16386
 429 005c 4FF00102 		mov	r2, #1
 430 0060 1A70     		strb	r2, [r3, #0]
 371:App/STM32F4-Discovery/Libraries/STM32F4xx_StdPeriph_Driver/src/stm32f4xx_rcc.c ****       break;
 431              		.loc 1 371 0
 432 0062 08E0     		b	.L14
 433              	.L18:
 372:App/STM32F4-Discovery/Libraries/STM32F4xx_StdPeriph_Driver/src/stm32f4xx_rcc.c ****     case RCC_LSE_Bypass:
 373:App/STM32F4-Discovery/Libraries/STM32F4xx_StdPeriph_Driver/src/stm32f4xx_rcc.c ****       /* Set LSEBYP and LSEON bits */
 374:App/STM32F4-Discovery/Libraries/STM32F4xx_StdPeriph_Driver/src/stm32f4xx_rcc.c ****       *(__IO uint8_t *) BDCR_ADDRESS = RCC_LSE_Bypass | RCC_LSE_ON;
 434              		.loc 1 374 0
 435 0064 43F67003 		movw	r3, #14448
 436 0068 C4F20203 		movt	r3, 16386
 437 006c 4FF00502 		mov	r2, #5
 438 0070 1A70     		strb	r2, [r3, #0]
 375:App/STM32F4-Discovery/Libraries/STM32F4xx_StdPeriph_Driver/src/stm32f4xx_rcc.c ****       break;
 439              		.loc 1 375 0
 440 0072 00E0     		b	.L14
 441              	.L20:
 376:App/STM32F4-Discovery/Libraries/STM32F4xx_StdPeriph_Driver/src/stm32f4xx_rcc.c ****     default:
 377:App/STM32F4-Discovery/Libraries/STM32F4xx_StdPeriph_Driver/src/stm32f4xx_rcc.c ****       break;
 442              		.loc 1 377 0
 443 0074 00BF     		nop
 444              	.L14:
 378:App/STM32F4-Discovery/Libraries/STM32F4xx_StdPeriph_Driver/src/stm32f4xx_rcc.c ****   }
 379:App/STM32F4-Discovery/Libraries/STM32F4xx_StdPeriph_Driver/src/stm32f4xx_rcc.c **** }
 445              		.loc 1 379 0
 446 0076 07F10807 		add	r7, r7, #8
 447 007a BD46     		mov	sp, r7
 448 007c 80BD     		pop	{r7, pc}
 449              		.cfi_endproc
 450              	.LFE115:
 452 007e 00BF     		.section	.text.RCC_LSICmd,"ax",%progbits
 453              		.align	2
 454              		.global	RCC_LSICmd
 455              		.thumb
 456              		.thumb_func
 458              	RCC_LSICmd:
 459              	.LFB116:
 380:App/STM32F4-Discovery/Libraries/STM32F4xx_StdPeriph_Driver/src/stm32f4xx_rcc.c **** 
 381:App/STM32F4-Discovery/Libraries/STM32F4xx_StdPeriph_Driver/src/stm32f4xx_rcc.c **** /**
 382:App/STM32F4-Discovery/Libraries/STM32F4xx_StdPeriph_Driver/src/stm32f4xx_rcc.c ****   * @brief  Enables or disables the Internal Low Speed oscillator (LSI).
 383:App/STM32F4-Discovery/Libraries/STM32F4xx_StdPeriph_Driver/src/stm32f4xx_rcc.c ****   * @note   After enabling the LSI, the application software should wait on 
 384:App/STM32F4-Discovery/Libraries/STM32F4xx_StdPeriph_Driver/src/stm32f4xx_rcc.c ****   *         LSIRDY flag to be set indicating that LSI clock is stable and can
 385:App/STM32F4-Discovery/Libraries/STM32F4xx_StdPeriph_Driver/src/stm32f4xx_rcc.c ****   *         be used to clock the IWDG and/or the RTC.
 386:App/STM32F4-Discovery/Libraries/STM32F4xx_StdPeriph_Driver/src/stm32f4xx_rcc.c ****   * @note   LSI can not be disabled if the IWDG is running.  
 387:App/STM32F4-Discovery/Libraries/STM32F4xx_StdPeriph_Driver/src/stm32f4xx_rcc.c ****   * @param  NewState: new state of the LSI.
 388:App/STM32F4-Discovery/Libraries/STM32F4xx_StdPeriph_Driver/src/stm32f4xx_rcc.c ****   *          This parameter can be: ENABLE or DISABLE.
 389:App/STM32F4-Discovery/Libraries/STM32F4xx_StdPeriph_Driver/src/stm32f4xx_rcc.c ****   * @note   When the LSI is stopped, LSIRDY flag goes low after 6 LSI oscillator
 390:App/STM32F4-Discovery/Libraries/STM32F4xx_StdPeriph_Driver/src/stm32f4xx_rcc.c ****   *         clock cycles. 
 391:App/STM32F4-Discovery/Libraries/STM32F4xx_StdPeriph_Driver/src/stm32f4xx_rcc.c ****   * @retval None
 392:App/STM32F4-Discovery/Libraries/STM32F4xx_StdPeriph_Driver/src/stm32f4xx_rcc.c ****   */
 393:App/STM32F4-Discovery/Libraries/STM32F4xx_StdPeriph_Driver/src/stm32f4xx_rcc.c **** void RCC_LSICmd(FunctionalState NewState)
 394:App/STM32F4-Discovery/Libraries/STM32F4xx_StdPeriph_Driver/src/stm32f4xx_rcc.c **** {
 460              		.loc 1 394 0
 461              		.cfi_startproc
 462              		@ args = 0, pretend = 0, frame = 8
 463              		@ frame_needed = 1, uses_anonymous_args = 0
 464 0000 80B5     		push	{r7, lr}
 465              	.LCFI17:
 466              		.cfi_def_cfa_offset 8
 467              		.cfi_offset 7, -8
 468              		.cfi_offset 14, -4
 469 0002 82B0     		sub	sp, sp, #8
 470              	.LCFI18:
 471              		.cfi_def_cfa_offset 16
 472 0004 00AF     		add	r7, sp, #0
 473              	.LCFI19:
 474              		.cfi_def_cfa_register 7
 475 0006 0346     		mov	r3, r0
 476 0008 FB71     		strb	r3, [r7, #7]
 395:App/STM32F4-Discovery/Libraries/STM32F4xx_StdPeriph_Driver/src/stm32f4xx_rcc.c ****   /* Check the parameters */
 396:App/STM32F4-Discovery/Libraries/STM32F4xx_StdPeriph_Driver/src/stm32f4xx_rcc.c ****   assert_param(IS_FUNCTIONAL_STATE(NewState));
 477              		.loc 1 396 0
 478 000a FB79     		ldrb	r3, [r7, #7]	@ zero_extendqisi2
 479 000c 002B     		cmp	r3, #0
 480 000e 0AD0     		beq	.L22
 481              		.loc 1 396 0 is_stmt 0 discriminator 1
 482 0010 FB79     		ldrb	r3, [r7, #7]	@ zero_extendqisi2
 483 0012 012B     		cmp	r3, #1
 484 0014 07D0     		beq	.L22
 485              		.loc 1 396 0 discriminator 2
 486 0016 40F20000 		movw	r0, #:lower16:.LC0
 487 001a C0F20000 		movt	r0, #:upper16:.LC0
 488 001e 4FF4C671 		mov	r1, #396
 489 0022 FFF7FEFF 		bl	assert_failed
 490              	.L22:
 397:App/STM32F4-Discovery/Libraries/STM32F4xx_StdPeriph_Driver/src/stm32f4xx_rcc.c **** 
 398:App/STM32F4-Discovery/Libraries/STM32F4xx_StdPeriph_Driver/src/stm32f4xx_rcc.c ****   *(__IO uint32_t *) CSR_LSION_BB = (uint32_t)NewState;
 491              		.loc 1 398 0 is_stmt 1
 492 0026 4FF46863 		mov	r3, #3712
 493 002a C4F24723 		movt	r3, 16967
 494 002e FA79     		ldrb	r2, [r7, #7]	@ zero_extendqisi2
 495 0030 1A60     		str	r2, [r3, #0]
 399:App/STM32F4-Discovery/Libraries/STM32F4xx_StdPeriph_Driver/src/stm32f4xx_rcc.c **** }
 496              		.loc 1 399 0
 497 0032 07F10807 		add	r7, r7, #8
 498 0036 BD46     		mov	sp, r7
 499 0038 80BD     		pop	{r7, pc}
 500              		.cfi_endproc
 501              	.LFE116:
 503 003a 00BF     		.section	.text.RCC_PLLConfig,"ax",%progbits
 504              		.align	2
 505              		.global	RCC_PLLConfig
 506              		.thumb
 507              		.thumb_func
 509              	RCC_PLLConfig:
 510              	.LFB117:
 400:App/STM32F4-Discovery/Libraries/STM32F4xx_StdPeriph_Driver/src/stm32f4xx_rcc.c **** 
 401:App/STM32F4-Discovery/Libraries/STM32F4xx_StdPeriph_Driver/src/stm32f4xx_rcc.c **** /**
 402:App/STM32F4-Discovery/Libraries/STM32F4xx_StdPeriph_Driver/src/stm32f4xx_rcc.c ****   * @brief  Configures the main PLL clock source, multiplication and division factors.
 403:App/STM32F4-Discovery/Libraries/STM32F4xx_StdPeriph_Driver/src/stm32f4xx_rcc.c ****   * @note   This function must be used only when the main PLL is disabled.
 404:App/STM32F4-Discovery/Libraries/STM32F4xx_StdPeriph_Driver/src/stm32f4xx_rcc.c ****   *  
 405:App/STM32F4-Discovery/Libraries/STM32F4xx_StdPeriph_Driver/src/stm32f4xx_rcc.c ****   * @param  RCC_PLLSource: specifies the PLL entry clock source.
 406:App/STM32F4-Discovery/Libraries/STM32F4xx_StdPeriph_Driver/src/stm32f4xx_rcc.c ****   *          This parameter can be one of the following values:
 407:App/STM32F4-Discovery/Libraries/STM32F4xx_StdPeriph_Driver/src/stm32f4xx_rcc.c ****   *            @arg RCC_PLLSource_HSI: HSI oscillator clock selected as PLL clock entry
 408:App/STM32F4-Discovery/Libraries/STM32F4xx_StdPeriph_Driver/src/stm32f4xx_rcc.c ****   *            @arg RCC_PLLSource_HSE: HSE oscillator clock selected as PLL clock entry
 409:App/STM32F4-Discovery/Libraries/STM32F4xx_StdPeriph_Driver/src/stm32f4xx_rcc.c ****   * @note   This clock source (RCC_PLLSource) is common for the main PLL and PLLI2S.  
 410:App/STM32F4-Discovery/Libraries/STM32F4xx_StdPeriph_Driver/src/stm32f4xx_rcc.c ****   *  
 411:App/STM32F4-Discovery/Libraries/STM32F4xx_StdPeriph_Driver/src/stm32f4xx_rcc.c ****   * @param  PLLM: specifies the division factor for PLL VCO input clock
 412:App/STM32F4-Discovery/Libraries/STM32F4xx_StdPeriph_Driver/src/stm32f4xx_rcc.c ****   *          This parameter must be a number between 0 and 63.
 413:App/STM32F4-Discovery/Libraries/STM32F4xx_StdPeriph_Driver/src/stm32f4xx_rcc.c ****   * @note   You have to set the PLLM parameter correctly to ensure that the VCO input
 414:App/STM32F4-Discovery/Libraries/STM32F4xx_StdPeriph_Driver/src/stm32f4xx_rcc.c ****   *         frequency ranges from 1 to 2 MHz. It is recommended to select a frequency
 415:App/STM32F4-Discovery/Libraries/STM32F4xx_StdPeriph_Driver/src/stm32f4xx_rcc.c ****   *         of 2 MHz to limit PLL jitter.
 416:App/STM32F4-Discovery/Libraries/STM32F4xx_StdPeriph_Driver/src/stm32f4xx_rcc.c ****   *  
 417:App/STM32F4-Discovery/Libraries/STM32F4xx_StdPeriph_Driver/src/stm32f4xx_rcc.c ****   * @param  PLLN: specifies the multiplication factor for PLL VCO output clock
 418:App/STM32F4-Discovery/Libraries/STM32F4xx_StdPeriph_Driver/src/stm32f4xx_rcc.c ****   *          This parameter must be a number between 192 and 432.
 419:App/STM32F4-Discovery/Libraries/STM32F4xx_StdPeriph_Driver/src/stm32f4xx_rcc.c ****   * @note   You have to set the PLLN parameter correctly to ensure that the VCO
 420:App/STM32F4-Discovery/Libraries/STM32F4xx_StdPeriph_Driver/src/stm32f4xx_rcc.c ****   *         output frequency is between 192 and 432 MHz.
 421:App/STM32F4-Discovery/Libraries/STM32F4xx_StdPeriph_Driver/src/stm32f4xx_rcc.c ****   *   
 422:App/STM32F4-Discovery/Libraries/STM32F4xx_StdPeriph_Driver/src/stm32f4xx_rcc.c ****   * @param  PLLP: specifies the division factor for main system clock (SYSCLK)
 423:App/STM32F4-Discovery/Libraries/STM32F4xx_StdPeriph_Driver/src/stm32f4xx_rcc.c ****   *          This parameter must be a number in the range {2, 4, 6, or 8}.
 424:App/STM32F4-Discovery/Libraries/STM32F4xx_StdPeriph_Driver/src/stm32f4xx_rcc.c ****   * @note   You have to set the PLLP parameter correctly to not exceed 168 MHz on
 425:App/STM32F4-Discovery/Libraries/STM32F4xx_StdPeriph_Driver/src/stm32f4xx_rcc.c ****   *         the System clock frequency.
 426:App/STM32F4-Discovery/Libraries/STM32F4xx_StdPeriph_Driver/src/stm32f4xx_rcc.c ****   *  
 427:App/STM32F4-Discovery/Libraries/STM32F4xx_StdPeriph_Driver/src/stm32f4xx_rcc.c ****   * @param  PLLQ: specifies the division factor for OTG FS, SDIO and RNG clocks
 428:App/STM32F4-Discovery/Libraries/STM32F4xx_StdPeriph_Driver/src/stm32f4xx_rcc.c ****   *          This parameter must be a number between 4 and 15.
 429:App/STM32F4-Discovery/Libraries/STM32F4xx_StdPeriph_Driver/src/stm32f4xx_rcc.c ****   * @note   If the USB OTG FS is used in your application, you have to set the
 430:App/STM32F4-Discovery/Libraries/STM32F4xx_StdPeriph_Driver/src/stm32f4xx_rcc.c ****   *         PLLQ parameter correctly to have 48 MHz clock for the USB. However,
 431:App/STM32F4-Discovery/Libraries/STM32F4xx_StdPeriph_Driver/src/stm32f4xx_rcc.c ****   *         the SDIO and RNG need a frequency lower than or equal to 48 MHz to work
 432:App/STM32F4-Discovery/Libraries/STM32F4xx_StdPeriph_Driver/src/stm32f4xx_rcc.c ****   *         correctly.
 433:App/STM32F4-Discovery/Libraries/STM32F4xx_StdPeriph_Driver/src/stm32f4xx_rcc.c ****   *   
 434:App/STM32F4-Discovery/Libraries/STM32F4xx_StdPeriph_Driver/src/stm32f4xx_rcc.c ****   * @retval None
 435:App/STM32F4-Discovery/Libraries/STM32F4xx_StdPeriph_Driver/src/stm32f4xx_rcc.c ****   */
 436:App/STM32F4-Discovery/Libraries/STM32F4xx_StdPeriph_Driver/src/stm32f4xx_rcc.c **** void RCC_PLLConfig(uint32_t RCC_PLLSource, uint32_t PLLM, uint32_t PLLN, uint32_t PLLP, uint32_t PL
 437:App/STM32F4-Discovery/Libraries/STM32F4xx_StdPeriph_Driver/src/stm32f4xx_rcc.c **** {
 511              		.loc 1 437 0
 512              		.cfi_startproc
 513              		@ args = 4, pretend = 0, frame = 16
 514              		@ frame_needed = 1, uses_anonymous_args = 0
 515 0000 80B5     		push	{r7, lr}
 516              	.LCFI20:
 517              		.cfi_def_cfa_offset 8
 518              		.cfi_offset 7, -8
 519              		.cfi_offset 14, -4
 520 0002 84B0     		sub	sp, sp, #16
 521              	.LCFI21:
 522              		.cfi_def_cfa_offset 24
 523 0004 00AF     		add	r7, sp, #0
 524              	.LCFI22:
 525              		.cfi_def_cfa_register 7
 526 0006 F860     		str	r0, [r7, #12]
 527 0008 B960     		str	r1, [r7, #8]
 528 000a 7A60     		str	r2, [r7, #4]
 529 000c 3B60     		str	r3, [r7, #0]
 438:App/STM32F4-Discovery/Libraries/STM32F4xx_StdPeriph_Driver/src/stm32f4xx_rcc.c ****   /* Check the parameters */
 439:App/STM32F4-Discovery/Libraries/STM32F4xx_StdPeriph_Driver/src/stm32f4xx_rcc.c ****   assert_param(IS_RCC_PLL_SOURCE(RCC_PLLSource));
 530              		.loc 1 439 0
 531 000e FB68     		ldr	r3, [r7, #12]
 532 0010 002B     		cmp	r3, #0
 533 0012 0BD0     		beq	.L24
 534              		.loc 1 439 0 is_stmt 0 discriminator 1
 535 0014 FB68     		ldr	r3, [r7, #12]
 536 0016 B3F5800F 		cmp	r3, #4194304
 537 001a 07D0     		beq	.L24
 538              		.loc 1 439 0 discriminator 2
 539 001c 40F20000 		movw	r0, #:lower16:.LC0
 540 0020 C0F20000 		movt	r0, #:upper16:.LC0
 541 0024 40F2B711 		movw	r1, #439
 542 0028 FFF7FEFF 		bl	assert_failed
 543              	.L24:
 440:App/STM32F4-Discovery/Libraries/STM32F4xx_StdPeriph_Driver/src/stm32f4xx_rcc.c ****   assert_param(IS_RCC_PLLM_VALUE(PLLM));
 544              		.loc 1 440 0 is_stmt 1
 545 002c BB68     		ldr	r3, [r7, #8]
 546 002e 3F2B     		cmp	r3, #63
 547 0030 07D9     		bls	.L25
 548              		.loc 1 440 0 is_stmt 0 discriminator 1
 549 0032 40F20000 		movw	r0, #:lower16:.LC0
 550 0036 C0F20000 		movt	r0, #:upper16:.LC0
 551 003a 4FF4DC71 		mov	r1, #440
 552 003e FFF7FEFF 		bl	assert_failed
 553              	.L25:
 441:App/STM32F4-Discovery/Libraries/STM32F4xx_StdPeriph_Driver/src/stm32f4xx_rcc.c ****   assert_param(IS_RCC_PLLN_VALUE(PLLN));
 554              		.loc 1 441 0 is_stmt 1
 555 0042 7B68     		ldr	r3, [r7, #4]
 556 0044 BF2B     		cmp	r3, #191
 557 0046 03D9     		bls	.L26
 558              		.loc 1 441 0 is_stmt 0 discriminator 2
 559 0048 7B68     		ldr	r3, [r7, #4]
 560 004a B3F5D87F 		cmp	r3, #432
 561 004e 07D9     		bls	.L27
 562              	.L26:
 563              		.loc 1 441 0 discriminator 1
 564 0050 40F20000 		movw	r0, #:lower16:.LC0
 565 0054 C0F20000 		movt	r0, #:upper16:.LC0
 566 0058 40F2B911 		movw	r1, #441
 567 005c FFF7FEFF 		bl	assert_failed
 568              	.L27:
 442:App/STM32F4-Discovery/Libraries/STM32F4xx_StdPeriph_Driver/src/stm32f4xx_rcc.c ****   assert_param(IS_RCC_PLLP_VALUE(PLLP));
 569              		.loc 1 442 0 is_stmt 1
 570 0060 3B68     		ldr	r3, [r7, #0]
 571 0062 022B     		cmp	r3, #2
 572 0064 10D0     		beq	.L28
 573              		.loc 1 442 0 is_stmt 0 discriminator 1
 574 0066 3B68     		ldr	r3, [r7, #0]
 575 0068 042B     		cmp	r3, #4
 576 006a 0DD0     		beq	.L28
 577              		.loc 1 442 0 discriminator 2
 578 006c 3B68     		ldr	r3, [r7, #0]
 579 006e 062B     		cmp	r3, #6
 580 0070 0AD0     		beq	.L28
 581              		.loc 1 442 0 discriminator 3
 582 0072 3B68     		ldr	r3, [r7, #0]
 583 0074 082B     		cmp	r3, #8
 584 0076 07D0     		beq	.L28
 585              		.loc 1 442 0 discriminator 4
 586 0078 40F20000 		movw	r0, #:lower16:.LC0
 587 007c C0F20000 		movt	r0, #:upper16:.LC0
 588 0080 4FF4DD71 		mov	r1, #442
 589 0084 FFF7FEFF 		bl	assert_failed
 590              	.L28:
 443:App/STM32F4-Discovery/Libraries/STM32F4xx_StdPeriph_Driver/src/stm32f4xx_rcc.c ****   assert_param(IS_RCC_PLLQ_VALUE(PLLQ));
 591              		.loc 1 443 0 is_stmt 1
 592 0088 BB69     		ldr	r3, [r7, #24]
 593 008a 032B     		cmp	r3, #3
 594 008c 02D9     		bls	.L29
 595              		.loc 1 443 0 is_stmt 0 discriminator 2
 596 008e BB69     		ldr	r3, [r7, #24]
 597 0090 0F2B     		cmp	r3, #15
 598 0092 07D9     		bls	.L30
 599              	.L29:
 600              		.loc 1 443 0 discriminator 1
 601 0094 40F20000 		movw	r0, #:lower16:.LC0
 602 0098 C0F20000 		movt	r0, #:upper16:.LC0
 603 009c 40F2BB11 		movw	r1, #443
 604 00a0 FFF7FEFF 		bl	assert_failed
 605              	.L30:
 444:App/STM32F4-Discovery/Libraries/STM32F4xx_StdPeriph_Driver/src/stm32f4xx_rcc.c **** 
 445:App/STM32F4-Discovery/Libraries/STM32F4xx_StdPeriph_Driver/src/stm32f4xx_rcc.c ****   RCC->PLLCFGR = PLLM | (PLLN << 6) | (((PLLP >> 1) -1) << 16) | (RCC_PLLSource) |
 606              		.loc 1 445 0 is_stmt 1
 607 00a4 4FF46053 		mov	r3, #14336
 608 00a8 C4F20203 		movt	r3, 16386
 609 00ac 7A68     		ldr	r2, [r7, #4]
 610 00ae 4FEA8211 		lsl	r1, r2, #6
 611 00b2 BA68     		ldr	r2, [r7, #8]
 612 00b4 1143     		orrs	r1, r1, r2
 613 00b6 3A68     		ldr	r2, [r7, #0]
 614 00b8 4FEA5202 		lsr	r2, r2, #1
 615 00bc 02F1FF32 		add	r2, r2, #-1
 616 00c0 4FEA0242 		lsl	r2, r2, #16
 617 00c4 1143     		orrs	r1, r1, r2
 618 00c6 FA68     		ldr	r2, [r7, #12]
 619 00c8 1143     		orrs	r1, r1, r2
 446:App/STM32F4-Discovery/Libraries/STM32F4xx_StdPeriph_Driver/src/stm32f4xx_rcc.c ****                  (PLLQ << 24);
 620              		.loc 1 446 0
 621 00ca BA69     		ldr	r2, [r7, #24]
 622 00cc 4FEA0262 		lsl	r2, r2, #24
 445:App/STM32F4-Discovery/Libraries/STM32F4xx_StdPeriph_Driver/src/stm32f4xx_rcc.c ****   RCC->PLLCFGR = PLLM | (PLLN << 6) | (((PLLP >> 1) -1) << 16) | (RCC_PLLSource) |
 623              		.loc 1 445 0
 624 00d0 0A43     		orrs	r2, r2, r1
 625 00d2 5A60     		str	r2, [r3, #4]
 447:App/STM32F4-Discovery/Libraries/STM32F4xx_StdPeriph_Driver/src/stm32f4xx_rcc.c **** }
 626              		.loc 1 447 0
 627 00d4 07F11007 		add	r7, r7, #16
 628 00d8 BD46     		mov	sp, r7
 629 00da 80BD     		pop	{r7, pc}
 630              		.cfi_endproc
 631              	.LFE117:
 633              		.section	.text.RCC_PLLCmd,"ax",%progbits
 634              		.align	2
 635              		.global	RCC_PLLCmd
 636              		.thumb
 637              		.thumb_func
 639              	RCC_PLLCmd:
 640              	.LFB118:
 448:App/STM32F4-Discovery/Libraries/STM32F4xx_StdPeriph_Driver/src/stm32f4xx_rcc.c **** 
 449:App/STM32F4-Discovery/Libraries/STM32F4xx_StdPeriph_Driver/src/stm32f4xx_rcc.c **** /**
 450:App/STM32F4-Discovery/Libraries/STM32F4xx_StdPeriph_Driver/src/stm32f4xx_rcc.c ****   * @brief  Enables or disables the main PLL.
 451:App/STM32F4-Discovery/Libraries/STM32F4xx_StdPeriph_Driver/src/stm32f4xx_rcc.c ****   * @note   After enabling the main PLL, the application software should wait on 
 452:App/STM32F4-Discovery/Libraries/STM32F4xx_StdPeriph_Driver/src/stm32f4xx_rcc.c ****   *         PLLRDY flag to be set indicating that PLL clock is stable and can
 453:App/STM32F4-Discovery/Libraries/STM32F4xx_StdPeriph_Driver/src/stm32f4xx_rcc.c ****   *         be used as system clock source.
 454:App/STM32F4-Discovery/Libraries/STM32F4xx_StdPeriph_Driver/src/stm32f4xx_rcc.c ****   * @note   The main PLL can not be disabled if it is used as system clock source
 455:App/STM32F4-Discovery/Libraries/STM32F4xx_StdPeriph_Driver/src/stm32f4xx_rcc.c ****   * @note   The main PLL is disabled by hardware when entering STOP and STANDBY modes.
 456:App/STM32F4-Discovery/Libraries/STM32F4xx_StdPeriph_Driver/src/stm32f4xx_rcc.c ****   * @param  NewState: new state of the main PLL. This parameter can be: ENABLE or DISABLE.
 457:App/STM32F4-Discovery/Libraries/STM32F4xx_StdPeriph_Driver/src/stm32f4xx_rcc.c ****   * @retval None
 458:App/STM32F4-Discovery/Libraries/STM32F4xx_StdPeriph_Driver/src/stm32f4xx_rcc.c ****   */
 459:App/STM32F4-Discovery/Libraries/STM32F4xx_StdPeriph_Driver/src/stm32f4xx_rcc.c **** void RCC_PLLCmd(FunctionalState NewState)
 460:App/STM32F4-Discovery/Libraries/STM32F4xx_StdPeriph_Driver/src/stm32f4xx_rcc.c **** {
 641              		.loc 1 460 0
 642              		.cfi_startproc
 643              		@ args = 0, pretend = 0, frame = 8
 644              		@ frame_needed = 1, uses_anonymous_args = 0
 645 0000 80B5     		push	{r7, lr}
 646              	.LCFI23:
 647              		.cfi_def_cfa_offset 8
 648              		.cfi_offset 7, -8
 649              		.cfi_offset 14, -4
 650 0002 82B0     		sub	sp, sp, #8
 651              	.LCFI24:
 652              		.cfi_def_cfa_offset 16
 653 0004 00AF     		add	r7, sp, #0
 654              	.LCFI25:
 655              		.cfi_def_cfa_register 7
 656 0006 0346     		mov	r3, r0
 657 0008 FB71     		strb	r3, [r7, #7]
 461:App/STM32F4-Discovery/Libraries/STM32F4xx_StdPeriph_Driver/src/stm32f4xx_rcc.c ****   /* Check the parameters */
 462:App/STM32F4-Discovery/Libraries/STM32F4xx_StdPeriph_Driver/src/stm32f4xx_rcc.c ****   assert_param(IS_FUNCTIONAL_STATE(NewState));
 658              		.loc 1 462 0
 659 000a FB79     		ldrb	r3, [r7, #7]	@ zero_extendqisi2
 660 000c 002B     		cmp	r3, #0
 661 000e 0AD0     		beq	.L32
 662              		.loc 1 462 0 is_stmt 0 discriminator 1
 663 0010 FB79     		ldrb	r3, [r7, #7]	@ zero_extendqisi2
 664 0012 012B     		cmp	r3, #1
 665 0014 07D0     		beq	.L32
 666              		.loc 1 462 0 discriminator 2
 667 0016 40F20000 		movw	r0, #:lower16:.LC0
 668 001a C0F20000 		movt	r0, #:upper16:.LC0
 669 001e 4FF4E771 		mov	r1, #462
 670 0022 FFF7FEFF 		bl	assert_failed
 671              	.L32:
 463:App/STM32F4-Discovery/Libraries/STM32F4xx_StdPeriph_Driver/src/stm32f4xx_rcc.c ****   *(__IO uint32_t *) CR_PLLON_BB = (uint32_t)NewState;
 672              		.loc 1 463 0 is_stmt 1
 673 0026 4FF06003 		mov	r3, #96
 674 002a C4F24723 		movt	r3, 16967
 675 002e FA79     		ldrb	r2, [r7, #7]	@ zero_extendqisi2
 676 0030 1A60     		str	r2, [r3, #0]
 464:App/STM32F4-Discovery/Libraries/STM32F4xx_StdPeriph_Driver/src/stm32f4xx_rcc.c **** }
 677              		.loc 1 464 0
 678 0032 07F10807 		add	r7, r7, #8
 679 0036 BD46     		mov	sp, r7
 680 0038 80BD     		pop	{r7, pc}
 681              		.cfi_endproc
 682              	.LFE118:
 684 003a 00BF     		.section	.text.RCC_PLLI2SConfig,"ax",%progbits
 685              		.align	2
 686              		.global	RCC_PLLI2SConfig
 687              		.thumb
 688              		.thumb_func
 690              	RCC_PLLI2SConfig:
 691              	.LFB119:
 465:App/STM32F4-Discovery/Libraries/STM32F4xx_StdPeriph_Driver/src/stm32f4xx_rcc.c **** 
 466:App/STM32F4-Discovery/Libraries/STM32F4xx_StdPeriph_Driver/src/stm32f4xx_rcc.c **** /**
 467:App/STM32F4-Discovery/Libraries/STM32F4xx_StdPeriph_Driver/src/stm32f4xx_rcc.c ****   * @brief  Configures the PLLI2S clock multiplication and division factors.
 468:App/STM32F4-Discovery/Libraries/STM32F4xx_StdPeriph_Driver/src/stm32f4xx_rcc.c ****   *  
 469:App/STM32F4-Discovery/Libraries/STM32F4xx_StdPeriph_Driver/src/stm32f4xx_rcc.c ****   * @note   This function must be used only when the PLLI2S is disabled.
 470:App/STM32F4-Discovery/Libraries/STM32F4xx_StdPeriph_Driver/src/stm32f4xx_rcc.c ****   * @note   PLLI2S clock source is common with the main PLL (configured in 
 471:App/STM32F4-Discovery/Libraries/STM32F4xx_StdPeriph_Driver/src/stm32f4xx_rcc.c ****   *         RCC_PLLConfig function )  
 472:App/STM32F4-Discovery/Libraries/STM32F4xx_StdPeriph_Driver/src/stm32f4xx_rcc.c ****   *             
 473:App/STM32F4-Discovery/Libraries/STM32F4xx_StdPeriph_Driver/src/stm32f4xx_rcc.c ****   * @param  PLLI2SN: specifies the multiplication factor for PLLI2S VCO output clock
 474:App/STM32F4-Discovery/Libraries/STM32F4xx_StdPeriph_Driver/src/stm32f4xx_rcc.c ****   *          This parameter must be a number between 192 and 432.
 475:App/STM32F4-Discovery/Libraries/STM32F4xx_StdPeriph_Driver/src/stm32f4xx_rcc.c ****   * @note   You have to set the PLLI2SN parameter correctly to ensure that the VCO 
 476:App/STM32F4-Discovery/Libraries/STM32F4xx_StdPeriph_Driver/src/stm32f4xx_rcc.c ****   *         output frequency is between 192 and 432 MHz.
 477:App/STM32F4-Discovery/Libraries/STM32F4xx_StdPeriph_Driver/src/stm32f4xx_rcc.c ****   *    
 478:App/STM32F4-Discovery/Libraries/STM32F4xx_StdPeriph_Driver/src/stm32f4xx_rcc.c ****   * @param  PLLI2SR: specifies the division factor for I2S clock
 479:App/STM32F4-Discovery/Libraries/STM32F4xx_StdPeriph_Driver/src/stm32f4xx_rcc.c ****   *          This parameter must be a number between 2 and 7.
 480:App/STM32F4-Discovery/Libraries/STM32F4xx_StdPeriph_Driver/src/stm32f4xx_rcc.c ****   * @note   You have to set the PLLI2SR parameter correctly to not exceed 192 MHz
 481:App/STM32F4-Discovery/Libraries/STM32F4xx_StdPeriph_Driver/src/stm32f4xx_rcc.c ****   *         on the I2S clock frequency.
 482:App/STM32F4-Discovery/Libraries/STM32F4xx_StdPeriph_Driver/src/stm32f4xx_rcc.c ****   *   
 483:App/STM32F4-Discovery/Libraries/STM32F4xx_StdPeriph_Driver/src/stm32f4xx_rcc.c ****   * @retval None
 484:App/STM32F4-Discovery/Libraries/STM32F4xx_StdPeriph_Driver/src/stm32f4xx_rcc.c ****   */
 485:App/STM32F4-Discovery/Libraries/STM32F4xx_StdPeriph_Driver/src/stm32f4xx_rcc.c **** void RCC_PLLI2SConfig(uint32_t PLLI2SN, uint32_t PLLI2SR)
 486:App/STM32F4-Discovery/Libraries/STM32F4xx_StdPeriph_Driver/src/stm32f4xx_rcc.c **** {
 692              		.loc 1 486 0
 693              		.cfi_startproc
 694              		@ args = 0, pretend = 0, frame = 8
 695              		@ frame_needed = 1, uses_anonymous_args = 0
 696 0000 80B5     		push	{r7, lr}
 697              	.LCFI26:
 698              		.cfi_def_cfa_offset 8
 699              		.cfi_offset 7, -8
 700              		.cfi_offset 14, -4
 701 0002 82B0     		sub	sp, sp, #8
 702              	.LCFI27:
 703              		.cfi_def_cfa_offset 16
 704 0004 00AF     		add	r7, sp, #0
 705              	.LCFI28:
 706              		.cfi_def_cfa_register 7
 707 0006 7860     		str	r0, [r7, #4]
 708 0008 3960     		str	r1, [r7, #0]
 487:App/STM32F4-Discovery/Libraries/STM32F4xx_StdPeriph_Driver/src/stm32f4xx_rcc.c ****   /* Check the parameters */
 488:App/STM32F4-Discovery/Libraries/STM32F4xx_StdPeriph_Driver/src/stm32f4xx_rcc.c ****   assert_param(IS_RCC_PLLI2SN_VALUE(PLLI2SN));
 709              		.loc 1 488 0
 710 000a 7B68     		ldr	r3, [r7, #4]
 711 000c BF2B     		cmp	r3, #191
 712 000e 03D9     		bls	.L34
 713              		.loc 1 488 0 is_stmt 0 discriminator 2
 714 0010 7B68     		ldr	r3, [r7, #4]
 715 0012 B3F5D87F 		cmp	r3, #432
 716 0016 07D9     		bls	.L35
 717              	.L34:
 718              		.loc 1 488 0 discriminator 1
 719 0018 40F20000 		movw	r0, #:lower16:.LC0
 720 001c C0F20000 		movt	r0, #:upper16:.LC0
 721 0020 4FF4F471 		mov	r1, #488
 722 0024 FFF7FEFF 		bl	assert_failed
 723              	.L35:
 489:App/STM32F4-Discovery/Libraries/STM32F4xx_StdPeriph_Driver/src/stm32f4xx_rcc.c ****   assert_param(IS_RCC_PLLI2SR_VALUE(PLLI2SR));
 724              		.loc 1 489 0 is_stmt 1
 725 0028 3B68     		ldr	r3, [r7, #0]
 726 002a 012B     		cmp	r3, #1
 727 002c 02D9     		bls	.L36
 728              		.loc 1 489 0 is_stmt 0 discriminator 2
 729 002e 3B68     		ldr	r3, [r7, #0]
 730 0030 072B     		cmp	r3, #7
 731 0032 07D9     		bls	.L37
 732              	.L36:
 733              		.loc 1 489 0 discriminator 1
 734 0034 40F20000 		movw	r0, #:lower16:.LC0
 735 0038 C0F20000 		movt	r0, #:upper16:.LC0
 736 003c 40F2E911 		movw	r1, #489
 737 0040 FFF7FEFF 		bl	assert_failed
 738              	.L37:
 490:App/STM32F4-Discovery/Libraries/STM32F4xx_StdPeriph_Driver/src/stm32f4xx_rcc.c **** 
 491:App/STM32F4-Discovery/Libraries/STM32F4xx_StdPeriph_Driver/src/stm32f4xx_rcc.c ****   RCC->PLLI2SCFGR = (PLLI2SN << 6) | (PLLI2SR << 28);
 739              		.loc 1 491 0 is_stmt 1
 740 0044 4FF46053 		mov	r3, #14336
 741 0048 C4F20203 		movt	r3, 16386
 742 004c 7A68     		ldr	r2, [r7, #4]
 743 004e 4FEA8211 		lsl	r1, r2, #6
 744 0052 3A68     		ldr	r2, [r7, #0]
 745 0054 4FEA0272 		lsl	r2, r2, #28
 746 0058 0A43     		orrs	r2, r2, r1
 747 005a C3F88420 		str	r2, [r3, #132]
 492:App/STM32F4-Discovery/Libraries/STM32F4xx_StdPeriph_Driver/src/stm32f4xx_rcc.c **** }
 748              		.loc 1 492 0
 749 005e 07F10807 		add	r7, r7, #8
 750 0062 BD46     		mov	sp, r7
 751 0064 80BD     		pop	{r7, pc}
 752              		.cfi_endproc
 753              	.LFE119:
 755 0066 00BF     		.section	.text.RCC_PLLI2SCmd,"ax",%progbits
 756              		.align	2
 757              		.global	RCC_PLLI2SCmd
 758              		.thumb
 759              		.thumb_func
 761              	RCC_PLLI2SCmd:
 762              	.LFB120:
 493:App/STM32F4-Discovery/Libraries/STM32F4xx_StdPeriph_Driver/src/stm32f4xx_rcc.c **** 
 494:App/STM32F4-Discovery/Libraries/STM32F4xx_StdPeriph_Driver/src/stm32f4xx_rcc.c **** /**
 495:App/STM32F4-Discovery/Libraries/STM32F4xx_StdPeriph_Driver/src/stm32f4xx_rcc.c ****   * @brief  Enables or disables the PLLI2S. 
 496:App/STM32F4-Discovery/Libraries/STM32F4xx_StdPeriph_Driver/src/stm32f4xx_rcc.c ****   * @note   The PLLI2S is disabled by hardware when entering STOP and STANDBY modes.  
 497:App/STM32F4-Discovery/Libraries/STM32F4xx_StdPeriph_Driver/src/stm32f4xx_rcc.c ****   * @param  NewState: new state of the PLLI2S. This parameter can be: ENABLE or DISABLE.
 498:App/STM32F4-Discovery/Libraries/STM32F4xx_StdPeriph_Driver/src/stm32f4xx_rcc.c ****   * @retval None
 499:App/STM32F4-Discovery/Libraries/STM32F4xx_StdPeriph_Driver/src/stm32f4xx_rcc.c ****   */
 500:App/STM32F4-Discovery/Libraries/STM32F4xx_StdPeriph_Driver/src/stm32f4xx_rcc.c **** void RCC_PLLI2SCmd(FunctionalState NewState)
 501:App/STM32F4-Discovery/Libraries/STM32F4xx_StdPeriph_Driver/src/stm32f4xx_rcc.c **** {
 763              		.loc 1 501 0
 764              		.cfi_startproc
 765              		@ args = 0, pretend = 0, frame = 8
 766              		@ frame_needed = 1, uses_anonymous_args = 0
 767 0000 80B5     		push	{r7, lr}
 768              	.LCFI29:
 769              		.cfi_def_cfa_offset 8
 770              		.cfi_offset 7, -8
 771              		.cfi_offset 14, -4
 772 0002 82B0     		sub	sp, sp, #8
 773              	.LCFI30:
 774              		.cfi_def_cfa_offset 16
 775 0004 00AF     		add	r7, sp, #0
 776              	.LCFI31:
 777              		.cfi_def_cfa_register 7
 778 0006 0346     		mov	r3, r0
 779 0008 FB71     		strb	r3, [r7, #7]
 502:App/STM32F4-Discovery/Libraries/STM32F4xx_StdPeriph_Driver/src/stm32f4xx_rcc.c ****   /* Check the parameters */
 503:App/STM32F4-Discovery/Libraries/STM32F4xx_StdPeriph_Driver/src/stm32f4xx_rcc.c ****   assert_param(IS_FUNCTIONAL_STATE(NewState));
 780              		.loc 1 503 0
 781 000a FB79     		ldrb	r3, [r7, #7]	@ zero_extendqisi2
 782 000c 002B     		cmp	r3, #0
 783 000e 0AD0     		beq	.L39
 784              		.loc 1 503 0 is_stmt 0 discriminator 1
 785 0010 FB79     		ldrb	r3, [r7, #7]	@ zero_extendqisi2
 786 0012 012B     		cmp	r3, #1
 787 0014 07D0     		beq	.L39
 788              		.loc 1 503 0 discriminator 2
 789 0016 40F20000 		movw	r0, #:lower16:.LC0
 790 001a C0F20000 		movt	r0, #:upper16:.LC0
 791 001e 40F2F711 		movw	r1, #503
 792 0022 FFF7FEFF 		bl	assert_failed
 793              	.L39:
 504:App/STM32F4-Discovery/Libraries/STM32F4xx_StdPeriph_Driver/src/stm32f4xx_rcc.c ****   *(__IO uint32_t *) CR_PLLI2SON_BB = (uint32_t)NewState;
 794              		.loc 1 504 0 is_stmt 1
 795 0026 4FF06803 		mov	r3, #104
 796 002a C4F24723 		movt	r3, 16967
 797 002e FA79     		ldrb	r2, [r7, #7]	@ zero_extendqisi2
 798 0030 1A60     		str	r2, [r3, #0]
 505:App/STM32F4-Discovery/Libraries/STM32F4xx_StdPeriph_Driver/src/stm32f4xx_rcc.c **** }
 799              		.loc 1 505 0
 800 0032 07F10807 		add	r7, r7, #8
 801 0036 BD46     		mov	sp, r7
 802 0038 80BD     		pop	{r7, pc}
 803              		.cfi_endproc
 804              	.LFE120:
 806 003a 00BF     		.section	.text.RCC_ClockSecuritySystemCmd,"ax",%progbits
 807              		.align	2
 808              		.global	RCC_ClockSecuritySystemCmd
 809              		.thumb
 810              		.thumb_func
 812              	RCC_ClockSecuritySystemCmd:
 813              	.LFB121:
 506:App/STM32F4-Discovery/Libraries/STM32F4xx_StdPeriph_Driver/src/stm32f4xx_rcc.c **** 
 507:App/STM32F4-Discovery/Libraries/STM32F4xx_StdPeriph_Driver/src/stm32f4xx_rcc.c **** /**
 508:App/STM32F4-Discovery/Libraries/STM32F4xx_StdPeriph_Driver/src/stm32f4xx_rcc.c ****   * @brief  Enables or disables the Clock Security System.
 509:App/STM32F4-Discovery/Libraries/STM32F4xx_StdPeriph_Driver/src/stm32f4xx_rcc.c ****   * @note   If a failure is detected on the HSE oscillator clock, this oscillator
 510:App/STM32F4-Discovery/Libraries/STM32F4xx_StdPeriph_Driver/src/stm32f4xx_rcc.c ****   *         is automatically disabled and an interrupt is generated to inform the
 511:App/STM32F4-Discovery/Libraries/STM32F4xx_StdPeriph_Driver/src/stm32f4xx_rcc.c ****   *         software about the failure (Clock Security System Interrupt, CSSI),
 512:App/STM32F4-Discovery/Libraries/STM32F4xx_StdPeriph_Driver/src/stm32f4xx_rcc.c ****   *         allowing the MCU to perform rescue operations. The CSSI is linked to 
 513:App/STM32F4-Discovery/Libraries/STM32F4xx_StdPeriph_Driver/src/stm32f4xx_rcc.c ****   *         the Cortex-M4 NMI (Non-Maskable Interrupt) exception vector.  
 514:App/STM32F4-Discovery/Libraries/STM32F4xx_StdPeriph_Driver/src/stm32f4xx_rcc.c ****   * @param  NewState: new state of the Clock Security System.
 515:App/STM32F4-Discovery/Libraries/STM32F4xx_StdPeriph_Driver/src/stm32f4xx_rcc.c ****   *         This parameter can be: ENABLE or DISABLE.
 516:App/STM32F4-Discovery/Libraries/STM32F4xx_StdPeriph_Driver/src/stm32f4xx_rcc.c ****   * @retval None
 517:App/STM32F4-Discovery/Libraries/STM32F4xx_StdPeriph_Driver/src/stm32f4xx_rcc.c ****   */
 518:App/STM32F4-Discovery/Libraries/STM32F4xx_StdPeriph_Driver/src/stm32f4xx_rcc.c **** void RCC_ClockSecuritySystemCmd(FunctionalState NewState)
 519:App/STM32F4-Discovery/Libraries/STM32F4xx_StdPeriph_Driver/src/stm32f4xx_rcc.c **** {
 814              		.loc 1 519 0
 815              		.cfi_startproc
 816              		@ args = 0, pretend = 0, frame = 8
 817              		@ frame_needed = 1, uses_anonymous_args = 0
 818 0000 80B5     		push	{r7, lr}
 819              	.LCFI32:
 820              		.cfi_def_cfa_offset 8
 821              		.cfi_offset 7, -8
 822              		.cfi_offset 14, -4
 823 0002 82B0     		sub	sp, sp, #8
 824              	.LCFI33:
 825              		.cfi_def_cfa_offset 16
 826 0004 00AF     		add	r7, sp, #0
 827              	.LCFI34:
 828              		.cfi_def_cfa_register 7
 829 0006 0346     		mov	r3, r0
 830 0008 FB71     		strb	r3, [r7, #7]
 520:App/STM32F4-Discovery/Libraries/STM32F4xx_StdPeriph_Driver/src/stm32f4xx_rcc.c ****   /* Check the parameters */
 521:App/STM32F4-Discovery/Libraries/STM32F4xx_StdPeriph_Driver/src/stm32f4xx_rcc.c ****   assert_param(IS_FUNCTIONAL_STATE(NewState));
 831              		.loc 1 521 0
 832 000a FB79     		ldrb	r3, [r7, #7]	@ zero_extendqisi2
 833 000c 002B     		cmp	r3, #0
 834 000e 0AD0     		beq	.L41
 835              		.loc 1 521 0 is_stmt 0 discriminator 1
 836 0010 FB79     		ldrb	r3, [r7, #7]	@ zero_extendqisi2
 837 0012 012B     		cmp	r3, #1
 838 0014 07D0     		beq	.L41
 839              		.loc 1 521 0 discriminator 2
 840 0016 40F20000 		movw	r0, #:lower16:.LC0
 841 001a C0F20000 		movt	r0, #:upper16:.LC0
 842 001e 40F20921 		movw	r1, #521
 843 0022 FFF7FEFF 		bl	assert_failed
 844              	.L41:
 522:App/STM32F4-Discovery/Libraries/STM32F4xx_StdPeriph_Driver/src/stm32f4xx_rcc.c ****   *(__IO uint32_t *) CR_CSSON_BB = (uint32_t)NewState;
 845              		.loc 1 522 0 is_stmt 1
 846 0026 4FF04C03 		mov	r3, #76
 847 002a C4F24723 		movt	r3, 16967
 848 002e FA79     		ldrb	r2, [r7, #7]	@ zero_extendqisi2
 849 0030 1A60     		str	r2, [r3, #0]
 523:App/STM32F4-Discovery/Libraries/STM32F4xx_StdPeriph_Driver/src/stm32f4xx_rcc.c **** }
 850              		.loc 1 523 0
 851 0032 07F10807 		add	r7, r7, #8
 852 0036 BD46     		mov	sp, r7
 853 0038 80BD     		pop	{r7, pc}
 854              		.cfi_endproc
 855              	.LFE121:
 857 003a 00BF     		.section	.text.RCC_MCO1Config,"ax",%progbits
 858              		.align	2
 859              		.global	RCC_MCO1Config
 860              		.thumb
 861              		.thumb_func
 863              	RCC_MCO1Config:
 864              	.LFB122:
 524:App/STM32F4-Discovery/Libraries/STM32F4xx_StdPeriph_Driver/src/stm32f4xx_rcc.c **** 
 525:App/STM32F4-Discovery/Libraries/STM32F4xx_StdPeriph_Driver/src/stm32f4xx_rcc.c **** /**
 526:App/STM32F4-Discovery/Libraries/STM32F4xx_StdPeriph_Driver/src/stm32f4xx_rcc.c ****   * @brief  Selects the clock source to output on MCO1 pin(PA8).
 527:App/STM32F4-Discovery/Libraries/STM32F4xx_StdPeriph_Driver/src/stm32f4xx_rcc.c ****   * @note   PA8 should be configured in alternate function mode.
 528:App/STM32F4-Discovery/Libraries/STM32F4xx_StdPeriph_Driver/src/stm32f4xx_rcc.c ****   * @param  RCC_MCO1Source: specifies the clock source to output.
 529:App/STM32F4-Discovery/Libraries/STM32F4xx_StdPeriph_Driver/src/stm32f4xx_rcc.c ****   *          This parameter can be one of the following values:
 530:App/STM32F4-Discovery/Libraries/STM32F4xx_StdPeriph_Driver/src/stm32f4xx_rcc.c ****   *            @arg RCC_MCO1Source_HSI: HSI clock selected as MCO1 source
 531:App/STM32F4-Discovery/Libraries/STM32F4xx_StdPeriph_Driver/src/stm32f4xx_rcc.c ****   *            @arg RCC_MCO1Source_LSE: LSE clock selected as MCO1 source
 532:App/STM32F4-Discovery/Libraries/STM32F4xx_StdPeriph_Driver/src/stm32f4xx_rcc.c ****   *            @arg RCC_MCO1Source_HSE: HSE clock selected as MCO1 source
 533:App/STM32F4-Discovery/Libraries/STM32F4xx_StdPeriph_Driver/src/stm32f4xx_rcc.c ****   *            @arg RCC_MCO1Source_PLLCLK: main PLL clock selected as MCO1 source
 534:App/STM32F4-Discovery/Libraries/STM32F4xx_StdPeriph_Driver/src/stm32f4xx_rcc.c ****   * @param  RCC_MCO1Div: specifies the MCO1 prescaler.
 535:App/STM32F4-Discovery/Libraries/STM32F4xx_StdPeriph_Driver/src/stm32f4xx_rcc.c ****   *          This parameter can be one of the following values:
 536:App/STM32F4-Discovery/Libraries/STM32F4xx_StdPeriph_Driver/src/stm32f4xx_rcc.c ****   *            @arg RCC_MCO1Div_1: no division applied to MCO1 clock
 537:App/STM32F4-Discovery/Libraries/STM32F4xx_StdPeriph_Driver/src/stm32f4xx_rcc.c ****   *            @arg RCC_MCO1Div_2: division by 2 applied to MCO1 clock
 538:App/STM32F4-Discovery/Libraries/STM32F4xx_StdPeriph_Driver/src/stm32f4xx_rcc.c ****   *            @arg RCC_MCO1Div_3: division by 3 applied to MCO1 clock
 539:App/STM32F4-Discovery/Libraries/STM32F4xx_StdPeriph_Driver/src/stm32f4xx_rcc.c ****   *            @arg RCC_MCO1Div_4: division by 4 applied to MCO1 clock
 540:App/STM32F4-Discovery/Libraries/STM32F4xx_StdPeriph_Driver/src/stm32f4xx_rcc.c ****   *            @arg RCC_MCO1Div_5: division by 5 applied to MCO1 clock
 541:App/STM32F4-Discovery/Libraries/STM32F4xx_StdPeriph_Driver/src/stm32f4xx_rcc.c ****   * @retval None
 542:App/STM32F4-Discovery/Libraries/STM32F4xx_StdPeriph_Driver/src/stm32f4xx_rcc.c ****   */
 543:App/STM32F4-Discovery/Libraries/STM32F4xx_StdPeriph_Driver/src/stm32f4xx_rcc.c **** void RCC_MCO1Config(uint32_t RCC_MCO1Source, uint32_t RCC_MCO1Div)
 544:App/STM32F4-Discovery/Libraries/STM32F4xx_StdPeriph_Driver/src/stm32f4xx_rcc.c **** {
 865              		.loc 1 544 0
 866              		.cfi_startproc
 867              		@ args = 0, pretend = 0, frame = 16
 868              		@ frame_needed = 1, uses_anonymous_args = 0
 869 0000 80B5     		push	{r7, lr}
 870              	.LCFI35:
 871              		.cfi_def_cfa_offset 8
 872              		.cfi_offset 7, -8
 873              		.cfi_offset 14, -4
 874 0002 84B0     		sub	sp, sp, #16
 875              	.LCFI36:
 876              		.cfi_def_cfa_offset 24
 877 0004 00AF     		add	r7, sp, #0
 878              	.LCFI37:
 879              		.cfi_def_cfa_register 7
 880 0006 7860     		str	r0, [r7, #4]
 881 0008 3960     		str	r1, [r7, #0]
 545:App/STM32F4-Discovery/Libraries/STM32F4xx_StdPeriph_Driver/src/stm32f4xx_rcc.c ****   uint32_t tmpreg = 0;
 882              		.loc 1 545 0
 883 000a 4FF00003 		mov	r3, #0
 884 000e FB60     		str	r3, [r7, #12]
 546:App/STM32F4-Discovery/Libraries/STM32F4xx_StdPeriph_Driver/src/stm32f4xx_rcc.c ****   
 547:App/STM32F4-Discovery/Libraries/STM32F4xx_StdPeriph_Driver/src/stm32f4xx_rcc.c ****   /* Check the parameters */
 548:App/STM32F4-Discovery/Libraries/STM32F4xx_StdPeriph_Driver/src/stm32f4xx_rcc.c ****   assert_param(IS_RCC_MCO1SOURCE(RCC_MCO1Source));
 885              		.loc 1 548 0
 886 0010 7B68     		ldr	r3, [r7, #4]
 887 0012 002B     		cmp	r3, #0
 888 0014 13D0     		beq	.L43
 889              		.loc 1 548 0 is_stmt 0 discriminator 1
 890 0016 7B68     		ldr	r3, [r7, #4]
 891 0018 B3F5001F 		cmp	r3, #2097152
 892 001c 0FD0     		beq	.L43
 893              		.loc 1 548 0 discriminator 2
 894 001e 7B68     		ldr	r3, [r7, #4]
 895 0020 B3F5800F 		cmp	r3, #4194304
 896 0024 0BD0     		beq	.L43
 897              		.loc 1 548 0 discriminator 3
 898 0026 7B68     		ldr	r3, [r7, #4]
 899 0028 B3F5C00F 		cmp	r3, #6291456
 900 002c 07D0     		beq	.L43
 901              		.loc 1 548 0 discriminator 4
 902 002e 40F20000 		movw	r0, #:lower16:.LC0
 903 0032 C0F20000 		movt	r0, #:upper16:.LC0
 904 0036 4FF40971 		mov	r1, #548
 905 003a FFF7FEFF 		bl	assert_failed
 906              	.L43:
 549:App/STM32F4-Discovery/Libraries/STM32F4xx_StdPeriph_Driver/src/stm32f4xx_rcc.c ****   assert_param(IS_RCC_MCO1DIV(RCC_MCO1Div));  
 907              		.loc 1 549 0 is_stmt 1
 908 003e 3B68     		ldr	r3, [r7, #0]
 909 0040 002B     		cmp	r3, #0
 910 0042 17D0     		beq	.L44
 911              		.loc 1 549 0 is_stmt 0 discriminator 1
 912 0044 3B68     		ldr	r3, [r7, #0]
 913 0046 B3F1806F 		cmp	r3, #67108864
 914 004a 13D0     		beq	.L44
 915              		.loc 1 549 0 discriminator 2
 916 004c 3B68     		ldr	r3, [r7, #0]
 917 004e B3F1A06F 		cmp	r3, #83886080
 918 0052 0FD0     		beq	.L44
 919              		.loc 1 549 0 discriminator 3
 920 0054 3B68     		ldr	r3, [r7, #0]
 921 0056 B3F1C06F 		cmp	r3, #100663296
 922 005a 0BD0     		beq	.L44
 923              		.loc 1 549 0 discriminator 4
 924 005c 3B68     		ldr	r3, [r7, #0]
 925 005e B3F1E06F 		cmp	r3, #117440512
 926 0062 07D0     		beq	.L44
 927              		.loc 1 549 0 discriminator 5
 928 0064 40F20000 		movw	r0, #:lower16:.LC0
 929 0068 C0F20000 		movt	r0, #:upper16:.LC0
 930 006c 40F22521 		movw	r1, #549
 931 0070 FFF7FEFF 		bl	assert_failed
 932              	.L44:
 550:App/STM32F4-Discovery/Libraries/STM32F4xx_StdPeriph_Driver/src/stm32f4xx_rcc.c **** 
 551:App/STM32F4-Discovery/Libraries/STM32F4xx_StdPeriph_Driver/src/stm32f4xx_rcc.c ****   tmpreg = RCC->CFGR;
 933              		.loc 1 551 0 is_stmt 1
 934 0074 4FF46053 		mov	r3, #14336
 935 0078 C4F20203 		movt	r3, 16386
 936 007c 9B68     		ldr	r3, [r3, #8]
 937 007e FB60     		str	r3, [r7, #12]
 552:App/STM32F4-Discovery/Libraries/STM32F4xx_StdPeriph_Driver/src/stm32f4xx_rcc.c **** 
 553:App/STM32F4-Discovery/Libraries/STM32F4xx_StdPeriph_Driver/src/stm32f4xx_rcc.c ****   /* Clear MCO1[1:0] and MCO1PRE[2:0] bits */
 554:App/STM32F4-Discovery/Libraries/STM32F4xx_StdPeriph_Driver/src/stm32f4xx_rcc.c ****   tmpreg &= CFGR_MCO1_RESET_MASK;
 938              		.loc 1 554 0
 939 0080 FB68     		ldr	r3, [r7, #12]
 940 0082 23F0EC63 		bic	r3, r3, #123731968
 941 0086 FB60     		str	r3, [r7, #12]
 555:App/STM32F4-Discovery/Libraries/STM32F4xx_StdPeriph_Driver/src/stm32f4xx_rcc.c **** 
 556:App/STM32F4-Discovery/Libraries/STM32F4xx_StdPeriph_Driver/src/stm32f4xx_rcc.c ****   /* Select MCO1 clock source and prescaler */
 557:App/STM32F4-Discovery/Libraries/STM32F4xx_StdPeriph_Driver/src/stm32f4xx_rcc.c ****   tmpreg |= RCC_MCO1Source | RCC_MCO1Div;
 942              		.loc 1 557 0
 943 0088 7A68     		ldr	r2, [r7, #4]
 944 008a 3B68     		ldr	r3, [r7, #0]
 945 008c 1343     		orrs	r3, r3, r2
 946 008e FA68     		ldr	r2, [r7, #12]
 947 0090 1343     		orrs	r3, r3, r2
 948 0092 FB60     		str	r3, [r7, #12]
 558:App/STM32F4-Discovery/Libraries/STM32F4xx_StdPeriph_Driver/src/stm32f4xx_rcc.c **** 
 559:App/STM32F4-Discovery/Libraries/STM32F4xx_StdPeriph_Driver/src/stm32f4xx_rcc.c ****   /* Store the new value */
 560:App/STM32F4-Discovery/Libraries/STM32F4xx_StdPeriph_Driver/src/stm32f4xx_rcc.c ****   RCC->CFGR = tmpreg;  
 949              		.loc 1 560 0
 950 0094 4FF46053 		mov	r3, #14336
 951 0098 C4F20203 		movt	r3, 16386
 952 009c FA68     		ldr	r2, [r7, #12]
 953 009e 9A60     		str	r2, [r3, #8]
 561:App/STM32F4-Discovery/Libraries/STM32F4xx_StdPeriph_Driver/src/stm32f4xx_rcc.c **** }
 954              		.loc 1 561 0
 955 00a0 07F11007 		add	r7, r7, #16
 956 00a4 BD46     		mov	sp, r7
 957 00a6 80BD     		pop	{r7, pc}
 958              		.cfi_endproc
 959              	.LFE122:
 961              		.section	.text.RCC_MCO2Config,"ax",%progbits
 962              		.align	2
 963              		.global	RCC_MCO2Config
 964              		.thumb
 965              		.thumb_func
 967              	RCC_MCO2Config:
 968              	.LFB123:
 562:App/STM32F4-Discovery/Libraries/STM32F4xx_StdPeriph_Driver/src/stm32f4xx_rcc.c **** 
 563:App/STM32F4-Discovery/Libraries/STM32F4xx_StdPeriph_Driver/src/stm32f4xx_rcc.c **** /**
 564:App/STM32F4-Discovery/Libraries/STM32F4xx_StdPeriph_Driver/src/stm32f4xx_rcc.c ****   * @brief  Selects the clock source to output on MCO2 pin(PC9).
 565:App/STM32F4-Discovery/Libraries/STM32F4xx_StdPeriph_Driver/src/stm32f4xx_rcc.c ****   * @note   PC9 should be configured in alternate function mode.
 566:App/STM32F4-Discovery/Libraries/STM32F4xx_StdPeriph_Driver/src/stm32f4xx_rcc.c ****   * @param  RCC_MCO2Source: specifies the clock source to output.
 567:App/STM32F4-Discovery/Libraries/STM32F4xx_StdPeriph_Driver/src/stm32f4xx_rcc.c ****   *          This parameter can be one of the following values:
 568:App/STM32F4-Discovery/Libraries/STM32F4xx_StdPeriph_Driver/src/stm32f4xx_rcc.c ****   *            @arg RCC_MCO2Source_SYSCLK: System clock (SYSCLK) selected as MCO2 source
 569:App/STM32F4-Discovery/Libraries/STM32F4xx_StdPeriph_Driver/src/stm32f4xx_rcc.c ****   *            @arg RCC_MCO2Source_PLLI2SCLK: PLLI2S clock selected as MCO2 source
 570:App/STM32F4-Discovery/Libraries/STM32F4xx_StdPeriph_Driver/src/stm32f4xx_rcc.c ****   *            @arg RCC_MCO2Source_HSE: HSE clock selected as MCO2 source
 571:App/STM32F4-Discovery/Libraries/STM32F4xx_StdPeriph_Driver/src/stm32f4xx_rcc.c ****   *            @arg RCC_MCO2Source_PLLCLK: main PLL clock selected as MCO2 source
 572:App/STM32F4-Discovery/Libraries/STM32F4xx_StdPeriph_Driver/src/stm32f4xx_rcc.c ****   * @param  RCC_MCO2Div: specifies the MCO2 prescaler.
 573:App/STM32F4-Discovery/Libraries/STM32F4xx_StdPeriph_Driver/src/stm32f4xx_rcc.c ****   *          This parameter can be one of the following values:
 574:App/STM32F4-Discovery/Libraries/STM32F4xx_StdPeriph_Driver/src/stm32f4xx_rcc.c ****   *            @arg RCC_MCO2Div_1: no division applied to MCO2 clock
 575:App/STM32F4-Discovery/Libraries/STM32F4xx_StdPeriph_Driver/src/stm32f4xx_rcc.c ****   *            @arg RCC_MCO2Div_2: division by 2 applied to MCO2 clock
 576:App/STM32F4-Discovery/Libraries/STM32F4xx_StdPeriph_Driver/src/stm32f4xx_rcc.c ****   *            @arg RCC_MCO2Div_3: division by 3 applied to MCO2 clock
 577:App/STM32F4-Discovery/Libraries/STM32F4xx_StdPeriph_Driver/src/stm32f4xx_rcc.c ****   *            @arg RCC_MCO2Div_4: division by 4 applied to MCO2 clock
 578:App/STM32F4-Discovery/Libraries/STM32F4xx_StdPeriph_Driver/src/stm32f4xx_rcc.c ****   *            @arg RCC_MCO2Div_5: division by 5 applied to MCO2 clock
 579:App/STM32F4-Discovery/Libraries/STM32F4xx_StdPeriph_Driver/src/stm32f4xx_rcc.c ****   * @retval None
 580:App/STM32F4-Discovery/Libraries/STM32F4xx_StdPeriph_Driver/src/stm32f4xx_rcc.c ****   */
 581:App/STM32F4-Discovery/Libraries/STM32F4xx_StdPeriph_Driver/src/stm32f4xx_rcc.c **** void RCC_MCO2Config(uint32_t RCC_MCO2Source, uint32_t RCC_MCO2Div)
 582:App/STM32F4-Discovery/Libraries/STM32F4xx_StdPeriph_Driver/src/stm32f4xx_rcc.c **** {
 969              		.loc 1 582 0
 970              		.cfi_startproc
 971              		@ args = 0, pretend = 0, frame = 16
 972              		@ frame_needed = 1, uses_anonymous_args = 0
 973 0000 80B5     		push	{r7, lr}
 974              	.LCFI38:
 975              		.cfi_def_cfa_offset 8
 976              		.cfi_offset 7, -8
 977              		.cfi_offset 14, -4
 978 0002 84B0     		sub	sp, sp, #16
 979              	.LCFI39:
 980              		.cfi_def_cfa_offset 24
 981 0004 00AF     		add	r7, sp, #0
 982              	.LCFI40:
 983              		.cfi_def_cfa_register 7
 984 0006 7860     		str	r0, [r7, #4]
 985 0008 3960     		str	r1, [r7, #0]
 583:App/STM32F4-Discovery/Libraries/STM32F4xx_StdPeriph_Driver/src/stm32f4xx_rcc.c ****   uint32_t tmpreg = 0;
 986              		.loc 1 583 0
 987 000a 4FF00003 		mov	r3, #0
 988 000e FB60     		str	r3, [r7, #12]
 584:App/STM32F4-Discovery/Libraries/STM32F4xx_StdPeriph_Driver/src/stm32f4xx_rcc.c ****   
 585:App/STM32F4-Discovery/Libraries/STM32F4xx_StdPeriph_Driver/src/stm32f4xx_rcc.c ****   /* Check the parameters */
 586:App/STM32F4-Discovery/Libraries/STM32F4xx_StdPeriph_Driver/src/stm32f4xx_rcc.c ****   assert_param(IS_RCC_MCO2SOURCE(RCC_MCO2Source));
 989              		.loc 1 586 0
 990 0010 7B68     		ldr	r3, [r7, #4]
 991 0012 002B     		cmp	r3, #0
 992 0014 13D0     		beq	.L46
 993              		.loc 1 586 0 is_stmt 0 discriminator 1
 994 0016 7B68     		ldr	r3, [r7, #4]
 995 0018 B3F1804F 		cmp	r3, #1073741824
 996 001c 0FD0     		beq	.L46
 997              		.loc 1 586 0 discriminator 2
 998 001e 7B68     		ldr	r3, [r7, #4]
 999 0020 B3F1004F 		cmp	r3, #-2147483648
 1000 0024 0BD0     		beq	.L46
 1001              		.loc 1 586 0 discriminator 3
 1002 0026 7B68     		ldr	r3, [r7, #4]
 1003 0028 B3F1404F 		cmp	r3, #-1073741824
 1004 002c 07D0     		beq	.L46
 1005              		.loc 1 586 0 discriminator 4
 1006 002e 40F20000 		movw	r0, #:lower16:.LC0
 1007 0032 C0F20000 		movt	r0, #:upper16:.LC0
 1008 0036 40F24A21 		movw	r1, #586
 1009 003a FFF7FEFF 		bl	assert_failed
 1010              	.L46:
 587:App/STM32F4-Discovery/Libraries/STM32F4xx_StdPeriph_Driver/src/stm32f4xx_rcc.c ****   assert_param(IS_RCC_MCO2DIV(RCC_MCO2Div));
 1011              		.loc 1 587 0 is_stmt 1
 1012 003e 3B68     		ldr	r3, [r7, #0]
 1013 0040 002B     		cmp	r3, #0
 1014 0042 17D0     		beq	.L47
 1015              		.loc 1 587 0 is_stmt 0 discriminator 1
 1016 0044 3B68     		ldr	r3, [r7, #0]
 1017 0046 B3F1005F 		cmp	r3, #536870912
 1018 004a 13D0     		beq	.L47
 1019              		.loc 1 587 0 discriminator 2
 1020 004c 3B68     		ldr	r3, [r7, #0]
 1021 004e B3F1205F 		cmp	r3, #671088640
 1022 0052 0FD0     		beq	.L47
 1023              		.loc 1 587 0 discriminator 3
 1024 0054 3B68     		ldr	r3, [r7, #0]
 1025 0056 B3F1405F 		cmp	r3, #805306368
 1026 005a 0BD0     		beq	.L47
 1027              		.loc 1 587 0 discriminator 4
 1028 005c 3B68     		ldr	r3, [r7, #0]
 1029 005e B3F1605F 		cmp	r3, #939524096
 1030 0062 07D0     		beq	.L47
 1031              		.loc 1 587 0 discriminator 5
 1032 0064 40F20000 		movw	r0, #:lower16:.LC0
 1033 0068 C0F20000 		movt	r0, #:upper16:.LC0
 1034 006c 40F24B21 		movw	r1, #587
 1035 0070 FFF7FEFF 		bl	assert_failed
 1036              	.L47:
 588:App/STM32F4-Discovery/Libraries/STM32F4xx_StdPeriph_Driver/src/stm32f4xx_rcc.c ****   
 589:App/STM32F4-Discovery/Libraries/STM32F4xx_StdPeriph_Driver/src/stm32f4xx_rcc.c ****   tmpreg = RCC->CFGR;
 1037              		.loc 1 589 0 is_stmt 1
 1038 0074 4FF46053 		mov	r3, #14336
 1039 0078 C4F20203 		movt	r3, 16386
 1040 007c 9B68     		ldr	r3, [r3, #8]
 1041 007e FB60     		str	r3, [r7, #12]
 590:App/STM32F4-Discovery/Libraries/STM32F4xx_StdPeriph_Driver/src/stm32f4xx_rcc.c ****   
 591:App/STM32F4-Discovery/Libraries/STM32F4xx_StdPeriph_Driver/src/stm32f4xx_rcc.c ****   /* Clear MCO2 and MCO2PRE[2:0] bits */
 592:App/STM32F4-Discovery/Libraries/STM32F4xx_StdPeriph_Driver/src/stm32f4xx_rcc.c ****   tmpreg &= CFGR_MCO2_RESET_MASK;
 1042              		.loc 1 592 0
 1043 0080 FB68     		ldr	r3, [r7, #12]
 1044 0082 23F07843 		bic	r3, r3, #-134217728
 1045 0086 FB60     		str	r3, [r7, #12]
 593:App/STM32F4-Discovery/Libraries/STM32F4xx_StdPeriph_Driver/src/stm32f4xx_rcc.c **** 
 594:App/STM32F4-Discovery/Libraries/STM32F4xx_StdPeriph_Driver/src/stm32f4xx_rcc.c ****   /* Select MCO2 clock source and prescaler */
 595:App/STM32F4-Discovery/Libraries/STM32F4xx_StdPeriph_Driver/src/stm32f4xx_rcc.c ****   tmpreg |= RCC_MCO2Source | RCC_MCO2Div;
 1046              		.loc 1 595 0
 1047 0088 7A68     		ldr	r2, [r7, #4]
 1048 008a 3B68     		ldr	r3, [r7, #0]
 1049 008c 1343     		orrs	r3, r3, r2
 1050 008e FA68     		ldr	r2, [r7, #12]
 1051 0090 1343     		orrs	r3, r3, r2
 1052 0092 FB60     		str	r3, [r7, #12]
 596:App/STM32F4-Discovery/Libraries/STM32F4xx_StdPeriph_Driver/src/stm32f4xx_rcc.c **** 
 597:App/STM32F4-Discovery/Libraries/STM32F4xx_StdPeriph_Driver/src/stm32f4xx_rcc.c ****   /* Store the new value */
 598:App/STM32F4-Discovery/Libraries/STM32F4xx_StdPeriph_Driver/src/stm32f4xx_rcc.c ****   RCC->CFGR = tmpreg;  
 1053              		.loc 1 598 0
 1054 0094 4FF46053 		mov	r3, #14336
 1055 0098 C4F20203 		movt	r3, 16386
 1056 009c FA68     		ldr	r2, [r7, #12]
 1057 009e 9A60     		str	r2, [r3, #8]
 599:App/STM32F4-Discovery/Libraries/STM32F4xx_StdPeriph_Driver/src/stm32f4xx_rcc.c **** }
 1058              		.loc 1 599 0
 1059 00a0 07F11007 		add	r7, r7, #16
 1060 00a4 BD46     		mov	sp, r7
 1061 00a6 80BD     		pop	{r7, pc}
 1062              		.cfi_endproc
 1063              	.LFE123:
 1065              		.section	.text.RCC_SYSCLKConfig,"ax",%progbits
 1066              		.align	2
 1067              		.global	RCC_SYSCLKConfig
 1068              		.thumb
 1069              		.thumb_func
 1071              	RCC_SYSCLKConfig:
 1072              	.LFB124:
 600:App/STM32F4-Discovery/Libraries/STM32F4xx_StdPeriph_Driver/src/stm32f4xx_rcc.c **** 
 601:App/STM32F4-Discovery/Libraries/STM32F4xx_StdPeriph_Driver/src/stm32f4xx_rcc.c **** /**
 602:App/STM32F4-Discovery/Libraries/STM32F4xx_StdPeriph_Driver/src/stm32f4xx_rcc.c ****   * @}
 603:App/STM32F4-Discovery/Libraries/STM32F4xx_StdPeriph_Driver/src/stm32f4xx_rcc.c ****   */
 604:App/STM32F4-Discovery/Libraries/STM32F4xx_StdPeriph_Driver/src/stm32f4xx_rcc.c **** 
 605:App/STM32F4-Discovery/Libraries/STM32F4xx_StdPeriph_Driver/src/stm32f4xx_rcc.c **** /** @defgroup RCC_Group2 System AHB and APB busses clocks configuration functions
 606:App/STM32F4-Discovery/Libraries/STM32F4xx_StdPeriph_Driver/src/stm32f4xx_rcc.c ****  *  @brief   System, AHB and APB busses clocks configuration functions
 607:App/STM32F4-Discovery/Libraries/STM32F4xx_StdPeriph_Driver/src/stm32f4xx_rcc.c ****  *
 608:App/STM32F4-Discovery/Libraries/STM32F4xx_StdPeriph_Driver/src/stm32f4xx_rcc.c **** @verbatim   
 609:App/STM32F4-Discovery/Libraries/STM32F4xx_StdPeriph_Driver/src/stm32f4xx_rcc.c ****  ===============================================================================
 610:App/STM32F4-Discovery/Libraries/STM32F4xx_StdPeriph_Driver/src/stm32f4xx_rcc.c ****              System, AHB and APB busses clocks configuration functions
 611:App/STM32F4-Discovery/Libraries/STM32F4xx_StdPeriph_Driver/src/stm32f4xx_rcc.c ****  ===============================================================================  
 612:App/STM32F4-Discovery/Libraries/STM32F4xx_StdPeriph_Driver/src/stm32f4xx_rcc.c **** 
 613:App/STM32F4-Discovery/Libraries/STM32F4xx_StdPeriph_Driver/src/stm32f4xx_rcc.c ****   This section provide functions allowing to configure the System, AHB, APB1 and 
 614:App/STM32F4-Discovery/Libraries/STM32F4xx_StdPeriph_Driver/src/stm32f4xx_rcc.c ****   APB2 busses clocks.
 615:App/STM32F4-Discovery/Libraries/STM32F4xx_StdPeriph_Driver/src/stm32f4xx_rcc.c ****   
 616:App/STM32F4-Discovery/Libraries/STM32F4xx_StdPeriph_Driver/src/stm32f4xx_rcc.c ****   1. Several clock sources can be used to drive the System clock (SYSCLK): HSI,
 617:App/STM32F4-Discovery/Libraries/STM32F4xx_StdPeriph_Driver/src/stm32f4xx_rcc.c ****      HSE and PLL.
 618:App/STM32F4-Discovery/Libraries/STM32F4xx_StdPeriph_Driver/src/stm32f4xx_rcc.c ****      The AHB clock (HCLK) is derived from System clock through configurable prescaler
 619:App/STM32F4-Discovery/Libraries/STM32F4xx_StdPeriph_Driver/src/stm32f4xx_rcc.c ****      and used to clock the CPU, memory and peripherals mapped on AHB bus (DMA, GPIO...).
 620:App/STM32F4-Discovery/Libraries/STM32F4xx_StdPeriph_Driver/src/stm32f4xx_rcc.c ****      APB1 (PCLK1) and APB2 (PCLK2) clocks are derived from AHB clock through 
 621:App/STM32F4-Discovery/Libraries/STM32F4xx_StdPeriph_Driver/src/stm32f4xx_rcc.c ****      configurable prescalers and used to clock the peripherals mapped on these busses.
 622:App/STM32F4-Discovery/Libraries/STM32F4xx_StdPeriph_Driver/src/stm32f4xx_rcc.c ****      You can use "RCC_GetClocksFreq()" function to retrieve the frequencies of these clocks.  
 623:App/STM32F4-Discovery/Libraries/STM32F4xx_StdPeriph_Driver/src/stm32f4xx_rcc.c **** 
 624:App/STM32F4-Discovery/Libraries/STM32F4xx_StdPeriph_Driver/src/stm32f4xx_rcc.c **** @note All the peripheral clocks are derived from the System clock (SYSCLK) except:
 625:App/STM32F4-Discovery/Libraries/STM32F4xx_StdPeriph_Driver/src/stm32f4xx_rcc.c ****        - I2S: the I2S clock can be derived either from a specific PLL (PLLI2S) or
 626:App/STM32F4-Discovery/Libraries/STM32F4xx_StdPeriph_Driver/src/stm32f4xx_rcc.c ****           from an external clock mapped on the I2S_CKIN pin. 
 627:App/STM32F4-Discovery/Libraries/STM32F4xx_StdPeriph_Driver/src/stm32f4xx_rcc.c ****           You have to use RCC_I2SCLKConfig() function to configure this clock. 
 628:App/STM32F4-Discovery/Libraries/STM32F4xx_StdPeriph_Driver/src/stm32f4xx_rcc.c ****        - RTC: the RTC clock can be derived either from the LSI, LSE or HSE clock
 629:App/STM32F4-Discovery/Libraries/STM32F4xx_StdPeriph_Driver/src/stm32f4xx_rcc.c ****           divided by 2 to 31. You have to use RCC_RTCCLKConfig() and RCC_RTCCLKCmd()
 630:App/STM32F4-Discovery/Libraries/STM32F4xx_StdPeriph_Driver/src/stm32f4xx_rcc.c ****           functions to configure this clock. 
 631:App/STM32F4-Discovery/Libraries/STM32F4xx_StdPeriph_Driver/src/stm32f4xx_rcc.c ****        - USB OTG FS, SDIO and RTC: USB OTG FS require a frequency equal to 48 MHz
 632:App/STM32F4-Discovery/Libraries/STM32F4xx_StdPeriph_Driver/src/stm32f4xx_rcc.c ****           to work correctly, while the SDIO require a frequency equal or lower than
 633:App/STM32F4-Discovery/Libraries/STM32F4xx_StdPeriph_Driver/src/stm32f4xx_rcc.c ****           to 48. This clock is derived of the main PLL through PLLQ divider.
 634:App/STM32F4-Discovery/Libraries/STM32F4xx_StdPeriph_Driver/src/stm32f4xx_rcc.c ****        - IWDG clock which is always the LSI clock.
 635:App/STM32F4-Discovery/Libraries/STM32F4xx_StdPeriph_Driver/src/stm32f4xx_rcc.c ****        
 636:App/STM32F4-Discovery/Libraries/STM32F4xx_StdPeriph_Driver/src/stm32f4xx_rcc.c ****   2. The maximum frequency of the SYSCLK and HCLK is 168 MHz, PCLK2 82 MHz and PCLK1 42 MHz.
 637:App/STM32F4-Discovery/Libraries/STM32F4xx_StdPeriph_Driver/src/stm32f4xx_rcc.c ****      Depending on the device voltage range, the maximum frequency should be 
 638:App/STM32F4-Discovery/Libraries/STM32F4xx_StdPeriph_Driver/src/stm32f4xx_rcc.c ****      adapted accordingly:
 639:App/STM32F4-Discovery/Libraries/STM32F4xx_StdPeriph_Driver/src/stm32f4xx_rcc.c ****  +-------------------------------------------------------------------------------------+     
 640:App/STM32F4-Discovery/Libraries/STM32F4xx_StdPeriph_Driver/src/stm32f4xx_rcc.c ****  | Latency       |                HCLK clock frequency (MHz)                           |
 641:App/STM32F4-Discovery/Libraries/STM32F4xx_StdPeriph_Driver/src/stm32f4xx_rcc.c ****  |               |---------------------------------------------------------------------|     
 642:App/STM32F4-Discovery/Libraries/STM32F4xx_StdPeriph_Driver/src/stm32f4xx_rcc.c ****  |               | voltage range  | voltage range  | voltage range   | voltage range   |
 643:App/STM32F4-Discovery/Libraries/STM32F4xx_StdPeriph_Driver/src/stm32f4xx_rcc.c ****  |               | 2.7 V - 3.6 V  | 2.4 V - 2.7 V  | 2.1 V - 2.4 V   | 1.8 V - 2.1 V   |
 644:App/STM32F4-Discovery/Libraries/STM32F4xx_StdPeriph_Driver/src/stm32f4xx_rcc.c ****  |---------------|----------------|----------------|-----------------|-----------------|           
 645:App/STM32F4-Discovery/Libraries/STM32F4xx_StdPeriph_Driver/src/stm32f4xx_rcc.c ****  |0WS(1CPU cycle)|0 < HCLK <= 30  |0 < HCLK <= 24  |0 < HCLK <= 18   |0 < HCLK <= 16   |
 646:App/STM32F4-Discovery/Libraries/STM32F4xx_StdPeriph_Driver/src/stm32f4xx_rcc.c ****  |---------------|----------------|----------------|-----------------|-----------------|   
 647:App/STM32F4-Discovery/Libraries/STM32F4xx_StdPeriph_Driver/src/stm32f4xx_rcc.c ****  |1WS(2CPU cycle)|30 < HCLK <= 60 |24 < HCLK <= 48 |18 < HCLK <= 36  |16 < HCLK <= 32  | 
 648:App/STM32F4-Discovery/Libraries/STM32F4xx_StdPeriph_Driver/src/stm32f4xx_rcc.c ****  |---------------|----------------|----------------|-----------------|-----------------|   
 649:App/STM32F4-Discovery/Libraries/STM32F4xx_StdPeriph_Driver/src/stm32f4xx_rcc.c ****  |2WS(3CPU cycle)|60 < HCLK <= 90 |48 < HCLK <= 72 |36 < HCLK <= 54  |32 < HCLK <= 48  |
 650:App/STM32F4-Discovery/Libraries/STM32F4xx_StdPeriph_Driver/src/stm32f4xx_rcc.c ****  |---------------|----------------|----------------|-----------------|-----------------| 
 651:App/STM32F4-Discovery/Libraries/STM32F4xx_StdPeriph_Driver/src/stm32f4xx_rcc.c ****  |3WS(4CPU cycle)|90 < HCLK <= 120|72 < HCLK <= 96 |54 < HCLK <= 72  |48 < HCLK <= 64  |
 652:App/STM32F4-Discovery/Libraries/STM32F4xx_StdPeriph_Driver/src/stm32f4xx_rcc.c ****  |---------------|----------------|----------------|-----------------|-----------------| 
 653:App/STM32F4-Discovery/Libraries/STM32F4xx_StdPeriph_Driver/src/stm32f4xx_rcc.c ****  |4WS(5CPU cycle)|120< HCLK <= 150|96 < HCLK <= 120|72 < HCLK <= 90  |64 < HCLK <= 80  |
 654:App/STM32F4-Discovery/Libraries/STM32F4xx_StdPeriph_Driver/src/stm32f4xx_rcc.c ****  |---------------|----------------|----------------|-----------------|-----------------| 
 655:App/STM32F4-Discovery/Libraries/STM32F4xx_StdPeriph_Driver/src/stm32f4xx_rcc.c ****  |5WS(6CPU cycle)|120< HCLK <= 168|120< HCLK <= 144|90 < HCLK <= 108 |80 < HCLK <= 96  | 
 656:App/STM32F4-Discovery/Libraries/STM32F4xx_StdPeriph_Driver/src/stm32f4xx_rcc.c ****  |---------------|----------------|----------------|-----------------|-----------------| 
 657:App/STM32F4-Discovery/Libraries/STM32F4xx_StdPeriph_Driver/src/stm32f4xx_rcc.c ****  |6WS(7CPU cycle)|      NA        |144< HCLK <= 168|108 < HCLK <= 120|96 < HCLK <= 112 | 
 658:App/STM32F4-Discovery/Libraries/STM32F4xx_StdPeriph_Driver/src/stm32f4xx_rcc.c ****  |---------------|----------------|----------------|-----------------|-----------------| 
 659:App/STM32F4-Discovery/Libraries/STM32F4xx_StdPeriph_Driver/src/stm32f4xx_rcc.c ****  |7WS(8CPU cycle)|      NA        |      NA        |120 < HCLK <= 138|112 < HCLK <= 120| 
 660:App/STM32F4-Discovery/Libraries/STM32F4xx_StdPeriph_Driver/src/stm32f4xx_rcc.c ****  +-------------------------------------------------------------------------------------+    
 661:App/STM32F4-Discovery/Libraries/STM32F4xx_StdPeriph_Driver/src/stm32f4xx_rcc.c ****    @note When VOS bit (in PWR_CR register) is reset to '0, the maximum value of HCLK is 144 MHz.
 662:App/STM32F4-Discovery/Libraries/STM32F4xx_StdPeriph_Driver/src/stm32f4xx_rcc.c ****          You can use PWR_MainRegulatorModeConfig() function to set or reset this bit.
 663:App/STM32F4-Discovery/Libraries/STM32F4xx_StdPeriph_Driver/src/stm32f4xx_rcc.c **** 
 664:App/STM32F4-Discovery/Libraries/STM32F4xx_StdPeriph_Driver/src/stm32f4xx_rcc.c **** @endverbatim
 665:App/STM32F4-Discovery/Libraries/STM32F4xx_StdPeriph_Driver/src/stm32f4xx_rcc.c ****   * @{
 666:App/STM32F4-Discovery/Libraries/STM32F4xx_StdPeriph_Driver/src/stm32f4xx_rcc.c ****   */
 667:App/STM32F4-Discovery/Libraries/STM32F4xx_StdPeriph_Driver/src/stm32f4xx_rcc.c **** 
 668:App/STM32F4-Discovery/Libraries/STM32F4xx_StdPeriph_Driver/src/stm32f4xx_rcc.c **** /**
 669:App/STM32F4-Discovery/Libraries/STM32F4xx_StdPeriph_Driver/src/stm32f4xx_rcc.c ****   * @brief  Configures the system clock (SYSCLK).
 670:App/STM32F4-Discovery/Libraries/STM32F4xx_StdPeriph_Driver/src/stm32f4xx_rcc.c ****   * @note   The HSI is used (enabled by hardware) as system clock source after
 671:App/STM32F4-Discovery/Libraries/STM32F4xx_StdPeriph_Driver/src/stm32f4xx_rcc.c ****   *         startup from Reset, wake-up from STOP and STANDBY mode, or in case
 672:App/STM32F4-Discovery/Libraries/STM32F4xx_StdPeriph_Driver/src/stm32f4xx_rcc.c ****   *         of failure of the HSE used directly or indirectly as system clock
 673:App/STM32F4-Discovery/Libraries/STM32F4xx_StdPeriph_Driver/src/stm32f4xx_rcc.c ****   *         (if the Clock Security System CSS is enabled).
 674:App/STM32F4-Discovery/Libraries/STM32F4xx_StdPeriph_Driver/src/stm32f4xx_rcc.c ****   * @note   A switch from one clock source to another occurs only if the target
 675:App/STM32F4-Discovery/Libraries/STM32F4xx_StdPeriph_Driver/src/stm32f4xx_rcc.c ****   *         clock source is ready (clock stable after startup delay or PLL locked). 
 676:App/STM32F4-Discovery/Libraries/STM32F4xx_StdPeriph_Driver/src/stm32f4xx_rcc.c ****   *         If a clock source which is not yet ready is selected, the switch will
 677:App/STM32F4-Discovery/Libraries/STM32F4xx_StdPeriph_Driver/src/stm32f4xx_rcc.c ****   *         occur when the clock source will be ready. 
 678:App/STM32F4-Discovery/Libraries/STM32F4xx_StdPeriph_Driver/src/stm32f4xx_rcc.c ****   *         You can use RCC_GetSYSCLKSource() function to know which clock is
 679:App/STM32F4-Discovery/Libraries/STM32F4xx_StdPeriph_Driver/src/stm32f4xx_rcc.c ****   *         currently used as system clock source. 
 680:App/STM32F4-Discovery/Libraries/STM32F4xx_StdPeriph_Driver/src/stm32f4xx_rcc.c ****   * @param  RCC_SYSCLKSource: specifies the clock source used as system clock.
 681:App/STM32F4-Discovery/Libraries/STM32F4xx_StdPeriph_Driver/src/stm32f4xx_rcc.c ****   *          This parameter can be one of the following values:
 682:App/STM32F4-Discovery/Libraries/STM32F4xx_StdPeriph_Driver/src/stm32f4xx_rcc.c ****   *            @arg RCC_SYSCLKSource_HSI:    HSI selected as system clock source
 683:App/STM32F4-Discovery/Libraries/STM32F4xx_StdPeriph_Driver/src/stm32f4xx_rcc.c ****   *            @arg RCC_SYSCLKSource_HSE:    HSE selected as system clock source
 684:App/STM32F4-Discovery/Libraries/STM32F4xx_StdPeriph_Driver/src/stm32f4xx_rcc.c ****   *            @arg RCC_SYSCLKSource_PLLCLK: PLL selected as system clock source
 685:App/STM32F4-Discovery/Libraries/STM32F4xx_StdPeriph_Driver/src/stm32f4xx_rcc.c ****   * @retval None
 686:App/STM32F4-Discovery/Libraries/STM32F4xx_StdPeriph_Driver/src/stm32f4xx_rcc.c ****   */
 687:App/STM32F4-Discovery/Libraries/STM32F4xx_StdPeriph_Driver/src/stm32f4xx_rcc.c **** void RCC_SYSCLKConfig(uint32_t RCC_SYSCLKSource)
 688:App/STM32F4-Discovery/Libraries/STM32F4xx_StdPeriph_Driver/src/stm32f4xx_rcc.c **** {
 1073              		.loc 1 688 0
 1074              		.cfi_startproc
 1075              		@ args = 0, pretend = 0, frame = 16
 1076              		@ frame_needed = 1, uses_anonymous_args = 0
 1077 0000 80B5     		push	{r7, lr}
 1078              	.LCFI41:
 1079              		.cfi_def_cfa_offset 8
 1080              		.cfi_offset 7, -8
 1081              		.cfi_offset 14, -4
 1082 0002 84B0     		sub	sp, sp, #16
 1083              	.LCFI42:
 1084              		.cfi_def_cfa_offset 24
 1085 0004 00AF     		add	r7, sp, #0
 1086              	.LCFI43:
 1087              		.cfi_def_cfa_register 7
 1088 0006 7860     		str	r0, [r7, #4]
 689:App/STM32F4-Discovery/Libraries/STM32F4xx_StdPeriph_Driver/src/stm32f4xx_rcc.c ****   uint32_t tmpreg = 0;
 1089              		.loc 1 689 0
 1090 0008 4FF00003 		mov	r3, #0
 1091 000c FB60     		str	r3, [r7, #12]
 690:App/STM32F4-Discovery/Libraries/STM32F4xx_StdPeriph_Driver/src/stm32f4xx_rcc.c **** 
 691:App/STM32F4-Discovery/Libraries/STM32F4xx_StdPeriph_Driver/src/stm32f4xx_rcc.c ****   /* Check the parameters */
 692:App/STM32F4-Discovery/Libraries/STM32F4xx_StdPeriph_Driver/src/stm32f4xx_rcc.c ****   assert_param(IS_RCC_SYSCLK_SOURCE(RCC_SYSCLKSource));
 1092              		.loc 1 692 0
 1093 000e 7B68     		ldr	r3, [r7, #4]
 1094 0010 002B     		cmp	r3, #0
 1095 0012 0DD0     		beq	.L49
 1096              		.loc 1 692 0 is_stmt 0 discriminator 1
 1097 0014 7B68     		ldr	r3, [r7, #4]
 1098 0016 012B     		cmp	r3, #1
 1099 0018 0AD0     		beq	.L49
 1100              		.loc 1 692 0 discriminator 2
 1101 001a 7B68     		ldr	r3, [r7, #4]
 1102 001c 022B     		cmp	r3, #2
 1103 001e 07D0     		beq	.L49
 1104              		.loc 1 692 0 discriminator 3
 1105 0020 40F20000 		movw	r0, #:lower16:.LC0
 1106 0024 C0F20000 		movt	r0, #:upper16:.LC0
 1107 0028 4FF42D71 		mov	r1, #692
 1108 002c FFF7FEFF 		bl	assert_failed
 1109              	.L49:
 693:App/STM32F4-Discovery/Libraries/STM32F4xx_StdPeriph_Driver/src/stm32f4xx_rcc.c **** 
 694:App/STM32F4-Discovery/Libraries/STM32F4xx_StdPeriph_Driver/src/stm32f4xx_rcc.c ****   tmpreg = RCC->CFGR;
 1110              		.loc 1 694 0 is_stmt 1
 1111 0030 4FF46053 		mov	r3, #14336
 1112 0034 C4F20203 		movt	r3, 16386
 1113 0038 9B68     		ldr	r3, [r3, #8]
 1114 003a FB60     		str	r3, [r7, #12]
 695:App/STM32F4-Discovery/Libraries/STM32F4xx_StdPeriph_Driver/src/stm32f4xx_rcc.c **** 
 696:App/STM32F4-Discovery/Libraries/STM32F4xx_StdPeriph_Driver/src/stm32f4xx_rcc.c ****   /* Clear SW[1:0] bits */
 697:App/STM32F4-Discovery/Libraries/STM32F4xx_StdPeriph_Driver/src/stm32f4xx_rcc.c ****   tmpreg &= ~RCC_CFGR_SW;
 1115              		.loc 1 697 0
 1116 003c FB68     		ldr	r3, [r7, #12]
 1117 003e 23F00303 		bic	r3, r3, #3
 1118 0042 FB60     		str	r3, [r7, #12]
 698:App/STM32F4-Discovery/Libraries/STM32F4xx_StdPeriph_Driver/src/stm32f4xx_rcc.c **** 
 699:App/STM32F4-Discovery/Libraries/STM32F4xx_StdPeriph_Driver/src/stm32f4xx_rcc.c ****   /* Set SW[1:0] bits according to RCC_SYSCLKSource value */
 700:App/STM32F4-Discovery/Libraries/STM32F4xx_StdPeriph_Driver/src/stm32f4xx_rcc.c ****   tmpreg |= RCC_SYSCLKSource;
 1119              		.loc 1 700 0
 1120 0044 FA68     		ldr	r2, [r7, #12]
 1121 0046 7B68     		ldr	r3, [r7, #4]
 1122 0048 1343     		orrs	r3, r3, r2
 1123 004a FB60     		str	r3, [r7, #12]
 701:App/STM32F4-Discovery/Libraries/STM32F4xx_StdPeriph_Driver/src/stm32f4xx_rcc.c **** 
 702:App/STM32F4-Discovery/Libraries/STM32F4xx_StdPeriph_Driver/src/stm32f4xx_rcc.c ****   /* Store the new value */
 703:App/STM32F4-Discovery/Libraries/STM32F4xx_StdPeriph_Driver/src/stm32f4xx_rcc.c ****   RCC->CFGR = tmpreg;
 1124              		.loc 1 703 0
 1125 004c 4FF46053 		mov	r3, #14336
 1126 0050 C4F20203 		movt	r3, 16386
 1127 0054 FA68     		ldr	r2, [r7, #12]
 1128 0056 9A60     		str	r2, [r3, #8]
 704:App/STM32F4-Discovery/Libraries/STM32F4xx_StdPeriph_Driver/src/stm32f4xx_rcc.c **** }
 1129              		.loc 1 704 0
 1130 0058 07F11007 		add	r7, r7, #16
 1131 005c BD46     		mov	sp, r7
 1132 005e 80BD     		pop	{r7, pc}
 1133              		.cfi_endproc
 1134              	.LFE124:
 1136              		.section	.text.RCC_GetSYSCLKSource,"ax",%progbits
 1137              		.align	2
 1138              		.global	RCC_GetSYSCLKSource
 1139              		.thumb
 1140              		.thumb_func
 1142              	RCC_GetSYSCLKSource:
 1143              	.LFB125:
 705:App/STM32F4-Discovery/Libraries/STM32F4xx_StdPeriph_Driver/src/stm32f4xx_rcc.c **** 
 706:App/STM32F4-Discovery/Libraries/STM32F4xx_StdPeriph_Driver/src/stm32f4xx_rcc.c **** /**
 707:App/STM32F4-Discovery/Libraries/STM32F4xx_StdPeriph_Driver/src/stm32f4xx_rcc.c ****   * @brief  Returns the clock source used as system clock.
 708:App/STM32F4-Discovery/Libraries/STM32F4xx_StdPeriph_Driver/src/stm32f4xx_rcc.c ****   * @param  None
 709:App/STM32F4-Discovery/Libraries/STM32F4xx_StdPeriph_Driver/src/stm32f4xx_rcc.c ****   * @retval The clock source used as system clock. The returned value can be one
 710:App/STM32F4-Discovery/Libraries/STM32F4xx_StdPeriph_Driver/src/stm32f4xx_rcc.c ****   *         of the following:
 711:App/STM32F4-Discovery/Libraries/STM32F4xx_StdPeriph_Driver/src/stm32f4xx_rcc.c ****   *              - 0x00: HSI used as system clock
 712:App/STM32F4-Discovery/Libraries/STM32F4xx_StdPeriph_Driver/src/stm32f4xx_rcc.c ****   *              - 0x04: HSE used as system clock
 713:App/STM32F4-Discovery/Libraries/STM32F4xx_StdPeriph_Driver/src/stm32f4xx_rcc.c ****   *              - 0x08: PLL used as system clock
 714:App/STM32F4-Discovery/Libraries/STM32F4xx_StdPeriph_Driver/src/stm32f4xx_rcc.c ****   */
 715:App/STM32F4-Discovery/Libraries/STM32F4xx_StdPeriph_Driver/src/stm32f4xx_rcc.c **** uint8_t RCC_GetSYSCLKSource(void)
 716:App/STM32F4-Discovery/Libraries/STM32F4xx_StdPeriph_Driver/src/stm32f4xx_rcc.c **** {
 1144              		.loc 1 716 0
 1145              		.cfi_startproc
 1146              		@ args = 0, pretend = 0, frame = 0
 1147              		@ frame_needed = 1, uses_anonymous_args = 0
 1148              		@ link register save eliminated.
 1149 0000 80B4     		push	{r7}
 1150              	.LCFI44:
 1151              		.cfi_def_cfa_offset 4
 1152              		.cfi_offset 7, -4
 1153 0002 00AF     		add	r7, sp, #0
 1154              	.LCFI45:
 1155              		.cfi_def_cfa_register 7
 717:App/STM32F4-Discovery/Libraries/STM32F4xx_StdPeriph_Driver/src/stm32f4xx_rcc.c ****   return ((uint8_t)(RCC->CFGR & RCC_CFGR_SWS));
 1156              		.loc 1 717 0
 1157 0004 4FF46053 		mov	r3, #14336
 1158 0008 C4F20203 		movt	r3, 16386
 1159 000c 9B68     		ldr	r3, [r3, #8]
 1160 000e DBB2     		uxtb	r3, r3
 1161 0010 03F00C03 		and	r3, r3, #12
 1162 0014 DBB2     		uxtb	r3, r3
 718:App/STM32F4-Discovery/Libraries/STM32F4xx_StdPeriph_Driver/src/stm32f4xx_rcc.c **** }
 1163              		.loc 1 718 0
 1164 0016 1846     		mov	r0, r3
 1165 0018 BD46     		mov	sp, r7
 1166 001a 80BC     		pop	{r7}
 1167 001c 7047     		bx	lr
 1168              		.cfi_endproc
 1169              	.LFE125:
 1171 001e 00BF     		.section	.text.RCC_HCLKConfig,"ax",%progbits
 1172              		.align	2
 1173              		.global	RCC_HCLKConfig
 1174              		.thumb
 1175              		.thumb_func
 1177              	RCC_HCLKConfig:
 1178              	.LFB126:
 719:App/STM32F4-Discovery/Libraries/STM32F4xx_StdPeriph_Driver/src/stm32f4xx_rcc.c **** 
 720:App/STM32F4-Discovery/Libraries/STM32F4xx_StdPeriph_Driver/src/stm32f4xx_rcc.c **** /**
 721:App/STM32F4-Discovery/Libraries/STM32F4xx_StdPeriph_Driver/src/stm32f4xx_rcc.c ****   * @brief  Configures the AHB clock (HCLK).
 722:App/STM32F4-Discovery/Libraries/STM32F4xx_StdPeriph_Driver/src/stm32f4xx_rcc.c ****   * @note   Depending on the device voltage range, the software has to set correctly
 723:App/STM32F4-Discovery/Libraries/STM32F4xx_StdPeriph_Driver/src/stm32f4xx_rcc.c ****   *         these bits to ensure that HCLK not exceed the maximum allowed frequency
 724:App/STM32F4-Discovery/Libraries/STM32F4xx_StdPeriph_Driver/src/stm32f4xx_rcc.c ****   *         (for more details refer to section above
 725:App/STM32F4-Discovery/Libraries/STM32F4xx_StdPeriph_Driver/src/stm32f4xx_rcc.c ****   *           "CPU, AHB and APB busses clocks configuration functions")
 726:App/STM32F4-Discovery/Libraries/STM32F4xx_StdPeriph_Driver/src/stm32f4xx_rcc.c ****   * @param  RCC_SYSCLK: defines the AHB clock divider. This clock is derived from 
 727:App/STM32F4-Discovery/Libraries/STM32F4xx_StdPeriph_Driver/src/stm32f4xx_rcc.c ****   *         the system clock (SYSCLK).
 728:App/STM32F4-Discovery/Libraries/STM32F4xx_StdPeriph_Driver/src/stm32f4xx_rcc.c ****   *          This parameter can be one of the following values:
 729:App/STM32F4-Discovery/Libraries/STM32F4xx_StdPeriph_Driver/src/stm32f4xx_rcc.c ****   *            @arg RCC_SYSCLK_Div1: AHB clock = SYSCLK
 730:App/STM32F4-Discovery/Libraries/STM32F4xx_StdPeriph_Driver/src/stm32f4xx_rcc.c ****   *            @arg RCC_SYSCLK_Div2: AHB clock = SYSCLK/2
 731:App/STM32F4-Discovery/Libraries/STM32F4xx_StdPeriph_Driver/src/stm32f4xx_rcc.c ****   *            @arg RCC_SYSCLK_Div4: AHB clock = SYSCLK/4
 732:App/STM32F4-Discovery/Libraries/STM32F4xx_StdPeriph_Driver/src/stm32f4xx_rcc.c ****   *            @arg RCC_SYSCLK_Div8: AHB clock = SYSCLK/8
 733:App/STM32F4-Discovery/Libraries/STM32F4xx_StdPeriph_Driver/src/stm32f4xx_rcc.c ****   *            @arg RCC_SYSCLK_Div16: AHB clock = SYSCLK/16
 734:App/STM32F4-Discovery/Libraries/STM32F4xx_StdPeriph_Driver/src/stm32f4xx_rcc.c ****   *            @arg RCC_SYSCLK_Div64: AHB clock = SYSCLK/64
 735:App/STM32F4-Discovery/Libraries/STM32F4xx_StdPeriph_Driver/src/stm32f4xx_rcc.c ****   *            @arg RCC_SYSCLK_Div128: AHB clock = SYSCLK/128
 736:App/STM32F4-Discovery/Libraries/STM32F4xx_StdPeriph_Driver/src/stm32f4xx_rcc.c ****   *            @arg RCC_SYSCLK_Div256: AHB clock = SYSCLK/256
 737:App/STM32F4-Discovery/Libraries/STM32F4xx_StdPeriph_Driver/src/stm32f4xx_rcc.c ****   *            @arg RCC_SYSCLK_Div512: AHB clock = SYSCLK/512
 738:App/STM32F4-Discovery/Libraries/STM32F4xx_StdPeriph_Driver/src/stm32f4xx_rcc.c ****   * @retval None
 739:App/STM32F4-Discovery/Libraries/STM32F4xx_StdPeriph_Driver/src/stm32f4xx_rcc.c ****   */
 740:App/STM32F4-Discovery/Libraries/STM32F4xx_StdPeriph_Driver/src/stm32f4xx_rcc.c **** void RCC_HCLKConfig(uint32_t RCC_SYSCLK)
 741:App/STM32F4-Discovery/Libraries/STM32F4xx_StdPeriph_Driver/src/stm32f4xx_rcc.c **** {
 1179              		.loc 1 741 0
 1180              		.cfi_startproc
 1181              		@ args = 0, pretend = 0, frame = 16
 1182              		@ frame_needed = 1, uses_anonymous_args = 0
 1183 0000 80B5     		push	{r7, lr}
 1184              	.LCFI46:
 1185              		.cfi_def_cfa_offset 8
 1186              		.cfi_offset 7, -8
 1187              		.cfi_offset 14, -4
 1188 0002 84B0     		sub	sp, sp, #16
 1189              	.LCFI47:
 1190              		.cfi_def_cfa_offset 24
 1191 0004 00AF     		add	r7, sp, #0
 1192              	.LCFI48:
 1193              		.cfi_def_cfa_register 7
 1194 0006 7860     		str	r0, [r7, #4]
 742:App/STM32F4-Discovery/Libraries/STM32F4xx_StdPeriph_Driver/src/stm32f4xx_rcc.c ****   uint32_t tmpreg = 0;
 1195              		.loc 1 742 0
 1196 0008 4FF00003 		mov	r3, #0
 1197 000c FB60     		str	r3, [r7, #12]
 743:App/STM32F4-Discovery/Libraries/STM32F4xx_StdPeriph_Driver/src/stm32f4xx_rcc.c ****   
 744:App/STM32F4-Discovery/Libraries/STM32F4xx_StdPeriph_Driver/src/stm32f4xx_rcc.c ****   /* Check the parameters */
 745:App/STM32F4-Discovery/Libraries/STM32F4xx_StdPeriph_Driver/src/stm32f4xx_rcc.c ****   assert_param(IS_RCC_HCLK(RCC_SYSCLK));
 1198              		.loc 1 745 0
 1199 000e 7B68     		ldr	r3, [r7, #4]
 1200 0010 002B     		cmp	r3, #0
 1201 0012 1FD0     		beq	.L53
 1202              		.loc 1 745 0 is_stmt 0 discriminator 1
 1203 0014 7B68     		ldr	r3, [r7, #4]
 1204 0016 802B     		cmp	r3, #128
 1205 0018 1CD0     		beq	.L53
 1206              		.loc 1 745 0 discriminator 2
 1207 001a 7B68     		ldr	r3, [r7, #4]
 1208 001c 902B     		cmp	r3, #144
 1209 001e 19D0     		beq	.L53
 1210              		.loc 1 745 0 discriminator 3
 1211 0020 7B68     		ldr	r3, [r7, #4]
 1212 0022 A02B     		cmp	r3, #160
 1213 0024 16D0     		beq	.L53
 1214              		.loc 1 745 0 discriminator 4
 1215 0026 7B68     		ldr	r3, [r7, #4]
 1216 0028 B02B     		cmp	r3, #176
 1217 002a 13D0     		beq	.L53
 1218              		.loc 1 745 0 discriminator 5
 1219 002c 7B68     		ldr	r3, [r7, #4]
 1220 002e C02B     		cmp	r3, #192
 1221 0030 10D0     		beq	.L53
 1222              		.loc 1 745 0 discriminator 6
 1223 0032 7B68     		ldr	r3, [r7, #4]
 1224 0034 D02B     		cmp	r3, #208
 1225 0036 0DD0     		beq	.L53
 1226              		.loc 1 745 0 discriminator 7
 1227 0038 7B68     		ldr	r3, [r7, #4]
 1228 003a E02B     		cmp	r3, #224
 1229 003c 0AD0     		beq	.L53
 1230              		.loc 1 745 0 discriminator 8
 1231 003e 7B68     		ldr	r3, [r7, #4]
 1232 0040 F02B     		cmp	r3, #240
 1233 0042 07D0     		beq	.L53
 1234              		.loc 1 745 0 discriminator 9
 1235 0044 40F20000 		movw	r0, #:lower16:.LC0
 1236 0048 C0F20000 		movt	r0, #:upper16:.LC0
 1237 004c 40F2E921 		movw	r1, #745
 1238 0050 FFF7FEFF 		bl	assert_failed
 1239              	.L53:
 746:App/STM32F4-Discovery/Libraries/STM32F4xx_StdPeriph_Driver/src/stm32f4xx_rcc.c **** 
 747:App/STM32F4-Discovery/Libraries/STM32F4xx_StdPeriph_Driver/src/stm32f4xx_rcc.c ****   tmpreg = RCC->CFGR;
 1240              		.loc 1 747 0 is_stmt 1
 1241 0054 4FF46053 		mov	r3, #14336
 1242 0058 C4F20203 		movt	r3, 16386
 1243 005c 9B68     		ldr	r3, [r3, #8]
 1244 005e FB60     		str	r3, [r7, #12]
 748:App/STM32F4-Discovery/Libraries/STM32F4xx_StdPeriph_Driver/src/stm32f4xx_rcc.c **** 
 749:App/STM32F4-Discovery/Libraries/STM32F4xx_StdPeriph_Driver/src/stm32f4xx_rcc.c ****   /* Clear HPRE[3:0] bits */
 750:App/STM32F4-Discovery/Libraries/STM32F4xx_StdPeriph_Driver/src/stm32f4xx_rcc.c ****   tmpreg &= ~RCC_CFGR_HPRE;
 1245              		.loc 1 750 0
 1246 0060 FB68     		ldr	r3, [r7, #12]
 1247 0062 23F0F003 		bic	r3, r3, #240
 1248 0066 FB60     		str	r3, [r7, #12]
 751:App/STM32F4-Discovery/Libraries/STM32F4xx_StdPeriph_Driver/src/stm32f4xx_rcc.c **** 
 752:App/STM32F4-Discovery/Libraries/STM32F4xx_StdPeriph_Driver/src/stm32f4xx_rcc.c ****   /* Set HPRE[3:0] bits according to RCC_SYSCLK value */
 753:App/STM32F4-Discovery/Libraries/STM32F4xx_StdPeriph_Driver/src/stm32f4xx_rcc.c ****   tmpreg |= RCC_SYSCLK;
 1249              		.loc 1 753 0
 1250 0068 FA68     		ldr	r2, [r7, #12]
 1251 006a 7B68     		ldr	r3, [r7, #4]
 1252 006c 1343     		orrs	r3, r3, r2
 1253 006e FB60     		str	r3, [r7, #12]
 754:App/STM32F4-Discovery/Libraries/STM32F4xx_StdPeriph_Driver/src/stm32f4xx_rcc.c **** 
 755:App/STM32F4-Discovery/Libraries/STM32F4xx_StdPeriph_Driver/src/stm32f4xx_rcc.c ****   /* Store the new value */
 756:App/STM32F4-Discovery/Libraries/STM32F4xx_StdPeriph_Driver/src/stm32f4xx_rcc.c ****   RCC->CFGR = tmpreg;
 1254              		.loc 1 756 0
 1255 0070 4FF46053 		mov	r3, #14336
 1256 0074 C4F20203 		movt	r3, 16386
 1257 0078 FA68     		ldr	r2, [r7, #12]
 1258 007a 9A60     		str	r2, [r3, #8]
 757:App/STM32F4-Discovery/Libraries/STM32F4xx_StdPeriph_Driver/src/stm32f4xx_rcc.c **** }
 1259              		.loc 1 757 0
 1260 007c 07F11007 		add	r7, r7, #16
 1261 0080 BD46     		mov	sp, r7
 1262 0082 80BD     		pop	{r7, pc}
 1263              		.cfi_endproc
 1264              	.LFE126:
 1266              		.section	.text.RCC_PCLK1Config,"ax",%progbits
 1267              		.align	2
 1268              		.global	RCC_PCLK1Config
 1269              		.thumb
 1270              		.thumb_func
 1272              	RCC_PCLK1Config:
 1273              	.LFB127:
 758:App/STM32F4-Discovery/Libraries/STM32F4xx_StdPeriph_Driver/src/stm32f4xx_rcc.c **** 
 759:App/STM32F4-Discovery/Libraries/STM32F4xx_StdPeriph_Driver/src/stm32f4xx_rcc.c **** 
 760:App/STM32F4-Discovery/Libraries/STM32F4xx_StdPeriph_Driver/src/stm32f4xx_rcc.c **** /**
 761:App/STM32F4-Discovery/Libraries/STM32F4xx_StdPeriph_Driver/src/stm32f4xx_rcc.c ****   * @brief  Configures the Low Speed APB clock (PCLK1).
 762:App/STM32F4-Discovery/Libraries/STM32F4xx_StdPeriph_Driver/src/stm32f4xx_rcc.c ****   * @param  RCC_HCLK: defines the APB1 clock divider. This clock is derived from 
 763:App/STM32F4-Discovery/Libraries/STM32F4xx_StdPeriph_Driver/src/stm32f4xx_rcc.c ****   *         the AHB clock (HCLK).
 764:App/STM32F4-Discovery/Libraries/STM32F4xx_StdPeriph_Driver/src/stm32f4xx_rcc.c ****   *          This parameter can be one of the following values:
 765:App/STM32F4-Discovery/Libraries/STM32F4xx_StdPeriph_Driver/src/stm32f4xx_rcc.c ****   *            @arg RCC_HCLK_Div1:  APB1 clock = HCLK
 766:App/STM32F4-Discovery/Libraries/STM32F4xx_StdPeriph_Driver/src/stm32f4xx_rcc.c ****   *            @arg RCC_HCLK_Div2:  APB1 clock = HCLK/2
 767:App/STM32F4-Discovery/Libraries/STM32F4xx_StdPeriph_Driver/src/stm32f4xx_rcc.c ****   *            @arg RCC_HCLK_Div4:  APB1 clock = HCLK/4
 768:App/STM32F4-Discovery/Libraries/STM32F4xx_StdPeriph_Driver/src/stm32f4xx_rcc.c ****   *            @arg RCC_HCLK_Div8:  APB1 clock = HCLK/8
 769:App/STM32F4-Discovery/Libraries/STM32F4xx_StdPeriph_Driver/src/stm32f4xx_rcc.c ****   *            @arg RCC_HCLK_Div16: APB1 clock = HCLK/16
 770:App/STM32F4-Discovery/Libraries/STM32F4xx_StdPeriph_Driver/src/stm32f4xx_rcc.c ****   * @retval None
 771:App/STM32F4-Discovery/Libraries/STM32F4xx_StdPeriph_Driver/src/stm32f4xx_rcc.c ****   */
 772:App/STM32F4-Discovery/Libraries/STM32F4xx_StdPeriph_Driver/src/stm32f4xx_rcc.c **** void RCC_PCLK1Config(uint32_t RCC_HCLK)
 773:App/STM32F4-Discovery/Libraries/STM32F4xx_StdPeriph_Driver/src/stm32f4xx_rcc.c **** {
 1274              		.loc 1 773 0
 1275              		.cfi_startproc
 1276              		@ args = 0, pretend = 0, frame = 16
 1277              		@ frame_needed = 1, uses_anonymous_args = 0
 1278 0000 80B5     		push	{r7, lr}
 1279              	.LCFI49:
 1280              		.cfi_def_cfa_offset 8
 1281              		.cfi_offset 7, -8
 1282              		.cfi_offset 14, -4
 1283 0002 84B0     		sub	sp, sp, #16
 1284              	.LCFI50:
 1285              		.cfi_def_cfa_offset 24
 1286 0004 00AF     		add	r7, sp, #0
 1287              	.LCFI51:
 1288              		.cfi_def_cfa_register 7
 1289 0006 7860     		str	r0, [r7, #4]
 774:App/STM32F4-Discovery/Libraries/STM32F4xx_StdPeriph_Driver/src/stm32f4xx_rcc.c ****   uint32_t tmpreg = 0;
 1290              		.loc 1 774 0
 1291 0008 4FF00003 		mov	r3, #0
 1292 000c FB60     		str	r3, [r7, #12]
 775:App/STM32F4-Discovery/Libraries/STM32F4xx_StdPeriph_Driver/src/stm32f4xx_rcc.c **** 
 776:App/STM32F4-Discovery/Libraries/STM32F4xx_StdPeriph_Driver/src/stm32f4xx_rcc.c ****   /* Check the parameters */
 777:App/STM32F4-Discovery/Libraries/STM32F4xx_StdPeriph_Driver/src/stm32f4xx_rcc.c ****   assert_param(IS_RCC_PCLK(RCC_HCLK));
 1293              		.loc 1 777 0
 1294 000e 7B68     		ldr	r3, [r7, #4]
 1295 0010 002B     		cmp	r3, #0
 1296 0012 17D0     		beq	.L55
 1297              		.loc 1 777 0 is_stmt 0 discriminator 1
 1298 0014 7B68     		ldr	r3, [r7, #4]
 1299 0016 B3F5805F 		cmp	r3, #4096
 1300 001a 13D0     		beq	.L55
 1301              		.loc 1 777 0 discriminator 2
 1302 001c 7B68     		ldr	r3, [r7, #4]
 1303 001e B3F5A05F 		cmp	r3, #5120
 1304 0022 0FD0     		beq	.L55
 1305              		.loc 1 777 0 discriminator 3
 1306 0024 7B68     		ldr	r3, [r7, #4]
 1307 0026 B3F5C05F 		cmp	r3, #6144
 1308 002a 0BD0     		beq	.L55
 1309              		.loc 1 777 0 discriminator 4
 1310 002c 7B68     		ldr	r3, [r7, #4]
 1311 002e B3F5E05F 		cmp	r3, #7168
 1312 0032 07D0     		beq	.L55
 1313              		.loc 1 777 0 discriminator 5
 1314 0034 40F20000 		movw	r0, #:lower16:.LC0
 1315 0038 C0F20000 		movt	r0, #:upper16:.LC0
 1316 003c 40F20931 		movw	r1, #777
 1317 0040 FFF7FEFF 		bl	assert_failed
 1318              	.L55:
 778:App/STM32F4-Discovery/Libraries/STM32F4xx_StdPeriph_Driver/src/stm32f4xx_rcc.c **** 
 779:App/STM32F4-Discovery/Libraries/STM32F4xx_StdPeriph_Driver/src/stm32f4xx_rcc.c ****   tmpreg = RCC->CFGR;
 1319              		.loc 1 779 0 is_stmt 1
 1320 0044 4FF46053 		mov	r3, #14336
 1321 0048 C4F20203 		movt	r3, 16386
 1322 004c 9B68     		ldr	r3, [r3, #8]
 1323 004e FB60     		str	r3, [r7, #12]
 780:App/STM32F4-Discovery/Libraries/STM32F4xx_StdPeriph_Driver/src/stm32f4xx_rcc.c **** 
 781:App/STM32F4-Discovery/Libraries/STM32F4xx_StdPeriph_Driver/src/stm32f4xx_rcc.c ****   /* Clear PPRE1[2:0] bits */
 782:App/STM32F4-Discovery/Libraries/STM32F4xx_StdPeriph_Driver/src/stm32f4xx_rcc.c ****   tmpreg &= ~RCC_CFGR_PPRE1;
 1324              		.loc 1 782 0
 1325 0050 FB68     		ldr	r3, [r7, #12]
 1326 0052 23F4E053 		bic	r3, r3, #7168
 1327 0056 FB60     		str	r3, [r7, #12]
 783:App/STM32F4-Discovery/Libraries/STM32F4xx_StdPeriph_Driver/src/stm32f4xx_rcc.c **** 
 784:App/STM32F4-Discovery/Libraries/STM32F4xx_StdPeriph_Driver/src/stm32f4xx_rcc.c ****   /* Set PPRE1[2:0] bits according to RCC_HCLK value */
 785:App/STM32F4-Discovery/Libraries/STM32F4xx_StdPeriph_Driver/src/stm32f4xx_rcc.c ****   tmpreg |= RCC_HCLK;
 1328              		.loc 1 785 0
 1329 0058 FA68     		ldr	r2, [r7, #12]
 1330 005a 7B68     		ldr	r3, [r7, #4]
 1331 005c 1343     		orrs	r3, r3, r2
 1332 005e FB60     		str	r3, [r7, #12]
 786:App/STM32F4-Discovery/Libraries/STM32F4xx_StdPeriph_Driver/src/stm32f4xx_rcc.c **** 
 787:App/STM32F4-Discovery/Libraries/STM32F4xx_StdPeriph_Driver/src/stm32f4xx_rcc.c ****   /* Store the new value */
 788:App/STM32F4-Discovery/Libraries/STM32F4xx_StdPeriph_Driver/src/stm32f4xx_rcc.c ****   RCC->CFGR = tmpreg;
 1333              		.loc 1 788 0
 1334 0060 4FF46053 		mov	r3, #14336
 1335 0064 C4F20203 		movt	r3, 16386
 1336 0068 FA68     		ldr	r2, [r7, #12]
 1337 006a 9A60     		str	r2, [r3, #8]
 789:App/STM32F4-Discovery/Libraries/STM32F4xx_StdPeriph_Driver/src/stm32f4xx_rcc.c **** }
 1338              		.loc 1 789 0
 1339 006c 07F11007 		add	r7, r7, #16
 1340 0070 BD46     		mov	sp, r7
 1341 0072 80BD     		pop	{r7, pc}
 1342              		.cfi_endproc
 1343              	.LFE127:
 1345              		.section	.text.RCC_PCLK2Config,"ax",%progbits
 1346              		.align	2
 1347              		.global	RCC_PCLK2Config
 1348              		.thumb
 1349              		.thumb_func
 1351              	RCC_PCLK2Config:
 1352              	.LFB128:
 790:App/STM32F4-Discovery/Libraries/STM32F4xx_StdPeriph_Driver/src/stm32f4xx_rcc.c **** 
 791:App/STM32F4-Discovery/Libraries/STM32F4xx_StdPeriph_Driver/src/stm32f4xx_rcc.c **** /**
 792:App/STM32F4-Discovery/Libraries/STM32F4xx_StdPeriph_Driver/src/stm32f4xx_rcc.c ****   * @brief  Configures the High Speed APB clock (PCLK2).
 793:App/STM32F4-Discovery/Libraries/STM32F4xx_StdPeriph_Driver/src/stm32f4xx_rcc.c ****   * @param  RCC_HCLK: defines the APB2 clock divider. This clock is derived from 
 794:App/STM32F4-Discovery/Libraries/STM32F4xx_StdPeriph_Driver/src/stm32f4xx_rcc.c ****   *         the AHB clock (HCLK).
 795:App/STM32F4-Discovery/Libraries/STM32F4xx_StdPeriph_Driver/src/stm32f4xx_rcc.c ****   *          This parameter can be one of the following values:
 796:App/STM32F4-Discovery/Libraries/STM32F4xx_StdPeriph_Driver/src/stm32f4xx_rcc.c ****   *            @arg RCC_HCLK_Div1:  APB2 clock = HCLK
 797:App/STM32F4-Discovery/Libraries/STM32F4xx_StdPeriph_Driver/src/stm32f4xx_rcc.c ****   *            @arg RCC_HCLK_Div2:  APB2 clock = HCLK/2
 798:App/STM32F4-Discovery/Libraries/STM32F4xx_StdPeriph_Driver/src/stm32f4xx_rcc.c ****   *            @arg RCC_HCLK_Div4:  APB2 clock = HCLK/4
 799:App/STM32F4-Discovery/Libraries/STM32F4xx_StdPeriph_Driver/src/stm32f4xx_rcc.c ****   *            @arg RCC_HCLK_Div8:  APB2 clock = HCLK/8
 800:App/STM32F4-Discovery/Libraries/STM32F4xx_StdPeriph_Driver/src/stm32f4xx_rcc.c ****   *            @arg RCC_HCLK_Div16: APB2 clock = HCLK/16
 801:App/STM32F4-Discovery/Libraries/STM32F4xx_StdPeriph_Driver/src/stm32f4xx_rcc.c ****   * @retval None
 802:App/STM32F4-Discovery/Libraries/STM32F4xx_StdPeriph_Driver/src/stm32f4xx_rcc.c ****   */
 803:App/STM32F4-Discovery/Libraries/STM32F4xx_StdPeriph_Driver/src/stm32f4xx_rcc.c **** void RCC_PCLK2Config(uint32_t RCC_HCLK)
 804:App/STM32F4-Discovery/Libraries/STM32F4xx_StdPeriph_Driver/src/stm32f4xx_rcc.c **** {
 1353              		.loc 1 804 0
 1354              		.cfi_startproc
 1355              		@ args = 0, pretend = 0, frame = 16
 1356              		@ frame_needed = 1, uses_anonymous_args = 0
 1357 0000 80B5     		push	{r7, lr}
 1358              	.LCFI52:
 1359              		.cfi_def_cfa_offset 8
 1360              		.cfi_offset 7, -8
 1361              		.cfi_offset 14, -4
 1362 0002 84B0     		sub	sp, sp, #16
 1363              	.LCFI53:
 1364              		.cfi_def_cfa_offset 24
 1365 0004 00AF     		add	r7, sp, #0
 1366              	.LCFI54:
 1367              		.cfi_def_cfa_register 7
 1368 0006 7860     		str	r0, [r7, #4]
 805:App/STM32F4-Discovery/Libraries/STM32F4xx_StdPeriph_Driver/src/stm32f4xx_rcc.c ****   uint32_t tmpreg = 0;
 1369              		.loc 1 805 0
 1370 0008 4FF00003 		mov	r3, #0
 1371 000c FB60     		str	r3, [r7, #12]
 806:App/STM32F4-Discovery/Libraries/STM32F4xx_StdPeriph_Driver/src/stm32f4xx_rcc.c **** 
 807:App/STM32F4-Discovery/Libraries/STM32F4xx_StdPeriph_Driver/src/stm32f4xx_rcc.c ****   /* Check the parameters */
 808:App/STM32F4-Discovery/Libraries/STM32F4xx_StdPeriph_Driver/src/stm32f4xx_rcc.c ****   assert_param(IS_RCC_PCLK(RCC_HCLK));
 1372              		.loc 1 808 0
 1373 000e 7B68     		ldr	r3, [r7, #4]
 1374 0010 002B     		cmp	r3, #0
 1375 0012 17D0     		beq	.L57
 1376              		.loc 1 808 0 is_stmt 0 discriminator 1
 1377 0014 7B68     		ldr	r3, [r7, #4]
 1378 0016 B3F5805F 		cmp	r3, #4096
 1379 001a 13D0     		beq	.L57
 1380              		.loc 1 808 0 discriminator 2
 1381 001c 7B68     		ldr	r3, [r7, #4]
 1382 001e B3F5A05F 		cmp	r3, #5120
 1383 0022 0FD0     		beq	.L57
 1384              		.loc 1 808 0 discriminator 3
 1385 0024 7B68     		ldr	r3, [r7, #4]
 1386 0026 B3F5C05F 		cmp	r3, #6144
 1387 002a 0BD0     		beq	.L57
 1388              		.loc 1 808 0 discriminator 4
 1389 002c 7B68     		ldr	r3, [r7, #4]
 1390 002e B3F5E05F 		cmp	r3, #7168
 1391 0032 07D0     		beq	.L57
 1392              		.loc 1 808 0 discriminator 5
 1393 0034 40F20000 		movw	r0, #:lower16:.LC0
 1394 0038 C0F20000 		movt	r0, #:upper16:.LC0
 1395 003c 4FF44A71 		mov	r1, #808
 1396 0040 FFF7FEFF 		bl	assert_failed
 1397              	.L57:
 809:App/STM32F4-Discovery/Libraries/STM32F4xx_StdPeriph_Driver/src/stm32f4xx_rcc.c **** 
 810:App/STM32F4-Discovery/Libraries/STM32F4xx_StdPeriph_Driver/src/stm32f4xx_rcc.c ****   tmpreg = RCC->CFGR;
 1398              		.loc 1 810 0 is_stmt 1
 1399 0044 4FF46053 		mov	r3, #14336
 1400 0048 C4F20203 		movt	r3, 16386
 1401 004c 9B68     		ldr	r3, [r3, #8]
 1402 004e FB60     		str	r3, [r7, #12]
 811:App/STM32F4-Discovery/Libraries/STM32F4xx_StdPeriph_Driver/src/stm32f4xx_rcc.c **** 
 812:App/STM32F4-Discovery/Libraries/STM32F4xx_StdPeriph_Driver/src/stm32f4xx_rcc.c ****   /* Clear PPRE2[2:0] bits */
 813:App/STM32F4-Discovery/Libraries/STM32F4xx_StdPeriph_Driver/src/stm32f4xx_rcc.c ****   tmpreg &= ~RCC_CFGR_PPRE2;
 1403              		.loc 1 813 0
 1404 0050 FB68     		ldr	r3, [r7, #12]
 1405 0052 23F46043 		bic	r3, r3, #57344
 1406 0056 FB60     		str	r3, [r7, #12]
 814:App/STM32F4-Discovery/Libraries/STM32F4xx_StdPeriph_Driver/src/stm32f4xx_rcc.c **** 
 815:App/STM32F4-Discovery/Libraries/STM32F4xx_StdPeriph_Driver/src/stm32f4xx_rcc.c ****   /* Set PPRE2[2:0] bits according to RCC_HCLK value */
 816:App/STM32F4-Discovery/Libraries/STM32F4xx_StdPeriph_Driver/src/stm32f4xx_rcc.c ****   tmpreg |= RCC_HCLK << 3;
 1407              		.loc 1 816 0
 1408 0058 7B68     		ldr	r3, [r7, #4]
 1409 005a 4FEAC303 		lsl	r3, r3, #3
 1410 005e FA68     		ldr	r2, [r7, #12]
 1411 0060 1343     		orrs	r3, r3, r2
 1412 0062 FB60     		str	r3, [r7, #12]
 817:App/STM32F4-Discovery/Libraries/STM32F4xx_StdPeriph_Driver/src/stm32f4xx_rcc.c **** 
 818:App/STM32F4-Discovery/Libraries/STM32F4xx_StdPeriph_Driver/src/stm32f4xx_rcc.c ****   /* Store the new value */
 819:App/STM32F4-Discovery/Libraries/STM32F4xx_StdPeriph_Driver/src/stm32f4xx_rcc.c ****   RCC->CFGR = tmpreg;
 1413              		.loc 1 819 0
 1414 0064 4FF46053 		mov	r3, #14336
 1415 0068 C4F20203 		movt	r3, 16386
 1416 006c FA68     		ldr	r2, [r7, #12]
 1417 006e 9A60     		str	r2, [r3, #8]
 820:App/STM32F4-Discovery/Libraries/STM32F4xx_StdPeriph_Driver/src/stm32f4xx_rcc.c **** }
 1418              		.loc 1 820 0
 1419 0070 07F11007 		add	r7, r7, #16
 1420 0074 BD46     		mov	sp, r7
 1421 0076 80BD     		pop	{r7, pc}
 1422              		.cfi_endproc
 1423              	.LFE128:
 1425              		.section	.text.RCC_GetClocksFreq,"ax",%progbits
 1426              		.align	2
 1427              		.global	RCC_GetClocksFreq
 1428              		.thumb
 1429              		.thumb_func
 1431              	RCC_GetClocksFreq:
 1432              	.LFB129:
 821:App/STM32F4-Discovery/Libraries/STM32F4xx_StdPeriph_Driver/src/stm32f4xx_rcc.c **** 
 822:App/STM32F4-Discovery/Libraries/STM32F4xx_StdPeriph_Driver/src/stm32f4xx_rcc.c **** /**
 823:App/STM32F4-Discovery/Libraries/STM32F4xx_StdPeriph_Driver/src/stm32f4xx_rcc.c ****   * @brief  Returns the frequencies of different on chip clocks; SYSCLK, HCLK, 
 824:App/STM32F4-Discovery/Libraries/STM32F4xx_StdPeriph_Driver/src/stm32f4xx_rcc.c ****   *         PCLK1 and PCLK2.       
 825:App/STM32F4-Discovery/Libraries/STM32F4xx_StdPeriph_Driver/src/stm32f4xx_rcc.c ****   * 
 826:App/STM32F4-Discovery/Libraries/STM32F4xx_StdPeriph_Driver/src/stm32f4xx_rcc.c ****   * @note   The system frequency computed by this function is not the real 
 827:App/STM32F4-Discovery/Libraries/STM32F4xx_StdPeriph_Driver/src/stm32f4xx_rcc.c ****   *         frequency in the chip. It is calculated based on the predefined 
 828:App/STM32F4-Discovery/Libraries/STM32F4xx_StdPeriph_Driver/src/stm32f4xx_rcc.c ****   *         constant and the selected clock source:
 829:App/STM32F4-Discovery/Libraries/STM32F4xx_StdPeriph_Driver/src/stm32f4xx_rcc.c ****   * @note     If SYSCLK source is HSI, function returns values based on HSI_VALUE(*)
 830:App/STM32F4-Discovery/Libraries/STM32F4xx_StdPeriph_Driver/src/stm32f4xx_rcc.c ****   * @note     If SYSCLK source is HSE, function returns values based on HSE_VALUE(**)
 831:App/STM32F4-Discovery/Libraries/STM32F4xx_StdPeriph_Driver/src/stm32f4xx_rcc.c ****   * @note     If SYSCLK source is PLL, function returns values based on HSE_VALUE(**) 
 832:App/STM32F4-Discovery/Libraries/STM32F4xx_StdPeriph_Driver/src/stm32f4xx_rcc.c ****   *           or HSI_VALUE(*) multiplied/divided by the PLL factors.         
 833:App/STM32F4-Discovery/Libraries/STM32F4xx_StdPeriph_Driver/src/stm32f4xx_rcc.c ****   * @note     (*) HSI_VALUE is a constant defined in stm32f4xx.h file (default value
 834:App/STM32F4-Discovery/Libraries/STM32F4xx_StdPeriph_Driver/src/stm32f4xx_rcc.c ****   *               16 MHz) but the real value may vary depending on the variations
 835:App/STM32F4-Discovery/Libraries/STM32F4xx_StdPeriph_Driver/src/stm32f4xx_rcc.c ****   *               in voltage and temperature.
 836:App/STM32F4-Discovery/Libraries/STM32F4xx_StdPeriph_Driver/src/stm32f4xx_rcc.c ****   * @note     (**) HSE_VALUE is a constant defined in stm32f4xx.h file (default value
 837:App/STM32F4-Discovery/Libraries/STM32F4xx_StdPeriph_Driver/src/stm32f4xx_rcc.c ****   *                25 MHz), user has to ensure that HSE_VALUE is same as the real
 838:App/STM32F4-Discovery/Libraries/STM32F4xx_StdPeriph_Driver/src/stm32f4xx_rcc.c ****   *                frequency of the crystal used. Otherwise, this function may
 839:App/STM32F4-Discovery/Libraries/STM32F4xx_StdPeriph_Driver/src/stm32f4xx_rcc.c ****   *                have wrong result.
 840:App/STM32F4-Discovery/Libraries/STM32F4xx_StdPeriph_Driver/src/stm32f4xx_rcc.c ****   *                
 841:App/STM32F4-Discovery/Libraries/STM32F4xx_StdPeriph_Driver/src/stm32f4xx_rcc.c ****   * @note   The result of this function could be not correct when using fractional
 842:App/STM32F4-Discovery/Libraries/STM32F4xx_StdPeriph_Driver/src/stm32f4xx_rcc.c ****   *         value for HSE crystal.
 843:App/STM32F4-Discovery/Libraries/STM32F4xx_StdPeriph_Driver/src/stm32f4xx_rcc.c ****   *   
 844:App/STM32F4-Discovery/Libraries/STM32F4xx_StdPeriph_Driver/src/stm32f4xx_rcc.c ****   * @param  RCC_Clocks: pointer to a RCC_ClocksTypeDef structure which will hold
 845:App/STM32F4-Discovery/Libraries/STM32F4xx_StdPeriph_Driver/src/stm32f4xx_rcc.c ****   *          the clocks frequencies.
 846:App/STM32F4-Discovery/Libraries/STM32F4xx_StdPeriph_Driver/src/stm32f4xx_rcc.c ****   *     
 847:App/STM32F4-Discovery/Libraries/STM32F4xx_StdPeriph_Driver/src/stm32f4xx_rcc.c ****   * @note   This function can be used by the user application to compute the 
 848:App/STM32F4-Discovery/Libraries/STM32F4xx_StdPeriph_Driver/src/stm32f4xx_rcc.c ****   *         baudrate for the communication peripherals or configure other parameters.
 849:App/STM32F4-Discovery/Libraries/STM32F4xx_StdPeriph_Driver/src/stm32f4xx_rcc.c ****   * @note   Each time SYSCLK, HCLK, PCLK1 and/or PCLK2 clock changes, this function
 850:App/STM32F4-Discovery/Libraries/STM32F4xx_StdPeriph_Driver/src/stm32f4xx_rcc.c ****   *         must be called to update the structure's field. Otherwise, any
 851:App/STM32F4-Discovery/Libraries/STM32F4xx_StdPeriph_Driver/src/stm32f4xx_rcc.c ****   *         configuration based on this function will be incorrect.
 852:App/STM32F4-Discovery/Libraries/STM32F4xx_StdPeriph_Driver/src/stm32f4xx_rcc.c ****   *    
 853:App/STM32F4-Discovery/Libraries/STM32F4xx_StdPeriph_Driver/src/stm32f4xx_rcc.c ****   * @retval None
 854:App/STM32F4-Discovery/Libraries/STM32F4xx_StdPeriph_Driver/src/stm32f4xx_rcc.c ****   */
 855:App/STM32F4-Discovery/Libraries/STM32F4xx_StdPeriph_Driver/src/stm32f4xx_rcc.c **** void RCC_GetClocksFreq(RCC_ClocksTypeDef* RCC_Clocks)
 856:App/STM32F4-Discovery/Libraries/STM32F4xx_StdPeriph_Driver/src/stm32f4xx_rcc.c **** {
 1433              		.loc 1 856 0
 1434              		.cfi_startproc
 1435              		@ args = 0, pretend = 0, frame = 32
 1436              		@ frame_needed = 1, uses_anonymous_args = 0
 1437              		@ link register save eliminated.
 1438 0000 80B4     		push	{r7}
 1439              	.LCFI55:
 1440              		.cfi_def_cfa_offset 4
 1441              		.cfi_offset 7, -4
 1442 0002 89B0     		sub	sp, sp, #36
 1443              	.LCFI56:
 1444              		.cfi_def_cfa_offset 40
 1445 0004 00AF     		add	r7, sp, #0
 1446              	.LCFI57:
 1447              		.cfi_def_cfa_register 7
 1448 0006 7860     		str	r0, [r7, #4]
 857:App/STM32F4-Discovery/Libraries/STM32F4xx_StdPeriph_Driver/src/stm32f4xx_rcc.c ****   uint32_t tmp = 0, presc = 0, pllvco = 0, pllp = 2, pllsource = 0, pllm = 2;
 1449              		.loc 1 857 0
 1450 0008 4FF00003 		mov	r3, #0
 1451 000c BB61     		str	r3, [r7, #24]
 1452 000e 4FF00003 		mov	r3, #0
 1453 0012 7B61     		str	r3, [r7, #20]
 1454 0014 4FF00003 		mov	r3, #0
 1455 0018 FB61     		str	r3, [r7, #28]
 1456 001a 4FF00203 		mov	r3, #2
 1457 001e 3B61     		str	r3, [r7, #16]
 1458 0020 4FF00003 		mov	r3, #0
 1459 0024 FB60     		str	r3, [r7, #12]
 1460 0026 4FF00203 		mov	r3, #2
 1461 002a BB60     		str	r3, [r7, #8]
 858:App/STM32F4-Discovery/Libraries/STM32F4xx_StdPeriph_Driver/src/stm32f4xx_rcc.c **** 
 859:App/STM32F4-Discovery/Libraries/STM32F4xx_StdPeriph_Driver/src/stm32f4xx_rcc.c ****   /* Get SYSCLK source -------------------------------------------------------*/
 860:App/STM32F4-Discovery/Libraries/STM32F4xx_StdPeriph_Driver/src/stm32f4xx_rcc.c ****   tmp = RCC->CFGR & RCC_CFGR_SWS;
 1462              		.loc 1 860 0
 1463 002c 4FF46053 		mov	r3, #14336
 1464 0030 C4F20203 		movt	r3, 16386
 1465 0034 9B68     		ldr	r3, [r3, #8]
 1466 0036 03F00C03 		and	r3, r3, #12
 1467 003a BB61     		str	r3, [r7, #24]
 861:App/STM32F4-Discovery/Libraries/STM32F4xx_StdPeriph_Driver/src/stm32f4xx_rcc.c **** 
 862:App/STM32F4-Discovery/Libraries/STM32F4xx_StdPeriph_Driver/src/stm32f4xx_rcc.c ****   switch (tmp)
 1468              		.loc 1 862 0
 1469 003c BB69     		ldr	r3, [r7, #24]
 1470 003e 042B     		cmp	r3, #4
 1471 0040 0AD0     		beq	.L61
 1472 0042 082B     		cmp	r3, #8
 1473 0044 0FD0     		beq	.L62
 1474 0046 002B     		cmp	r3, #0
 1475 0048 60D1     		bne	.L66
 1476              	.L60:
 863:App/STM32F4-Discovery/Libraries/STM32F4xx_StdPeriph_Driver/src/stm32f4xx_rcc.c ****   {
 864:App/STM32F4-Discovery/Libraries/STM32F4xx_StdPeriph_Driver/src/stm32f4xx_rcc.c ****     case 0x00:  /* HSI used as system clock source */
 865:App/STM32F4-Discovery/Libraries/STM32F4xx_StdPeriph_Driver/src/stm32f4xx_rcc.c ****       RCC_Clocks->SYSCLK_Frequency = HSI_VALUE;
 1477              		.loc 1 865 0
 1478 004a 7A68     		ldr	r2, [r7, #4]
 1479 004c 4FF41053 		mov	r3, #9216
 1480 0050 C0F2F403 		movt	r3, 244
 1481 0054 1360     		str	r3, [r2, #0]
 866:App/STM32F4-Discovery/Libraries/STM32F4xx_StdPeriph_Driver/src/stm32f4xx_rcc.c ****       break;
 1482              		.loc 1 866 0
 1483 0056 60E0     		b	.L63
 1484              	.L61:
 867:App/STM32F4-Discovery/Libraries/STM32F4xx_StdPeriph_Driver/src/stm32f4xx_rcc.c ****     case 0x04:  /* HSE used as system clock  source */
 868:App/STM32F4-Discovery/Libraries/STM32F4xx_StdPeriph_Driver/src/stm32f4xx_rcc.c ****       RCC_Clocks->SYSCLK_Frequency = HSE_VALUE;
 1485              		.loc 1 868 0
 1486 0058 7A68     		ldr	r2, [r7, #4]
 1487 005a 47F64003 		movw	r3, #30784
 1488 005e C0F27D13 		movt	r3, 381
 1489 0062 1360     		str	r3, [r2, #0]
 869:App/STM32F4-Discovery/Libraries/STM32F4xx_StdPeriph_Driver/src/stm32f4xx_rcc.c ****       break;
 1490              		.loc 1 869 0
 1491 0064 59E0     		b	.L63
 1492              	.L62:
 870:App/STM32F4-Discovery/Libraries/STM32F4xx_StdPeriph_Driver/src/stm32f4xx_rcc.c ****     case 0x08:  /* PLL used as system clock  source */
 871:App/STM32F4-Discovery/Libraries/STM32F4xx_StdPeriph_Driver/src/stm32f4xx_rcc.c **** 
 872:App/STM32F4-Discovery/Libraries/STM32F4xx_StdPeriph_Driver/src/stm32f4xx_rcc.c ****       /* PLL_VCO = (HSE_VALUE or HSI_VALUE / PLLM) * PLLN
 873:App/STM32F4-Discovery/Libraries/STM32F4xx_StdPeriph_Driver/src/stm32f4xx_rcc.c ****          SYSCLK = PLL_VCO / PLLP
 874:App/STM32F4-Discovery/Libraries/STM32F4xx_StdPeriph_Driver/src/stm32f4xx_rcc.c ****          */    
 875:App/STM32F4-Discovery/Libraries/STM32F4xx_StdPeriph_Driver/src/stm32f4xx_rcc.c ****       pllsource = (RCC->PLLCFGR & RCC_PLLCFGR_PLLSRC) >> 22;
 1493              		.loc 1 875 0
 1494 0066 4FF46053 		mov	r3, #14336
 1495 006a C4F20203 		movt	r3, 16386
 1496 006e 5B68     		ldr	r3, [r3, #4]
 1497 0070 03F48003 		and	r3, r3, #4194304
 1498 0074 4FEA9353 		lsr	r3, r3, #22
 1499 0078 FB60     		str	r3, [r7, #12]
 876:App/STM32F4-Discovery/Libraries/STM32F4xx_StdPeriph_Driver/src/stm32f4xx_rcc.c ****       pllm = RCC->PLLCFGR & RCC_PLLCFGR_PLLM;
 1500              		.loc 1 876 0
 1501 007a 4FF46053 		mov	r3, #14336
 1502 007e C4F20203 		movt	r3, 16386
 1503 0082 5B68     		ldr	r3, [r3, #4]
 1504 0084 03F03F03 		and	r3, r3, #63
 1505 0088 BB60     		str	r3, [r7, #8]
 877:App/STM32F4-Discovery/Libraries/STM32F4xx_StdPeriph_Driver/src/stm32f4xx_rcc.c ****       
 878:App/STM32F4-Discovery/Libraries/STM32F4xx_StdPeriph_Driver/src/stm32f4xx_rcc.c ****       if (pllsource != 0)
 1506              		.loc 1 878 0
 1507 008a FB68     		ldr	r3, [r7, #12]
 1508 008c 002B     		cmp	r3, #0
 1509 008e 14D0     		beq	.L64
 879:App/STM32F4-Discovery/Libraries/STM32F4xx_StdPeriph_Driver/src/stm32f4xx_rcc.c ****       {
 880:App/STM32F4-Discovery/Libraries/STM32F4xx_StdPeriph_Driver/src/stm32f4xx_rcc.c ****         /* HSE used as PLL clock source */
 881:App/STM32F4-Discovery/Libraries/STM32F4xx_StdPeriph_Driver/src/stm32f4xx_rcc.c ****         pllvco = (HSE_VALUE / pllm) * ((RCC->PLLCFGR & RCC_PLLCFGR_PLLN) >> 6);
 1510              		.loc 1 881 0
 1511 0090 47F64003 		movw	r3, #30784
 1512 0094 C0F27D13 		movt	r3, 381
 1513 0098 BA68     		ldr	r2, [r7, #8]
 1514 009a B3FBF2F2 		udiv	r2, r3, r2
 1515 009e 4FF46053 		mov	r3, #14336
 1516 00a2 C4F20203 		movt	r3, 16386
 1517 00a6 5968     		ldr	r1, [r3, #4]
 1518 00a8 47F6C073 		movw	r3, #32704
 1519 00ac 0B40     		ands	r3, r3, r1
 1520 00ae 4FEA9313 		lsr	r3, r3, #6
 1521 00b2 03FB02F3 		mul	r3, r3, r2
 1522 00b6 FB61     		str	r3, [r7, #28]
 1523 00b8 13E0     		b	.L65
 1524              	.L64:
 882:App/STM32F4-Discovery/Libraries/STM32F4xx_StdPeriph_Driver/src/stm32f4xx_rcc.c ****       }
 883:App/STM32F4-Discovery/Libraries/STM32F4xx_StdPeriph_Driver/src/stm32f4xx_rcc.c ****       else
 884:App/STM32F4-Discovery/Libraries/STM32F4xx_StdPeriph_Driver/src/stm32f4xx_rcc.c ****       {
 885:App/STM32F4-Discovery/Libraries/STM32F4xx_StdPeriph_Driver/src/stm32f4xx_rcc.c ****         /* HSI used as PLL clock source */
 886:App/STM32F4-Discovery/Libraries/STM32F4xx_StdPeriph_Driver/src/stm32f4xx_rcc.c ****         pllvco = (HSI_VALUE / pllm) * ((RCC->PLLCFGR & RCC_PLLCFGR_PLLN) >> 6);      
 1525              		.loc 1 886 0
 1526 00ba 4FF41053 		mov	r3, #9216
 1527 00be C0F2F403 		movt	r3, 244
 1528 00c2 BA68     		ldr	r2, [r7, #8]
 1529 00c4 B3FBF2F2 		udiv	r2, r3, r2
 1530 00c8 4FF46053 		mov	r3, #14336
 1531 00cc C4F20203 		movt	r3, 16386
 1532 00d0 5968     		ldr	r1, [r3, #4]
 1533 00d2 47F6C073 		movw	r3, #32704
 1534 00d6 0B40     		ands	r3, r3, r1
 1535 00d8 4FEA9313 		lsr	r3, r3, #6
 1536 00dc 03FB02F3 		mul	r3, r3, r2
 1537 00e0 FB61     		str	r3, [r7, #28]
 1538              	.L65:
 887:App/STM32F4-Discovery/Libraries/STM32F4xx_StdPeriph_Driver/src/stm32f4xx_rcc.c ****       }
 888:App/STM32F4-Discovery/Libraries/STM32F4xx_StdPeriph_Driver/src/stm32f4xx_rcc.c **** 
 889:App/STM32F4-Discovery/Libraries/STM32F4xx_StdPeriph_Driver/src/stm32f4xx_rcc.c ****       pllp = (((RCC->PLLCFGR & RCC_PLLCFGR_PLLP) >>16) + 1 ) *2;
 1539              		.loc 1 889 0
 1540 00e2 4FF46053 		mov	r3, #14336
 1541 00e6 C4F20203 		movt	r3, 16386
 1542 00ea 5B68     		ldr	r3, [r3, #4]
 1543 00ec 03F44033 		and	r3, r3, #196608
 1544 00f0 4FEA1343 		lsr	r3, r3, #16
 1545 00f4 03F10103 		add	r3, r3, #1
 1546 00f8 4FEA4303 		lsl	r3, r3, #1
 1547 00fc 3B61     		str	r3, [r7, #16]
 890:App/STM32F4-Discovery/Libraries/STM32F4xx_StdPeriph_Driver/src/stm32f4xx_rcc.c ****       RCC_Clocks->SYSCLK_Frequency = pllvco/pllp;
 1548              		.loc 1 890 0
 1549 00fe FA69     		ldr	r2, [r7, #28]
 1550 0100 3B69     		ldr	r3, [r7, #16]
 1551 0102 B2FBF3F2 		udiv	r2, r2, r3
 1552 0106 7B68     		ldr	r3, [r7, #4]
 1553 0108 1A60     		str	r2, [r3, #0]
 891:App/STM32F4-Discovery/Libraries/STM32F4xx_StdPeriph_Driver/src/stm32f4xx_rcc.c ****       break;
 1554              		.loc 1 891 0
 1555 010a 06E0     		b	.L63
 1556              	.L66:
 892:App/STM32F4-Discovery/Libraries/STM32F4xx_StdPeriph_Driver/src/stm32f4xx_rcc.c ****     default:
 893:App/STM32F4-Discovery/Libraries/STM32F4xx_StdPeriph_Driver/src/stm32f4xx_rcc.c ****       RCC_Clocks->SYSCLK_Frequency = HSI_VALUE;
 1557              		.loc 1 893 0
 1558 010c 7A68     		ldr	r2, [r7, #4]
 1559 010e 4FF41053 		mov	r3, #9216
 1560 0112 C0F2F403 		movt	r3, 244
 1561 0116 1360     		str	r3, [r2, #0]
 894:App/STM32F4-Discovery/Libraries/STM32F4xx_StdPeriph_Driver/src/stm32f4xx_rcc.c ****       break;
 1562              		.loc 1 894 0
 1563 0118 00BF     		nop
 1564              	.L63:
 895:App/STM32F4-Discovery/Libraries/STM32F4xx_StdPeriph_Driver/src/stm32f4xx_rcc.c ****   }
 896:App/STM32F4-Discovery/Libraries/STM32F4xx_StdPeriph_Driver/src/stm32f4xx_rcc.c ****   /* Compute HCLK, PCLK1 and PCLK2 clocks frequencies ------------------------*/
 897:App/STM32F4-Discovery/Libraries/STM32F4xx_StdPeriph_Driver/src/stm32f4xx_rcc.c **** 
 898:App/STM32F4-Discovery/Libraries/STM32F4xx_StdPeriph_Driver/src/stm32f4xx_rcc.c ****   /* Get HCLK prescaler */
 899:App/STM32F4-Discovery/Libraries/STM32F4xx_StdPeriph_Driver/src/stm32f4xx_rcc.c ****   tmp = RCC->CFGR & RCC_CFGR_HPRE;
 1565              		.loc 1 899 0
 1566 011a 4FF46053 		mov	r3, #14336
 1567 011e C4F20203 		movt	r3, 16386
 1568 0122 9B68     		ldr	r3, [r3, #8]
 1569 0124 03F0F003 		and	r3, r3, #240
 1570 0128 BB61     		str	r3, [r7, #24]
 900:App/STM32F4-Discovery/Libraries/STM32F4xx_StdPeriph_Driver/src/stm32f4xx_rcc.c ****   tmp = tmp >> 4;
 1571              		.loc 1 900 0
 1572 012a BB69     		ldr	r3, [r7, #24]
 1573 012c 4FEA1313 		lsr	r3, r3, #4
 1574 0130 BB61     		str	r3, [r7, #24]
 901:App/STM32F4-Discovery/Libraries/STM32F4xx_StdPeriph_Driver/src/stm32f4xx_rcc.c ****   presc = APBAHBPrescTable[tmp];
 1575              		.loc 1 901 0
 1576 0132 40F20003 		movw	r3, #:lower16:APBAHBPrescTable
 1577 0136 C0F20003 		movt	r3, #:upper16:APBAHBPrescTable
 1578 013a BA69     		ldr	r2, [r7, #24]
 1579 013c 9B18     		adds	r3, r3, r2
 1580 013e 1B78     		ldrb	r3, [r3, #0]
 1581 0140 DBB2     		uxtb	r3, r3
 1582 0142 7B61     		str	r3, [r7, #20]
 902:App/STM32F4-Discovery/Libraries/STM32F4xx_StdPeriph_Driver/src/stm32f4xx_rcc.c ****   /* HCLK clock frequency */
 903:App/STM32F4-Discovery/Libraries/STM32F4xx_StdPeriph_Driver/src/stm32f4xx_rcc.c ****   RCC_Clocks->HCLK_Frequency = RCC_Clocks->SYSCLK_Frequency >> presc;
 1583              		.loc 1 903 0
 1584 0144 7B68     		ldr	r3, [r7, #4]
 1585 0146 1A68     		ldr	r2, [r3, #0]
 1586 0148 7B69     		ldr	r3, [r7, #20]
 1587 014a 22FA03F2 		lsr	r2, r2, r3
 1588 014e 7B68     		ldr	r3, [r7, #4]
 1589 0150 5A60     		str	r2, [r3, #4]
 904:App/STM32F4-Discovery/Libraries/STM32F4xx_StdPeriph_Driver/src/stm32f4xx_rcc.c **** 
 905:App/STM32F4-Discovery/Libraries/STM32F4xx_StdPeriph_Driver/src/stm32f4xx_rcc.c ****   /* Get PCLK1 prescaler */
 906:App/STM32F4-Discovery/Libraries/STM32F4xx_StdPeriph_Driver/src/stm32f4xx_rcc.c ****   tmp = RCC->CFGR & RCC_CFGR_PPRE1;
 1590              		.loc 1 906 0
 1591 0152 4FF46053 		mov	r3, #14336
 1592 0156 C4F20203 		movt	r3, 16386
 1593 015a 9B68     		ldr	r3, [r3, #8]
 1594 015c 03F4E053 		and	r3, r3, #7168
 1595 0160 BB61     		str	r3, [r7, #24]
 907:App/STM32F4-Discovery/Libraries/STM32F4xx_StdPeriph_Driver/src/stm32f4xx_rcc.c ****   tmp = tmp >> 10;
 1596              		.loc 1 907 0
 1597 0162 BB69     		ldr	r3, [r7, #24]
 1598 0164 4FEA9323 		lsr	r3, r3, #10
 1599 0168 BB61     		str	r3, [r7, #24]
 908:App/STM32F4-Discovery/Libraries/STM32F4xx_StdPeriph_Driver/src/stm32f4xx_rcc.c ****   presc = APBAHBPrescTable[tmp];
 1600              		.loc 1 908 0
 1601 016a 40F20003 		movw	r3, #:lower16:APBAHBPrescTable
 1602 016e C0F20003 		movt	r3, #:upper16:APBAHBPrescTable
 1603 0172 BA69     		ldr	r2, [r7, #24]
 1604 0174 9B18     		adds	r3, r3, r2
 1605 0176 1B78     		ldrb	r3, [r3, #0]
 1606 0178 DBB2     		uxtb	r3, r3
 1607 017a 7B61     		str	r3, [r7, #20]
 909:App/STM32F4-Discovery/Libraries/STM32F4xx_StdPeriph_Driver/src/stm32f4xx_rcc.c ****   /* PCLK1 clock frequency */
 910:App/STM32F4-Discovery/Libraries/STM32F4xx_StdPeriph_Driver/src/stm32f4xx_rcc.c ****   RCC_Clocks->PCLK1_Frequency = RCC_Clocks->HCLK_Frequency >> presc;
 1608              		.loc 1 910 0
 1609 017c 7B68     		ldr	r3, [r7, #4]
 1610 017e 5A68     		ldr	r2, [r3, #4]
 1611 0180 7B69     		ldr	r3, [r7, #20]
 1612 0182 22FA03F2 		lsr	r2, r2, r3
 1613 0186 7B68     		ldr	r3, [r7, #4]
 1614 0188 9A60     		str	r2, [r3, #8]
 911:App/STM32F4-Discovery/Libraries/STM32F4xx_StdPeriph_Driver/src/stm32f4xx_rcc.c **** 
 912:App/STM32F4-Discovery/Libraries/STM32F4xx_StdPeriph_Driver/src/stm32f4xx_rcc.c ****   /* Get PCLK2 prescaler */
 913:App/STM32F4-Discovery/Libraries/STM32F4xx_StdPeriph_Driver/src/stm32f4xx_rcc.c ****   tmp = RCC->CFGR & RCC_CFGR_PPRE2;
 1615              		.loc 1 913 0
 1616 018a 4FF46053 		mov	r3, #14336
 1617 018e C4F20203 		movt	r3, 16386
 1618 0192 9B68     		ldr	r3, [r3, #8]
 1619 0194 03F46043 		and	r3, r3, #57344
 1620 0198 BB61     		str	r3, [r7, #24]
 914:App/STM32F4-Discovery/Libraries/STM32F4xx_StdPeriph_Driver/src/stm32f4xx_rcc.c ****   tmp = tmp >> 13;
 1621              		.loc 1 914 0
 1622 019a BB69     		ldr	r3, [r7, #24]
 1623 019c 4FEA5333 		lsr	r3, r3, #13
 1624 01a0 BB61     		str	r3, [r7, #24]
 915:App/STM32F4-Discovery/Libraries/STM32F4xx_StdPeriph_Driver/src/stm32f4xx_rcc.c ****   presc = APBAHBPrescTable[tmp];
 1625              		.loc 1 915 0
 1626 01a2 40F20003 		movw	r3, #:lower16:APBAHBPrescTable
 1627 01a6 C0F20003 		movt	r3, #:upper16:APBAHBPrescTable
 1628 01aa BA69     		ldr	r2, [r7, #24]
 1629 01ac 9B18     		adds	r3, r3, r2
 1630 01ae 1B78     		ldrb	r3, [r3, #0]
 1631 01b0 DBB2     		uxtb	r3, r3
 1632 01b2 7B61     		str	r3, [r7, #20]
 916:App/STM32F4-Discovery/Libraries/STM32F4xx_StdPeriph_Driver/src/stm32f4xx_rcc.c ****   /* PCLK2 clock frequency */
 917:App/STM32F4-Discovery/Libraries/STM32F4xx_StdPeriph_Driver/src/stm32f4xx_rcc.c ****   RCC_Clocks->PCLK2_Frequency = RCC_Clocks->HCLK_Frequency >> presc;
 1633              		.loc 1 917 0
 1634 01b4 7B68     		ldr	r3, [r7, #4]
 1635 01b6 5A68     		ldr	r2, [r3, #4]
 1636 01b8 7B69     		ldr	r3, [r7, #20]
 1637 01ba 22FA03F2 		lsr	r2, r2, r3
 1638 01be 7B68     		ldr	r3, [r7, #4]
 1639 01c0 DA60     		str	r2, [r3, #12]
 918:App/STM32F4-Discovery/Libraries/STM32F4xx_StdPeriph_Driver/src/stm32f4xx_rcc.c **** }
 1640              		.loc 1 918 0
 1641 01c2 07F12407 		add	r7, r7, #36
 1642 01c6 BD46     		mov	sp, r7
 1643 01c8 80BC     		pop	{r7}
 1644 01ca 7047     		bx	lr
 1645              		.cfi_endproc
 1646              	.LFE129:
 1648              		.section	.text.RCC_RTCCLKConfig,"ax",%progbits
 1649              		.align	2
 1650              		.global	RCC_RTCCLKConfig
 1651              		.thumb
 1652              		.thumb_func
 1654              	RCC_RTCCLKConfig:
 1655              	.LFB130:
 919:App/STM32F4-Discovery/Libraries/STM32F4xx_StdPeriph_Driver/src/stm32f4xx_rcc.c **** 
 920:App/STM32F4-Discovery/Libraries/STM32F4xx_StdPeriph_Driver/src/stm32f4xx_rcc.c **** /**
 921:App/STM32F4-Discovery/Libraries/STM32F4xx_StdPeriph_Driver/src/stm32f4xx_rcc.c ****   * @}
 922:App/STM32F4-Discovery/Libraries/STM32F4xx_StdPeriph_Driver/src/stm32f4xx_rcc.c ****   */
 923:App/STM32F4-Discovery/Libraries/STM32F4xx_StdPeriph_Driver/src/stm32f4xx_rcc.c **** 
 924:App/STM32F4-Discovery/Libraries/STM32F4xx_StdPeriph_Driver/src/stm32f4xx_rcc.c **** /** @defgroup RCC_Group3 Peripheral clocks configuration functions
 925:App/STM32F4-Discovery/Libraries/STM32F4xx_StdPeriph_Driver/src/stm32f4xx_rcc.c ****  *  @brief   Peripheral clocks configuration functions 
 926:App/STM32F4-Discovery/Libraries/STM32F4xx_StdPeriph_Driver/src/stm32f4xx_rcc.c ****  *
 927:App/STM32F4-Discovery/Libraries/STM32F4xx_StdPeriph_Driver/src/stm32f4xx_rcc.c **** @verbatim   
 928:App/STM32F4-Discovery/Libraries/STM32F4xx_StdPeriph_Driver/src/stm32f4xx_rcc.c ****  ===============================================================================
 929:App/STM32F4-Discovery/Libraries/STM32F4xx_StdPeriph_Driver/src/stm32f4xx_rcc.c ****                    Peripheral clocks configuration functions
 930:App/STM32F4-Discovery/Libraries/STM32F4xx_StdPeriph_Driver/src/stm32f4xx_rcc.c ****  ===============================================================================  
 931:App/STM32F4-Discovery/Libraries/STM32F4xx_StdPeriph_Driver/src/stm32f4xx_rcc.c **** 
 932:App/STM32F4-Discovery/Libraries/STM32F4xx_StdPeriph_Driver/src/stm32f4xx_rcc.c ****   This section provide functions allowing to configure the Peripheral clocks. 
 933:App/STM32F4-Discovery/Libraries/STM32F4xx_StdPeriph_Driver/src/stm32f4xx_rcc.c ****   
 934:App/STM32F4-Discovery/Libraries/STM32F4xx_StdPeriph_Driver/src/stm32f4xx_rcc.c ****   1. The RTC clock which is derived from the LSI, LSE or HSE clock divided by 2 to 31.
 935:App/STM32F4-Discovery/Libraries/STM32F4xx_StdPeriph_Driver/src/stm32f4xx_rcc.c ****      
 936:App/STM32F4-Discovery/Libraries/STM32F4xx_StdPeriph_Driver/src/stm32f4xx_rcc.c ****   2. After restart from Reset or wakeup from STANDBY, all peripherals are off
 937:App/STM32F4-Discovery/Libraries/STM32F4xx_StdPeriph_Driver/src/stm32f4xx_rcc.c ****      except internal SRAM, Flash and JTAG. Before to start using a peripheral you
 938:App/STM32F4-Discovery/Libraries/STM32F4xx_StdPeriph_Driver/src/stm32f4xx_rcc.c ****      have to enable its interface clock. You can do this using RCC_AHBPeriphClockCmd()
 939:App/STM32F4-Discovery/Libraries/STM32F4xx_StdPeriph_Driver/src/stm32f4xx_rcc.c ****      , RCC_APB2PeriphClockCmd() and RCC_APB1PeriphClockCmd() functions.
 940:App/STM32F4-Discovery/Libraries/STM32F4xx_StdPeriph_Driver/src/stm32f4xx_rcc.c **** 
 941:App/STM32F4-Discovery/Libraries/STM32F4xx_StdPeriph_Driver/src/stm32f4xx_rcc.c ****   3. To reset the peripherals configuration (to the default state after device reset)
 942:App/STM32F4-Discovery/Libraries/STM32F4xx_StdPeriph_Driver/src/stm32f4xx_rcc.c ****      you can use RCC_AHBPeriphResetCmd(), RCC_APB2PeriphResetCmd() and 
 943:App/STM32F4-Discovery/Libraries/STM32F4xx_StdPeriph_Driver/src/stm32f4xx_rcc.c ****      RCC_APB1PeriphResetCmd() functions.
 944:App/STM32F4-Discovery/Libraries/STM32F4xx_StdPeriph_Driver/src/stm32f4xx_rcc.c ****      
 945:App/STM32F4-Discovery/Libraries/STM32F4xx_StdPeriph_Driver/src/stm32f4xx_rcc.c ****   4. To further reduce power consumption in SLEEP mode the peripheral clocks can
 946:App/STM32F4-Discovery/Libraries/STM32F4xx_StdPeriph_Driver/src/stm32f4xx_rcc.c ****      be disabled prior to executing the WFI or WFE instructions. You can do this
 947:App/STM32F4-Discovery/Libraries/STM32F4xx_StdPeriph_Driver/src/stm32f4xx_rcc.c ****      using RCC_AHBPeriphClockLPModeCmd(), RCC_APB2PeriphClockLPModeCmd() and
 948:App/STM32F4-Discovery/Libraries/STM32F4xx_StdPeriph_Driver/src/stm32f4xx_rcc.c ****      RCC_APB1PeriphClockLPModeCmd() functions.  
 949:App/STM32F4-Discovery/Libraries/STM32F4xx_StdPeriph_Driver/src/stm32f4xx_rcc.c **** 
 950:App/STM32F4-Discovery/Libraries/STM32F4xx_StdPeriph_Driver/src/stm32f4xx_rcc.c **** @endverbatim
 951:App/STM32F4-Discovery/Libraries/STM32F4xx_StdPeriph_Driver/src/stm32f4xx_rcc.c ****   * @{
 952:App/STM32F4-Discovery/Libraries/STM32F4xx_StdPeriph_Driver/src/stm32f4xx_rcc.c ****   */
 953:App/STM32F4-Discovery/Libraries/STM32F4xx_StdPeriph_Driver/src/stm32f4xx_rcc.c **** 
 954:App/STM32F4-Discovery/Libraries/STM32F4xx_StdPeriph_Driver/src/stm32f4xx_rcc.c **** /**
 955:App/STM32F4-Discovery/Libraries/STM32F4xx_StdPeriph_Driver/src/stm32f4xx_rcc.c ****   * @brief  Configures the RTC clock (RTCCLK).
 956:App/STM32F4-Discovery/Libraries/STM32F4xx_StdPeriph_Driver/src/stm32f4xx_rcc.c ****   * @note   As the RTC clock configuration bits are in the Backup domain and write
 957:App/STM32F4-Discovery/Libraries/STM32F4xx_StdPeriph_Driver/src/stm32f4xx_rcc.c ****   *         access is denied to this domain after reset, you have to enable write
 958:App/STM32F4-Discovery/Libraries/STM32F4xx_StdPeriph_Driver/src/stm32f4xx_rcc.c ****   *         access using PWR_BackupAccessCmd(ENABLE) function before to configure
 959:App/STM32F4-Discovery/Libraries/STM32F4xx_StdPeriph_Driver/src/stm32f4xx_rcc.c ****   *         the RTC clock source (to be done once after reset).    
 960:App/STM32F4-Discovery/Libraries/STM32F4xx_StdPeriph_Driver/src/stm32f4xx_rcc.c ****   * @note   Once the RTC clock is configured it can't be changed unless the  
 961:App/STM32F4-Discovery/Libraries/STM32F4xx_StdPeriph_Driver/src/stm32f4xx_rcc.c ****   *         Backup domain is reset using RCC_BackupResetCmd() function, or by
 962:App/STM32F4-Discovery/Libraries/STM32F4xx_StdPeriph_Driver/src/stm32f4xx_rcc.c ****   *         a Power On Reset (POR).
 963:App/STM32F4-Discovery/Libraries/STM32F4xx_StdPeriph_Driver/src/stm32f4xx_rcc.c ****   *    
 964:App/STM32F4-Discovery/Libraries/STM32F4xx_StdPeriph_Driver/src/stm32f4xx_rcc.c ****   * @param  RCC_RTCCLKSource: specifies the RTC clock source.
 965:App/STM32F4-Discovery/Libraries/STM32F4xx_StdPeriph_Driver/src/stm32f4xx_rcc.c ****   *          This parameter can be one of the following values:
 966:App/STM32F4-Discovery/Libraries/STM32F4xx_StdPeriph_Driver/src/stm32f4xx_rcc.c ****   *            @arg RCC_RTCCLKSource_LSE: LSE selected as RTC clock
 967:App/STM32F4-Discovery/Libraries/STM32F4xx_StdPeriph_Driver/src/stm32f4xx_rcc.c ****   *            @arg RCC_RTCCLKSource_LSI: LSI selected as RTC clock
 968:App/STM32F4-Discovery/Libraries/STM32F4xx_StdPeriph_Driver/src/stm32f4xx_rcc.c ****   *            @arg RCC_RTCCLKSource_HSE_Divx: HSE clock divided by x selected
 969:App/STM32F4-Discovery/Libraries/STM32F4xx_StdPeriph_Driver/src/stm32f4xx_rcc.c ****   *                                            as RTC clock, where x:[2,31]
 970:App/STM32F4-Discovery/Libraries/STM32F4xx_StdPeriph_Driver/src/stm32f4xx_rcc.c ****   *  
 971:App/STM32F4-Discovery/Libraries/STM32F4xx_StdPeriph_Driver/src/stm32f4xx_rcc.c ****   * @note   If the LSE or LSI is used as RTC clock source, the RTC continues to
 972:App/STM32F4-Discovery/Libraries/STM32F4xx_StdPeriph_Driver/src/stm32f4xx_rcc.c ****   *         work in STOP and STANDBY modes, and can be used as wakeup source.
 973:App/STM32F4-Discovery/Libraries/STM32F4xx_StdPeriph_Driver/src/stm32f4xx_rcc.c ****   *         However, when the HSE clock is used as RTC clock source, the RTC
 974:App/STM32F4-Discovery/Libraries/STM32F4xx_StdPeriph_Driver/src/stm32f4xx_rcc.c ****   *         cannot be used in STOP and STANDBY modes.    
 975:App/STM32F4-Discovery/Libraries/STM32F4xx_StdPeriph_Driver/src/stm32f4xx_rcc.c ****   * @note   The maximum input clock frequency for RTC is 1MHz (when using HSE as
 976:App/STM32F4-Discovery/Libraries/STM32F4xx_StdPeriph_Driver/src/stm32f4xx_rcc.c ****   *         RTC clock source).
 977:App/STM32F4-Discovery/Libraries/STM32F4xx_StdPeriph_Driver/src/stm32f4xx_rcc.c ****   *  
 978:App/STM32F4-Discovery/Libraries/STM32F4xx_StdPeriph_Driver/src/stm32f4xx_rcc.c ****   * @retval None
 979:App/STM32F4-Discovery/Libraries/STM32F4xx_StdPeriph_Driver/src/stm32f4xx_rcc.c ****   */
 980:App/STM32F4-Discovery/Libraries/STM32F4xx_StdPeriph_Driver/src/stm32f4xx_rcc.c **** void RCC_RTCCLKConfig(uint32_t RCC_RTCCLKSource)
 981:App/STM32F4-Discovery/Libraries/STM32F4xx_StdPeriph_Driver/src/stm32f4xx_rcc.c **** {
 1656              		.loc 1 981 0
 1657              		.cfi_startproc
 1658              		@ args = 0, pretend = 0, frame = 16
 1659              		@ frame_needed = 1, uses_anonymous_args = 0
 1660 0000 80B5     		push	{r7, lr}
 1661              	.LCFI58:
 1662              		.cfi_def_cfa_offset 8
 1663              		.cfi_offset 7, -8
 1664              		.cfi_offset 14, -4
 1665 0002 84B0     		sub	sp, sp, #16
 1666              	.LCFI59:
 1667              		.cfi_def_cfa_offset 24
 1668 0004 00AF     		add	r7, sp, #0
 1669              	.LCFI60:
 1670              		.cfi_def_cfa_register 7
 1671 0006 7860     		str	r0, [r7, #4]
 982:App/STM32F4-Discovery/Libraries/STM32F4xx_StdPeriph_Driver/src/stm32f4xx_rcc.c ****   uint32_t tmpreg = 0;
 1672              		.loc 1 982 0
 1673 0008 4FF00003 		mov	r3, #0
 1674 000c FB60     		str	r3, [r7, #12]
 983:App/STM32F4-Discovery/Libraries/STM32F4xx_StdPeriph_Driver/src/stm32f4xx_rcc.c **** 
 984:App/STM32F4-Discovery/Libraries/STM32F4xx_StdPeriph_Driver/src/stm32f4xx_rcc.c ****   /* Check the parameters */
 985:App/STM32F4-Discovery/Libraries/STM32F4xx_StdPeriph_Driver/src/stm32f4xx_rcc.c ****   assert_param(IS_RCC_RTCCLK_SOURCE(RCC_RTCCLKSource));
 1675              		.loc 1 985 0
 1676 000e 7B68     		ldr	r3, [r7, #4]
 1677 0010 B3F5807F 		cmp	r3, #256
 1678 0014 00F0EB80 		beq	.L68
 1679              		.loc 1 985 0 is_stmt 0 discriminator 1
 1680 0018 7B68     		ldr	r3, [r7, #4]
 1681 001a B3F5007F 		cmp	r3, #512
 1682 001e 00F0E680 		beq	.L68
 1683              		.loc 1 985 0 discriminator 2
 1684 0022 7A68     		ldr	r2, [r7, #4]
 1685 0024 4FF44073 		mov	r3, #768
 1686 0028 C0F20203 		movt	r3, 2
 1687 002c 9A42     		cmp	r2, r3
 1688 002e 00F0DE80 		beq	.L68
 1689              		.loc 1 985 0 discriminator 3
 1690 0032 7A68     		ldr	r2, [r7, #4]
 1691 0034 4FF44073 		mov	r3, #768
 1692 0038 C0F20303 		movt	r3, 3
 1693 003c 9A42     		cmp	r2, r3
 1694 003e 00F0D680 		beq	.L68
 1695              		.loc 1 985 0 discriminator 4
 1696 0042 7A68     		ldr	r2, [r7, #4]
 1697 0044 4FF44073 		mov	r3, #768
 1698 0048 C0F20403 		movt	r3, 4
 1699 004c 9A42     		cmp	r2, r3
 1700 004e 00F0CE80 		beq	.L68
 1701              		.loc 1 985 0 discriminator 5
 1702 0052 7A68     		ldr	r2, [r7, #4]
 1703 0054 4FF44073 		mov	r3, #768
 1704 0058 C0F20503 		movt	r3, 5
 1705 005c 9A42     		cmp	r2, r3
 1706 005e 00F0C680 		beq	.L68
 1707              		.loc 1 985 0 discriminator 6
 1708 0062 7A68     		ldr	r2, [r7, #4]
 1709 0064 4FF44073 		mov	r3, #768
 1710 0068 C0F20603 		movt	r3, 6
 1711 006c 9A42     		cmp	r2, r3
 1712 006e 00F0BE80 		beq	.L68
 1713              		.loc 1 985 0 discriminator 7
 1714 0072 7A68     		ldr	r2, [r7, #4]
 1715 0074 4FF44073 		mov	r3, #768
 1716 0078 C0F20703 		movt	r3, 7
 1717 007c 9A42     		cmp	r2, r3
 1718 007e 00F0B680 		beq	.L68
 1719              		.loc 1 985 0 discriminator 8
 1720 0082 7A68     		ldr	r2, [r7, #4]
 1721 0084 4FF44073 		mov	r3, #768
 1722 0088 C0F20803 		movt	r3, 8
 1723 008c 9A42     		cmp	r2, r3
 1724 008e 00F0AE80 		beq	.L68
 1725              		.loc 1 985 0 discriminator 9
 1726 0092 7A68     		ldr	r2, [r7, #4]
 1727 0094 4FF44073 		mov	r3, #768
 1728 0098 C0F20903 		movt	r3, 9
 1729 009c 9A42     		cmp	r2, r3
 1730 009e 00F0A680 		beq	.L68
 1731              		.loc 1 985 0 discriminator 10
 1732 00a2 7A68     		ldr	r2, [r7, #4]
 1733 00a4 4FF44073 		mov	r3, #768
 1734 00a8 C0F20A03 		movt	r3, 10
 1735 00ac 9A42     		cmp	r2, r3
 1736 00ae 00F09E80 		beq	.L68
 1737              		.loc 1 985 0 discriminator 11
 1738 00b2 7A68     		ldr	r2, [r7, #4]
 1739 00b4 4FF44073 		mov	r3, #768
 1740 00b8 C0F20B03 		movt	r3, 11
 1741 00bc 9A42     		cmp	r2, r3
 1742 00be 00F09680 		beq	.L68
 1743              		.loc 1 985 0 discriminator 12
 1744 00c2 7A68     		ldr	r2, [r7, #4]
 1745 00c4 4FF44073 		mov	r3, #768
 1746 00c8 C0F20C03 		movt	r3, 12
 1747 00cc 9A42     		cmp	r2, r3
 1748 00ce 00F08E80 		beq	.L68
 1749              		.loc 1 985 0 discriminator 13
 1750 00d2 7A68     		ldr	r2, [r7, #4]
 1751 00d4 4FF44073 		mov	r3, #768
 1752 00d8 C0F20D03 		movt	r3, 13
 1753 00dc 9A42     		cmp	r2, r3
 1754 00de 00F08680 		beq	.L68
 1755              		.loc 1 985 0 discriminator 14
 1756 00e2 7A68     		ldr	r2, [r7, #4]
 1757 00e4 4FF44073 		mov	r3, #768
 1758 00e8 C0F20E03 		movt	r3, 14
 1759 00ec 9A42     		cmp	r2, r3
 1760 00ee 7ED0     		beq	.L68
 1761              		.loc 1 985 0 discriminator 15
 1762 00f0 7A68     		ldr	r2, [r7, #4]
 1763 00f2 4FF44073 		mov	r3, #768
 1764 00f6 C0F20F03 		movt	r3, 15
 1765 00fa 9A42     		cmp	r2, r3
 1766 00fc 77D0     		beq	.L68
 1767              		.loc 1 985 0 discriminator 16
 1768 00fe 7A68     		ldr	r2, [r7, #4]
 1769 0100 4FF44073 		mov	r3, #768
 1770 0104 C0F21003 		movt	r3, 16
 1771 0108 9A42     		cmp	r2, r3
 1772 010a 70D0     		beq	.L68
 1773              		.loc 1 985 0 discriminator 17
 1774 010c 7A68     		ldr	r2, [r7, #4]
 1775 010e 4FF44073 		mov	r3, #768
 1776 0112 C0F21103 		movt	r3, 17
 1777 0116 9A42     		cmp	r2, r3
 1778 0118 69D0     		beq	.L68
 1779              		.loc 1 985 0 discriminator 18
 1780 011a 7A68     		ldr	r2, [r7, #4]
 1781 011c 4FF44073 		mov	r3, #768
 1782 0120 C0F21203 		movt	r3, 18
 1783 0124 9A42     		cmp	r2, r3
 1784 0126 62D0     		beq	.L68
 1785              		.loc 1 985 0 discriminator 19
 1786 0128 7A68     		ldr	r2, [r7, #4]
 1787 012a 4FF44073 		mov	r3, #768
 1788 012e C0F21303 		movt	r3, 19
 1789 0132 9A42     		cmp	r2, r3
 1790 0134 5BD0     		beq	.L68
 1791              		.loc 1 985 0 discriminator 20
 1792 0136 7A68     		ldr	r2, [r7, #4]
 1793 0138 4FF44073 		mov	r3, #768
 1794 013c C0F21403 		movt	r3, 20
 1795 0140 9A42     		cmp	r2, r3
 1796 0142 54D0     		beq	.L68
 1797              		.loc 1 985 0 discriminator 21
 1798 0144 7A68     		ldr	r2, [r7, #4]
 1799 0146 4FF44073 		mov	r3, #768
 1800 014a C0F21503 		movt	r3, 21
 1801 014e 9A42     		cmp	r2, r3
 1802 0150 4DD0     		beq	.L68
 1803              		.loc 1 985 0 discriminator 22
 1804 0152 7A68     		ldr	r2, [r7, #4]
 1805 0154 4FF44073 		mov	r3, #768
 1806 0158 C0F21603 		movt	r3, 22
 1807 015c 9A42     		cmp	r2, r3
 1808 015e 46D0     		beq	.L68
 1809              		.loc 1 985 0 discriminator 23
 1810 0160 7A68     		ldr	r2, [r7, #4]
 1811 0162 4FF44073 		mov	r3, #768
 1812 0166 C0F21703 		movt	r3, 23
 1813 016a 9A42     		cmp	r2, r3
 1814 016c 3FD0     		beq	.L68
 1815              		.loc 1 985 0 discriminator 24
 1816 016e 7A68     		ldr	r2, [r7, #4]
 1817 0170 4FF44073 		mov	r3, #768
 1818 0174 C0F21803 		movt	r3, 24
 1819 0178 9A42     		cmp	r2, r3
 1820 017a 38D0     		beq	.L68
 1821              		.loc 1 985 0 discriminator 25
 1822 017c 7A68     		ldr	r2, [r7, #4]
 1823 017e 4FF44073 		mov	r3, #768
 1824 0182 C0F21903 		movt	r3, 25
 1825 0186 9A42     		cmp	r2, r3
 1826 0188 31D0     		beq	.L68
 1827              		.loc 1 985 0 discriminator 26
 1828 018a 7A68     		ldr	r2, [r7, #4]
 1829 018c 4FF44073 		mov	r3, #768
 1830 0190 C0F21A03 		movt	r3, 26
 1831 0194 9A42     		cmp	r2, r3
 1832 0196 2AD0     		beq	.L68
 1833              		.loc 1 985 0 discriminator 27
 1834 0198 7A68     		ldr	r2, [r7, #4]
 1835 019a 4FF44073 		mov	r3, #768
 1836 019e C0F21B03 		movt	r3, 27
 1837 01a2 9A42     		cmp	r2, r3
 1838 01a4 23D0     		beq	.L68
 1839              		.loc 1 985 0 discriminator 28
 1840 01a6 7A68     		ldr	r2, [r7, #4]
 1841 01a8 4FF44073 		mov	r3, #768
 1842 01ac C0F21C03 		movt	r3, 28
 1843 01b0 9A42     		cmp	r2, r3
 1844 01b2 1CD0     		beq	.L68
 1845              		.loc 1 985 0 discriminator 29
 1846 01b4 7A68     		ldr	r2, [r7, #4]
 1847 01b6 4FF44073 		mov	r3, #768
 1848 01ba C0F21D03 		movt	r3, 29
 1849 01be 9A42     		cmp	r2, r3
 1850 01c0 15D0     		beq	.L68
 1851              		.loc 1 985 0 discriminator 30
 1852 01c2 7A68     		ldr	r2, [r7, #4]
 1853 01c4 4FF44073 		mov	r3, #768
 1854 01c8 C0F21E03 		movt	r3, 30
 1855 01cc 9A42     		cmp	r2, r3
 1856 01ce 0ED0     		beq	.L68
 1857              		.loc 1 985 0 discriminator 31
 1858 01d0 7A68     		ldr	r2, [r7, #4]
 1859 01d2 4FF44073 		mov	r3, #768
 1860 01d6 C0F21F03 		movt	r3, 31
 1861 01da 9A42     		cmp	r2, r3
 1862 01dc 07D0     		beq	.L68
 1863              		.loc 1 985 0 discriminator 32
 1864 01de 40F20000 		movw	r0, #:lower16:.LC0
 1865 01e2 C0F20000 		movt	r0, #:upper16:.LC0
 1866 01e6 40F2D931 		movw	r1, #985
 1867 01ea FFF7FEFF 		bl	assert_failed
 1868              	.L68:
 986:App/STM32F4-Discovery/Libraries/STM32F4xx_StdPeriph_Driver/src/stm32f4xx_rcc.c **** 
 987:App/STM32F4-Discovery/Libraries/STM32F4xx_StdPeriph_Driver/src/stm32f4xx_rcc.c ****   if ((RCC_RTCCLKSource & 0x00000300) == 0x00000300)
 1869              		.loc 1 987 0 is_stmt 1
 1870 01ee 7B68     		ldr	r3, [r7, #4]
 1871 01f0 03F44073 		and	r3, r3, #768
 1872 01f4 B3F5407F 		cmp	r3, #768
 1873 01f8 17D1     		bne	.L69
 988:App/STM32F4-Discovery/Libraries/STM32F4xx_StdPeriph_Driver/src/stm32f4xx_rcc.c ****   { /* If HSE is selected as RTC clock source, configure HSE division factor for RTC clock */
 989:App/STM32F4-Discovery/Libraries/STM32F4xx_StdPeriph_Driver/src/stm32f4xx_rcc.c ****     tmpreg = RCC->CFGR;
 1874              		.loc 1 989 0
 1875 01fa 4FF46053 		mov	r3, #14336
 1876 01fe C4F20203 		movt	r3, 16386
 1877 0202 9B68     		ldr	r3, [r3, #8]
 1878 0204 FB60     		str	r3, [r7, #12]
 990:App/STM32F4-Discovery/Libraries/STM32F4xx_StdPeriph_Driver/src/stm32f4xx_rcc.c **** 
 991:App/STM32F4-Discovery/Libraries/STM32F4xx_StdPeriph_Driver/src/stm32f4xx_rcc.c ****     /* Clear RTCPRE[4:0] bits */
 992:App/STM32F4-Discovery/Libraries/STM32F4xx_StdPeriph_Driver/src/stm32f4xx_rcc.c ****     tmpreg &= ~RCC_CFGR_RTCPRE;
 1879              		.loc 1 992 0
 1880 0206 FB68     		ldr	r3, [r7, #12]
 1881 0208 23F4F813 		bic	r3, r3, #2031616
 1882 020c FB60     		str	r3, [r7, #12]
 993:App/STM32F4-Discovery/Libraries/STM32F4xx_StdPeriph_Driver/src/stm32f4xx_rcc.c **** 
 994:App/STM32F4-Discovery/Libraries/STM32F4xx_StdPeriph_Driver/src/stm32f4xx_rcc.c ****     /* Configure HSE division factor for RTC clock */
 995:App/STM32F4-Discovery/Libraries/STM32F4xx_StdPeriph_Driver/src/stm32f4xx_rcc.c ****     tmpreg |= (RCC_RTCCLKSource & 0xFFFFCFF);
 1883              		.loc 1 995 0
 1884 020e 7B68     		ldr	r3, [r7, #4]
 1885 0210 23F07043 		bic	r3, r3, #-268435456
 1886 0214 23F44073 		bic	r3, r3, #768
 1887 0218 FA68     		ldr	r2, [r7, #12]
 1888 021a 1343     		orrs	r3, r3, r2
 1889 021c FB60     		str	r3, [r7, #12]
 996:App/STM32F4-Discovery/Libraries/STM32F4xx_StdPeriph_Driver/src/stm32f4xx_rcc.c **** 
 997:App/STM32F4-Discovery/Libraries/STM32F4xx_StdPeriph_Driver/src/stm32f4xx_rcc.c ****     /* Store the new value */
 998:App/STM32F4-Discovery/Libraries/STM32F4xx_StdPeriph_Driver/src/stm32f4xx_rcc.c ****     RCC->CFGR = tmpreg;
 1890              		.loc 1 998 0
 1891 021e 4FF46053 		mov	r3, #14336
 1892 0222 C4F20203 		movt	r3, 16386
 1893 0226 FA68     		ldr	r2, [r7, #12]
 1894 0228 9A60     		str	r2, [r3, #8]
 1895              	.L69:
 999:App/STM32F4-Discovery/Libraries/STM32F4xx_StdPeriph_Driver/src/stm32f4xx_rcc.c ****   }
1000:App/STM32F4-Discovery/Libraries/STM32F4xx_StdPeriph_Driver/src/stm32f4xx_rcc.c ****     
1001:App/STM32F4-Discovery/Libraries/STM32F4xx_StdPeriph_Driver/src/stm32f4xx_rcc.c ****   /* Select the RTC clock source */
1002:App/STM32F4-Discovery/Libraries/STM32F4xx_StdPeriph_Driver/src/stm32f4xx_rcc.c ****   RCC->BDCR |= (RCC_RTCCLKSource & 0x00000FFF);
 1896              		.loc 1 1002 0
 1897 022a 4FF46053 		mov	r3, #14336
 1898 022e C4F20203 		movt	r3, 16386
 1899 0232 4FF46052 		mov	r2, #14336
 1900 0236 C4F20202 		movt	r2, 16386
 1901 023a 116F     		ldr	r1, [r2, #112]
 1902 023c 7A68     		ldr	r2, [r7, #4]
 1903 023e 4FEA0252 		lsl	r2, r2, #20
 1904 0242 4FEA1252 		lsr	r2, r2, #20
 1905 0246 0A43     		orrs	r2, r2, r1
 1906 0248 1A67     		str	r2, [r3, #112]
1003:App/STM32F4-Discovery/Libraries/STM32F4xx_StdPeriph_Driver/src/stm32f4xx_rcc.c **** }
 1907              		.loc 1 1003 0
 1908 024a 07F11007 		add	r7, r7, #16
 1909 024e BD46     		mov	sp, r7
 1910 0250 80BD     		pop	{r7, pc}
 1911              		.cfi_endproc
 1912              	.LFE130:
 1914 0252 00BF     		.section	.text.RCC_RTCCLKCmd,"ax",%progbits
 1915              		.align	2
 1916              		.global	RCC_RTCCLKCmd
 1917              		.thumb
 1918              		.thumb_func
 1920              	RCC_RTCCLKCmd:
 1921              	.LFB131:
1004:App/STM32F4-Discovery/Libraries/STM32F4xx_StdPeriph_Driver/src/stm32f4xx_rcc.c **** 
1005:App/STM32F4-Discovery/Libraries/STM32F4xx_StdPeriph_Driver/src/stm32f4xx_rcc.c **** /**
1006:App/STM32F4-Discovery/Libraries/STM32F4xx_StdPeriph_Driver/src/stm32f4xx_rcc.c ****   * @brief  Enables or disables the RTC clock.
1007:App/STM32F4-Discovery/Libraries/STM32F4xx_StdPeriph_Driver/src/stm32f4xx_rcc.c ****   * @note   This function must be used only after the RTC clock source was selected
1008:App/STM32F4-Discovery/Libraries/STM32F4xx_StdPeriph_Driver/src/stm32f4xx_rcc.c ****   *         using the RCC_RTCCLKConfig function.
1009:App/STM32F4-Discovery/Libraries/STM32F4xx_StdPeriph_Driver/src/stm32f4xx_rcc.c ****   * @param  NewState: new state of the RTC clock. This parameter can be: ENABLE or DISABLE.
1010:App/STM32F4-Discovery/Libraries/STM32F4xx_StdPeriph_Driver/src/stm32f4xx_rcc.c ****   * @retval None
1011:App/STM32F4-Discovery/Libraries/STM32F4xx_StdPeriph_Driver/src/stm32f4xx_rcc.c ****   */
1012:App/STM32F4-Discovery/Libraries/STM32F4xx_StdPeriph_Driver/src/stm32f4xx_rcc.c **** void RCC_RTCCLKCmd(FunctionalState NewState)
1013:App/STM32F4-Discovery/Libraries/STM32F4xx_StdPeriph_Driver/src/stm32f4xx_rcc.c **** {
 1922              		.loc 1 1013 0
 1923              		.cfi_startproc
 1924              		@ args = 0, pretend = 0, frame = 8
 1925              		@ frame_needed = 1, uses_anonymous_args = 0
 1926 0000 80B5     		push	{r7, lr}
 1927              	.LCFI61:
 1928              		.cfi_def_cfa_offset 8
 1929              		.cfi_offset 7, -8
 1930              		.cfi_offset 14, -4
 1931 0002 82B0     		sub	sp, sp, #8
 1932              	.LCFI62:
 1933              		.cfi_def_cfa_offset 16
 1934 0004 00AF     		add	r7, sp, #0
 1935              	.LCFI63:
 1936              		.cfi_def_cfa_register 7
 1937 0006 0346     		mov	r3, r0
 1938 0008 FB71     		strb	r3, [r7, #7]
1014:App/STM32F4-Discovery/Libraries/STM32F4xx_StdPeriph_Driver/src/stm32f4xx_rcc.c ****   /* Check the parameters */
1015:App/STM32F4-Discovery/Libraries/STM32F4xx_StdPeriph_Driver/src/stm32f4xx_rcc.c ****   assert_param(IS_FUNCTIONAL_STATE(NewState));
 1939              		.loc 1 1015 0
 1940 000a FB79     		ldrb	r3, [r7, #7]	@ zero_extendqisi2
 1941 000c 002B     		cmp	r3, #0
 1942 000e 0AD0     		beq	.L71
 1943              		.loc 1 1015 0 is_stmt 0 discriminator 1
 1944 0010 FB79     		ldrb	r3, [r7, #7]	@ zero_extendqisi2
 1945 0012 012B     		cmp	r3, #1
 1946 0014 07D0     		beq	.L71
 1947              		.loc 1 1015 0 discriminator 2
 1948 0016 40F20000 		movw	r0, #:lower16:.LC0
 1949 001a C0F20000 		movt	r0, #:upper16:.LC0
 1950 001e 40F2F731 		movw	r1, #1015
 1951 0022 FFF7FEFF 		bl	assert_failed
 1952              	.L71:
1016:App/STM32F4-Discovery/Libraries/STM32F4xx_StdPeriph_Driver/src/stm32f4xx_rcc.c **** 
1017:App/STM32F4-Discovery/Libraries/STM32F4xx_StdPeriph_Driver/src/stm32f4xx_rcc.c ****   *(__IO uint32_t *) BDCR_RTCEN_BB = (uint32_t)NewState;
 1953              		.loc 1 1017 0 is_stmt 1
 1954 0026 40F63C63 		movw	r3, #3644
 1955 002a C4F24723 		movt	r3, 16967
 1956 002e FA79     		ldrb	r2, [r7, #7]	@ zero_extendqisi2
 1957 0030 1A60     		str	r2, [r3, #0]
1018:App/STM32F4-Discovery/Libraries/STM32F4xx_StdPeriph_Driver/src/stm32f4xx_rcc.c **** }
 1958              		.loc 1 1018 0
 1959 0032 07F10807 		add	r7, r7, #8
 1960 0036 BD46     		mov	sp, r7
 1961 0038 80BD     		pop	{r7, pc}
 1962              		.cfi_endproc
 1963              	.LFE131:
 1965 003a 00BF     		.section	.text.RCC_BackupResetCmd,"ax",%progbits
 1966              		.align	2
 1967              		.global	RCC_BackupResetCmd
 1968              		.thumb
 1969              		.thumb_func
 1971              	RCC_BackupResetCmd:
 1972              	.LFB132:
1019:App/STM32F4-Discovery/Libraries/STM32F4xx_StdPeriph_Driver/src/stm32f4xx_rcc.c **** 
1020:App/STM32F4-Discovery/Libraries/STM32F4xx_StdPeriph_Driver/src/stm32f4xx_rcc.c **** /**
1021:App/STM32F4-Discovery/Libraries/STM32F4xx_StdPeriph_Driver/src/stm32f4xx_rcc.c ****   * @brief  Forces or releases the Backup domain reset.
1022:App/STM32F4-Discovery/Libraries/STM32F4xx_StdPeriph_Driver/src/stm32f4xx_rcc.c ****   * @note   This function resets the RTC peripheral (including the backup registers)
1023:App/STM32F4-Discovery/Libraries/STM32F4xx_StdPeriph_Driver/src/stm32f4xx_rcc.c ****   *         and the RTC clock source selection in RCC_CSR register.
1024:App/STM32F4-Discovery/Libraries/STM32F4xx_StdPeriph_Driver/src/stm32f4xx_rcc.c ****   * @note   The BKPSRAM is not affected by this reset.    
1025:App/STM32F4-Discovery/Libraries/STM32F4xx_StdPeriph_Driver/src/stm32f4xx_rcc.c ****   * @param  NewState: new state of the Backup domain reset.
1026:App/STM32F4-Discovery/Libraries/STM32F4xx_StdPeriph_Driver/src/stm32f4xx_rcc.c ****   *          This parameter can be: ENABLE or DISABLE.
1027:App/STM32F4-Discovery/Libraries/STM32F4xx_StdPeriph_Driver/src/stm32f4xx_rcc.c ****   * @retval None
1028:App/STM32F4-Discovery/Libraries/STM32F4xx_StdPeriph_Driver/src/stm32f4xx_rcc.c ****   */
1029:App/STM32F4-Discovery/Libraries/STM32F4xx_StdPeriph_Driver/src/stm32f4xx_rcc.c **** void RCC_BackupResetCmd(FunctionalState NewState)
1030:App/STM32F4-Discovery/Libraries/STM32F4xx_StdPeriph_Driver/src/stm32f4xx_rcc.c **** {
 1973              		.loc 1 1030 0
 1974              		.cfi_startproc
 1975              		@ args = 0, pretend = 0, frame = 8
 1976              		@ frame_needed = 1, uses_anonymous_args = 0
 1977 0000 80B5     		push	{r7, lr}
 1978              	.LCFI64:
 1979              		.cfi_def_cfa_offset 8
 1980              		.cfi_offset 7, -8
 1981              		.cfi_offset 14, -4
 1982 0002 82B0     		sub	sp, sp, #8
 1983              	.LCFI65:
 1984              		.cfi_def_cfa_offset 16
 1985 0004 00AF     		add	r7, sp, #0
 1986              	.LCFI66:
 1987              		.cfi_def_cfa_register 7
 1988 0006 0346     		mov	r3, r0
 1989 0008 FB71     		strb	r3, [r7, #7]
1031:App/STM32F4-Discovery/Libraries/STM32F4xx_StdPeriph_Driver/src/stm32f4xx_rcc.c ****   /* Check the parameters */
1032:App/STM32F4-Discovery/Libraries/STM32F4xx_StdPeriph_Driver/src/stm32f4xx_rcc.c ****   assert_param(IS_FUNCTIONAL_STATE(NewState));
 1990              		.loc 1 1032 0
 1991 000a FB79     		ldrb	r3, [r7, #7]	@ zero_extendqisi2
 1992 000c 002B     		cmp	r3, #0
 1993 000e 0AD0     		beq	.L73
 1994              		.loc 1 1032 0 is_stmt 0 discriminator 1
 1995 0010 FB79     		ldrb	r3, [r7, #7]	@ zero_extendqisi2
 1996 0012 012B     		cmp	r3, #1
 1997 0014 07D0     		beq	.L73
 1998              		.loc 1 1032 0 discriminator 2
 1999 0016 40F20000 		movw	r0, #:lower16:.LC0
 2000 001a C0F20000 		movt	r0, #:upper16:.LC0
 2001 001e 4FF48161 		mov	r1, #1032
 2002 0022 FFF7FEFF 		bl	assert_failed
 2003              	.L73:
1033:App/STM32F4-Discovery/Libraries/STM32F4xx_StdPeriph_Driver/src/stm32f4xx_rcc.c ****   *(__IO uint32_t *) BDCR_BDRST_BB = (uint32_t)NewState;
 2004              		.loc 1 1033 0 is_stmt 1
 2005 0026 4FF46463 		mov	r3, #3648
 2006 002a C4F24723 		movt	r3, 16967
 2007 002e FA79     		ldrb	r2, [r7, #7]	@ zero_extendqisi2
 2008 0030 1A60     		str	r2, [r3, #0]
1034:App/STM32F4-Discovery/Libraries/STM32F4xx_StdPeriph_Driver/src/stm32f4xx_rcc.c **** }
 2009              		.loc 1 1034 0
 2010 0032 07F10807 		add	r7, r7, #8
 2011 0036 BD46     		mov	sp, r7
 2012 0038 80BD     		pop	{r7, pc}
 2013              		.cfi_endproc
 2014              	.LFE132:
 2016 003a 00BF     		.section	.text.RCC_I2SCLKConfig,"ax",%progbits
 2017              		.align	2
 2018              		.global	RCC_I2SCLKConfig
 2019              		.thumb
 2020              		.thumb_func
 2022              	RCC_I2SCLKConfig:
 2023              	.LFB133:
1035:App/STM32F4-Discovery/Libraries/STM32F4xx_StdPeriph_Driver/src/stm32f4xx_rcc.c **** 
1036:App/STM32F4-Discovery/Libraries/STM32F4xx_StdPeriph_Driver/src/stm32f4xx_rcc.c **** /**
1037:App/STM32F4-Discovery/Libraries/STM32F4xx_StdPeriph_Driver/src/stm32f4xx_rcc.c ****   * @brief  Configures the I2S clock source (I2SCLK).
1038:App/STM32F4-Discovery/Libraries/STM32F4xx_StdPeriph_Driver/src/stm32f4xx_rcc.c ****   * @note   This function must be called before enabling the I2S APB clock.
1039:App/STM32F4-Discovery/Libraries/STM32F4xx_StdPeriph_Driver/src/stm32f4xx_rcc.c ****   * @param  RCC_I2SCLKSource: specifies the I2S clock source.
1040:App/STM32F4-Discovery/Libraries/STM32F4xx_StdPeriph_Driver/src/stm32f4xx_rcc.c ****   *          This parameter can be one of the following values:
1041:App/STM32F4-Discovery/Libraries/STM32F4xx_StdPeriph_Driver/src/stm32f4xx_rcc.c ****   *            @arg RCC_I2S2CLKSource_PLLI2S: PLLI2S clock used as I2S clock source
1042:App/STM32F4-Discovery/Libraries/STM32F4xx_StdPeriph_Driver/src/stm32f4xx_rcc.c ****   *            @arg RCC_I2S2CLKSource_Ext: External clock mapped on the I2S_CKIN pin
1043:App/STM32F4-Discovery/Libraries/STM32F4xx_StdPeriph_Driver/src/stm32f4xx_rcc.c ****   *                                        used as I2S clock source
1044:App/STM32F4-Discovery/Libraries/STM32F4xx_StdPeriph_Driver/src/stm32f4xx_rcc.c ****   * @retval None
1045:App/STM32F4-Discovery/Libraries/STM32F4xx_StdPeriph_Driver/src/stm32f4xx_rcc.c ****   */
1046:App/STM32F4-Discovery/Libraries/STM32F4xx_StdPeriph_Driver/src/stm32f4xx_rcc.c **** void RCC_I2SCLKConfig(uint32_t RCC_I2SCLKSource)
1047:App/STM32F4-Discovery/Libraries/STM32F4xx_StdPeriph_Driver/src/stm32f4xx_rcc.c **** {
 2024              		.loc 1 1047 0
 2025              		.cfi_startproc
 2026              		@ args = 0, pretend = 0, frame = 8
 2027              		@ frame_needed = 1, uses_anonymous_args = 0
 2028 0000 80B5     		push	{r7, lr}
 2029              	.LCFI67:
 2030              		.cfi_def_cfa_offset 8
 2031              		.cfi_offset 7, -8
 2032              		.cfi_offset 14, -4
 2033 0002 82B0     		sub	sp, sp, #8
 2034              	.LCFI68:
 2035              		.cfi_def_cfa_offset 16
 2036 0004 00AF     		add	r7, sp, #0
 2037              	.LCFI69:
 2038              		.cfi_def_cfa_register 7
 2039 0006 7860     		str	r0, [r7, #4]
1048:App/STM32F4-Discovery/Libraries/STM32F4xx_StdPeriph_Driver/src/stm32f4xx_rcc.c ****   /* Check the parameters */
1049:App/STM32F4-Discovery/Libraries/STM32F4xx_StdPeriph_Driver/src/stm32f4xx_rcc.c ****   assert_param(IS_RCC_I2SCLK_SOURCE(RCC_I2SCLKSource));
 2040              		.loc 1 1049 0
 2041 0008 7B68     		ldr	r3, [r7, #4]
 2042 000a 002B     		cmp	r3, #0
 2043 000c 0AD0     		beq	.L75
 2044              		.loc 1 1049 0 is_stmt 0 discriminator 1
 2045 000e 7B68     		ldr	r3, [r7, #4]
 2046 0010 012B     		cmp	r3, #1
 2047 0012 07D0     		beq	.L75
 2048              		.loc 1 1049 0 discriminator 2
 2049 0014 40F20000 		movw	r0, #:lower16:.LC0
 2050 0018 C0F20000 		movt	r0, #:upper16:.LC0
 2051 001c 40F21941 		movw	r1, #1049
 2052 0020 FFF7FEFF 		bl	assert_failed
 2053              	.L75:
1050:App/STM32F4-Discovery/Libraries/STM32F4xx_StdPeriph_Driver/src/stm32f4xx_rcc.c **** 
1051:App/STM32F4-Discovery/Libraries/STM32F4xx_StdPeriph_Driver/src/stm32f4xx_rcc.c ****   *(__IO uint32_t *) CFGR_I2SSRC_BB = RCC_I2SCLKSource;
 2054              		.loc 1 1051 0 is_stmt 1
 2055 0024 4FF4AE73 		mov	r3, #348
 2056 0028 C4F24723 		movt	r3, 16967
 2057 002c 7A68     		ldr	r2, [r7, #4]
 2058 002e 1A60     		str	r2, [r3, #0]
1052:App/STM32F4-Discovery/Libraries/STM32F4xx_StdPeriph_Driver/src/stm32f4xx_rcc.c **** }
 2059              		.loc 1 1052 0
 2060 0030 07F10807 		add	r7, r7, #8
 2061 0034 BD46     		mov	sp, r7
 2062 0036 80BD     		pop	{r7, pc}
 2063              		.cfi_endproc
 2064              	.LFE133:
 2066              		.section	.text.RCC_AHB1PeriphClockCmd,"ax",%progbits
 2067              		.align	2
 2068              		.global	RCC_AHB1PeriphClockCmd
 2069              		.thumb
 2070              		.thumb_func
 2072              	RCC_AHB1PeriphClockCmd:
 2073              	.LFB134:
1053:App/STM32F4-Discovery/Libraries/STM32F4xx_StdPeriph_Driver/src/stm32f4xx_rcc.c **** 
1054:App/STM32F4-Discovery/Libraries/STM32F4xx_StdPeriph_Driver/src/stm32f4xx_rcc.c **** /**
1055:App/STM32F4-Discovery/Libraries/STM32F4xx_StdPeriph_Driver/src/stm32f4xx_rcc.c ****   * @brief  Enables or disables the AHB1 peripheral clock.
1056:App/STM32F4-Discovery/Libraries/STM32F4xx_StdPeriph_Driver/src/stm32f4xx_rcc.c ****   * @note   After reset, the peripheral clock (used for registers read/write access)
1057:App/STM32F4-Discovery/Libraries/STM32F4xx_StdPeriph_Driver/src/stm32f4xx_rcc.c ****   *         is disabled and the application software has to enable this clock before 
1058:App/STM32F4-Discovery/Libraries/STM32F4xx_StdPeriph_Driver/src/stm32f4xx_rcc.c ****   *         using it.   
1059:App/STM32F4-Discovery/Libraries/STM32F4xx_StdPeriph_Driver/src/stm32f4xx_rcc.c ****   * @param  RCC_AHBPeriph: specifies the AHB1 peripheral to gates its clock.
1060:App/STM32F4-Discovery/Libraries/STM32F4xx_StdPeriph_Driver/src/stm32f4xx_rcc.c ****   *          This parameter can be any combination of the following values:
1061:App/STM32F4-Discovery/Libraries/STM32F4xx_StdPeriph_Driver/src/stm32f4xx_rcc.c ****   *            @arg RCC_AHB1Periph_GPIOA:       GPIOA clock
1062:App/STM32F4-Discovery/Libraries/STM32F4xx_StdPeriph_Driver/src/stm32f4xx_rcc.c ****   *            @arg RCC_AHB1Periph_GPIOB:       GPIOB clock 
1063:App/STM32F4-Discovery/Libraries/STM32F4xx_StdPeriph_Driver/src/stm32f4xx_rcc.c ****   *            @arg RCC_AHB1Periph_GPIOC:       GPIOC clock
1064:App/STM32F4-Discovery/Libraries/STM32F4xx_StdPeriph_Driver/src/stm32f4xx_rcc.c ****   *            @arg RCC_AHB1Periph_GPIOD:       GPIOD clock
1065:App/STM32F4-Discovery/Libraries/STM32F4xx_StdPeriph_Driver/src/stm32f4xx_rcc.c ****   *            @arg RCC_AHB1Periph_GPIOE:       GPIOE clock
1066:App/STM32F4-Discovery/Libraries/STM32F4xx_StdPeriph_Driver/src/stm32f4xx_rcc.c ****   *            @arg RCC_AHB1Periph_GPIOF:       GPIOF clock
1067:App/STM32F4-Discovery/Libraries/STM32F4xx_StdPeriph_Driver/src/stm32f4xx_rcc.c ****   *            @arg RCC_AHB1Periph_GPIOG:       GPIOG clock
1068:App/STM32F4-Discovery/Libraries/STM32F4xx_StdPeriph_Driver/src/stm32f4xx_rcc.c ****   *            @arg RCC_AHB1Periph_GPIOG:       GPIOG clock
1069:App/STM32F4-Discovery/Libraries/STM32F4xx_StdPeriph_Driver/src/stm32f4xx_rcc.c ****   *            @arg RCC_AHB1Periph_GPIOI:       GPIOI clock
1070:App/STM32F4-Discovery/Libraries/STM32F4xx_StdPeriph_Driver/src/stm32f4xx_rcc.c ****   *            @arg RCC_AHB1Periph_CRC:         CRC clock
1071:App/STM32F4-Discovery/Libraries/STM32F4xx_StdPeriph_Driver/src/stm32f4xx_rcc.c ****   *            @arg RCC_AHB1Periph_BKPSRAM:     BKPSRAM interface clock
1072:App/STM32F4-Discovery/Libraries/STM32F4xx_StdPeriph_Driver/src/stm32f4xx_rcc.c ****   *            @arg RCC_AHB1Periph_CCMDATARAMEN CCM data RAM interface clock
1073:App/STM32F4-Discovery/Libraries/STM32F4xx_StdPeriph_Driver/src/stm32f4xx_rcc.c ****   *            @arg RCC_AHB1Periph_DMA1:        DMA1 clock
1074:App/STM32F4-Discovery/Libraries/STM32F4xx_StdPeriph_Driver/src/stm32f4xx_rcc.c ****   *            @arg RCC_AHB1Periph_DMA2:        DMA2 clock
1075:App/STM32F4-Discovery/Libraries/STM32F4xx_StdPeriph_Driver/src/stm32f4xx_rcc.c ****   *            @arg RCC_AHB1Periph_ETH_MAC:     Ethernet MAC clock
1076:App/STM32F4-Discovery/Libraries/STM32F4xx_StdPeriph_Driver/src/stm32f4xx_rcc.c ****   *            @arg RCC_AHB1Periph_ETH_MAC_Tx:  Ethernet Transmission clock
1077:App/STM32F4-Discovery/Libraries/STM32F4xx_StdPeriph_Driver/src/stm32f4xx_rcc.c ****   *            @arg RCC_AHB1Periph_ETH_MAC_Rx:  Ethernet Reception clock
1078:App/STM32F4-Discovery/Libraries/STM32F4xx_StdPeriph_Driver/src/stm32f4xx_rcc.c ****   *            @arg RCC_AHB1Periph_ETH_MAC_PTP: Ethernet PTP clock
1079:App/STM32F4-Discovery/Libraries/STM32F4xx_StdPeriph_Driver/src/stm32f4xx_rcc.c ****   *            @arg RCC_AHB1Periph_OTG_HS:      USB OTG HS clock
1080:App/STM32F4-Discovery/Libraries/STM32F4xx_StdPeriph_Driver/src/stm32f4xx_rcc.c ****   *            @arg RCC_AHB1Periph_OTG_HS_ULPI: USB OTG HS ULPI clock
1081:App/STM32F4-Discovery/Libraries/STM32F4xx_StdPeriph_Driver/src/stm32f4xx_rcc.c ****   * @param  NewState: new state of the specified peripheral clock.
1082:App/STM32F4-Discovery/Libraries/STM32F4xx_StdPeriph_Driver/src/stm32f4xx_rcc.c ****   *          This parameter can be: ENABLE or DISABLE.
1083:App/STM32F4-Discovery/Libraries/STM32F4xx_StdPeriph_Driver/src/stm32f4xx_rcc.c ****   * @retval None
1084:App/STM32F4-Discovery/Libraries/STM32F4xx_StdPeriph_Driver/src/stm32f4xx_rcc.c ****   */
1085:App/STM32F4-Discovery/Libraries/STM32F4xx_StdPeriph_Driver/src/stm32f4xx_rcc.c **** void RCC_AHB1PeriphClockCmd(uint32_t RCC_AHB1Periph, FunctionalState NewState)
1086:App/STM32F4-Discovery/Libraries/STM32F4xx_StdPeriph_Driver/src/stm32f4xx_rcc.c **** {
 2074              		.loc 1 1086 0
 2075              		.cfi_startproc
 2076              		@ args = 0, pretend = 0, frame = 8
 2077              		@ frame_needed = 1, uses_anonymous_args = 0
 2078 0000 80B5     		push	{r7, lr}
 2079              	.LCFI70:
 2080              		.cfi_def_cfa_offset 8
 2081              		.cfi_offset 7, -8
 2082              		.cfi_offset 14, -4
 2083 0002 82B0     		sub	sp, sp, #8
 2084              	.LCFI71:
 2085              		.cfi_def_cfa_offset 16
 2086 0004 00AF     		add	r7, sp, #0
 2087              	.LCFI72:
 2088              		.cfi_def_cfa_register 7
 2089 0006 7860     		str	r0, [r7, #4]
 2090 0008 0B46     		mov	r3, r1
 2091 000a FB70     		strb	r3, [r7, #3]
1087:App/STM32F4-Discovery/Libraries/STM32F4xx_StdPeriph_Driver/src/stm32f4xx_rcc.c ****   /* Check the parameters */
1088:App/STM32F4-Discovery/Libraries/STM32F4xx_StdPeriph_Driver/src/stm32f4xx_rcc.c ****   assert_param(IS_RCC_AHB1_CLOCK_PERIPH(RCC_AHB1Periph));
 2092              		.loc 1 1088 0
 2093 000c 7A68     		ldr	r2, [r7, #4]
 2094 000e 4FF46E43 		mov	r3, #60928
 2095 0012 C8F28B13 		movt	r3, 33163
 2096 0016 1340     		ands	r3, r3, r2
 2097 0018 002B     		cmp	r3, #0
 2098 001a 02D1     		bne	.L77
 2099              		.loc 1 1088 0 is_stmt 0 discriminator 2
 2100 001c 7B68     		ldr	r3, [r7, #4]
 2101 001e 002B     		cmp	r3, #0
 2102 0020 07D1     		bne	.L78
 2103              	.L77:
 2104              		.loc 1 1088 0 discriminator 1
 2105 0022 40F20000 		movw	r0, #:lower16:.LC0
 2106 0026 C0F20000 		movt	r0, #:upper16:.LC0
 2107 002a 4FF48861 		mov	r1, #1088
 2108 002e FFF7FEFF 		bl	assert_failed
 2109              	.L78:
1089:App/STM32F4-Discovery/Libraries/STM32F4xx_StdPeriph_Driver/src/stm32f4xx_rcc.c **** 
1090:App/STM32F4-Discovery/Libraries/STM32F4xx_StdPeriph_Driver/src/stm32f4xx_rcc.c ****   assert_param(IS_FUNCTIONAL_STATE(NewState));
 2110              		.loc 1 1090 0 is_stmt 1
 2111 0032 FB78     		ldrb	r3, [r7, #3]	@ zero_extendqisi2
 2112 0034 002B     		cmp	r3, #0
 2113 0036 0AD0     		beq	.L79
 2114              		.loc 1 1090 0 is_stmt 0 discriminator 1
 2115 0038 FB78     		ldrb	r3, [r7, #3]	@ zero_extendqisi2
 2116 003a 012B     		cmp	r3, #1
 2117 003c 07D0     		beq	.L79
 2118              		.loc 1 1090 0 discriminator 2
 2119 003e 40F20000 		movw	r0, #:lower16:.LC0
 2120 0042 C0F20000 		movt	r0, #:upper16:.LC0
 2121 0046 40F24241 		movw	r1, #1090
 2122 004a FFF7FEFF 		bl	assert_failed
 2123              	.L79:
1091:App/STM32F4-Discovery/Libraries/STM32F4xx_StdPeriph_Driver/src/stm32f4xx_rcc.c ****   if (NewState != DISABLE)
 2124              		.loc 1 1091 0 is_stmt 1
 2125 004e FB78     		ldrb	r3, [r7, #3]	@ zero_extendqisi2
 2126 0050 002B     		cmp	r3, #0
 2127 0052 0CD0     		beq	.L80
1092:App/STM32F4-Discovery/Libraries/STM32F4xx_StdPeriph_Driver/src/stm32f4xx_rcc.c ****   {
1093:App/STM32F4-Discovery/Libraries/STM32F4xx_StdPeriph_Driver/src/stm32f4xx_rcc.c ****     RCC->AHB1ENR |= RCC_AHB1Periph;
 2128              		.loc 1 1093 0
 2129 0054 4FF46053 		mov	r3, #14336
 2130 0058 C4F20203 		movt	r3, 16386
 2131 005c 4FF46052 		mov	r2, #14336
 2132 0060 C4F20202 		movt	r2, 16386
 2133 0064 116B     		ldr	r1, [r2, #48]
 2134 0066 7A68     		ldr	r2, [r7, #4]
 2135 0068 0A43     		orrs	r2, r2, r1
 2136 006a 1A63     		str	r2, [r3, #48]
 2137 006c 0DE0     		b	.L76
 2138              	.L80:
1094:App/STM32F4-Discovery/Libraries/STM32F4xx_StdPeriph_Driver/src/stm32f4xx_rcc.c ****   }
1095:App/STM32F4-Discovery/Libraries/STM32F4xx_StdPeriph_Driver/src/stm32f4xx_rcc.c ****   else
1096:App/STM32F4-Discovery/Libraries/STM32F4xx_StdPeriph_Driver/src/stm32f4xx_rcc.c ****   {
1097:App/STM32F4-Discovery/Libraries/STM32F4xx_StdPeriph_Driver/src/stm32f4xx_rcc.c ****     RCC->AHB1ENR &= ~RCC_AHB1Periph;
 2139              		.loc 1 1097 0
 2140 006e 4FF46053 		mov	r3, #14336
 2141 0072 C4F20203 		movt	r3, 16386
 2142 0076 4FF46052 		mov	r2, #14336
 2143 007a C4F20202 		movt	r2, 16386
 2144 007e 116B     		ldr	r1, [r2, #48]
 2145 0080 7A68     		ldr	r2, [r7, #4]
 2146 0082 6FEA0202 		mvn	r2, r2
 2147 0086 0A40     		ands	r2, r2, r1
 2148 0088 1A63     		str	r2, [r3, #48]
 2149              	.L76:
1098:App/STM32F4-Discovery/Libraries/STM32F4xx_StdPeriph_Driver/src/stm32f4xx_rcc.c ****   }
1099:App/STM32F4-Discovery/Libraries/STM32F4xx_StdPeriph_Driver/src/stm32f4xx_rcc.c **** }
 2150              		.loc 1 1099 0
 2151 008a 07F10807 		add	r7, r7, #8
 2152 008e BD46     		mov	sp, r7
 2153 0090 80BD     		pop	{r7, pc}
 2154              		.cfi_endproc
 2155              	.LFE134:
 2157              		.section	.text.RCC_AHB2PeriphClockCmd,"ax",%progbits
 2158              		.align	2
 2159              		.global	RCC_AHB2PeriphClockCmd
 2160              		.thumb
 2161              		.thumb_func
 2163              	RCC_AHB2PeriphClockCmd:
 2164              	.LFB135:
1100:App/STM32F4-Discovery/Libraries/STM32F4xx_StdPeriph_Driver/src/stm32f4xx_rcc.c **** 
1101:App/STM32F4-Discovery/Libraries/STM32F4xx_StdPeriph_Driver/src/stm32f4xx_rcc.c **** /**
1102:App/STM32F4-Discovery/Libraries/STM32F4xx_StdPeriph_Driver/src/stm32f4xx_rcc.c ****   * @brief  Enables or disables the AHB2 peripheral clock.
1103:App/STM32F4-Discovery/Libraries/STM32F4xx_StdPeriph_Driver/src/stm32f4xx_rcc.c ****   * @note   After reset, the peripheral clock (used for registers read/write access)
1104:App/STM32F4-Discovery/Libraries/STM32F4xx_StdPeriph_Driver/src/stm32f4xx_rcc.c ****   *         is disabled and the application software has to enable this clock before 
1105:App/STM32F4-Discovery/Libraries/STM32F4xx_StdPeriph_Driver/src/stm32f4xx_rcc.c ****   *         using it. 
1106:App/STM32F4-Discovery/Libraries/STM32F4xx_StdPeriph_Driver/src/stm32f4xx_rcc.c ****   * @param  RCC_AHBPeriph: specifies the AHB2 peripheral to gates its clock.
1107:App/STM32F4-Discovery/Libraries/STM32F4xx_StdPeriph_Driver/src/stm32f4xx_rcc.c ****   *          This parameter can be any combination of the following values:
1108:App/STM32F4-Discovery/Libraries/STM32F4xx_StdPeriph_Driver/src/stm32f4xx_rcc.c ****   *            @arg RCC_AHB2Periph_DCMI:   DCMI clock
1109:App/STM32F4-Discovery/Libraries/STM32F4xx_StdPeriph_Driver/src/stm32f4xx_rcc.c ****   *            @arg RCC_AHB2Periph_CRYP:   CRYP clock
1110:App/STM32F4-Discovery/Libraries/STM32F4xx_StdPeriph_Driver/src/stm32f4xx_rcc.c ****   *            @arg RCC_AHB2Periph_HASH:   HASH clock
1111:App/STM32F4-Discovery/Libraries/STM32F4xx_StdPeriph_Driver/src/stm32f4xx_rcc.c ****   *            @arg RCC_AHB2Periph_RNG:    RNG clock
1112:App/STM32F4-Discovery/Libraries/STM32F4xx_StdPeriph_Driver/src/stm32f4xx_rcc.c ****   *            @arg RCC_AHB2Periph_OTG_FS: USB OTG FS clock
1113:App/STM32F4-Discovery/Libraries/STM32F4xx_StdPeriph_Driver/src/stm32f4xx_rcc.c ****   * @param  NewState: new state of the specified peripheral clock.
1114:App/STM32F4-Discovery/Libraries/STM32F4xx_StdPeriph_Driver/src/stm32f4xx_rcc.c ****   *          This parameter can be: ENABLE or DISABLE.
1115:App/STM32F4-Discovery/Libraries/STM32F4xx_StdPeriph_Driver/src/stm32f4xx_rcc.c ****   * @retval None
1116:App/STM32F4-Discovery/Libraries/STM32F4xx_StdPeriph_Driver/src/stm32f4xx_rcc.c ****   */
1117:App/STM32F4-Discovery/Libraries/STM32F4xx_StdPeriph_Driver/src/stm32f4xx_rcc.c **** void RCC_AHB2PeriphClockCmd(uint32_t RCC_AHB2Periph, FunctionalState NewState)
1118:App/STM32F4-Discovery/Libraries/STM32F4xx_StdPeriph_Driver/src/stm32f4xx_rcc.c **** {
 2165              		.loc 1 1118 0
 2166              		.cfi_startproc
 2167              		@ args = 0, pretend = 0, frame = 8
 2168              		@ frame_needed = 1, uses_anonymous_args = 0
 2169 0000 80B5     		push	{r7, lr}
 2170              	.LCFI73:
 2171              		.cfi_def_cfa_offset 8
 2172              		.cfi_offset 7, -8
 2173              		.cfi_offset 14, -4
 2174 0002 82B0     		sub	sp, sp, #8
 2175              	.LCFI74:
 2176              		.cfi_def_cfa_offset 16
 2177 0004 00AF     		add	r7, sp, #0
 2178              	.LCFI75:
 2179              		.cfi_def_cfa_register 7
 2180 0006 7860     		str	r0, [r7, #4]
 2181 0008 0B46     		mov	r3, r1
 2182 000a FB70     		strb	r3, [r7, #3]
1119:App/STM32F4-Discovery/Libraries/STM32F4xx_StdPeriph_Driver/src/stm32f4xx_rcc.c ****   /* Check the parameters */
1120:App/STM32F4-Discovery/Libraries/STM32F4xx_StdPeriph_Driver/src/stm32f4xx_rcc.c ****   assert_param(IS_RCC_AHB2_PERIPH(RCC_AHB2Periph));
 2183              		.loc 1 1120 0
 2184 000c 7B68     		ldr	r3, [r7, #4]
 2185 000e 23F0F103 		bic	r3, r3, #241
 2186 0012 002B     		cmp	r3, #0
 2187 0014 02D1     		bne	.L83
 2188              		.loc 1 1120 0 is_stmt 0 discriminator 2
 2189 0016 7B68     		ldr	r3, [r7, #4]
 2190 0018 002B     		cmp	r3, #0
 2191 001a 07D1     		bne	.L84
 2192              	.L83:
 2193              		.loc 1 1120 0 discriminator 1
 2194 001c 40F20000 		movw	r0, #:lower16:.LC0
 2195 0020 C0F20000 		movt	r0, #:upper16:.LC0
 2196 0024 4FF48C61 		mov	r1, #1120
 2197 0028 FFF7FEFF 		bl	assert_failed
 2198              	.L84:
1121:App/STM32F4-Discovery/Libraries/STM32F4xx_StdPeriph_Driver/src/stm32f4xx_rcc.c ****   assert_param(IS_FUNCTIONAL_STATE(NewState));
 2199              		.loc 1 1121 0 is_stmt 1
 2200 002c FB78     		ldrb	r3, [r7, #3]	@ zero_extendqisi2
 2201 002e 002B     		cmp	r3, #0
 2202 0030 0AD0     		beq	.L85
 2203              		.loc 1 1121 0 is_stmt 0 discriminator 1
 2204 0032 FB78     		ldrb	r3, [r7, #3]	@ zero_extendqisi2
 2205 0034 012B     		cmp	r3, #1
 2206 0036 07D0     		beq	.L85
 2207              		.loc 1 1121 0 discriminator 2
 2208 0038 40F20000 		movw	r0, #:lower16:.LC0
 2209 003c C0F20000 		movt	r0, #:upper16:.LC0
 2210 0040 40F26141 		movw	r1, #1121
 2211 0044 FFF7FEFF 		bl	assert_failed
 2212              	.L85:
1122:App/STM32F4-Discovery/Libraries/STM32F4xx_StdPeriph_Driver/src/stm32f4xx_rcc.c **** 
1123:App/STM32F4-Discovery/Libraries/STM32F4xx_StdPeriph_Driver/src/stm32f4xx_rcc.c ****   if (NewState != DISABLE)
 2213              		.loc 1 1123 0 is_stmt 1
 2214 0048 FB78     		ldrb	r3, [r7, #3]	@ zero_extendqisi2
 2215 004a 002B     		cmp	r3, #0
 2216 004c 0CD0     		beq	.L86
1124:App/STM32F4-Discovery/Libraries/STM32F4xx_StdPeriph_Driver/src/stm32f4xx_rcc.c ****   {
1125:App/STM32F4-Discovery/Libraries/STM32F4xx_StdPeriph_Driver/src/stm32f4xx_rcc.c ****     RCC->AHB2ENR |= RCC_AHB2Periph;
 2217              		.loc 1 1125 0
 2218 004e 4FF46053 		mov	r3, #14336
 2219 0052 C4F20203 		movt	r3, 16386
 2220 0056 4FF46052 		mov	r2, #14336
 2221 005a C4F20202 		movt	r2, 16386
 2222 005e 516B     		ldr	r1, [r2, #52]
 2223 0060 7A68     		ldr	r2, [r7, #4]
 2224 0062 0A43     		orrs	r2, r2, r1
 2225 0064 5A63     		str	r2, [r3, #52]
 2226 0066 0DE0     		b	.L82
 2227              	.L86:
1126:App/STM32F4-Discovery/Libraries/STM32F4xx_StdPeriph_Driver/src/stm32f4xx_rcc.c ****   }
1127:App/STM32F4-Discovery/Libraries/STM32F4xx_StdPeriph_Driver/src/stm32f4xx_rcc.c ****   else
1128:App/STM32F4-Discovery/Libraries/STM32F4xx_StdPeriph_Driver/src/stm32f4xx_rcc.c ****   {
1129:App/STM32F4-Discovery/Libraries/STM32F4xx_StdPeriph_Driver/src/stm32f4xx_rcc.c ****     RCC->AHB2ENR &= ~RCC_AHB2Periph;
 2228              		.loc 1 1129 0
 2229 0068 4FF46053 		mov	r3, #14336
 2230 006c C4F20203 		movt	r3, 16386
 2231 0070 4FF46052 		mov	r2, #14336
 2232 0074 C4F20202 		movt	r2, 16386
 2233 0078 516B     		ldr	r1, [r2, #52]
 2234 007a 7A68     		ldr	r2, [r7, #4]
 2235 007c 6FEA0202 		mvn	r2, r2
 2236 0080 0A40     		ands	r2, r2, r1
 2237 0082 5A63     		str	r2, [r3, #52]
 2238              	.L82:
1130:App/STM32F4-Discovery/Libraries/STM32F4xx_StdPeriph_Driver/src/stm32f4xx_rcc.c ****   }
1131:App/STM32F4-Discovery/Libraries/STM32F4xx_StdPeriph_Driver/src/stm32f4xx_rcc.c **** }
 2239              		.loc 1 1131 0
 2240 0084 07F10807 		add	r7, r7, #8
 2241 0088 BD46     		mov	sp, r7
 2242 008a 80BD     		pop	{r7, pc}
 2243              		.cfi_endproc
 2244              	.LFE135:
 2246              		.section	.text.RCC_AHB3PeriphClockCmd,"ax",%progbits
 2247              		.align	2
 2248              		.global	RCC_AHB3PeriphClockCmd
 2249              		.thumb
 2250              		.thumb_func
 2252              	RCC_AHB3PeriphClockCmd:
 2253              	.LFB136:
1132:App/STM32F4-Discovery/Libraries/STM32F4xx_StdPeriph_Driver/src/stm32f4xx_rcc.c **** 
1133:App/STM32F4-Discovery/Libraries/STM32F4xx_StdPeriph_Driver/src/stm32f4xx_rcc.c **** /**
1134:App/STM32F4-Discovery/Libraries/STM32F4xx_StdPeriph_Driver/src/stm32f4xx_rcc.c ****   * @brief  Enables or disables the AHB3 peripheral clock.
1135:App/STM32F4-Discovery/Libraries/STM32F4xx_StdPeriph_Driver/src/stm32f4xx_rcc.c ****   * @note   After reset, the peripheral clock (used for registers read/write access)
1136:App/STM32F4-Discovery/Libraries/STM32F4xx_StdPeriph_Driver/src/stm32f4xx_rcc.c ****   *         is disabled and the application software has to enable this clock before 
1137:App/STM32F4-Discovery/Libraries/STM32F4xx_StdPeriph_Driver/src/stm32f4xx_rcc.c ****   *         using it. 
1138:App/STM32F4-Discovery/Libraries/STM32F4xx_StdPeriph_Driver/src/stm32f4xx_rcc.c ****   * @param  RCC_AHBPeriph: specifies the AHB3 peripheral to gates its clock.
1139:App/STM32F4-Discovery/Libraries/STM32F4xx_StdPeriph_Driver/src/stm32f4xx_rcc.c ****   *          This parameter must be: RCC_AHB3Periph_FSMC
1140:App/STM32F4-Discovery/Libraries/STM32F4xx_StdPeriph_Driver/src/stm32f4xx_rcc.c ****   * @param  NewState: new state of the specified peripheral clock.
1141:App/STM32F4-Discovery/Libraries/STM32F4xx_StdPeriph_Driver/src/stm32f4xx_rcc.c ****   *          This parameter can be: ENABLE or DISABLE.
1142:App/STM32F4-Discovery/Libraries/STM32F4xx_StdPeriph_Driver/src/stm32f4xx_rcc.c ****   * @retval None
1143:App/STM32F4-Discovery/Libraries/STM32F4xx_StdPeriph_Driver/src/stm32f4xx_rcc.c ****   */
1144:App/STM32F4-Discovery/Libraries/STM32F4xx_StdPeriph_Driver/src/stm32f4xx_rcc.c **** void RCC_AHB3PeriphClockCmd(uint32_t RCC_AHB3Periph, FunctionalState NewState)
1145:App/STM32F4-Discovery/Libraries/STM32F4xx_StdPeriph_Driver/src/stm32f4xx_rcc.c **** {
 2254              		.loc 1 1145 0
 2255              		.cfi_startproc
 2256              		@ args = 0, pretend = 0, frame = 8
 2257              		@ frame_needed = 1, uses_anonymous_args = 0
 2258 0000 80B5     		push	{r7, lr}
 2259              	.LCFI76:
 2260              		.cfi_def_cfa_offset 8
 2261              		.cfi_offset 7, -8
 2262              		.cfi_offset 14, -4
 2263 0002 82B0     		sub	sp, sp, #8
 2264              	.LCFI77:
 2265              		.cfi_def_cfa_offset 16
 2266 0004 00AF     		add	r7, sp, #0
 2267              	.LCFI78:
 2268              		.cfi_def_cfa_register 7
 2269 0006 7860     		str	r0, [r7, #4]
 2270 0008 0B46     		mov	r3, r1
 2271 000a FB70     		strb	r3, [r7, #3]
1146:App/STM32F4-Discovery/Libraries/STM32F4xx_StdPeriph_Driver/src/stm32f4xx_rcc.c ****   /* Check the parameters */
1147:App/STM32F4-Discovery/Libraries/STM32F4xx_StdPeriph_Driver/src/stm32f4xx_rcc.c ****   assert_param(IS_RCC_AHB3_PERIPH(RCC_AHB3Periph));  
 2272              		.loc 1 1147 0
 2273 000c 7B68     		ldr	r3, [r7, #4]
 2274 000e 23F00103 		bic	r3, r3, #1
 2275 0012 002B     		cmp	r3, #0
 2276 0014 02D1     		bne	.L89
 2277              		.loc 1 1147 0 is_stmt 0 discriminator 2
 2278 0016 7B68     		ldr	r3, [r7, #4]
 2279 0018 002B     		cmp	r3, #0
 2280 001a 07D1     		bne	.L90
 2281              	.L89:
 2282              		.loc 1 1147 0 discriminator 1
 2283 001c 40F20000 		movw	r0, #:lower16:.LC0
 2284 0020 C0F20000 		movt	r0, #:upper16:.LC0
 2285 0024 40F27B41 		movw	r1, #1147
 2286 0028 FFF7FEFF 		bl	assert_failed
 2287              	.L90:
1148:App/STM32F4-Discovery/Libraries/STM32F4xx_StdPeriph_Driver/src/stm32f4xx_rcc.c ****   assert_param(IS_FUNCTIONAL_STATE(NewState));
 2288              		.loc 1 1148 0 is_stmt 1
 2289 002c FB78     		ldrb	r3, [r7, #3]	@ zero_extendqisi2
 2290 002e 002B     		cmp	r3, #0
 2291 0030 0AD0     		beq	.L91
 2292              		.loc 1 1148 0 is_stmt 0 discriminator 1
 2293 0032 FB78     		ldrb	r3, [r7, #3]	@ zero_extendqisi2
 2294 0034 012B     		cmp	r3, #1
 2295 0036 07D0     		beq	.L91
 2296              		.loc 1 1148 0 discriminator 2
 2297 0038 40F20000 		movw	r0, #:lower16:.LC0
 2298 003c C0F20000 		movt	r0, #:upper16:.LC0
 2299 0040 40F27C41 		movw	r1, #1148
 2300 0044 FFF7FEFF 		bl	assert_failed
 2301              	.L91:
1149:App/STM32F4-Discovery/Libraries/STM32F4xx_StdPeriph_Driver/src/stm32f4xx_rcc.c **** 
1150:App/STM32F4-Discovery/Libraries/STM32F4xx_StdPeriph_Driver/src/stm32f4xx_rcc.c ****   if (NewState != DISABLE)
 2302              		.loc 1 1150 0 is_stmt 1
 2303 0048 FB78     		ldrb	r3, [r7, #3]	@ zero_extendqisi2
 2304 004a 002B     		cmp	r3, #0
 2305 004c 0CD0     		beq	.L92
1151:App/STM32F4-Discovery/Libraries/STM32F4xx_StdPeriph_Driver/src/stm32f4xx_rcc.c ****   {
1152:App/STM32F4-Discovery/Libraries/STM32F4xx_StdPeriph_Driver/src/stm32f4xx_rcc.c ****     RCC->AHB3ENR |= RCC_AHB3Periph;
 2306              		.loc 1 1152 0
 2307 004e 4FF46053 		mov	r3, #14336
 2308 0052 C4F20203 		movt	r3, 16386
 2309 0056 4FF46052 		mov	r2, #14336
 2310 005a C4F20202 		movt	r2, 16386
 2311 005e 916B     		ldr	r1, [r2, #56]
 2312 0060 7A68     		ldr	r2, [r7, #4]
 2313 0062 0A43     		orrs	r2, r2, r1
 2314 0064 9A63     		str	r2, [r3, #56]
 2315 0066 0DE0     		b	.L88
 2316              	.L92:
1153:App/STM32F4-Discovery/Libraries/STM32F4xx_StdPeriph_Driver/src/stm32f4xx_rcc.c ****   }
1154:App/STM32F4-Discovery/Libraries/STM32F4xx_StdPeriph_Driver/src/stm32f4xx_rcc.c ****   else
1155:App/STM32F4-Discovery/Libraries/STM32F4xx_StdPeriph_Driver/src/stm32f4xx_rcc.c ****   {
1156:App/STM32F4-Discovery/Libraries/STM32F4xx_StdPeriph_Driver/src/stm32f4xx_rcc.c ****     RCC->AHB3ENR &= ~RCC_AHB3Periph;
 2317              		.loc 1 1156 0
 2318 0068 4FF46053 		mov	r3, #14336
 2319 006c C4F20203 		movt	r3, 16386
 2320 0070 4FF46052 		mov	r2, #14336
 2321 0074 C4F20202 		movt	r2, 16386
 2322 0078 916B     		ldr	r1, [r2, #56]
 2323 007a 7A68     		ldr	r2, [r7, #4]
 2324 007c 6FEA0202 		mvn	r2, r2
 2325 0080 0A40     		ands	r2, r2, r1
 2326 0082 9A63     		str	r2, [r3, #56]
 2327              	.L88:
1157:App/STM32F4-Discovery/Libraries/STM32F4xx_StdPeriph_Driver/src/stm32f4xx_rcc.c ****   }
1158:App/STM32F4-Discovery/Libraries/STM32F4xx_StdPeriph_Driver/src/stm32f4xx_rcc.c **** }
 2328              		.loc 1 1158 0
 2329 0084 07F10807 		add	r7, r7, #8
 2330 0088 BD46     		mov	sp, r7
 2331 008a 80BD     		pop	{r7, pc}
 2332              		.cfi_endproc
 2333              	.LFE136:
 2335              		.section	.text.RCC_APB1PeriphClockCmd,"ax",%progbits
 2336              		.align	2
 2337              		.global	RCC_APB1PeriphClockCmd
 2338              		.thumb
 2339              		.thumb_func
 2341              	RCC_APB1PeriphClockCmd:
 2342              	.LFB137:
1159:App/STM32F4-Discovery/Libraries/STM32F4xx_StdPeriph_Driver/src/stm32f4xx_rcc.c **** 
1160:App/STM32F4-Discovery/Libraries/STM32F4xx_StdPeriph_Driver/src/stm32f4xx_rcc.c **** /**
1161:App/STM32F4-Discovery/Libraries/STM32F4xx_StdPeriph_Driver/src/stm32f4xx_rcc.c ****   * @brief  Enables or disables the Low Speed APB (APB1) peripheral clock.
1162:App/STM32F4-Discovery/Libraries/STM32F4xx_StdPeriph_Driver/src/stm32f4xx_rcc.c ****   * @note   After reset, the peripheral clock (used for registers read/write access)
1163:App/STM32F4-Discovery/Libraries/STM32F4xx_StdPeriph_Driver/src/stm32f4xx_rcc.c ****   *         is disabled and the application software has to enable this clock before 
1164:App/STM32F4-Discovery/Libraries/STM32F4xx_StdPeriph_Driver/src/stm32f4xx_rcc.c ****   *         using it. 
1165:App/STM32F4-Discovery/Libraries/STM32F4xx_StdPeriph_Driver/src/stm32f4xx_rcc.c ****   * @param  RCC_APB1Periph: specifies the APB1 peripheral to gates its clock.
1166:App/STM32F4-Discovery/Libraries/STM32F4xx_StdPeriph_Driver/src/stm32f4xx_rcc.c ****   *          This parameter can be any combination of the following values:
1167:App/STM32F4-Discovery/Libraries/STM32F4xx_StdPeriph_Driver/src/stm32f4xx_rcc.c ****   *            @arg RCC_APB1Periph_TIM2:   TIM2 clock
1168:App/STM32F4-Discovery/Libraries/STM32F4xx_StdPeriph_Driver/src/stm32f4xx_rcc.c ****   *            @arg RCC_APB1Periph_TIM3:   TIM3 clock
1169:App/STM32F4-Discovery/Libraries/STM32F4xx_StdPeriph_Driver/src/stm32f4xx_rcc.c ****   *            @arg RCC_APB1Periph_TIM4:   TIM4 clock
1170:App/STM32F4-Discovery/Libraries/STM32F4xx_StdPeriph_Driver/src/stm32f4xx_rcc.c ****   *            @arg RCC_APB1Periph_TIM5:   TIM5 clock
1171:App/STM32F4-Discovery/Libraries/STM32F4xx_StdPeriph_Driver/src/stm32f4xx_rcc.c ****   *            @arg RCC_APB1Periph_TIM6:   TIM6 clock
1172:App/STM32F4-Discovery/Libraries/STM32F4xx_StdPeriph_Driver/src/stm32f4xx_rcc.c ****   *            @arg RCC_APB1Periph_TIM7:   TIM7 clock
1173:App/STM32F4-Discovery/Libraries/STM32F4xx_StdPeriph_Driver/src/stm32f4xx_rcc.c ****   *            @arg RCC_APB1Periph_TIM12:  TIM12 clock
1174:App/STM32F4-Discovery/Libraries/STM32F4xx_StdPeriph_Driver/src/stm32f4xx_rcc.c ****   *            @arg RCC_APB1Periph_TIM13:  TIM13 clock
1175:App/STM32F4-Discovery/Libraries/STM32F4xx_StdPeriph_Driver/src/stm32f4xx_rcc.c ****   *            @arg RCC_APB1Periph_TIM14:  TIM14 clock
1176:App/STM32F4-Discovery/Libraries/STM32F4xx_StdPeriph_Driver/src/stm32f4xx_rcc.c ****   *            @arg RCC_APB1Periph_WWDG:   WWDG clock
1177:App/STM32F4-Discovery/Libraries/STM32F4xx_StdPeriph_Driver/src/stm32f4xx_rcc.c ****   *            @arg RCC_APB1Periph_SPI2:   SPI2 clock
1178:App/STM32F4-Discovery/Libraries/STM32F4xx_StdPeriph_Driver/src/stm32f4xx_rcc.c ****   *            @arg RCC_APB1Periph_SPI3:   SPI3 clock
1179:App/STM32F4-Discovery/Libraries/STM32F4xx_StdPeriph_Driver/src/stm32f4xx_rcc.c ****   *            @arg RCC_APB1Periph_USART2: USART2 clock
1180:App/STM32F4-Discovery/Libraries/STM32F4xx_StdPeriph_Driver/src/stm32f4xx_rcc.c ****   *            @arg RCC_APB1Periph_USART3: USART3 clock
1181:App/STM32F4-Discovery/Libraries/STM32F4xx_StdPeriph_Driver/src/stm32f4xx_rcc.c ****   *            @arg RCC_APB1Periph_UART4:  UART4 clock
1182:App/STM32F4-Discovery/Libraries/STM32F4xx_StdPeriph_Driver/src/stm32f4xx_rcc.c ****   *            @arg RCC_APB1Periph_UART5:  UART5 clock
1183:App/STM32F4-Discovery/Libraries/STM32F4xx_StdPeriph_Driver/src/stm32f4xx_rcc.c ****   *            @arg RCC_APB1Periph_I2C1:   I2C1 clock
1184:App/STM32F4-Discovery/Libraries/STM32F4xx_StdPeriph_Driver/src/stm32f4xx_rcc.c ****   *            @arg RCC_APB1Periph_I2C2:   I2C2 clock
1185:App/STM32F4-Discovery/Libraries/STM32F4xx_StdPeriph_Driver/src/stm32f4xx_rcc.c ****   *            @arg RCC_APB1Periph_I2C3:   I2C3 clock
1186:App/STM32F4-Discovery/Libraries/STM32F4xx_StdPeriph_Driver/src/stm32f4xx_rcc.c ****   *            @arg RCC_APB1Periph_CAN1:   CAN1 clock
1187:App/STM32F4-Discovery/Libraries/STM32F4xx_StdPeriph_Driver/src/stm32f4xx_rcc.c ****   *            @arg RCC_APB1Periph_CAN2:   CAN2 clock
1188:App/STM32F4-Discovery/Libraries/STM32F4xx_StdPeriph_Driver/src/stm32f4xx_rcc.c ****   *            @arg RCC_APB1Periph_PWR:    PWR clock
1189:App/STM32F4-Discovery/Libraries/STM32F4xx_StdPeriph_Driver/src/stm32f4xx_rcc.c ****   *            @arg RCC_APB1Periph_DAC:    DAC clock
1190:App/STM32F4-Discovery/Libraries/STM32F4xx_StdPeriph_Driver/src/stm32f4xx_rcc.c ****   * @param  NewState: new state of the specified peripheral clock.
1191:App/STM32F4-Discovery/Libraries/STM32F4xx_StdPeriph_Driver/src/stm32f4xx_rcc.c ****   *          This parameter can be: ENABLE or DISABLE.
1192:App/STM32F4-Discovery/Libraries/STM32F4xx_StdPeriph_Driver/src/stm32f4xx_rcc.c ****   * @retval None
1193:App/STM32F4-Discovery/Libraries/STM32F4xx_StdPeriph_Driver/src/stm32f4xx_rcc.c ****   */
1194:App/STM32F4-Discovery/Libraries/STM32F4xx_StdPeriph_Driver/src/stm32f4xx_rcc.c **** void RCC_APB1PeriphClockCmd(uint32_t RCC_APB1Periph, FunctionalState NewState)
1195:App/STM32F4-Discovery/Libraries/STM32F4xx_StdPeriph_Driver/src/stm32f4xx_rcc.c **** {
 2343              		.loc 1 1195 0
 2344              		.cfi_startproc
 2345              		@ args = 0, pretend = 0, frame = 8
 2346              		@ frame_needed = 1, uses_anonymous_args = 0
 2347 0000 80B5     		push	{r7, lr}
 2348              	.LCFI79:
 2349              		.cfi_def_cfa_offset 8
 2350              		.cfi_offset 7, -8
 2351              		.cfi_offset 14, -4
 2352 0002 82B0     		sub	sp, sp, #8
 2353              	.LCFI80:
 2354              		.cfi_def_cfa_offset 16
 2355 0004 00AF     		add	r7, sp, #0
 2356              	.LCFI81:
 2357              		.cfi_def_cfa_register 7
 2358 0006 7860     		str	r0, [r7, #4]
 2359 0008 0B46     		mov	r3, r1
 2360 000a FB70     		strb	r3, [r7, #3]
1196:App/STM32F4-Discovery/Libraries/STM32F4xx_StdPeriph_Driver/src/stm32f4xx_rcc.c ****   /* Check the parameters */
1197:App/STM32F4-Discovery/Libraries/STM32F4xx_StdPeriph_Driver/src/stm32f4xx_rcc.c ****   assert_param(IS_RCC_APB1_PERIPH(RCC_APB1Periph));  
 2361              		.loc 1 1197 0
 2362 000c 7A68     		ldr	r2, [r7, #4]
 2363 000e 4FF45853 		mov	r3, #13824
 2364 0012 CCF60113 		movt	r3, 51457
 2365 0016 1340     		ands	r3, r3, r2
 2366 0018 002B     		cmp	r3, #0
 2367 001a 02D1     		bne	.L95
 2368              		.loc 1 1197 0 is_stmt 0 discriminator 2
 2369 001c 7B68     		ldr	r3, [r7, #4]
 2370 001e 002B     		cmp	r3, #0
 2371 0020 07D1     		bne	.L96
 2372              	.L95:
 2373              		.loc 1 1197 0 discriminator 1
 2374 0022 40F20000 		movw	r0, #:lower16:.LC0
 2375 0026 C0F20000 		movt	r0, #:upper16:.LC0
 2376 002a 40F2AD41 		movw	r1, #1197
 2377 002e FFF7FEFF 		bl	assert_failed
 2378              	.L96:
1198:App/STM32F4-Discovery/Libraries/STM32F4xx_StdPeriph_Driver/src/stm32f4xx_rcc.c ****   assert_param(IS_FUNCTIONAL_STATE(NewState));
 2379              		.loc 1 1198 0 is_stmt 1
 2380 0032 FB78     		ldrb	r3, [r7, #3]	@ zero_extendqisi2
 2381 0034 002B     		cmp	r3, #0
 2382 0036 0AD0     		beq	.L97
 2383              		.loc 1 1198 0 is_stmt 0 discriminator 1
 2384 0038 FB78     		ldrb	r3, [r7, #3]	@ zero_extendqisi2
 2385 003a 012B     		cmp	r3, #1
 2386 003c 07D0     		beq	.L97
 2387              		.loc 1 1198 0 discriminator 2
 2388 003e 40F20000 		movw	r0, #:lower16:.LC0
 2389 0042 C0F20000 		movt	r0, #:upper16:.LC0
 2390 0046 40F2AE41 		movw	r1, #1198
 2391 004a FFF7FEFF 		bl	assert_failed
 2392              	.L97:
1199:App/STM32F4-Discovery/Libraries/STM32F4xx_StdPeriph_Driver/src/stm32f4xx_rcc.c **** 
1200:App/STM32F4-Discovery/Libraries/STM32F4xx_StdPeriph_Driver/src/stm32f4xx_rcc.c ****   if (NewState != DISABLE)
 2393              		.loc 1 1200 0 is_stmt 1
 2394 004e FB78     		ldrb	r3, [r7, #3]	@ zero_extendqisi2
 2395 0050 002B     		cmp	r3, #0
 2396 0052 0CD0     		beq	.L98
1201:App/STM32F4-Discovery/Libraries/STM32F4xx_StdPeriph_Driver/src/stm32f4xx_rcc.c ****   {
1202:App/STM32F4-Discovery/Libraries/STM32F4xx_StdPeriph_Driver/src/stm32f4xx_rcc.c ****     RCC->APB1ENR |= RCC_APB1Periph;
 2397              		.loc 1 1202 0
 2398 0054 4FF46053 		mov	r3, #14336
 2399 0058 C4F20203 		movt	r3, 16386
 2400 005c 4FF46052 		mov	r2, #14336
 2401 0060 C4F20202 		movt	r2, 16386
 2402 0064 116C     		ldr	r1, [r2, #64]
 2403 0066 7A68     		ldr	r2, [r7, #4]
 2404 0068 0A43     		orrs	r2, r2, r1
 2405 006a 1A64     		str	r2, [r3, #64]
 2406 006c 0DE0     		b	.L94
 2407              	.L98:
1203:App/STM32F4-Discovery/Libraries/STM32F4xx_StdPeriph_Driver/src/stm32f4xx_rcc.c ****   }
1204:App/STM32F4-Discovery/Libraries/STM32F4xx_StdPeriph_Driver/src/stm32f4xx_rcc.c ****   else
1205:App/STM32F4-Discovery/Libraries/STM32F4xx_StdPeriph_Driver/src/stm32f4xx_rcc.c ****   {
1206:App/STM32F4-Discovery/Libraries/STM32F4xx_StdPeriph_Driver/src/stm32f4xx_rcc.c ****     RCC->APB1ENR &= ~RCC_APB1Periph;
 2408              		.loc 1 1206 0
 2409 006e 4FF46053 		mov	r3, #14336
 2410 0072 C4F20203 		movt	r3, 16386
 2411 0076 4FF46052 		mov	r2, #14336
 2412 007a C4F20202 		movt	r2, 16386
 2413 007e 116C     		ldr	r1, [r2, #64]
 2414 0080 7A68     		ldr	r2, [r7, #4]
 2415 0082 6FEA0202 		mvn	r2, r2
 2416 0086 0A40     		ands	r2, r2, r1
 2417 0088 1A64     		str	r2, [r3, #64]
 2418              	.L94:
1207:App/STM32F4-Discovery/Libraries/STM32F4xx_StdPeriph_Driver/src/stm32f4xx_rcc.c ****   }
1208:App/STM32F4-Discovery/Libraries/STM32F4xx_StdPeriph_Driver/src/stm32f4xx_rcc.c **** }
 2419              		.loc 1 1208 0
 2420 008a 07F10807 		add	r7, r7, #8
 2421 008e BD46     		mov	sp, r7
 2422 0090 80BD     		pop	{r7, pc}
 2423              		.cfi_endproc
 2424              	.LFE137:
 2426              		.section	.text.RCC_APB2PeriphClockCmd,"ax",%progbits
 2427              		.align	2
 2428              		.global	RCC_APB2PeriphClockCmd
 2429              		.thumb
 2430              		.thumb_func
 2432              	RCC_APB2PeriphClockCmd:
 2433              	.LFB138:
1209:App/STM32F4-Discovery/Libraries/STM32F4xx_StdPeriph_Driver/src/stm32f4xx_rcc.c **** 
1210:App/STM32F4-Discovery/Libraries/STM32F4xx_StdPeriph_Driver/src/stm32f4xx_rcc.c **** /**
1211:App/STM32F4-Discovery/Libraries/STM32F4xx_StdPeriph_Driver/src/stm32f4xx_rcc.c ****   * @brief  Enables or disables the High Speed APB (APB2) peripheral clock.
1212:App/STM32F4-Discovery/Libraries/STM32F4xx_StdPeriph_Driver/src/stm32f4xx_rcc.c ****   * @note   After reset, the peripheral clock (used for registers read/write access)
1213:App/STM32F4-Discovery/Libraries/STM32F4xx_StdPeriph_Driver/src/stm32f4xx_rcc.c ****   *         is disabled and the application software has to enable this clock before 
1214:App/STM32F4-Discovery/Libraries/STM32F4xx_StdPeriph_Driver/src/stm32f4xx_rcc.c ****   *         using it.
1215:App/STM32F4-Discovery/Libraries/STM32F4xx_StdPeriph_Driver/src/stm32f4xx_rcc.c ****   * @param  RCC_APB2Periph: specifies the APB2 peripheral to gates its clock.
1216:App/STM32F4-Discovery/Libraries/STM32F4xx_StdPeriph_Driver/src/stm32f4xx_rcc.c ****   *          This parameter can be any combination of the following values:
1217:App/STM32F4-Discovery/Libraries/STM32F4xx_StdPeriph_Driver/src/stm32f4xx_rcc.c ****   *            @arg RCC_APB2Periph_TIM1:   TIM1 clock
