   1              		.syntax unified
   2              		.cpu cortex-m4
   3              		.eabi_attribute 27, 3
   4              		.fpu fpv4-sp-d16
   5              		.eabi_attribute 20, 1
   6              		.eabi_attribute 21, 1
   7              		.eabi_attribute 23, 3
   8              		.eabi_attribute 24, 1
   9              		.eabi_attribute 25, 1
  10              		.eabi_attribute 26, 1
  11              		.eabi_attribute 30, 6
  12              		.eabi_attribute 34, 1
  13              		.eabi_attribute 18, 4
  14              		.thumb
  15              		.file	"stm32f4xx_fsmc.c"
  16              		.text
  17              	.Ltext0:
  18              		.cfi_sections	.debug_frame
  19              		.section	.rodata
  20              		.align	2
  21              	.LC0:
  22 0000 4170702F 		.ascii	"App/STM32F4-Discovery/Libraries/STM32F4xx_StdPeriph"
  22      53544D33 
  22      3246342D 
  22      44697363 
  22      6F766572 
  23 0033 5F447269 		.ascii	"_Driver/src/stm32f4xx_fsmc.c\000"
  23      7665722F 
  23      7372632F 
  23      73746D33 
  23      32663478 
  24              		.section	.text.FSMC_NORSRAMDeInit,"ax",%progbits
  25              		.align	2
  26              		.global	FSMC_NORSRAMDeInit
  27              		.thumb
  28              		.thumb_func
  30              	FSMC_NORSRAMDeInit:
  31              	.LFB110:
  32              		.file 1 "App/STM32F4-Discovery/Libraries/STM32F4xx_StdPeriph_Driver/src/stm32f4xx_fsmc.c"
   1:App/STM32F4-Discovery/Libraries/STM32F4xx_StdPeriph_Driver/src/stm32f4xx_fsmc.c **** /**
   2:App/STM32F4-Discovery/Libraries/STM32F4xx_StdPeriph_Driver/src/stm32f4xx_fsmc.c ****   ******************************************************************************
   3:App/STM32F4-Discovery/Libraries/STM32F4xx_StdPeriph_Driver/src/stm32f4xx_fsmc.c ****   * @file    stm32f4xx_fsmc.c
   4:App/STM32F4-Discovery/Libraries/STM32F4xx_StdPeriph_Driver/src/stm32f4xx_fsmc.c ****   * @author  MCD Application Team
   5:App/STM32F4-Discovery/Libraries/STM32F4xx_StdPeriph_Driver/src/stm32f4xx_fsmc.c ****   * @version V1.0.0
   6:App/STM32F4-Discovery/Libraries/STM32F4xx_StdPeriph_Driver/src/stm32f4xx_fsmc.c ****   * @date    30-September-2011
   7:App/STM32F4-Discovery/Libraries/STM32F4xx_StdPeriph_Driver/src/stm32f4xx_fsmc.c ****  * @brief    This file provides firmware functions to manage the following 
   8:App/STM32F4-Discovery/Libraries/STM32F4xx_StdPeriph_Driver/src/stm32f4xx_fsmc.c ****   *          functionalities of the FSMC peripheral:           
   9:App/STM32F4-Discovery/Libraries/STM32F4xx_StdPeriph_Driver/src/stm32f4xx_fsmc.c ****   *           - Interface with SRAM, PSRAM, NOR and OneNAND memories
  10:App/STM32F4-Discovery/Libraries/STM32F4xx_StdPeriph_Driver/src/stm32f4xx_fsmc.c ****   *           - Interface with NAND memories
  11:App/STM32F4-Discovery/Libraries/STM32F4xx_StdPeriph_Driver/src/stm32f4xx_fsmc.c ****   *           - Interface with 16-bit PC Card compatible memories  
  12:App/STM32F4-Discovery/Libraries/STM32F4xx_StdPeriph_Driver/src/stm32f4xx_fsmc.c ****   *           - Interrupts and flags management   
  13:App/STM32F4-Discovery/Libraries/STM32F4xx_StdPeriph_Driver/src/stm32f4xx_fsmc.c ****   *           
  14:App/STM32F4-Discovery/Libraries/STM32F4xx_StdPeriph_Driver/src/stm32f4xx_fsmc.c ****   ******************************************************************************
  15:App/STM32F4-Discovery/Libraries/STM32F4xx_StdPeriph_Driver/src/stm32f4xx_fsmc.c **** 
  16:App/STM32F4-Discovery/Libraries/STM32F4xx_StdPeriph_Driver/src/stm32f4xx_fsmc.c ****   * @attention
  17:App/STM32F4-Discovery/Libraries/STM32F4xx_StdPeriph_Driver/src/stm32f4xx_fsmc.c ****   *
  18:App/STM32F4-Discovery/Libraries/STM32F4xx_StdPeriph_Driver/src/stm32f4xx_fsmc.c ****   * THE PRESENT FIRMWARE WHICH IS FOR GUIDANCE ONLY AIMS AT PROVIDING CUSTOMERS
  19:App/STM32F4-Discovery/Libraries/STM32F4xx_StdPeriph_Driver/src/stm32f4xx_fsmc.c ****   * WITH CODING INFORMATION REGARDING THEIR PRODUCTS IN ORDER FOR THEM TO SAVE
  20:App/STM32F4-Discovery/Libraries/STM32F4xx_StdPeriph_Driver/src/stm32f4xx_fsmc.c ****   * TIME. AS A RESULT, STMICROELECTRONICS SHALL NOT BE HELD LIABLE FOR ANY
  21:App/STM32F4-Discovery/Libraries/STM32F4xx_StdPeriph_Driver/src/stm32f4xx_fsmc.c ****   * DIRECT, INDIRECT OR CONSEQUENTIAL DAMAGES WITH RESPECT TO ANY CLAIMS ARISING
  22:App/STM32F4-Discovery/Libraries/STM32F4xx_StdPeriph_Driver/src/stm32f4xx_fsmc.c ****   * FROM THE CONTENT OF SUCH FIRMWARE AND/OR THE USE MADE BY CUSTOMERS OF THE
  23:App/STM32F4-Discovery/Libraries/STM32F4xx_StdPeriph_Driver/src/stm32f4xx_fsmc.c ****   * CODING INFORMATION CONTAINED HEREIN IN CONNECTION WITH THEIR PRODUCTS.
  24:App/STM32F4-Discovery/Libraries/STM32F4xx_StdPeriph_Driver/src/stm32f4xx_fsmc.c ****   *
  25:App/STM32F4-Discovery/Libraries/STM32F4xx_StdPeriph_Driver/src/stm32f4xx_fsmc.c ****   * <h2><center>&copy; COPYRIGHT 2011 STMicroelectronics</center></h2>
  26:App/STM32F4-Discovery/Libraries/STM32F4xx_StdPeriph_Driver/src/stm32f4xx_fsmc.c ****   ******************************************************************************
  27:App/STM32F4-Discovery/Libraries/STM32F4xx_StdPeriph_Driver/src/stm32f4xx_fsmc.c ****   */
  28:App/STM32F4-Discovery/Libraries/STM32F4xx_StdPeriph_Driver/src/stm32f4xx_fsmc.c **** 
  29:App/STM32F4-Discovery/Libraries/STM32F4xx_StdPeriph_Driver/src/stm32f4xx_fsmc.c **** /* Includes ------------------------------------------------------------------*/
  30:App/STM32F4-Discovery/Libraries/STM32F4xx_StdPeriph_Driver/src/stm32f4xx_fsmc.c **** #include "stm32f4xx_fsmc.h"
  31:App/STM32F4-Discovery/Libraries/STM32F4xx_StdPeriph_Driver/src/stm32f4xx_fsmc.c **** #include "stm32f4xx_rcc.h"
  32:App/STM32F4-Discovery/Libraries/STM32F4xx_StdPeriph_Driver/src/stm32f4xx_fsmc.c **** 
  33:App/STM32F4-Discovery/Libraries/STM32F4xx_StdPeriph_Driver/src/stm32f4xx_fsmc.c **** /** @addtogroup STM32F4xx_StdPeriph_Driver
  34:App/STM32F4-Discovery/Libraries/STM32F4xx_StdPeriph_Driver/src/stm32f4xx_fsmc.c ****   * @{
  35:App/STM32F4-Discovery/Libraries/STM32F4xx_StdPeriph_Driver/src/stm32f4xx_fsmc.c ****   */
  36:App/STM32F4-Discovery/Libraries/STM32F4xx_StdPeriph_Driver/src/stm32f4xx_fsmc.c **** 
  37:App/STM32F4-Discovery/Libraries/STM32F4xx_StdPeriph_Driver/src/stm32f4xx_fsmc.c **** /** @defgroup FSMC 
  38:App/STM32F4-Discovery/Libraries/STM32F4xx_StdPeriph_Driver/src/stm32f4xx_fsmc.c ****   * @brief FSMC driver modules
  39:App/STM32F4-Discovery/Libraries/STM32F4xx_StdPeriph_Driver/src/stm32f4xx_fsmc.c ****   * @{
  40:App/STM32F4-Discovery/Libraries/STM32F4xx_StdPeriph_Driver/src/stm32f4xx_fsmc.c ****   */ 
  41:App/STM32F4-Discovery/Libraries/STM32F4xx_StdPeriph_Driver/src/stm32f4xx_fsmc.c **** 
  42:App/STM32F4-Discovery/Libraries/STM32F4xx_StdPeriph_Driver/src/stm32f4xx_fsmc.c **** /* Private typedef -----------------------------------------------------------*/
  43:App/STM32F4-Discovery/Libraries/STM32F4xx_StdPeriph_Driver/src/stm32f4xx_fsmc.c **** /* Private define ------------------------------------------------------------*/
  44:App/STM32F4-Discovery/Libraries/STM32F4xx_StdPeriph_Driver/src/stm32f4xx_fsmc.c **** 
  45:App/STM32F4-Discovery/Libraries/STM32F4xx_StdPeriph_Driver/src/stm32f4xx_fsmc.c **** /* --------------------- FSMC registers bit mask ---------------------------- */
  46:App/STM32F4-Discovery/Libraries/STM32F4xx_StdPeriph_Driver/src/stm32f4xx_fsmc.c **** /* FSMC BCRx Mask */
  47:App/STM32F4-Discovery/Libraries/STM32F4xx_StdPeriph_Driver/src/stm32f4xx_fsmc.c **** #define BCR_MBKEN_SET          ((uint32_t)0x00000001)
  48:App/STM32F4-Discovery/Libraries/STM32F4xx_StdPeriph_Driver/src/stm32f4xx_fsmc.c **** #define BCR_MBKEN_RESET        ((uint32_t)0x000FFFFE)
  49:App/STM32F4-Discovery/Libraries/STM32F4xx_StdPeriph_Driver/src/stm32f4xx_fsmc.c **** #define BCR_FACCEN_SET         ((uint32_t)0x00000040)
  50:App/STM32F4-Discovery/Libraries/STM32F4xx_StdPeriph_Driver/src/stm32f4xx_fsmc.c **** 
  51:App/STM32F4-Discovery/Libraries/STM32F4xx_StdPeriph_Driver/src/stm32f4xx_fsmc.c **** /* FSMC PCRx Mask */
  52:App/STM32F4-Discovery/Libraries/STM32F4xx_StdPeriph_Driver/src/stm32f4xx_fsmc.c **** #define PCR_PBKEN_SET          ((uint32_t)0x00000004)
  53:App/STM32F4-Discovery/Libraries/STM32F4xx_StdPeriph_Driver/src/stm32f4xx_fsmc.c **** #define PCR_PBKEN_RESET        ((uint32_t)0x000FFFFB)
  54:App/STM32F4-Discovery/Libraries/STM32F4xx_StdPeriph_Driver/src/stm32f4xx_fsmc.c **** #define PCR_ECCEN_SET          ((uint32_t)0x00000040)
  55:App/STM32F4-Discovery/Libraries/STM32F4xx_StdPeriph_Driver/src/stm32f4xx_fsmc.c **** #define PCR_ECCEN_RESET        ((uint32_t)0x000FFFBF)
  56:App/STM32F4-Discovery/Libraries/STM32F4xx_StdPeriph_Driver/src/stm32f4xx_fsmc.c **** #define PCR_MEMORYTYPE_NAND    ((uint32_t)0x00000008)
  57:App/STM32F4-Discovery/Libraries/STM32F4xx_StdPeriph_Driver/src/stm32f4xx_fsmc.c **** 
  58:App/STM32F4-Discovery/Libraries/STM32F4xx_StdPeriph_Driver/src/stm32f4xx_fsmc.c **** /* Private macro -------------------------------------------------------------*/
  59:App/STM32F4-Discovery/Libraries/STM32F4xx_StdPeriph_Driver/src/stm32f4xx_fsmc.c **** /* Private variables ---------------------------------------------------------*/
  60:App/STM32F4-Discovery/Libraries/STM32F4xx_StdPeriph_Driver/src/stm32f4xx_fsmc.c **** /* Private function prototypes -----------------------------------------------*/
  61:App/STM32F4-Discovery/Libraries/STM32F4xx_StdPeriph_Driver/src/stm32f4xx_fsmc.c **** /* Private functions ---------------------------------------------------------*/
  62:App/STM32F4-Discovery/Libraries/STM32F4xx_StdPeriph_Driver/src/stm32f4xx_fsmc.c **** 
  63:App/STM32F4-Discovery/Libraries/STM32F4xx_StdPeriph_Driver/src/stm32f4xx_fsmc.c **** /** @defgroup FSMC_Private_Functions
  64:App/STM32F4-Discovery/Libraries/STM32F4xx_StdPeriph_Driver/src/stm32f4xx_fsmc.c ****   * @{
  65:App/STM32F4-Discovery/Libraries/STM32F4xx_StdPeriph_Driver/src/stm32f4xx_fsmc.c ****   */
  66:App/STM32F4-Discovery/Libraries/STM32F4xx_StdPeriph_Driver/src/stm32f4xx_fsmc.c **** 
  67:App/STM32F4-Discovery/Libraries/STM32F4xx_StdPeriph_Driver/src/stm32f4xx_fsmc.c **** /** @defgroup FSMC_Group1 NOR/SRAM Controller functions
  68:App/STM32F4-Discovery/Libraries/STM32F4xx_StdPeriph_Driver/src/stm32f4xx_fsmc.c ****  *  @brief   NOR/SRAM Controller functions 
  69:App/STM32F4-Discovery/Libraries/STM32F4xx_StdPeriph_Driver/src/stm32f4xx_fsmc.c ****  *
  70:App/STM32F4-Discovery/Libraries/STM32F4xx_StdPeriph_Driver/src/stm32f4xx_fsmc.c **** @verbatim   
  71:App/STM32F4-Discovery/Libraries/STM32F4xx_StdPeriph_Driver/src/stm32f4xx_fsmc.c ****  ===============================================================================
  72:App/STM32F4-Discovery/Libraries/STM32F4xx_StdPeriph_Driver/src/stm32f4xx_fsmc.c ****                     NOR/SRAM Controller functions
  73:App/STM32F4-Discovery/Libraries/STM32F4xx_StdPeriph_Driver/src/stm32f4xx_fsmc.c ****  ===============================================================================  
  74:App/STM32F4-Discovery/Libraries/STM32F4xx_StdPeriph_Driver/src/stm32f4xx_fsmc.c **** 
  75:App/STM32F4-Discovery/Libraries/STM32F4xx_StdPeriph_Driver/src/stm32f4xx_fsmc.c ****  The following sequence should be followed to configure the FSMC to interface with
  76:App/STM32F4-Discovery/Libraries/STM32F4xx_StdPeriph_Driver/src/stm32f4xx_fsmc.c ****  SRAM, PSRAM, NOR or OneNAND memory connected to the NOR/SRAM Bank:
  77:App/STM32F4-Discovery/Libraries/STM32F4xx_StdPeriph_Driver/src/stm32f4xx_fsmc.c ****  
  78:App/STM32F4-Discovery/Libraries/STM32F4xx_StdPeriph_Driver/src/stm32f4xx_fsmc.c ****    1. Enable the clock for the FSMC and associated GPIOs using the following functions:
  79:App/STM32F4-Discovery/Libraries/STM32F4xx_StdPeriph_Driver/src/stm32f4xx_fsmc.c ****           RCC_AHB3PeriphClockCmd(RCC_AHB3Periph_FSMC, ENABLE);
  80:App/STM32F4-Discovery/Libraries/STM32F4xx_StdPeriph_Driver/src/stm32f4xx_fsmc.c ****           RCC_AHB1PeriphClockCmd(RCC_AHB1Periph_GPIOx, ENABLE);
  81:App/STM32F4-Discovery/Libraries/STM32F4xx_StdPeriph_Driver/src/stm32f4xx_fsmc.c **** 
  82:App/STM32F4-Discovery/Libraries/STM32F4xx_StdPeriph_Driver/src/stm32f4xx_fsmc.c ****    2. FSMC pins configuration 
  83:App/STM32F4-Discovery/Libraries/STM32F4xx_StdPeriph_Driver/src/stm32f4xx_fsmc.c ****        - Connect the involved FSMC pins to AF12 using the following function 
  84:App/STM32F4-Discovery/Libraries/STM32F4xx_StdPeriph_Driver/src/stm32f4xx_fsmc.c ****           GPIO_PinAFConfig(GPIOx, GPIO_PinSourcex, GPIO_AF_FSMC); 
  85:App/STM32F4-Discovery/Libraries/STM32F4xx_StdPeriph_Driver/src/stm32f4xx_fsmc.c ****        - Configure these FSMC pins in alternate function mode by calling the function
  86:App/STM32F4-Discovery/Libraries/STM32F4xx_StdPeriph_Driver/src/stm32f4xx_fsmc.c ****           GPIO_Init();    
  87:App/STM32F4-Discovery/Libraries/STM32F4xx_StdPeriph_Driver/src/stm32f4xx_fsmc.c ****        
  88:App/STM32F4-Discovery/Libraries/STM32F4xx_StdPeriph_Driver/src/stm32f4xx_fsmc.c ****    3. Declare a FSMC_NORSRAMInitTypeDef structure, for example:
  89:App/STM32F4-Discovery/Libraries/STM32F4xx_StdPeriph_Driver/src/stm32f4xx_fsmc.c ****           FSMC_NORSRAMInitTypeDef  FSMC_NORSRAMInitStructure;
  90:App/STM32F4-Discovery/Libraries/STM32F4xx_StdPeriph_Driver/src/stm32f4xx_fsmc.c ****       and fill the FSMC_NORSRAMInitStructure variable with the allowed values of
  91:App/STM32F4-Discovery/Libraries/STM32F4xx_StdPeriph_Driver/src/stm32f4xx_fsmc.c ****       the structure member.
  92:App/STM32F4-Discovery/Libraries/STM32F4xx_StdPeriph_Driver/src/stm32f4xx_fsmc.c ****       
  93:App/STM32F4-Discovery/Libraries/STM32F4xx_StdPeriph_Driver/src/stm32f4xx_fsmc.c ****    4. Initialize the NOR/SRAM Controller by calling the function
  94:App/STM32F4-Discovery/Libraries/STM32F4xx_StdPeriph_Driver/src/stm32f4xx_fsmc.c ****           FSMC_NORSRAMInit(&FSMC_NORSRAMInitStructure); 
  95:App/STM32F4-Discovery/Libraries/STM32F4xx_StdPeriph_Driver/src/stm32f4xx_fsmc.c **** 
  96:App/STM32F4-Discovery/Libraries/STM32F4xx_StdPeriph_Driver/src/stm32f4xx_fsmc.c ****    5. Then enable the NOR/SRAM Bank, for example:
  97:App/STM32F4-Discovery/Libraries/STM32F4xx_StdPeriph_Driver/src/stm32f4xx_fsmc.c ****           FSMC_NORSRAMCmd(FSMC_Bank1_NORSRAM2, ENABLE);  
  98:App/STM32F4-Discovery/Libraries/STM32F4xx_StdPeriph_Driver/src/stm32f4xx_fsmc.c **** 
  99:App/STM32F4-Discovery/Libraries/STM32F4xx_StdPeriph_Driver/src/stm32f4xx_fsmc.c ****    6. At this stage you can read/write from/to the memory connected to the NOR/SRAM Bank. 
 100:App/STM32F4-Discovery/Libraries/STM32F4xx_StdPeriph_Driver/src/stm32f4xx_fsmc.c ****    
 101:App/STM32F4-Discovery/Libraries/STM32F4xx_StdPeriph_Driver/src/stm32f4xx_fsmc.c **** @endverbatim
 102:App/STM32F4-Discovery/Libraries/STM32F4xx_StdPeriph_Driver/src/stm32f4xx_fsmc.c ****   * @{
 103:App/STM32F4-Discovery/Libraries/STM32F4xx_StdPeriph_Driver/src/stm32f4xx_fsmc.c ****   */
 104:App/STM32F4-Discovery/Libraries/STM32F4xx_StdPeriph_Driver/src/stm32f4xx_fsmc.c **** 
 105:App/STM32F4-Discovery/Libraries/STM32F4xx_StdPeriph_Driver/src/stm32f4xx_fsmc.c **** /**
 106:App/STM32F4-Discovery/Libraries/STM32F4xx_StdPeriph_Driver/src/stm32f4xx_fsmc.c ****   * @brief  Deinitializes the FSMC NOR/SRAM Banks registers to their default 
 107:App/STM32F4-Discovery/Libraries/STM32F4xx_StdPeriph_Driver/src/stm32f4xx_fsmc.c ****   *   reset values.
 108:App/STM32F4-Discovery/Libraries/STM32F4xx_StdPeriph_Driver/src/stm32f4xx_fsmc.c ****   * @param  FSMC_Bank: specifies the FSMC Bank to be used
 109:App/STM32F4-Discovery/Libraries/STM32F4xx_StdPeriph_Driver/src/stm32f4xx_fsmc.c ****   *          This parameter can be one of the following values:
 110:App/STM32F4-Discovery/Libraries/STM32F4xx_StdPeriph_Driver/src/stm32f4xx_fsmc.c ****   *            @arg FSMC_Bank1_NORSRAM1: FSMC Bank1 NOR/SRAM1  
 111:App/STM32F4-Discovery/Libraries/STM32F4xx_StdPeriph_Driver/src/stm32f4xx_fsmc.c ****   *            @arg FSMC_Bank1_NORSRAM2: FSMC Bank1 NOR/SRAM2 
 112:App/STM32F4-Discovery/Libraries/STM32F4xx_StdPeriph_Driver/src/stm32f4xx_fsmc.c ****   *            @arg FSMC_Bank1_NORSRAM3: FSMC Bank1 NOR/SRAM3 
 113:App/STM32F4-Discovery/Libraries/STM32F4xx_StdPeriph_Driver/src/stm32f4xx_fsmc.c ****   *            @arg FSMC_Bank1_NORSRAM4: FSMC Bank1 NOR/SRAM4 
 114:App/STM32F4-Discovery/Libraries/STM32F4xx_StdPeriph_Driver/src/stm32f4xx_fsmc.c ****   * @retval None
 115:App/STM32F4-Discovery/Libraries/STM32F4xx_StdPeriph_Driver/src/stm32f4xx_fsmc.c ****   */
 116:App/STM32F4-Discovery/Libraries/STM32F4xx_StdPeriph_Driver/src/stm32f4xx_fsmc.c **** void FSMC_NORSRAMDeInit(uint32_t FSMC_Bank)
 117:App/STM32F4-Discovery/Libraries/STM32F4xx_StdPeriph_Driver/src/stm32f4xx_fsmc.c **** {
  33              		.loc 1 117 0
  34              		.cfi_startproc
  35              		@ args = 0, pretend = 0, frame = 8
  36              		@ frame_needed = 1, uses_anonymous_args = 0
  37 0000 80B5     		push	{r7, lr}
  38              	.LCFI0:
  39              		.cfi_def_cfa_offset 8
  40              		.cfi_offset 7, -8
  41              		.cfi_offset 14, -4
  42 0002 82B0     		sub	sp, sp, #8
  43              	.LCFI1:
  44              		.cfi_def_cfa_offset 16
  45 0004 00AF     		add	r7, sp, #0
  46              	.LCFI2:
  47              		.cfi_def_cfa_register 7
  48 0006 7860     		str	r0, [r7, #4]
 118:App/STM32F4-Discovery/Libraries/STM32F4xx_StdPeriph_Driver/src/stm32f4xx_fsmc.c ****   /* Check the parameter */
 119:App/STM32F4-Discovery/Libraries/STM32F4xx_StdPeriph_Driver/src/stm32f4xx_fsmc.c ****   assert_param(IS_FSMC_NORSRAM_BANK(FSMC_Bank));
  49              		.loc 1 119 0
  50 0008 7B68     		ldr	r3, [r7, #4]
  51 000a 002B     		cmp	r3, #0
  52 000c 10D0     		beq	.L2
  53              		.loc 1 119 0 is_stmt 0 discriminator 1
  54 000e 7B68     		ldr	r3, [r7, #4]
  55 0010 022B     		cmp	r3, #2
  56 0012 0DD0     		beq	.L2
  57              		.loc 1 119 0 discriminator 2
  58 0014 7B68     		ldr	r3, [r7, #4]
  59 0016 042B     		cmp	r3, #4
  60 0018 0AD0     		beq	.L2
  61              		.loc 1 119 0 discriminator 3
  62 001a 7B68     		ldr	r3, [r7, #4]
  63 001c 062B     		cmp	r3, #6
  64 001e 07D0     		beq	.L2
  65              		.loc 1 119 0 discriminator 4
  66 0020 40F20000 		movw	r0, #:lower16:.LC0
  67 0024 C0F20000 		movt	r0, #:upper16:.LC0
  68 0028 4FF07701 		mov	r1, #119
  69 002c FFF7FEFF 		bl	assert_failed
  70              	.L2:
 120:App/STM32F4-Discovery/Libraries/STM32F4xx_StdPeriph_Driver/src/stm32f4xx_fsmc.c ****   
 121:App/STM32F4-Discovery/Libraries/STM32F4xx_StdPeriph_Driver/src/stm32f4xx_fsmc.c ****   /* FSMC_Bank1_NORSRAM1 */
 122:App/STM32F4-Discovery/Libraries/STM32F4xx_StdPeriph_Driver/src/stm32f4xx_fsmc.c ****   if(FSMC_Bank == FSMC_Bank1_NORSRAM1)
  71              		.loc 1 122 0 is_stmt 1
  72 0030 7B68     		ldr	r3, [r7, #4]
  73 0032 002B     		cmp	r3, #0
  74 0034 07D1     		bne	.L3
 123:App/STM32F4-Discovery/Libraries/STM32F4xx_StdPeriph_Driver/src/stm32f4xx_fsmc.c ****   {
 124:App/STM32F4-Discovery/Libraries/STM32F4xx_StdPeriph_Driver/src/stm32f4xx_fsmc.c ****     FSMC_Bank1->BTCR[FSMC_Bank] = 0x000030DB;    
  75              		.loc 1 124 0
  76 0036 4FF02043 		mov	r3, #-1610612736
  77 003a 7A68     		ldr	r2, [r7, #4]
  78 003c 43F2DB01 		movw	r1, #12507
  79 0040 43F82210 		str	r1, [r3, r2, lsl #2]
  80 0044 06E0     		b	.L4
  81              	.L3:
 125:App/STM32F4-Discovery/Libraries/STM32F4xx_StdPeriph_Driver/src/stm32f4xx_fsmc.c ****   }
 126:App/STM32F4-Discovery/Libraries/STM32F4xx_StdPeriph_Driver/src/stm32f4xx_fsmc.c ****   /* FSMC_Bank1_NORSRAM2,  FSMC_Bank1_NORSRAM3 or FSMC_Bank1_NORSRAM4 */
 127:App/STM32F4-Discovery/Libraries/STM32F4xx_StdPeriph_Driver/src/stm32f4xx_fsmc.c ****   else
 128:App/STM32F4-Discovery/Libraries/STM32F4xx_StdPeriph_Driver/src/stm32f4xx_fsmc.c ****   {   
 129:App/STM32F4-Discovery/Libraries/STM32F4xx_StdPeriph_Driver/src/stm32f4xx_fsmc.c ****     FSMC_Bank1->BTCR[FSMC_Bank] = 0x000030D2; 
  82              		.loc 1 129 0
  83 0046 4FF02043 		mov	r3, #-1610612736
  84 004a 7A68     		ldr	r2, [r7, #4]
  85 004c 43F2D201 		movw	r1, #12498
  86 0050 43F82210 		str	r1, [r3, r2, lsl #2]
  87              	.L4:
 130:App/STM32F4-Discovery/Libraries/STM32F4xx_StdPeriph_Driver/src/stm32f4xx_fsmc.c ****   }
 131:App/STM32F4-Discovery/Libraries/STM32F4xx_StdPeriph_Driver/src/stm32f4xx_fsmc.c ****   FSMC_Bank1->BTCR[FSMC_Bank + 1] = 0x0FFFFFFF;
  88              		.loc 1 131 0
  89 0054 4FF02043 		mov	r3, #-1610612736
  90 0058 7A68     		ldr	r2, [r7, #4]
  91 005a 02F10102 		add	r2, r2, #1
  92 005e 6FF07041 		mvn	r1, #-268435456
  93 0062 43F82210 		str	r1, [r3, r2, lsl #2]
 132:App/STM32F4-Discovery/Libraries/STM32F4xx_StdPeriph_Driver/src/stm32f4xx_fsmc.c ****   FSMC_Bank1E->BWTR[FSMC_Bank] = 0x0FFFFFFF;  
  94              		.loc 1 132 0
  95 0066 4FF48273 		mov	r3, #260
  96 006a CAF20003 		movt	r3, 40960
  97 006e 7A68     		ldr	r2, [r7, #4]
  98 0070 6FF07041 		mvn	r1, #-268435456
  99 0074 43F82210 		str	r1, [r3, r2, lsl #2]
 133:App/STM32F4-Discovery/Libraries/STM32F4xx_StdPeriph_Driver/src/stm32f4xx_fsmc.c **** }
 100              		.loc 1 133 0
 101 0078 07F10807 		add	r7, r7, #8
 102 007c BD46     		mov	sp, r7
 103 007e 80BD     		pop	{r7, pc}
 104              		.cfi_endproc
 105              	.LFE110:
 107              		.section	.text.FSMC_NORSRAMInit,"ax",%progbits
 108              		.align	2
 109              		.global	FSMC_NORSRAMInit
 110              		.thumb
 111              		.thumb_func
 113              	FSMC_NORSRAMInit:
 114              	.LFB111:
 134:App/STM32F4-Discovery/Libraries/STM32F4xx_StdPeriph_Driver/src/stm32f4xx_fsmc.c **** 
 135:App/STM32F4-Discovery/Libraries/STM32F4xx_StdPeriph_Driver/src/stm32f4xx_fsmc.c **** /**
 136:App/STM32F4-Discovery/Libraries/STM32F4xx_StdPeriph_Driver/src/stm32f4xx_fsmc.c ****   * @brief  Initializes the FSMC NOR/SRAM Banks according to the specified
 137:App/STM32F4-Discovery/Libraries/STM32F4xx_StdPeriph_Driver/src/stm32f4xx_fsmc.c ****   *         parameters in the FSMC_NORSRAMInitStruct.
 138:App/STM32F4-Discovery/Libraries/STM32F4xx_StdPeriph_Driver/src/stm32f4xx_fsmc.c ****   * @param  FSMC_NORSRAMInitStruct : pointer to a FSMC_NORSRAMInitTypeDef structure
 139:App/STM32F4-Discovery/Libraries/STM32F4xx_StdPeriph_Driver/src/stm32f4xx_fsmc.c ****   *         that contains the configuration information for the FSMC NOR/SRAM 
 140:App/STM32F4-Discovery/Libraries/STM32F4xx_StdPeriph_Driver/src/stm32f4xx_fsmc.c ****   *         specified Banks.                       
 141:App/STM32F4-Discovery/Libraries/STM32F4xx_StdPeriph_Driver/src/stm32f4xx_fsmc.c ****   * @retval None
 142:App/STM32F4-Discovery/Libraries/STM32F4xx_StdPeriph_Driver/src/stm32f4xx_fsmc.c ****   */
 143:App/STM32F4-Discovery/Libraries/STM32F4xx_StdPeriph_Driver/src/stm32f4xx_fsmc.c **** void FSMC_NORSRAMInit(FSMC_NORSRAMInitTypeDef* FSMC_NORSRAMInitStruct)
 144:App/STM32F4-Discovery/Libraries/STM32F4xx_StdPeriph_Driver/src/stm32f4xx_fsmc.c **** { 
 115              		.loc 1 144 0
 116              		.cfi_startproc
 117              		@ args = 0, pretend = 0, frame = 8
 118              		@ frame_needed = 1, uses_anonymous_args = 0
 119 0000 80B5     		push	{r7, lr}
 120              	.LCFI3:
 121              		.cfi_def_cfa_offset 8
 122              		.cfi_offset 7, -8
 123              		.cfi_offset 14, -4
 124 0002 82B0     		sub	sp, sp, #8
 125              	.LCFI4:
 126              		.cfi_def_cfa_offset 16
 127 0004 00AF     		add	r7, sp, #0
 128              	.LCFI5:
 129              		.cfi_def_cfa_register 7
 130 0006 7860     		str	r0, [r7, #4]
 145:App/STM32F4-Discovery/Libraries/STM32F4xx_StdPeriph_Driver/src/stm32f4xx_fsmc.c ****   /* Check the parameters */
 146:App/STM32F4-Discovery/Libraries/STM32F4xx_StdPeriph_Driver/src/stm32f4xx_fsmc.c ****   assert_param(IS_FSMC_NORSRAM_BANK(FSMC_NORSRAMInitStruct->FSMC_Bank));
 131              		.loc 1 146 0
 132 0008 7B68     		ldr	r3, [r7, #4]
 133 000a 1B68     		ldr	r3, [r3, #0]
 134 000c 002B     		cmp	r3, #0
 135 000e 13D0     		beq	.L6
 136              		.loc 1 146 0 is_stmt 0 discriminator 1
 137 0010 7B68     		ldr	r3, [r7, #4]
 138 0012 1B68     		ldr	r3, [r3, #0]
 139 0014 022B     		cmp	r3, #2
 140 0016 0FD0     		beq	.L6
 141              		.loc 1 146 0 discriminator 2
 142 0018 7B68     		ldr	r3, [r7, #4]
 143 001a 1B68     		ldr	r3, [r3, #0]
 144 001c 042B     		cmp	r3, #4
 145 001e 0BD0     		beq	.L6
 146              		.loc 1 146 0 discriminator 3
 147 0020 7B68     		ldr	r3, [r7, #4]
 148 0022 1B68     		ldr	r3, [r3, #0]
 149 0024 062B     		cmp	r3, #6
 150 0026 07D0     		beq	.L6
 151              		.loc 1 146 0 discriminator 4
 152 0028 40F20000 		movw	r0, #:lower16:.LC0
 153 002c C0F20000 		movt	r0, #:upper16:.LC0
 154 0030 4FF09201 		mov	r1, #146
 155 0034 FFF7FEFF 		bl	assert_failed
 156              	.L6:
 147:App/STM32F4-Discovery/Libraries/STM32F4xx_StdPeriph_Driver/src/stm32f4xx_fsmc.c ****   assert_param(IS_FSMC_MUX(FSMC_NORSRAMInitStruct->FSMC_DataAddressMux));
 157              		.loc 1 147 0 is_stmt 1
 158 0038 7B68     		ldr	r3, [r7, #4]
 159 003a 5B68     		ldr	r3, [r3, #4]
 160 003c 002B     		cmp	r3, #0
 161 003e 0BD0     		beq	.L7
 162              		.loc 1 147 0 is_stmt 0 discriminator 1
 163 0040 7B68     		ldr	r3, [r7, #4]
 164 0042 5B68     		ldr	r3, [r3, #4]
 165 0044 022B     		cmp	r3, #2
 166 0046 07D0     		beq	.L7
 167              		.loc 1 147 0 discriminator 2
 168 0048 40F20000 		movw	r0, #:lower16:.LC0
 169 004c C0F20000 		movt	r0, #:upper16:.LC0
 170 0050 4FF09301 		mov	r1, #147
 171 0054 FFF7FEFF 		bl	assert_failed
 172              	.L7:
 148:App/STM32F4-Discovery/Libraries/STM32F4xx_StdPeriph_Driver/src/stm32f4xx_fsmc.c ****   assert_param(IS_FSMC_MEMORY(FSMC_NORSRAMInitStruct->FSMC_MemoryType));
 173              		.loc 1 148 0 is_stmt 1
 174 0058 7B68     		ldr	r3, [r7, #4]
 175 005a 9B68     		ldr	r3, [r3, #8]
 176 005c 002B     		cmp	r3, #0
 177 005e 0FD0     		beq	.L8
 178              		.loc 1 148 0 is_stmt 0 discriminator 1
 179 0060 7B68     		ldr	r3, [r7, #4]
 180 0062 9B68     		ldr	r3, [r3, #8]
 181 0064 042B     		cmp	r3, #4
 182 0066 0BD0     		beq	.L8
 183              		.loc 1 148 0 discriminator 2
 184 0068 7B68     		ldr	r3, [r7, #4]
 185 006a 9B68     		ldr	r3, [r3, #8]
 186 006c 082B     		cmp	r3, #8
 187 006e 07D0     		beq	.L8
 188              		.loc 1 148 0 discriminator 3
 189 0070 40F20000 		movw	r0, #:lower16:.LC0
 190 0074 C0F20000 		movt	r0, #:upper16:.LC0
 191 0078 4FF09401 		mov	r1, #148
 192 007c FFF7FEFF 		bl	assert_failed
 193              	.L8:
 149:App/STM32F4-Discovery/Libraries/STM32F4xx_StdPeriph_Driver/src/stm32f4xx_fsmc.c ****   assert_param(IS_FSMC_MEMORY_WIDTH(FSMC_NORSRAMInitStruct->FSMC_MemoryDataWidth));
 194              		.loc 1 149 0 is_stmt 1
 195 0080 7B68     		ldr	r3, [r7, #4]
 196 0082 DB68     		ldr	r3, [r3, #12]
 197 0084 002B     		cmp	r3, #0
 198 0086 0BD0     		beq	.L9
 199              		.loc 1 149 0 is_stmt 0 discriminator 1
 200 0088 7B68     		ldr	r3, [r7, #4]
 201 008a DB68     		ldr	r3, [r3, #12]
 202 008c 102B     		cmp	r3, #16
 203 008e 07D0     		beq	.L9
 204              		.loc 1 149 0 discriminator 2
 205 0090 40F20000 		movw	r0, #:lower16:.LC0
 206 0094 C0F20000 		movt	r0, #:upper16:.LC0
 207 0098 4FF09501 		mov	r1, #149
 208 009c FFF7FEFF 		bl	assert_failed
 209              	.L9:
 150:App/STM32F4-Discovery/Libraries/STM32F4xx_StdPeriph_Driver/src/stm32f4xx_fsmc.c ****   assert_param(IS_FSMC_BURSTMODE(FSMC_NORSRAMInitStruct->FSMC_BurstAccessMode));
 210              		.loc 1 150 0 is_stmt 1
 211 00a0 7B68     		ldr	r3, [r7, #4]
 212 00a2 1B69     		ldr	r3, [r3, #16]
 213 00a4 002B     		cmp	r3, #0
 214 00a6 0CD0     		beq	.L10
 215              		.loc 1 150 0 is_stmt 0 discriminator 1
 216 00a8 7B68     		ldr	r3, [r7, #4]
 217 00aa 1B69     		ldr	r3, [r3, #16]
 218 00ac B3F5807F 		cmp	r3, #256
 219 00b0 07D0     		beq	.L10
 220              		.loc 1 150 0 discriminator 2
 221 00b2 40F20000 		movw	r0, #:lower16:.LC0
 222 00b6 C0F20000 		movt	r0, #:upper16:.LC0
 223 00ba 4FF09601 		mov	r1, #150
 224 00be FFF7FEFF 		bl	assert_failed
 225              	.L10:
 151:App/STM32F4-Discovery/Libraries/STM32F4xx_StdPeriph_Driver/src/stm32f4xx_fsmc.c ****   assert_param(IS_FSMC_ASYNWAIT(FSMC_NORSRAMInitStruct->FSMC_AsynchronousWait));
 226              		.loc 1 151 0 is_stmt 1
 227 00c2 7B68     		ldr	r3, [r7, #4]
 228 00c4 5B69     		ldr	r3, [r3, #20]
 229 00c6 002B     		cmp	r3, #0
 230 00c8 0CD0     		beq	.L11
 231              		.loc 1 151 0 is_stmt 0 discriminator 1
 232 00ca 7B68     		ldr	r3, [r7, #4]
 233 00cc 5B69     		ldr	r3, [r3, #20]
 234 00ce B3F5004F 		cmp	r3, #32768
 235 00d2 07D0     		beq	.L11
 236              		.loc 1 151 0 discriminator 2
 237 00d4 40F20000 		movw	r0, #:lower16:.LC0
 238 00d8 C0F20000 		movt	r0, #:upper16:.LC0
 239 00dc 4FF09701 		mov	r1, #151
 240 00e0 FFF7FEFF 		bl	assert_failed
 241              	.L11:
 152:App/STM32F4-Discovery/Libraries/STM32F4xx_StdPeriph_Driver/src/stm32f4xx_fsmc.c ****   assert_param(IS_FSMC_WAIT_POLARITY(FSMC_NORSRAMInitStruct->FSMC_WaitSignalPolarity));
 242              		.loc 1 152 0 is_stmt 1
 243 00e4 7B68     		ldr	r3, [r7, #4]
 244 00e6 9B69     		ldr	r3, [r3, #24]
 245 00e8 002B     		cmp	r3, #0
 246 00ea 0CD0     		beq	.L12
 247              		.loc 1 152 0 is_stmt 0 discriminator 1
 248 00ec 7B68     		ldr	r3, [r7, #4]
 249 00ee 9B69     		ldr	r3, [r3, #24]
 250 00f0 B3F5007F 		cmp	r3, #512
 251 00f4 07D0     		beq	.L12
 252              		.loc 1 152 0 discriminator 2
 253 00f6 40F20000 		movw	r0, #:lower16:.LC0
 254 00fa C0F20000 		movt	r0, #:upper16:.LC0
 255 00fe 4FF09801 		mov	r1, #152
 256 0102 FFF7FEFF 		bl	assert_failed
 257              	.L12:
 153:App/STM32F4-Discovery/Libraries/STM32F4xx_StdPeriph_Driver/src/stm32f4xx_fsmc.c ****   assert_param(IS_FSMC_WRAP_MODE(FSMC_NORSRAMInitStruct->FSMC_WrapMode));
 258              		.loc 1 153 0 is_stmt 1
 259 0106 7B68     		ldr	r3, [r7, #4]
 260 0108 DB69     		ldr	r3, [r3, #28]
 261 010a 002B     		cmp	r3, #0
 262 010c 0CD0     		beq	.L13
 263              		.loc 1 153 0 is_stmt 0 discriminator 1
 264 010e 7B68     		ldr	r3, [r7, #4]
 265 0110 DB69     		ldr	r3, [r3, #28]
 266 0112 B3F5806F 		cmp	r3, #1024
 267 0116 07D0     		beq	.L13
 268              		.loc 1 153 0 discriminator 2
 269 0118 40F20000 		movw	r0, #:lower16:.LC0
 270 011c C0F20000 		movt	r0, #:upper16:.LC0
 271 0120 4FF09901 		mov	r1, #153
 272 0124 FFF7FEFF 		bl	assert_failed
 273              	.L13:
 154:App/STM32F4-Discovery/Libraries/STM32F4xx_StdPeriph_Driver/src/stm32f4xx_fsmc.c ****   assert_param(IS_FSMC_WAIT_SIGNAL_ACTIVE(FSMC_NORSRAMInitStruct->FSMC_WaitSignalActive));
 274              		.loc 1 154 0 is_stmt 1
 275 0128 7B68     		ldr	r3, [r7, #4]
 276 012a 1B6A     		ldr	r3, [r3, #32]
 277 012c 002B     		cmp	r3, #0
 278 012e 0CD0     		beq	.L14
 279              		.loc 1 154 0 is_stmt 0 discriminator 1
 280 0130 7B68     		ldr	r3, [r7, #4]
 281 0132 1B6A     		ldr	r3, [r3, #32]
 282 0134 B3F5006F 		cmp	r3, #2048
 283 0138 07D0     		beq	.L14
 284              		.loc 1 154 0 discriminator 2
 285 013a 40F20000 		movw	r0, #:lower16:.LC0
 286 013e C0F20000 		movt	r0, #:upper16:.LC0
 287 0142 4FF09A01 		mov	r1, #154
 288 0146 FFF7FEFF 		bl	assert_failed
 289              	.L14:
 155:App/STM32F4-Discovery/Libraries/STM32F4xx_StdPeriph_Driver/src/stm32f4xx_fsmc.c ****   assert_param(IS_FSMC_WRITE_OPERATION(FSMC_NORSRAMInitStruct->FSMC_WriteOperation));
 290              		.loc 1 155 0 is_stmt 1
 291 014a 7B68     		ldr	r3, [r7, #4]
 292 014c 5B6A     		ldr	r3, [r3, #36]
 293 014e 002B     		cmp	r3, #0
 294 0150 0CD0     		beq	.L15
 295              		.loc 1 155 0 is_stmt 0 discriminator 1
 296 0152 7B68     		ldr	r3, [r7, #4]
 297 0154 5B6A     		ldr	r3, [r3, #36]
 298 0156 B3F5805F 		cmp	r3, #4096
 299 015a 07D0     		beq	.L15
 300              		.loc 1 155 0 discriminator 2
 301 015c 40F20000 		movw	r0, #:lower16:.LC0
 302 0160 C0F20000 		movt	r0, #:upper16:.LC0
 303 0164 4FF09B01 		mov	r1, #155
 304 0168 FFF7FEFF 		bl	assert_failed
 305              	.L15:
 156:App/STM32F4-Discovery/Libraries/STM32F4xx_StdPeriph_Driver/src/stm32f4xx_fsmc.c ****   assert_param(IS_FSMC_WAITE_SIGNAL(FSMC_NORSRAMInitStruct->FSMC_WaitSignal));
 306              		.loc 1 156 0 is_stmt 1
 307 016c 7B68     		ldr	r3, [r7, #4]
 308 016e 9B6A     		ldr	r3, [r3, #40]
 309 0170 002B     		cmp	r3, #0
 310 0172 0CD0     		beq	.L16
 311              		.loc 1 156 0 is_stmt 0 discriminator 1
 312 0174 7B68     		ldr	r3, [r7, #4]
 313 0176 9B6A     		ldr	r3, [r3, #40]
 314 0178 B3F5005F 		cmp	r3, #8192
 315 017c 07D0     		beq	.L16
 316              		.loc 1 156 0 discriminator 2
 317 017e 40F20000 		movw	r0, #:lower16:.LC0
 318 0182 C0F20000 		movt	r0, #:upper16:.LC0
 319 0186 4FF09C01 		mov	r1, #156
 320 018a FFF7FEFF 		bl	assert_failed
 321              	.L16:
 157:App/STM32F4-Discovery/Libraries/STM32F4xx_StdPeriph_Driver/src/stm32f4xx_fsmc.c ****   assert_param(IS_FSMC_EXTENDED_MODE(FSMC_NORSRAMInitStruct->FSMC_ExtendedMode));
 322              		.loc 1 157 0 is_stmt 1
 323 018e 7B68     		ldr	r3, [r7, #4]
 324 0190 DB6A     		ldr	r3, [r3, #44]
 325 0192 002B     		cmp	r3, #0
 326 0194 0CD0     		beq	.L17
 327              		.loc 1 157 0 is_stmt 0 discriminator 1
 328 0196 7B68     		ldr	r3, [r7, #4]
 329 0198 DB6A     		ldr	r3, [r3, #44]
 330 019a B3F5804F 		cmp	r3, #16384
 331 019e 07D0     		beq	.L17
 332              		.loc 1 157 0 discriminator 2
 333 01a0 40F20000 		movw	r0, #:lower16:.LC0
 334 01a4 C0F20000 		movt	r0, #:upper16:.LC0
 335 01a8 4FF09D01 		mov	r1, #157
 336 01ac FFF7FEFF 		bl	assert_failed
 337              	.L17:
 158:App/STM32F4-Discovery/Libraries/STM32F4xx_StdPeriph_Driver/src/stm32f4xx_fsmc.c ****   assert_param(IS_FSMC_WRITE_BURST(FSMC_NORSRAMInitStruct->FSMC_WriteBurst));  
 338              		.loc 1 158 0 is_stmt 1
 339 01b0 7B68     		ldr	r3, [r7, #4]
 340 01b2 1B6B     		ldr	r3, [r3, #48]
 341 01b4 002B     		cmp	r3, #0
 342 01b6 0CD0     		beq	.L18
 343              		.loc 1 158 0 is_stmt 0 discriminator 1
 344 01b8 7B68     		ldr	r3, [r7, #4]
 345 01ba 1B6B     		ldr	r3, [r3, #48]
 346 01bc B3F5002F 		cmp	r3, #524288
 347 01c0 07D0     		beq	.L18
 348              		.loc 1 158 0 discriminator 2
 349 01c2 40F20000 		movw	r0, #:lower16:.LC0
 350 01c6 C0F20000 		movt	r0, #:upper16:.LC0
 351 01ca 4FF09E01 		mov	r1, #158
 352 01ce FFF7FEFF 		bl	assert_failed
 353              	.L18:
 159:App/STM32F4-Discovery/Libraries/STM32F4xx_StdPeriph_Driver/src/stm32f4xx_fsmc.c ****   assert_param(IS_FSMC_ADDRESS_SETUP_TIME(FSMC_NORSRAMInitStruct->FSMC_ReadWriteTimingStruct->FSMC_
 354              		.loc 1 159 0 is_stmt 1
 355 01d2 7B68     		ldr	r3, [r7, #4]
 356 01d4 5B6B     		ldr	r3, [r3, #52]
 357 01d6 1B68     		ldr	r3, [r3, #0]
 358 01d8 0F2B     		cmp	r3, #15
 359 01da 07D9     		bls	.L19
 360              		.loc 1 159 0 is_stmt 0 discriminator 1
 361 01dc 40F20000 		movw	r0, #:lower16:.LC0
 362 01e0 C0F20000 		movt	r0, #:upper16:.LC0
 363 01e4 4FF09F01 		mov	r1, #159
 364 01e8 FFF7FEFF 		bl	assert_failed
 365              	.L19:
 160:App/STM32F4-Discovery/Libraries/STM32F4xx_StdPeriph_Driver/src/stm32f4xx_fsmc.c ****   assert_param(IS_FSMC_ADDRESS_HOLD_TIME(FSMC_NORSRAMInitStruct->FSMC_ReadWriteTimingStruct->FSMC_A
 366              		.loc 1 160 0 is_stmt 1
 367 01ec 7B68     		ldr	r3, [r7, #4]
 368 01ee 5B6B     		ldr	r3, [r3, #52]
 369 01f0 5B68     		ldr	r3, [r3, #4]
 370 01f2 0F2B     		cmp	r3, #15
 371 01f4 07D9     		bls	.L20
 372              		.loc 1 160 0 is_stmt 0 discriminator 1
 373 01f6 40F20000 		movw	r0, #:lower16:.LC0
 374 01fa C0F20000 		movt	r0, #:upper16:.LC0
 375 01fe 4FF0A001 		mov	r1, #160
 376 0202 FFF7FEFF 		bl	assert_failed
 377              	.L20:
 161:App/STM32F4-Discovery/Libraries/STM32F4xx_StdPeriph_Driver/src/stm32f4xx_fsmc.c ****   assert_param(IS_FSMC_DATASETUP_TIME(FSMC_NORSRAMInitStruct->FSMC_ReadWriteTimingStruct->FSMC_Data
 378              		.loc 1 161 0 is_stmt 1
 379 0206 7B68     		ldr	r3, [r7, #4]
 380 0208 5B6B     		ldr	r3, [r3, #52]
 381 020a 9B68     		ldr	r3, [r3, #8]
 382 020c 002B     		cmp	r3, #0
 383 020e 04D0     		beq	.L21
 384              		.loc 1 161 0 is_stmt 0 discriminator 2
 385 0210 7B68     		ldr	r3, [r7, #4]
 386 0212 5B6B     		ldr	r3, [r3, #52]
 387 0214 9B68     		ldr	r3, [r3, #8]
 388 0216 FF2B     		cmp	r3, #255
 389 0218 07D9     		bls	.L22
 390              	.L21:
 391              		.loc 1 161 0 discriminator 1
 392 021a 40F20000 		movw	r0, #:lower16:.LC0
 393 021e C0F20000 		movt	r0, #:upper16:.LC0
 394 0222 4FF0A101 		mov	r1, #161
 395 0226 FFF7FEFF 		bl	assert_failed
 396              	.L22:
 162:App/STM32F4-Discovery/Libraries/STM32F4xx_StdPeriph_Driver/src/stm32f4xx_fsmc.c ****   assert_param(IS_FSMC_TURNAROUND_TIME(FSMC_NORSRAMInitStruct->FSMC_ReadWriteTimingStruct->FSMC_Bus
 397              		.loc 1 162 0 is_stmt 1
 398 022a 7B68     		ldr	r3, [r7, #4]
 399 022c 5B6B     		ldr	r3, [r3, #52]
 400 022e DB68     		ldr	r3, [r3, #12]
 401 0230 0F2B     		cmp	r3, #15
 402 0232 07D9     		bls	.L23
 403              		.loc 1 162 0 is_stmt 0 discriminator 1
 404 0234 40F20000 		movw	r0, #:lower16:.LC0
 405 0238 C0F20000 		movt	r0, #:upper16:.LC0
 406 023c 4FF0A201 		mov	r1, #162
 407 0240 FFF7FEFF 		bl	assert_failed
 408              	.L23:
 163:App/STM32F4-Discovery/Libraries/STM32F4xx_StdPeriph_Driver/src/stm32f4xx_fsmc.c ****   assert_param(IS_FSMC_CLK_DIV(FSMC_NORSRAMInitStruct->FSMC_ReadWriteTimingStruct->FSMC_CLKDivision
 409              		.loc 1 163 0 is_stmt 1
 410 0244 7B68     		ldr	r3, [r7, #4]
 411 0246 5B6B     		ldr	r3, [r3, #52]
 412 0248 1B69     		ldr	r3, [r3, #16]
 413 024a 0F2B     		cmp	r3, #15
 414 024c 07D9     		bls	.L24
 415              		.loc 1 163 0 is_stmt 0 discriminator 1
 416 024e 40F20000 		movw	r0, #:lower16:.LC0
 417 0252 C0F20000 		movt	r0, #:upper16:.LC0
 418 0256 4FF0A301 		mov	r1, #163
 419 025a FFF7FEFF 		bl	assert_failed
 420              	.L24:
 164:App/STM32F4-Discovery/Libraries/STM32F4xx_StdPeriph_Driver/src/stm32f4xx_fsmc.c ****   assert_param(IS_FSMC_DATA_LATENCY(FSMC_NORSRAMInitStruct->FSMC_ReadWriteTimingStruct->FSMC_DataLa
 421              		.loc 1 164 0 is_stmt 1
 422 025e 7B68     		ldr	r3, [r7, #4]
 423 0260 5B6B     		ldr	r3, [r3, #52]
 424 0262 5B69     		ldr	r3, [r3, #20]
 425 0264 0F2B     		cmp	r3, #15
 426 0266 07D9     		bls	.L25
 427              		.loc 1 164 0 is_stmt 0 discriminator 1
 428 0268 40F20000 		movw	r0, #:lower16:.LC0
 429 026c C0F20000 		movt	r0, #:upper16:.LC0
 430 0270 4FF0A401 		mov	r1, #164
 431 0274 FFF7FEFF 		bl	assert_failed
 432              	.L25:
 165:App/STM32F4-Discovery/Libraries/STM32F4xx_StdPeriph_Driver/src/stm32f4xx_fsmc.c ****   assert_param(IS_FSMC_ACCESS_MODE(FSMC_NORSRAMInitStruct->FSMC_ReadWriteTimingStruct->FSMC_AccessM
 433              		.loc 1 165 0 is_stmt 1
 434 0278 7B68     		ldr	r3, [r7, #4]
 435 027a 5B6B     		ldr	r3, [r3, #52]
 436 027c 9B69     		ldr	r3, [r3, #24]
 437 027e 002B     		cmp	r3, #0
 438 0280 19D0     		beq	.L26
 439              		.loc 1 165 0 is_stmt 0 discriminator 1
 440 0282 7B68     		ldr	r3, [r7, #4]
 441 0284 5B6B     		ldr	r3, [r3, #52]
 442 0286 9B69     		ldr	r3, [r3, #24]
 443 0288 B3F1805F 		cmp	r3, #268435456
 444 028c 13D0     		beq	.L26
 445              		.loc 1 165 0 discriminator 2
 446 028e 7B68     		ldr	r3, [r7, #4]
 447 0290 5B6B     		ldr	r3, [r3, #52]
 448 0292 9B69     		ldr	r3, [r3, #24]
 449 0294 B3F1005F 		cmp	r3, #536870912
 450 0298 0DD0     		beq	.L26
 451              		.loc 1 165 0 discriminator 3
 452 029a 7B68     		ldr	r3, [r7, #4]
 453 029c 5B6B     		ldr	r3, [r3, #52]
 454 029e 9B69     		ldr	r3, [r3, #24]
 455 02a0 B3F1405F 		cmp	r3, #805306368
 456 02a4 07D0     		beq	.L26
 457              		.loc 1 165 0 discriminator 4
 458 02a6 40F20000 		movw	r0, #:lower16:.LC0
 459 02aa C0F20000 		movt	r0, #:upper16:.LC0
 460 02ae 4FF0A501 		mov	r1, #165
 461 02b2 FFF7FEFF 		bl	assert_failed
 462              	.L26:
 166:App/STM32F4-Discovery/Libraries/STM32F4xx_StdPeriph_Driver/src/stm32f4xx_fsmc.c ****   
 167:App/STM32F4-Discovery/Libraries/STM32F4xx_StdPeriph_Driver/src/stm32f4xx_fsmc.c ****   /* Bank1 NOR/SRAM control register configuration */ 
 168:App/STM32F4-Discovery/Libraries/STM32F4xx_StdPeriph_Driver/src/stm32f4xx_fsmc.c ****   FSMC_Bank1->BTCR[FSMC_NORSRAMInitStruct->FSMC_Bank] = 
 463              		.loc 1 168 0 is_stmt 1
 464 02b6 4FF02043 		mov	r3, #-1610612736
 465 02ba 7A68     		ldr	r2, [r7, #4]
 466 02bc 1268     		ldr	r2, [r2, #0]
 169:App/STM32F4-Discovery/Libraries/STM32F4xx_StdPeriph_Driver/src/stm32f4xx_fsmc.c ****             (uint32_t)FSMC_NORSRAMInitStruct->FSMC_DataAddressMux |
 467              		.loc 1 169 0
 468 02be 7968     		ldr	r1, [r7, #4]
 469 02c0 4868     		ldr	r0, [r1, #4]
 170:App/STM32F4-Discovery/Libraries/STM32F4xx_StdPeriph_Driver/src/stm32f4xx_fsmc.c ****             FSMC_NORSRAMInitStruct->FSMC_MemoryType |
 470              		.loc 1 170 0
 471 02c2 7968     		ldr	r1, [r7, #4]
 472 02c4 8968     		ldr	r1, [r1, #8]
 169:App/STM32F4-Discovery/Libraries/STM32F4xx_StdPeriph_Driver/src/stm32f4xx_fsmc.c ****             (uint32_t)FSMC_NORSRAMInitStruct->FSMC_DataAddressMux |
 473              		.loc 1 169 0
 474 02c6 0843     		orrs	r0, r0, r1
 171:App/STM32F4-Discovery/Libraries/STM32F4xx_StdPeriph_Driver/src/stm32f4xx_fsmc.c ****             FSMC_NORSRAMInitStruct->FSMC_MemoryDataWidth |
 475              		.loc 1 171 0
 476 02c8 7968     		ldr	r1, [r7, #4]
 477 02ca C968     		ldr	r1, [r1, #12]
 170:App/STM32F4-Discovery/Libraries/STM32F4xx_StdPeriph_Driver/src/stm32f4xx_fsmc.c ****             FSMC_NORSRAMInitStruct->FSMC_MemoryType |
 478              		.loc 1 170 0
 479 02cc 0843     		orrs	r0, r0, r1
 172:App/STM32F4-Discovery/Libraries/STM32F4xx_StdPeriph_Driver/src/stm32f4xx_fsmc.c ****             FSMC_NORSRAMInitStruct->FSMC_BurstAccessMode |
 480              		.loc 1 172 0
 481 02ce 7968     		ldr	r1, [r7, #4]
 482 02d0 0969     		ldr	r1, [r1, #16]
 171:App/STM32F4-Discovery/Libraries/STM32F4xx_StdPeriph_Driver/src/stm32f4xx_fsmc.c ****             FSMC_NORSRAMInitStruct->FSMC_MemoryDataWidth |
 483              		.loc 1 171 0
 484 02d2 0843     		orrs	r0, r0, r1
 173:App/STM32F4-Discovery/Libraries/STM32F4xx_StdPeriph_Driver/src/stm32f4xx_fsmc.c ****             FSMC_NORSRAMInitStruct->FSMC_AsynchronousWait |
 485              		.loc 1 173 0
 486 02d4 7968     		ldr	r1, [r7, #4]
 487 02d6 4969     		ldr	r1, [r1, #20]
 172:App/STM32F4-Discovery/Libraries/STM32F4xx_StdPeriph_Driver/src/stm32f4xx_fsmc.c ****             FSMC_NORSRAMInitStruct->FSMC_BurstAccessMode |
 488              		.loc 1 172 0
 489 02d8 0843     		orrs	r0, r0, r1
 174:App/STM32F4-Discovery/Libraries/STM32F4xx_StdPeriph_Driver/src/stm32f4xx_fsmc.c ****             FSMC_NORSRAMInitStruct->FSMC_WaitSignalPolarity |
 490              		.loc 1 174 0
 491 02da 7968     		ldr	r1, [r7, #4]
 492 02dc 8969     		ldr	r1, [r1, #24]
 173:App/STM32F4-Discovery/Libraries/STM32F4xx_StdPeriph_Driver/src/stm32f4xx_fsmc.c ****             FSMC_NORSRAMInitStruct->FSMC_AsynchronousWait |
 493              		.loc 1 173 0
 494 02de 0843     		orrs	r0, r0, r1
 175:App/STM32F4-Discovery/Libraries/STM32F4xx_StdPeriph_Driver/src/stm32f4xx_fsmc.c ****             FSMC_NORSRAMInitStruct->FSMC_WrapMode |
 495              		.loc 1 175 0
 496 02e0 7968     		ldr	r1, [r7, #4]
 497 02e2 C969     		ldr	r1, [r1, #28]
 174:App/STM32F4-Discovery/Libraries/STM32F4xx_StdPeriph_Driver/src/stm32f4xx_fsmc.c ****             FSMC_NORSRAMInitStruct->FSMC_WaitSignalPolarity |
 498              		.loc 1 174 0
 499 02e4 0843     		orrs	r0, r0, r1
 176:App/STM32F4-Discovery/Libraries/STM32F4xx_StdPeriph_Driver/src/stm32f4xx_fsmc.c ****             FSMC_NORSRAMInitStruct->FSMC_WaitSignalActive |
 500              		.loc 1 176 0
 501 02e6 7968     		ldr	r1, [r7, #4]
 502 02e8 096A     		ldr	r1, [r1, #32]
 175:App/STM32F4-Discovery/Libraries/STM32F4xx_StdPeriph_Driver/src/stm32f4xx_fsmc.c ****             FSMC_NORSRAMInitStruct->FSMC_WrapMode |
 503              		.loc 1 175 0
 504 02ea 0843     		orrs	r0, r0, r1
 177:App/STM32F4-Discovery/Libraries/STM32F4xx_StdPeriph_Driver/src/stm32f4xx_fsmc.c ****             FSMC_NORSRAMInitStruct->FSMC_WriteOperation |
 505              		.loc 1 177 0
 506 02ec 7968     		ldr	r1, [r7, #4]
 507 02ee 496A     		ldr	r1, [r1, #36]
 176:App/STM32F4-Discovery/Libraries/STM32F4xx_StdPeriph_Driver/src/stm32f4xx_fsmc.c ****             FSMC_NORSRAMInitStruct->FSMC_WaitSignalActive |
 508              		.loc 1 176 0
 509 02f0 0843     		orrs	r0, r0, r1
 178:App/STM32F4-Discovery/Libraries/STM32F4xx_StdPeriph_Driver/src/stm32f4xx_fsmc.c ****             FSMC_NORSRAMInitStruct->FSMC_WaitSignal |
 510              		.loc 1 178 0
 511 02f2 7968     		ldr	r1, [r7, #4]
 512 02f4 896A     		ldr	r1, [r1, #40]
 177:App/STM32F4-Discovery/Libraries/STM32F4xx_StdPeriph_Driver/src/stm32f4xx_fsmc.c ****             FSMC_NORSRAMInitStruct->FSMC_WriteOperation |
 513              		.loc 1 177 0
 514 02f6 0843     		orrs	r0, r0, r1
 179:App/STM32F4-Discovery/Libraries/STM32F4xx_StdPeriph_Driver/src/stm32f4xx_fsmc.c ****             FSMC_NORSRAMInitStruct->FSMC_ExtendedMode |
 515              		.loc 1 179 0
 516 02f8 7968     		ldr	r1, [r7, #4]
 517 02fa C96A     		ldr	r1, [r1, #44]
 178:App/STM32F4-Discovery/Libraries/STM32F4xx_StdPeriph_Driver/src/stm32f4xx_fsmc.c ****             FSMC_NORSRAMInitStruct->FSMC_WaitSignal |
 518              		.loc 1 178 0
 519 02fc 0843     		orrs	r0, r0, r1
 180:App/STM32F4-Discovery/Libraries/STM32F4xx_StdPeriph_Driver/src/stm32f4xx_fsmc.c ****             FSMC_NORSRAMInitStruct->FSMC_WriteBurst;
 520              		.loc 1 180 0
 521 02fe 7968     		ldr	r1, [r7, #4]
 522 0300 096B     		ldr	r1, [r1, #48]
 179:App/STM32F4-Discovery/Libraries/STM32F4xx_StdPeriph_Driver/src/stm32f4xx_fsmc.c ****             FSMC_NORSRAMInitStruct->FSMC_ExtendedMode |
 523              		.loc 1 179 0
 524 0302 0143     		orrs	r1, r1, r0
 168:App/STM32F4-Discovery/Libraries/STM32F4xx_StdPeriph_Driver/src/stm32f4xx_fsmc.c ****   FSMC_Bank1->BTCR[FSMC_NORSRAMInitStruct->FSMC_Bank] = 
 525              		.loc 1 168 0
 526 0304 43F82210 		str	r1, [r3, r2, lsl #2]
 181:App/STM32F4-Discovery/Libraries/STM32F4xx_StdPeriph_Driver/src/stm32f4xx_fsmc.c ****   if(FSMC_NORSRAMInitStruct->FSMC_MemoryType == FSMC_MemoryType_NOR)
 527              		.loc 1 181 0
 528 0308 7B68     		ldr	r3, [r7, #4]
 529 030a 9B68     		ldr	r3, [r3, #8]
 530 030c 082B     		cmp	r3, #8
 531 030e 0DD1     		bne	.L27
 182:App/STM32F4-Discovery/Libraries/STM32F4xx_StdPeriph_Driver/src/stm32f4xx_fsmc.c ****   {
 183:App/STM32F4-Discovery/Libraries/STM32F4xx_StdPeriph_Driver/src/stm32f4xx_fsmc.c ****     FSMC_Bank1->BTCR[FSMC_NORSRAMInitStruct->FSMC_Bank] |= (uint32_t)BCR_FACCEN_SET;
 532              		.loc 1 183 0
 533 0310 4FF02043 		mov	r3, #-1610612736
 534 0314 7A68     		ldr	r2, [r7, #4]
 535 0316 1268     		ldr	r2, [r2, #0]
 536 0318 4FF02041 		mov	r1, #-1610612736
 537 031c 7868     		ldr	r0, [r7, #4]
 538 031e 0068     		ldr	r0, [r0, #0]
 539 0320 51F82010 		ldr	r1, [r1, r0, lsl #2]
 540 0324 41F04001 		orr	r1, r1, #64
 541 0328 43F82210 		str	r1, [r3, r2, lsl #2]
 542              	.L27:
 184:App/STM32F4-Discovery/Libraries/STM32F4xx_StdPeriph_Driver/src/stm32f4xx_fsmc.c ****   }
 185:App/STM32F4-Discovery/Libraries/STM32F4xx_StdPeriph_Driver/src/stm32f4xx_fsmc.c ****   /* Bank1 NOR/SRAM timing register configuration */
 186:App/STM32F4-Discovery/Libraries/STM32F4xx_StdPeriph_Driver/src/stm32f4xx_fsmc.c ****   FSMC_Bank1->BTCR[FSMC_NORSRAMInitStruct->FSMC_Bank+1] = 
 543              		.loc 1 186 0
 544 032c 4FF02043 		mov	r3, #-1610612736
 545 0330 7A68     		ldr	r2, [r7, #4]
 546 0332 1268     		ldr	r2, [r2, #0]
 547 0334 02F10102 		add	r2, r2, #1
 187:App/STM32F4-Discovery/Libraries/STM32F4xx_StdPeriph_Driver/src/stm32f4xx_fsmc.c ****             (uint32_t)FSMC_NORSRAMInitStruct->FSMC_ReadWriteTimingStruct->FSMC_AddressSetupTime |
 548              		.loc 1 187 0
 549 0338 7968     		ldr	r1, [r7, #4]
 550 033a 496B     		ldr	r1, [r1, #52]
 551 033c 0868     		ldr	r0, [r1, #0]
 188:App/STM32F4-Discovery/Libraries/STM32F4xx_StdPeriph_Driver/src/stm32f4xx_fsmc.c ****             (FSMC_NORSRAMInitStruct->FSMC_ReadWriteTimingStruct->FSMC_AddressHoldTime << 4) |
 552              		.loc 1 188 0
 553 033e 7968     		ldr	r1, [r7, #4]
 554 0340 496B     		ldr	r1, [r1, #52]
 555 0342 4968     		ldr	r1, [r1, #4]
 556 0344 4FEA0111 		lsl	r1, r1, #4
 187:App/STM32F4-Discovery/Libraries/STM32F4xx_StdPeriph_Driver/src/stm32f4xx_fsmc.c ****             (uint32_t)FSMC_NORSRAMInitStruct->FSMC_ReadWriteTimingStruct->FSMC_AddressSetupTime |
 557              		.loc 1 187 0
 558 0348 0843     		orrs	r0, r0, r1
 189:App/STM32F4-Discovery/Libraries/STM32F4xx_StdPeriph_Driver/src/stm32f4xx_fsmc.c ****             (FSMC_NORSRAMInitStruct->FSMC_ReadWriteTimingStruct->FSMC_DataSetupTime << 8) |
 559              		.loc 1 189 0
 560 034a 7968     		ldr	r1, [r7, #4]
 561 034c 496B     		ldr	r1, [r1, #52]
 562 034e 8968     		ldr	r1, [r1, #8]
 563 0350 4FEA0121 		lsl	r1, r1, #8
 188:App/STM32F4-Discovery/Libraries/STM32F4xx_StdPeriph_Driver/src/stm32f4xx_fsmc.c ****             (FSMC_NORSRAMInitStruct->FSMC_ReadWriteTimingStruct->FSMC_AddressHoldTime << 4) |
 564              		.loc 1 188 0
 565 0354 0843     		orrs	r0, r0, r1
 190:App/STM32F4-Discovery/Libraries/STM32F4xx_StdPeriph_Driver/src/stm32f4xx_fsmc.c ****             (FSMC_NORSRAMInitStruct->FSMC_ReadWriteTimingStruct->FSMC_BusTurnAroundDuration << 16) 
 566              		.loc 1 190 0
 567 0356 7968     		ldr	r1, [r7, #4]
 568 0358 496B     		ldr	r1, [r1, #52]
 569 035a C968     		ldr	r1, [r1, #12]
 570 035c 4FEA0141 		lsl	r1, r1, #16
 189:App/STM32F4-Discovery/Libraries/STM32F4xx_StdPeriph_Driver/src/stm32f4xx_fsmc.c ****             (FSMC_NORSRAMInitStruct->FSMC_ReadWriteTimingStruct->FSMC_DataSetupTime << 8) |
 571              		.loc 1 189 0
 572 0360 0843     		orrs	r0, r0, r1
 191:App/STM32F4-Discovery/Libraries/STM32F4xx_StdPeriph_Driver/src/stm32f4xx_fsmc.c ****             (FSMC_NORSRAMInitStruct->FSMC_ReadWriteTimingStruct->FSMC_CLKDivision << 20) |
 573              		.loc 1 191 0
 574 0362 7968     		ldr	r1, [r7, #4]
 575 0364 496B     		ldr	r1, [r1, #52]
 576 0366 0969     		ldr	r1, [r1, #16]
 577 0368 4FEA0151 		lsl	r1, r1, #20
 190:App/STM32F4-Discovery/Libraries/STM32F4xx_StdPeriph_Driver/src/stm32f4xx_fsmc.c ****             (FSMC_NORSRAMInitStruct->FSMC_ReadWriteTimingStruct->FSMC_BusTurnAroundDuration << 16) 
 578              		.loc 1 190 0
 579 036c 0843     		orrs	r0, r0, r1
 192:App/STM32F4-Discovery/Libraries/STM32F4xx_StdPeriph_Driver/src/stm32f4xx_fsmc.c ****             (FSMC_NORSRAMInitStruct->FSMC_ReadWriteTimingStruct->FSMC_DataLatency << 24) |
 580              		.loc 1 192 0
 581 036e 7968     		ldr	r1, [r7, #4]
 582 0370 496B     		ldr	r1, [r1, #52]
 583 0372 4969     		ldr	r1, [r1, #20]
 584 0374 4FEA0161 		lsl	r1, r1, #24
 191:App/STM32F4-Discovery/Libraries/STM32F4xx_StdPeriph_Driver/src/stm32f4xx_fsmc.c ****             (FSMC_NORSRAMInitStruct->FSMC_ReadWriteTimingStruct->FSMC_CLKDivision << 20) |
 585              		.loc 1 191 0
 586 0378 0843     		orrs	r0, r0, r1
 193:App/STM32F4-Discovery/Libraries/STM32F4xx_StdPeriph_Driver/src/stm32f4xx_fsmc.c ****              FSMC_NORSRAMInitStruct->FSMC_ReadWriteTimingStruct->FSMC_AccessMode;
 587              		.loc 1 193 0
 588 037a 7968     		ldr	r1, [r7, #4]
 589 037c 496B     		ldr	r1, [r1, #52]
 590 037e 8969     		ldr	r1, [r1, #24]
 192:App/STM32F4-Discovery/Libraries/STM32F4xx_StdPeriph_Driver/src/stm32f4xx_fsmc.c ****             (FSMC_NORSRAMInitStruct->FSMC_ReadWriteTimingStruct->FSMC_DataLatency << 24) |
 591              		.loc 1 192 0
 592 0380 0143     		orrs	r1, r1, r0
 186:App/STM32F4-Discovery/Libraries/STM32F4xx_StdPeriph_Driver/src/stm32f4xx_fsmc.c ****   FSMC_Bank1->BTCR[FSMC_NORSRAMInitStruct->FSMC_Bank+1] = 
 593              		.loc 1 186 0
 594 0382 43F82210 		str	r1, [r3, r2, lsl #2]
 194:App/STM32F4-Discovery/Libraries/STM32F4xx_StdPeriph_Driver/src/stm32f4xx_fsmc.c ****             
 195:App/STM32F4-Discovery/Libraries/STM32F4xx_StdPeriph_Driver/src/stm32f4xx_fsmc.c ****     
 196:App/STM32F4-Discovery/Libraries/STM32F4xx_StdPeriph_Driver/src/stm32f4xx_fsmc.c ****   /* Bank1 NOR/SRAM timing register for write configuration, if extended mode is used */
 197:App/STM32F4-Discovery/Libraries/STM32F4xx_StdPeriph_Driver/src/stm32f4xx_fsmc.c ****   if(FSMC_NORSRAMInitStruct->FSMC_ExtendedMode == FSMC_ExtendedMode_Enable)
 595              		.loc 1 197 0
 596 0386 7B68     		ldr	r3, [r7, #4]
 597 0388 DB6A     		ldr	r3, [r3, #44]
 598 038a B3F5804F 		cmp	r3, #16384
 599 038e 40F08D80 		bne	.L28
 198:App/STM32F4-Discovery/Libraries/STM32F4xx_StdPeriph_Driver/src/stm32f4xx_fsmc.c ****   {
 199:App/STM32F4-Discovery/Libraries/STM32F4xx_StdPeriph_Driver/src/stm32f4xx_fsmc.c ****     assert_param(IS_FSMC_ADDRESS_SETUP_TIME(FSMC_NORSRAMInitStruct->FSMC_WriteTimingStruct->FSMC_Ad
 600              		.loc 1 199 0
 601 0392 7B68     		ldr	r3, [r7, #4]
 602 0394 9B6B     		ldr	r3, [r3, #56]
 603 0396 1B68     		ldr	r3, [r3, #0]
 604 0398 0F2B     		cmp	r3, #15
 605 039a 07D9     		bls	.L29
 606              		.loc 1 199 0 is_stmt 0 discriminator 1
 607 039c 40F20000 		movw	r0, #:lower16:.LC0
 608 03a0 C0F20000 		movt	r0, #:upper16:.LC0
 609 03a4 4FF0C701 		mov	r1, #199
 610 03a8 FFF7FEFF 		bl	assert_failed
 611              	.L29:
 200:App/STM32F4-Discovery/Libraries/STM32F4xx_StdPeriph_Driver/src/stm32f4xx_fsmc.c ****     assert_param(IS_FSMC_ADDRESS_HOLD_TIME(FSMC_NORSRAMInitStruct->FSMC_WriteTimingStruct->FSMC_Add
 612              		.loc 1 200 0 is_stmt 1
 613 03ac 7B68     		ldr	r3, [r7, #4]
 614 03ae 9B6B     		ldr	r3, [r3, #56]
 615 03b0 5B68     		ldr	r3, [r3, #4]
 616 03b2 0F2B     		cmp	r3, #15
 617 03b4 07D9     		bls	.L30
 618              		.loc 1 200 0 is_stmt 0 discriminator 1
 619 03b6 40F20000 		movw	r0, #:lower16:.LC0
 620 03ba C0F20000 		movt	r0, #:upper16:.LC0
 621 03be 4FF0C801 		mov	r1, #200
 622 03c2 FFF7FEFF 		bl	assert_failed
 623              	.L30:
 201:App/STM32F4-Discovery/Libraries/STM32F4xx_StdPeriph_Driver/src/stm32f4xx_fsmc.c ****     assert_param(IS_FSMC_DATASETUP_TIME(FSMC_NORSRAMInitStruct->FSMC_WriteTimingStruct->FSMC_DataSe
 624              		.loc 1 201 0 is_stmt 1
 625 03c6 7B68     		ldr	r3, [r7, #4]
 626 03c8 9B6B     		ldr	r3, [r3, #56]
 627 03ca 9B68     		ldr	r3, [r3, #8]
 628 03cc 002B     		cmp	r3, #0
 629 03ce 04D0     		beq	.L31
 630              		.loc 1 201 0 is_stmt 0 discriminator 2
 631 03d0 7B68     		ldr	r3, [r7, #4]
 632 03d2 9B6B     		ldr	r3, [r3, #56]
 633 03d4 9B68     		ldr	r3, [r3, #8]
 634 03d6 FF2B     		cmp	r3, #255
 635 03d8 07D9     		bls	.L32
 636              	.L31:
 637              		.loc 1 201 0 discriminator 1
 638 03da 40F20000 		movw	r0, #:lower16:.LC0
 639 03de C0F20000 		movt	r0, #:upper16:.LC0
 640 03e2 4FF0C901 		mov	r1, #201
 641 03e6 FFF7FEFF 		bl	assert_failed
 642              	.L32:
 202:App/STM32F4-Discovery/Libraries/STM32F4xx_StdPeriph_Driver/src/stm32f4xx_fsmc.c ****     assert_param(IS_FSMC_CLK_DIV(FSMC_NORSRAMInitStruct->FSMC_WriteTimingStruct->FSMC_CLKDivision))
 643              		.loc 1 202 0 is_stmt 1
 644 03ea 7B68     		ldr	r3, [r7, #4]
 645 03ec 9B6B     		ldr	r3, [r3, #56]
 646 03ee 1B69     		ldr	r3, [r3, #16]
 647 03f0 0F2B     		cmp	r3, #15
 648 03f2 07D9     		bls	.L33
 649              		.loc 1 202 0 is_stmt 0 discriminator 1
 650 03f4 40F20000 		movw	r0, #:lower16:.LC0
 651 03f8 C0F20000 		movt	r0, #:upper16:.LC0
 652 03fc 4FF0CA01 		mov	r1, #202
 653 0400 FFF7FEFF 		bl	assert_failed
 654              	.L33:
 203:App/STM32F4-Discovery/Libraries/STM32F4xx_StdPeriph_Driver/src/stm32f4xx_fsmc.c ****     assert_param(IS_FSMC_DATA_LATENCY(FSMC_NORSRAMInitStruct->FSMC_WriteTimingStruct->FSMC_DataLate
 655              		.loc 1 203 0 is_stmt 1
 656 0404 7B68     		ldr	r3, [r7, #4]
 657 0406 9B6B     		ldr	r3, [r3, #56]
 658 0408 5B69     		ldr	r3, [r3, #20]
 659 040a 0F2B     		cmp	r3, #15
 660 040c 07D9     		bls	.L34
 661              		.loc 1 203 0 is_stmt 0 discriminator 1
 662 040e 40F20000 		movw	r0, #:lower16:.LC0
 663 0412 C0F20000 		movt	r0, #:upper16:.LC0
 664 0416 4FF0CB01 		mov	r1, #203
 665 041a FFF7FEFF 		bl	assert_failed
 666              	.L34:
 204:App/STM32F4-Discovery/Libraries/STM32F4xx_StdPeriph_Driver/src/stm32f4xx_fsmc.c ****     assert_param(IS_FSMC_ACCESS_MODE(FSMC_NORSRAMInitStruct->FSMC_WriteTimingStruct->FSMC_AccessMod
 667              		.loc 1 204 0 is_stmt 1
 668 041e 7B68     		ldr	r3, [r7, #4]
 669 0420 9B6B     		ldr	r3, [r3, #56]
 670 0422 9B69     		ldr	r3, [r3, #24]
 671 0424 002B     		cmp	r3, #0
 672 0426 19D0     		beq	.L35
 673              		.loc 1 204 0 is_stmt 0 discriminator 1
 674 0428 7B68     		ldr	r3, [r7, #4]
 675 042a 9B6B     		ldr	r3, [r3, #56]
 676 042c 9B69     		ldr	r3, [r3, #24]
 677 042e B3F1805F 		cmp	r3, #268435456
 678 0432 13D0     		beq	.L35
 679              		.loc 1 204 0 discriminator 2
 680 0434 7B68     		ldr	r3, [r7, #4]
 681 0436 9B6B     		ldr	r3, [r3, #56]
 682 0438 9B69     		ldr	r3, [r3, #24]
 683 043a B3F1005F 		cmp	r3, #536870912
 684 043e 0DD0     		beq	.L35
 685              		.loc 1 204 0 discriminator 3
 686 0440 7B68     		ldr	r3, [r7, #4]
 687 0442 9B6B     		ldr	r3, [r3, #56]
 688 0444 9B69     		ldr	r3, [r3, #24]
 689 0446 B3F1405F 		cmp	r3, #805306368
 690 044a 07D0     		beq	.L35
 691              		.loc 1 204 0 discriminator 4
 692 044c 40F20000 		movw	r0, #:lower16:.LC0
 693 0450 C0F20000 		movt	r0, #:upper16:.LC0
 694 0454 4FF0CC01 		mov	r1, #204
 695 0458 FFF7FEFF 		bl	assert_failed
 696              	.L35:
 205:App/STM32F4-Discovery/Libraries/STM32F4xx_StdPeriph_Driver/src/stm32f4xx_fsmc.c ****     FSMC_Bank1E->BWTR[FSMC_NORSRAMInitStruct->FSMC_Bank] = 
 697              		.loc 1 205 0 is_stmt 1
 698 045c 4FF48273 		mov	r3, #260
 699 0460 CAF20003 		movt	r3, 40960
 700 0464 7A68     		ldr	r2, [r7, #4]
 701 0466 1268     		ldr	r2, [r2, #0]
 206:App/STM32F4-Discovery/Libraries/STM32F4xx_StdPeriph_Driver/src/stm32f4xx_fsmc.c ****               (uint32_t)FSMC_NORSRAMInitStruct->FSMC_WriteTimingStruct->FSMC_AddressSetupTime |
 702              		.loc 1 206 0
 703 0468 7968     		ldr	r1, [r7, #4]
 704 046a 896B     		ldr	r1, [r1, #56]
 705 046c 0868     		ldr	r0, [r1, #0]
 207:App/STM32F4-Discovery/Libraries/STM32F4xx_StdPeriph_Driver/src/stm32f4xx_fsmc.c ****               (FSMC_NORSRAMInitStruct->FSMC_WriteTimingStruct->FSMC_AddressHoldTime << 4 )|
 706              		.loc 1 207 0
 707 046e 7968     		ldr	r1, [r7, #4]
 708 0470 896B     		ldr	r1, [r1, #56]
 709 0472 4968     		ldr	r1, [r1, #4]
 710 0474 4FEA0111 		lsl	r1, r1, #4
 206:App/STM32F4-Discovery/Libraries/STM32F4xx_StdPeriph_Driver/src/stm32f4xx_fsmc.c ****               (uint32_t)FSMC_NORSRAMInitStruct->FSMC_WriteTimingStruct->FSMC_AddressSetupTime |
 711              		.loc 1 206 0
 712 0478 0843     		orrs	r0, r0, r1
 208:App/STM32F4-Discovery/Libraries/STM32F4xx_StdPeriph_Driver/src/stm32f4xx_fsmc.c ****               (FSMC_NORSRAMInitStruct->FSMC_WriteTimingStruct->FSMC_DataSetupTime << 8) |
 713              		.loc 1 208 0
 714 047a 7968     		ldr	r1, [r7, #4]
 715 047c 896B     		ldr	r1, [r1, #56]
 716 047e 8968     		ldr	r1, [r1, #8]
 717 0480 4FEA0121 		lsl	r1, r1, #8
 207:App/STM32F4-Discovery/Libraries/STM32F4xx_StdPeriph_Driver/src/stm32f4xx_fsmc.c ****               (FSMC_NORSRAMInitStruct->FSMC_WriteTimingStruct->FSMC_AddressHoldTime << 4 )|
 718              		.loc 1 207 0
 719 0484 0843     		orrs	r0, r0, r1
 209:App/STM32F4-Discovery/Libraries/STM32F4xx_StdPeriph_Driver/src/stm32f4xx_fsmc.c ****               (FSMC_NORSRAMInitStruct->FSMC_WriteTimingStruct->FSMC_CLKDivision << 20) |
 720              		.loc 1 209 0
 721 0486 7968     		ldr	r1, [r7, #4]
 722 0488 896B     		ldr	r1, [r1, #56]
 723 048a 0969     		ldr	r1, [r1, #16]
 724 048c 4FEA0151 		lsl	r1, r1, #20
 208:App/STM32F4-Discovery/Libraries/STM32F4xx_StdPeriph_Driver/src/stm32f4xx_fsmc.c ****               (FSMC_NORSRAMInitStruct->FSMC_WriteTimingStruct->FSMC_DataSetupTime << 8) |
 725              		.loc 1 208 0
 726 0490 0843     		orrs	r0, r0, r1
 210:App/STM32F4-Discovery/Libraries/STM32F4xx_StdPeriph_Driver/src/stm32f4xx_fsmc.c ****               (FSMC_NORSRAMInitStruct->FSMC_WriteTimingStruct->FSMC_DataLatency << 24) |
 727              		.loc 1 210 0
 728 0492 7968     		ldr	r1, [r7, #4]
 729 0494 896B     		ldr	r1, [r1, #56]
 730 0496 4969     		ldr	r1, [r1, #20]
 731 0498 4FEA0161 		lsl	r1, r1, #24
 209:App/STM32F4-Discovery/Libraries/STM32F4xx_StdPeriph_Driver/src/stm32f4xx_fsmc.c ****               (FSMC_NORSRAMInitStruct->FSMC_WriteTimingStruct->FSMC_CLKDivision << 20) |
 732              		.loc 1 209 0
 733 049c 0843     		orrs	r0, r0, r1
 211:App/STM32F4-Discovery/Libraries/STM32F4xx_StdPeriph_Driver/src/stm32f4xx_fsmc.c ****                FSMC_NORSRAMInitStruct->FSMC_WriteTimingStruct->FSMC_AccessMode;
 734              		.loc 1 211 0
 735 049e 7968     		ldr	r1, [r7, #4]
 736 04a0 896B     		ldr	r1, [r1, #56]
 737 04a2 8969     		ldr	r1, [r1, #24]
 210:App/STM32F4-Discovery/Libraries/STM32F4xx_StdPeriph_Driver/src/stm32f4xx_fsmc.c ****               (FSMC_NORSRAMInitStruct->FSMC_WriteTimingStruct->FSMC_DataLatency << 24) |
 738              		.loc 1 210 0
 739 04a4 0143     		orrs	r1, r1, r0
 205:App/STM32F4-Discovery/Libraries/STM32F4xx_StdPeriph_Driver/src/stm32f4xx_fsmc.c ****     FSMC_Bank1E->BWTR[FSMC_NORSRAMInitStruct->FSMC_Bank] = 
 740              		.loc 1 205 0
 741 04a6 43F82210 		str	r1, [r3, r2, lsl #2]
 742 04aa 09E0     		b	.L5
 743              	.L28:
 212:App/STM32F4-Discovery/Libraries/STM32F4xx_StdPeriph_Driver/src/stm32f4xx_fsmc.c ****   }
 213:App/STM32F4-Discovery/Libraries/STM32F4xx_StdPeriph_Driver/src/stm32f4xx_fsmc.c ****   else
 214:App/STM32F4-Discovery/Libraries/STM32F4xx_StdPeriph_Driver/src/stm32f4xx_fsmc.c ****   {
 215:App/STM32F4-Discovery/Libraries/STM32F4xx_StdPeriph_Driver/src/stm32f4xx_fsmc.c ****     FSMC_Bank1E->BWTR[FSMC_NORSRAMInitStruct->FSMC_Bank] = 0x0FFFFFFF;
 744              		.loc 1 215 0
 745 04ac 4FF48273 		mov	r3, #260
 746 04b0 CAF20003 		movt	r3, 40960
 747 04b4 7A68     		ldr	r2, [r7, #4]
 748 04b6 1268     		ldr	r2, [r2, #0]
 749 04b8 6FF07041 		mvn	r1, #-268435456
 750 04bc 43F82210 		str	r1, [r3, r2, lsl #2]
 751              	.L5:
 216:App/STM32F4-Discovery/Libraries/STM32F4xx_StdPeriph_Driver/src/stm32f4xx_fsmc.c ****   }
 217:App/STM32F4-Discovery/Libraries/STM32F4xx_StdPeriph_Driver/src/stm32f4xx_fsmc.c **** }
 752              		.loc 1 217 0
 753 04c0 07F10807 		add	r7, r7, #8
 754 04c4 BD46     		mov	sp, r7
 755 04c6 80BD     		pop	{r7, pc}
 756              		.cfi_endproc
 757              	.LFE111:
 759              		.section	.text.FSMC_NORSRAMStructInit,"ax",%progbits
 760              		.align	2
 761              		.global	FSMC_NORSRAMStructInit
 762              		.thumb
 763              		.thumb_func
 765              	FSMC_NORSRAMStructInit:
 766              	.LFB112:
 218:App/STM32F4-Discovery/Libraries/STM32F4xx_StdPeriph_Driver/src/stm32f4xx_fsmc.c **** 
 219:App/STM32F4-Discovery/Libraries/STM32F4xx_StdPeriph_Driver/src/stm32f4xx_fsmc.c **** /**
 220:App/STM32F4-Discovery/Libraries/STM32F4xx_StdPeriph_Driver/src/stm32f4xx_fsmc.c ****   * @brief  Fills each FSMC_NORSRAMInitStruct member with its default value.
 221:App/STM32F4-Discovery/Libraries/STM32F4xx_StdPeriph_Driver/src/stm32f4xx_fsmc.c ****   * @param  FSMC_NORSRAMInitStruct: pointer to a FSMC_NORSRAMInitTypeDef structure 
 222:App/STM32F4-Discovery/Libraries/STM32F4xx_StdPeriph_Driver/src/stm32f4xx_fsmc.c ****   *         which will be initialized.
 223:App/STM32F4-Discovery/Libraries/STM32F4xx_StdPeriph_Driver/src/stm32f4xx_fsmc.c ****   * @retval None
 224:App/STM32F4-Discovery/Libraries/STM32F4xx_StdPeriph_Driver/src/stm32f4xx_fsmc.c ****   */
 225:App/STM32F4-Discovery/Libraries/STM32F4xx_StdPeriph_Driver/src/stm32f4xx_fsmc.c **** void FSMC_NORSRAMStructInit(FSMC_NORSRAMInitTypeDef* FSMC_NORSRAMInitStruct)
 226:App/STM32F4-Discovery/Libraries/STM32F4xx_StdPeriph_Driver/src/stm32f4xx_fsmc.c **** {  
 767              		.loc 1 226 0
 768              		.cfi_startproc
 769              		@ args = 0, pretend = 0, frame = 8
 770              		@ frame_needed = 1, uses_anonymous_args = 0
 771              		@ link register save eliminated.
 772 0000 80B4     		push	{r7}
 773              	.LCFI6:
 774              		.cfi_def_cfa_offset 4
 775              		.cfi_offset 7, -4
 776 0002 83B0     		sub	sp, sp, #12
 777              	.LCFI7:
 778              		.cfi_def_cfa_offset 16
 779 0004 00AF     		add	r7, sp, #0
 780              	.LCFI8:
 781              		.cfi_def_cfa_register 7
 782 0006 7860     		str	r0, [r7, #4]
 227:App/STM32F4-Discovery/Libraries/STM32F4xx_StdPeriph_Driver/src/stm32f4xx_fsmc.c ****   /* Reset NOR/SRAM Init structure parameters values */
 228:App/STM32F4-Discovery/Libraries/STM32F4xx_StdPeriph_Driver/src/stm32f4xx_fsmc.c ****   FSMC_NORSRAMInitStruct->FSMC_Bank = FSMC_Bank1_NORSRAM1;
 783              		.loc 1 228 0
 784 0008 7B68     		ldr	r3, [r7, #4]
 785 000a 4FF00002 		mov	r2, #0
 786 000e 1A60     		str	r2, [r3, #0]
 229:App/STM32F4-Discovery/Libraries/STM32F4xx_StdPeriph_Driver/src/stm32f4xx_fsmc.c ****   FSMC_NORSRAMInitStruct->FSMC_DataAddressMux = FSMC_DataAddressMux_Enable;
 787              		.loc 1 229 0
 788 0010 7B68     		ldr	r3, [r7, #4]
 789 0012 4FF00202 		mov	r2, #2
 790 0016 5A60     		str	r2, [r3, #4]
 230:App/STM32F4-Discovery/Libraries/STM32F4xx_StdPeriph_Driver/src/stm32f4xx_fsmc.c ****   FSMC_NORSRAMInitStruct->FSMC_MemoryType = FSMC_MemoryType_SRAM;
 791              		.loc 1 230 0
 792 0018 7B68     		ldr	r3, [r7, #4]
 793 001a 4FF00002 		mov	r2, #0
 794 001e 9A60     		str	r2, [r3, #8]
 231:App/STM32F4-Discovery/Libraries/STM32F4xx_StdPeriph_Driver/src/stm32f4xx_fsmc.c ****   FSMC_NORSRAMInitStruct->FSMC_MemoryDataWidth = FSMC_MemoryDataWidth_8b;
 795              		.loc 1 231 0
 796 0020 7B68     		ldr	r3, [r7, #4]
 797 0022 4FF00002 		mov	r2, #0
 798 0026 DA60     		str	r2, [r3, #12]
 232:App/STM32F4-Discovery/Libraries/STM32F4xx_StdPeriph_Driver/src/stm32f4xx_fsmc.c ****   FSMC_NORSRAMInitStruct->FSMC_BurstAccessMode = FSMC_BurstAccessMode_Disable;
 799              		.loc 1 232 0
 800 0028 7B68     		ldr	r3, [r7, #4]
 801 002a 4FF00002 		mov	r2, #0
 802 002e 1A61     		str	r2, [r3, #16]
 233:App/STM32F4-Discovery/Libraries/STM32F4xx_StdPeriph_Driver/src/stm32f4xx_fsmc.c ****   FSMC_NORSRAMInitStruct->FSMC_AsynchronousWait = FSMC_AsynchronousWait_Disable;
 803              		.loc 1 233 0
 804 0030 7B68     		ldr	r3, [r7, #4]
 805 0032 4FF00002 		mov	r2, #0
 806 0036 5A61     		str	r2, [r3, #20]
 234:App/STM32F4-Discovery/Libraries/STM32F4xx_StdPeriph_Driver/src/stm32f4xx_fsmc.c ****   FSMC_NORSRAMInitStruct->FSMC_WaitSignalPolarity = FSMC_WaitSignalPolarity_Low;
 807              		.loc 1 234 0
 808 0038 7B68     		ldr	r3, [r7, #4]
 809 003a 4FF00002 		mov	r2, #0
 810 003e 9A61     		str	r2, [r3, #24]
 235:App/STM32F4-Discovery/Libraries/STM32F4xx_StdPeriph_Driver/src/stm32f4xx_fsmc.c ****   FSMC_NORSRAMInitStruct->FSMC_WrapMode = FSMC_WrapMode_Disable;
 811              		.loc 1 235 0
 812 0040 7B68     		ldr	r3, [r7, #4]
 813 0042 4FF00002 		mov	r2, #0
 814 0046 DA61     		str	r2, [r3, #28]
 236:App/STM32F4-Discovery/Libraries/STM32F4xx_StdPeriph_Driver/src/stm32f4xx_fsmc.c ****   FSMC_NORSRAMInitStruct->FSMC_WaitSignalActive = FSMC_WaitSignalActive_BeforeWaitState;
 815              		.loc 1 236 0
 816 0048 7B68     		ldr	r3, [r7, #4]
 817 004a 4FF00002 		mov	r2, #0
 818 004e 1A62     		str	r2, [r3, #32]
 237:App/STM32F4-Discovery/Libraries/STM32F4xx_StdPeriph_Driver/src/stm32f4xx_fsmc.c ****   FSMC_NORSRAMInitStruct->FSMC_WriteOperation = FSMC_WriteOperation_Enable;
 819              		.loc 1 237 0
 820 0050 7B68     		ldr	r3, [r7, #4]
 821 0052 4FF48052 		mov	r2, #4096
 822 0056 5A62     		str	r2, [r3, #36]
 238:App/STM32F4-Discovery/Libraries/STM32F4xx_StdPeriph_Driver/src/stm32f4xx_fsmc.c ****   FSMC_NORSRAMInitStruct->FSMC_WaitSignal = FSMC_WaitSignal_Enable;
 823              		.loc 1 238 0
 824 0058 7B68     		ldr	r3, [r7, #4]
 825 005a 4FF40052 		mov	r2, #8192
 826 005e 9A62     		str	r2, [r3, #40]
 239:App/STM32F4-Discovery/Libraries/STM32F4xx_StdPeriph_Driver/src/stm32f4xx_fsmc.c ****   FSMC_NORSRAMInitStruct->FSMC_ExtendedMode = FSMC_ExtendedMode_Disable;
 827              		.loc 1 239 0
 828 0060 7B68     		ldr	r3, [r7, #4]
 829 0062 4FF00002 		mov	r2, #0
 830 0066 DA62     		str	r2, [r3, #44]
 240:App/STM32F4-Discovery/Libraries/STM32F4xx_StdPeriph_Driver/src/stm32f4xx_fsmc.c ****   FSMC_NORSRAMInitStruct->FSMC_WriteBurst = FSMC_WriteBurst_Disable;
 831              		.loc 1 240 0
 832 0068 7B68     		ldr	r3, [r7, #4]
 833 006a 4FF00002 		mov	r2, #0
 834 006e 1A63     		str	r2, [r3, #48]
 241:App/STM32F4-Discovery/Libraries/STM32F4xx_StdPeriph_Driver/src/stm32f4xx_fsmc.c ****   FSMC_NORSRAMInitStruct->FSMC_ReadWriteTimingStruct->FSMC_AddressSetupTime = 0xF;
 835              		.loc 1 241 0
 836 0070 7B68     		ldr	r3, [r7, #4]
 837 0072 5B6B     		ldr	r3, [r3, #52]
 838 0074 4FF00F02 		mov	r2, #15
 839 0078 1A60     		str	r2, [r3, #0]
 242:App/STM32F4-Discovery/Libraries/STM32F4xx_StdPeriph_Driver/src/stm32f4xx_fsmc.c ****   FSMC_NORSRAMInitStruct->FSMC_ReadWriteTimingStruct->FSMC_AddressHoldTime = 0xF;
 840              		.loc 1 242 0
 841 007a 7B68     		ldr	r3, [r7, #4]
 842 007c 5B6B     		ldr	r3, [r3, #52]
 843 007e 4FF00F02 		mov	r2, #15
 844 0082 5A60     		str	r2, [r3, #4]
 243:App/STM32F4-Discovery/Libraries/STM32F4xx_StdPeriph_Driver/src/stm32f4xx_fsmc.c ****   FSMC_NORSRAMInitStruct->FSMC_ReadWriteTimingStruct->FSMC_DataSetupTime = 0xFF;
 845              		.loc 1 243 0
 846 0084 7B68     		ldr	r3, [r7, #4]
 847 0086 5B6B     		ldr	r3, [r3, #52]
 848 0088 4FF0FF02 		mov	r2, #255
 849 008c 9A60     		str	r2, [r3, #8]
 244:App/STM32F4-Discovery/Libraries/STM32F4xx_StdPeriph_Driver/src/stm32f4xx_fsmc.c ****   FSMC_NORSRAMInitStruct->FSMC_ReadWriteTimingStruct->FSMC_BusTurnAroundDuration = 0xF;
 850              		.loc 1 244 0
 851 008e 7B68     		ldr	r3, [r7, #4]
 852 0090 5B6B     		ldr	r3, [r3, #52]
 853 0092 4FF00F02 		mov	r2, #15
 854 0096 DA60     		str	r2, [r3, #12]
 245:App/STM32F4-Discovery/Libraries/STM32F4xx_StdPeriph_Driver/src/stm32f4xx_fsmc.c ****   FSMC_NORSRAMInitStruct->FSMC_ReadWriteTimingStruct->FSMC_CLKDivision = 0xF;
 855              		.loc 1 245 0
 856 0098 7B68     		ldr	r3, [r7, #4]
 857 009a 5B6B     		ldr	r3, [r3, #52]
 858 009c 4FF00F02 		mov	r2, #15
 859 00a0 1A61     		str	r2, [r3, #16]
 246:App/STM32F4-Discovery/Libraries/STM32F4xx_StdPeriph_Driver/src/stm32f4xx_fsmc.c ****   FSMC_NORSRAMInitStruct->FSMC_ReadWriteTimingStruct->FSMC_DataLatency = 0xF;
 860              		.loc 1 246 0
 861 00a2 7B68     		ldr	r3, [r7, #4]
 862 00a4 5B6B     		ldr	r3, [r3, #52]
 863 00a6 4FF00F02 		mov	r2, #15
 864 00aa 5A61     		str	r2, [r3, #20]
 247:App/STM32F4-Discovery/Libraries/STM32F4xx_StdPeriph_Driver/src/stm32f4xx_fsmc.c ****   FSMC_NORSRAMInitStruct->FSMC_ReadWriteTimingStruct->FSMC_AccessMode = FSMC_AccessMode_A; 
 865              		.loc 1 247 0
 866 00ac 7B68     		ldr	r3, [r7, #4]
 867 00ae 5B6B     		ldr	r3, [r3, #52]
 868 00b0 4FF00002 		mov	r2, #0
 869 00b4 9A61     		str	r2, [r3, #24]
 248:App/STM32F4-Discovery/Libraries/STM32F4xx_StdPeriph_Driver/src/stm32f4xx_fsmc.c ****   FSMC_NORSRAMInitStruct->FSMC_WriteTimingStruct->FSMC_AddressSetupTime = 0xF;
 870              		.loc 1 248 0
 871 00b6 7B68     		ldr	r3, [r7, #4]
 872 00b8 9B6B     		ldr	r3, [r3, #56]
 873 00ba 4FF00F02 		mov	r2, #15
 874 00be 1A60     		str	r2, [r3, #0]
 249:App/STM32F4-Discovery/Libraries/STM32F4xx_StdPeriph_Driver/src/stm32f4xx_fsmc.c ****   FSMC_NORSRAMInitStruct->FSMC_WriteTimingStruct->FSMC_AddressHoldTime = 0xF;
 875              		.loc 1 249 0
 876 00c0 7B68     		ldr	r3, [r7, #4]
 877 00c2 9B6B     		ldr	r3, [r3, #56]
 878 00c4 4FF00F02 		mov	r2, #15
 879 00c8 5A60     		str	r2, [r3, #4]
 250:App/STM32F4-Discovery/Libraries/STM32F4xx_StdPeriph_Driver/src/stm32f4xx_fsmc.c ****   FSMC_NORSRAMInitStruct->FSMC_WriteTimingStruct->FSMC_DataSetupTime = 0xFF;
 880              		.loc 1 250 0
 881 00ca 7B68     		ldr	r3, [r7, #4]
 882 00cc 9B6B     		ldr	r3, [r3, #56]
 883 00ce 4FF0FF02 		mov	r2, #255
 884 00d2 9A60     		str	r2, [r3, #8]
 251:App/STM32F4-Discovery/Libraries/STM32F4xx_StdPeriph_Driver/src/stm32f4xx_fsmc.c ****   FSMC_NORSRAMInitStruct->FSMC_WriteTimingStruct->FSMC_BusTurnAroundDuration = 0xF;
 885              		.loc 1 251 0
 886 00d4 7B68     		ldr	r3, [r7, #4]
 887 00d6 9B6B     		ldr	r3, [r3, #56]
 888 00d8 4FF00F02 		mov	r2, #15
 889 00dc DA60     		str	r2, [r3, #12]
 252:App/STM32F4-Discovery/Libraries/STM32F4xx_StdPeriph_Driver/src/stm32f4xx_fsmc.c ****   FSMC_NORSRAMInitStruct->FSMC_WriteTimingStruct->FSMC_CLKDivision = 0xF;
 890              		.loc 1 252 0
 891 00de 7B68     		ldr	r3, [r7, #4]
 892 00e0 9B6B     		ldr	r3, [r3, #56]
 893 00e2 4FF00F02 		mov	r2, #15
 894 00e6 1A61     		str	r2, [r3, #16]
 253:App/STM32F4-Discovery/Libraries/STM32F4xx_StdPeriph_Driver/src/stm32f4xx_fsmc.c ****   FSMC_NORSRAMInitStruct->FSMC_WriteTimingStruct->FSMC_DataLatency = 0xF;
 895              		.loc 1 253 0
 896 00e8 7B68     		ldr	r3, [r7, #4]
 897 00ea 9B6B     		ldr	r3, [r3, #56]
 898 00ec 4FF00F02 		mov	r2, #15
 899 00f0 5A61     		str	r2, [r3, #20]
 254:App/STM32F4-Discovery/Libraries/STM32F4xx_StdPeriph_Driver/src/stm32f4xx_fsmc.c ****   FSMC_NORSRAMInitStruct->FSMC_WriteTimingStruct->FSMC_AccessMode = FSMC_AccessMode_A;
 900              		.loc 1 254 0
 901 00f2 7B68     		ldr	r3, [r7, #4]
 902 00f4 9B6B     		ldr	r3, [r3, #56]
 903 00f6 4FF00002 		mov	r2, #0
 904 00fa 9A61     		str	r2, [r3, #24]
 255:App/STM32F4-Discovery/Libraries/STM32F4xx_StdPeriph_Driver/src/stm32f4xx_fsmc.c **** }
 905              		.loc 1 255 0
 906 00fc 07F10C07 		add	r7, r7, #12
 907 0100 BD46     		mov	sp, r7
 908 0102 80BC     		pop	{r7}
 909 0104 7047     		bx	lr
 910              		.cfi_endproc
 911              	.LFE112:
 913 0106 00BF     		.section	.text.FSMC_NORSRAMCmd,"ax",%progbits
 914              		.align	2
 915              		.global	FSMC_NORSRAMCmd
 916              		.thumb
 917              		.thumb_func
 919              	FSMC_NORSRAMCmd:
 920              	.LFB113:
 256:App/STM32F4-Discovery/Libraries/STM32F4xx_StdPeriph_Driver/src/stm32f4xx_fsmc.c **** 
 257:App/STM32F4-Discovery/Libraries/STM32F4xx_StdPeriph_Driver/src/stm32f4xx_fsmc.c **** /**
 258:App/STM32F4-Discovery/Libraries/STM32F4xx_StdPeriph_Driver/src/stm32f4xx_fsmc.c ****   * @brief  Enables or disables the specified NOR/SRAM Memory Bank.
 259:App/STM32F4-Discovery/Libraries/STM32F4xx_StdPeriph_Driver/src/stm32f4xx_fsmc.c ****   * @param  FSMC_Bank: specifies the FSMC Bank to be used
 260:App/STM32F4-Discovery/Libraries/STM32F4xx_StdPeriph_Driver/src/stm32f4xx_fsmc.c ****   *          This parameter can be one of the following values:
 261:App/STM32F4-Discovery/Libraries/STM32F4xx_StdPeriph_Driver/src/stm32f4xx_fsmc.c ****   *            @arg FSMC_Bank1_NORSRAM1: FSMC Bank1 NOR/SRAM1  
 262:App/STM32F4-Discovery/Libraries/STM32F4xx_StdPeriph_Driver/src/stm32f4xx_fsmc.c ****   *            @arg FSMC_Bank1_NORSRAM2: FSMC Bank1 NOR/SRAM2 
 263:App/STM32F4-Discovery/Libraries/STM32F4xx_StdPeriph_Driver/src/stm32f4xx_fsmc.c ****   *            @arg FSMC_Bank1_NORSRAM3: FSMC Bank1 NOR/SRAM3 
 264:App/STM32F4-Discovery/Libraries/STM32F4xx_StdPeriph_Driver/src/stm32f4xx_fsmc.c ****   *            @arg FSMC_Bank1_NORSRAM4: FSMC Bank1 NOR/SRAM4 
 265:App/STM32F4-Discovery/Libraries/STM32F4xx_StdPeriph_Driver/src/stm32f4xx_fsmc.c ****   * @param  NewState: new state of the FSMC_Bank. This parameter can be: ENABLE or DISABLE.
 266:App/STM32F4-Discovery/Libraries/STM32F4xx_StdPeriph_Driver/src/stm32f4xx_fsmc.c ****   * @retval None
 267:App/STM32F4-Discovery/Libraries/STM32F4xx_StdPeriph_Driver/src/stm32f4xx_fsmc.c ****   */
 268:App/STM32F4-Discovery/Libraries/STM32F4xx_StdPeriph_Driver/src/stm32f4xx_fsmc.c **** void FSMC_NORSRAMCmd(uint32_t FSMC_Bank, FunctionalState NewState)
 269:App/STM32F4-Discovery/Libraries/STM32F4xx_StdPeriph_Driver/src/stm32f4xx_fsmc.c **** {
 921              		.loc 1 269 0
 922              		.cfi_startproc
 923              		@ args = 0, pretend = 0, frame = 8
 924              		@ frame_needed = 1, uses_anonymous_args = 0
 925 0000 80B5     		push	{r7, lr}
 926              	.LCFI9:
 927              		.cfi_def_cfa_offset 8
 928              		.cfi_offset 7, -8
 929              		.cfi_offset 14, -4
 930 0002 82B0     		sub	sp, sp, #8
 931              	.LCFI10:
 932              		.cfi_def_cfa_offset 16
 933 0004 00AF     		add	r7, sp, #0
 934              	.LCFI11:
 935              		.cfi_def_cfa_register 7
 936 0006 7860     		str	r0, [r7, #4]
 937 0008 0B46     		mov	r3, r1
 938 000a FB70     		strb	r3, [r7, #3]
 270:App/STM32F4-Discovery/Libraries/STM32F4xx_StdPeriph_Driver/src/stm32f4xx_fsmc.c ****   assert_param(IS_FSMC_NORSRAM_BANK(FSMC_Bank));
 939              		.loc 1 270 0
 940 000c 7B68     		ldr	r3, [r7, #4]
 941 000e 002B     		cmp	r3, #0
 942 0010 10D0     		beq	.L39
 943              		.loc 1 270 0 is_stmt 0 discriminator 1
 944 0012 7B68     		ldr	r3, [r7, #4]
 945 0014 022B     		cmp	r3, #2
 946 0016 0DD0     		beq	.L39
 947              		.loc 1 270 0 discriminator 2
 948 0018 7B68     		ldr	r3, [r7, #4]
 949 001a 042B     		cmp	r3, #4
 950 001c 0AD0     		beq	.L39
 951              		.loc 1 270 0 discriminator 3
 952 001e 7B68     		ldr	r3, [r7, #4]
 953 0020 062B     		cmp	r3, #6
 954 0022 07D0     		beq	.L39
 955              		.loc 1 270 0 discriminator 4
 956 0024 40F20000 		movw	r0, #:lower16:.LC0
 957 0028 C0F20000 		movt	r0, #:upper16:.LC0
 958 002c 4FF48771 		mov	r1, #270
 959 0030 FFF7FEFF 		bl	assert_failed
 960              	.L39:
 271:App/STM32F4-Discovery/Libraries/STM32F4xx_StdPeriph_Driver/src/stm32f4xx_fsmc.c ****   assert_param(IS_FUNCTIONAL_STATE(NewState));
 961              		.loc 1 271 0 is_stmt 1
 962 0034 FB78     		ldrb	r3, [r7, #3]	@ zero_extendqisi2
 963 0036 002B     		cmp	r3, #0
 964 0038 0AD0     		beq	.L40
 965              		.loc 1 271 0 is_stmt 0 discriminator 1
 966 003a FB78     		ldrb	r3, [r7, #3]	@ zero_extendqisi2
 967 003c 012B     		cmp	r3, #1
 968 003e 07D0     		beq	.L40
 969              		.loc 1 271 0 discriminator 2
 970 0040 40F20000 		movw	r0, #:lower16:.LC0
 971 0044 C0F20000 		movt	r0, #:upper16:.LC0
 972 0048 40F20F11 		movw	r1, #271
 973 004c FFF7FEFF 		bl	assert_failed
 974              	.L40:
 272:App/STM32F4-Discovery/Libraries/STM32F4xx_StdPeriph_Driver/src/stm32f4xx_fsmc.c ****   
 273:App/STM32F4-Discovery/Libraries/STM32F4xx_StdPeriph_Driver/src/stm32f4xx_fsmc.c ****   if (NewState != DISABLE)
 975              		.loc 1 273 0 is_stmt 1
 976 0050 FB78     		ldrb	r3, [r7, #3]	@ zero_extendqisi2
 977 0052 002B     		cmp	r3, #0
 978 0054 0CD0     		beq	.L41
 274:App/STM32F4-Discovery/Libraries/STM32F4xx_StdPeriph_Driver/src/stm32f4xx_fsmc.c ****   {
 275:App/STM32F4-Discovery/Libraries/STM32F4xx_StdPeriph_Driver/src/stm32f4xx_fsmc.c ****     /* Enable the selected NOR/SRAM Bank by setting the PBKEN bit in the BCRx register */
 276:App/STM32F4-Discovery/Libraries/STM32F4xx_StdPeriph_Driver/src/stm32f4xx_fsmc.c ****     FSMC_Bank1->BTCR[FSMC_Bank] |= BCR_MBKEN_SET;
 979              		.loc 1 276 0
 980 0056 4FF02043 		mov	r3, #-1610612736
 981 005a 4FF02042 		mov	r2, #-1610612736
 982 005e 7968     		ldr	r1, [r7, #4]
 983 0060 52F82120 		ldr	r2, [r2, r1, lsl #2]
 984 0064 42F00101 		orr	r1, r2, #1
 985 0068 7A68     		ldr	r2, [r7, #4]
 986 006a 43F82210 		str	r1, [r3, r2, lsl #2]
 987 006e 0EE0     		b	.L38
 988              	.L41:
 277:App/STM32F4-Discovery/Libraries/STM32F4xx_StdPeriph_Driver/src/stm32f4xx_fsmc.c ****   }
 278:App/STM32F4-Discovery/Libraries/STM32F4xx_StdPeriph_Driver/src/stm32f4xx_fsmc.c ****   else
 279:App/STM32F4-Discovery/Libraries/STM32F4xx_StdPeriph_Driver/src/stm32f4xx_fsmc.c ****   {
 280:App/STM32F4-Discovery/Libraries/STM32F4xx_StdPeriph_Driver/src/stm32f4xx_fsmc.c ****     /* Disable the selected NOR/SRAM Bank by clearing the PBKEN bit in the BCRx register */
 281:App/STM32F4-Discovery/Libraries/STM32F4xx_StdPeriph_Driver/src/stm32f4xx_fsmc.c ****     FSMC_Bank1->BTCR[FSMC_Bank] &= BCR_MBKEN_RESET;
 989              		.loc 1 281 0
 990 0070 4FF02042 		mov	r2, #-1610612736
 991 0074 4FF02043 		mov	r3, #-1610612736
 992 0078 7968     		ldr	r1, [r7, #4]
 993 007a 53F82110 		ldr	r1, [r3, r1, lsl #2]
 994 007e 4FF6FE73 		movw	r3, #65534
 995 0082 C0F20F03 		movt	r3, 15
 996 0086 0B40     		ands	r3, r3, r1
 997 0088 7968     		ldr	r1, [r7, #4]
 998 008a 42F82130 		str	r3, [r2, r1, lsl #2]
 999              	.L38:
 282:App/STM32F4-Discovery/Libraries/STM32F4xx_StdPeriph_Driver/src/stm32f4xx_fsmc.c ****   }
 283:App/STM32F4-Discovery/Libraries/STM32F4xx_StdPeriph_Driver/src/stm32f4xx_fsmc.c **** }
 1000              		.loc 1 283 0
 1001 008e 07F10807 		add	r7, r7, #8
 1002 0092 BD46     		mov	sp, r7
 1003 0094 80BD     		pop	{r7, pc}
 1004              		.cfi_endproc
 1005              	.LFE113:
 1007 0096 00BF     		.section	.text.FSMC_NANDDeInit,"ax",%progbits
 1008              		.align	2
 1009              		.global	FSMC_NANDDeInit
 1010              		.thumb
 1011              		.thumb_func
 1013              	FSMC_NANDDeInit:
 1014              	.LFB114:
 284:App/STM32F4-Discovery/Libraries/STM32F4xx_StdPeriph_Driver/src/stm32f4xx_fsmc.c **** /**
 285:App/STM32F4-Discovery/Libraries/STM32F4xx_StdPeriph_Driver/src/stm32f4xx_fsmc.c ****   * @}
 286:App/STM32F4-Discovery/Libraries/STM32F4xx_StdPeriph_Driver/src/stm32f4xx_fsmc.c ****   */
 287:App/STM32F4-Discovery/Libraries/STM32F4xx_StdPeriph_Driver/src/stm32f4xx_fsmc.c **** 
 288:App/STM32F4-Discovery/Libraries/STM32F4xx_StdPeriph_Driver/src/stm32f4xx_fsmc.c **** /** @defgroup FSMC_Group2 NAND Controller functions
 289:App/STM32F4-Discovery/Libraries/STM32F4xx_StdPeriph_Driver/src/stm32f4xx_fsmc.c ****  *  @brief   NAND Controller functions 
 290:App/STM32F4-Discovery/Libraries/STM32F4xx_StdPeriph_Driver/src/stm32f4xx_fsmc.c ****  *
 291:App/STM32F4-Discovery/Libraries/STM32F4xx_StdPeriph_Driver/src/stm32f4xx_fsmc.c **** @verbatim   
 292:App/STM32F4-Discovery/Libraries/STM32F4xx_StdPeriph_Driver/src/stm32f4xx_fsmc.c ****  ===============================================================================
 293:App/STM32F4-Discovery/Libraries/STM32F4xx_StdPeriph_Driver/src/stm32f4xx_fsmc.c ****                     NAND Controller functions
 294:App/STM32F4-Discovery/Libraries/STM32F4xx_StdPeriph_Driver/src/stm32f4xx_fsmc.c ****  ===============================================================================  
 295:App/STM32F4-Discovery/Libraries/STM32F4xx_StdPeriph_Driver/src/stm32f4xx_fsmc.c **** 
 296:App/STM32F4-Discovery/Libraries/STM32F4xx_StdPeriph_Driver/src/stm32f4xx_fsmc.c ****  The following sequence should be followed to configure the FSMC to interface with
 297:App/STM32F4-Discovery/Libraries/STM32F4xx_StdPeriph_Driver/src/stm32f4xx_fsmc.c ****  8-bit or 16-bit NAND memory connected to the NAND Bank:
 298:App/STM32F4-Discovery/Libraries/STM32F4xx_StdPeriph_Driver/src/stm32f4xx_fsmc.c ****  
 299:App/STM32F4-Discovery/Libraries/STM32F4xx_StdPeriph_Driver/src/stm32f4xx_fsmc.c ****    1. Enable the clock for the FSMC and associated GPIOs using the following functions:
 300:App/STM32F4-Discovery/Libraries/STM32F4xx_StdPeriph_Driver/src/stm32f4xx_fsmc.c ****           RCC_AHB3PeriphClockCmd(RCC_AHB3Periph_FSMC, ENABLE);
 301:App/STM32F4-Discovery/Libraries/STM32F4xx_StdPeriph_Driver/src/stm32f4xx_fsmc.c ****           RCC_AHB1PeriphClockCmd(RCC_AHB1Periph_GPIOx, ENABLE);
 302:App/STM32F4-Discovery/Libraries/STM32F4xx_StdPeriph_Driver/src/stm32f4xx_fsmc.c **** 
 303:App/STM32F4-Discovery/Libraries/STM32F4xx_StdPeriph_Driver/src/stm32f4xx_fsmc.c ****    2. FSMC pins configuration 
 304:App/STM32F4-Discovery/Libraries/STM32F4xx_StdPeriph_Driver/src/stm32f4xx_fsmc.c ****        - Connect the involved FSMC pins to AF12 using the following function 
 305:App/STM32F4-Discovery/Libraries/STM32F4xx_StdPeriph_Driver/src/stm32f4xx_fsmc.c ****           GPIO_PinAFConfig(GPIOx, GPIO_PinSourcex, GPIO_AF_FSMC); 
 306:App/STM32F4-Discovery/Libraries/STM32F4xx_StdPeriph_Driver/src/stm32f4xx_fsmc.c ****        - Configure these FSMC pins in alternate function mode by calling the function
 307:App/STM32F4-Discovery/Libraries/STM32F4xx_StdPeriph_Driver/src/stm32f4xx_fsmc.c ****           GPIO_Init();    
 308:App/STM32F4-Discovery/Libraries/STM32F4xx_StdPeriph_Driver/src/stm32f4xx_fsmc.c ****        
 309:App/STM32F4-Discovery/Libraries/STM32F4xx_StdPeriph_Driver/src/stm32f4xx_fsmc.c ****    3. Declare a FSMC_NANDInitTypeDef structure, for example:
 310:App/STM32F4-Discovery/Libraries/STM32F4xx_StdPeriph_Driver/src/stm32f4xx_fsmc.c ****           FSMC_NANDInitTypeDef  FSMC_NANDInitStructure;
 311:App/STM32F4-Discovery/Libraries/STM32F4xx_StdPeriph_Driver/src/stm32f4xx_fsmc.c ****       and fill the FSMC_NANDInitStructure variable with the allowed values of
 312:App/STM32F4-Discovery/Libraries/STM32F4xx_StdPeriph_Driver/src/stm32f4xx_fsmc.c ****       the structure member.
 313:App/STM32F4-Discovery/Libraries/STM32F4xx_StdPeriph_Driver/src/stm32f4xx_fsmc.c ****       
 314:App/STM32F4-Discovery/Libraries/STM32F4xx_StdPeriph_Driver/src/stm32f4xx_fsmc.c ****    4. Initialize the NAND Controller by calling the function
 315:App/STM32F4-Discovery/Libraries/STM32F4xx_StdPeriph_Driver/src/stm32f4xx_fsmc.c ****           FSMC_NANDInit(&FSMC_NANDInitStructure); 
 316:App/STM32F4-Discovery/Libraries/STM32F4xx_StdPeriph_Driver/src/stm32f4xx_fsmc.c **** 
 317:App/STM32F4-Discovery/Libraries/STM32F4xx_StdPeriph_Driver/src/stm32f4xx_fsmc.c ****    5. Then enable the NAND Bank, for example:
 318:App/STM32F4-Discovery/Libraries/STM32F4xx_StdPeriph_Driver/src/stm32f4xx_fsmc.c ****           FSMC_NANDCmd(FSMC_Bank3_NAND, ENABLE);  
 319:App/STM32F4-Discovery/Libraries/STM32F4xx_StdPeriph_Driver/src/stm32f4xx_fsmc.c **** 
 320:App/STM32F4-Discovery/Libraries/STM32F4xx_StdPeriph_Driver/src/stm32f4xx_fsmc.c ****    6. At this stage you can read/write from/to the memory connected to the NAND Bank. 
 321:App/STM32F4-Discovery/Libraries/STM32F4xx_StdPeriph_Driver/src/stm32f4xx_fsmc.c ****    
 322:App/STM32F4-Discovery/Libraries/STM32F4xx_StdPeriph_Driver/src/stm32f4xx_fsmc.c **** @note To enable the Error Correction Code (ECC), you have to use the function
 323:App/STM32F4-Discovery/Libraries/STM32F4xx_StdPeriph_Driver/src/stm32f4xx_fsmc.c ****           FSMC_NANDECCCmd(FSMC_Bank3_NAND, ENABLE);  
 324:App/STM32F4-Discovery/Libraries/STM32F4xx_StdPeriph_Driver/src/stm32f4xx_fsmc.c ****       and to get the current ECC value you have to use the function
 325:App/STM32F4-Discovery/Libraries/STM32F4xx_StdPeriph_Driver/src/stm32f4xx_fsmc.c ****           ECCval = FSMC_GetECC(FSMC_Bank3_NAND); 
 326:App/STM32F4-Discovery/Libraries/STM32F4xx_StdPeriph_Driver/src/stm32f4xx_fsmc.c **** 
 327:App/STM32F4-Discovery/Libraries/STM32F4xx_StdPeriph_Driver/src/stm32f4xx_fsmc.c **** @endverbatim
 328:App/STM32F4-Discovery/Libraries/STM32F4xx_StdPeriph_Driver/src/stm32f4xx_fsmc.c ****   * @{
 329:App/STM32F4-Discovery/Libraries/STM32F4xx_StdPeriph_Driver/src/stm32f4xx_fsmc.c ****   */
 330:App/STM32F4-Discovery/Libraries/STM32F4xx_StdPeriph_Driver/src/stm32f4xx_fsmc.c ****   
 331:App/STM32F4-Discovery/Libraries/STM32F4xx_StdPeriph_Driver/src/stm32f4xx_fsmc.c **** /**
 332:App/STM32F4-Discovery/Libraries/STM32F4xx_StdPeriph_Driver/src/stm32f4xx_fsmc.c ****   * @brief  Deinitializes the FSMC NAND Banks registers to their default reset values.
 333:App/STM32F4-Discovery/Libraries/STM32F4xx_StdPeriph_Driver/src/stm32f4xx_fsmc.c ****   * @param  FSMC_Bank: specifies the FSMC Bank to be used
 334:App/STM32F4-Discovery/Libraries/STM32F4xx_StdPeriph_Driver/src/stm32f4xx_fsmc.c ****   *          This parameter can be one of the following values:
 335:App/STM32F4-Discovery/Libraries/STM32F4xx_StdPeriph_Driver/src/stm32f4xx_fsmc.c ****   *            @arg FSMC_Bank2_NAND: FSMC Bank2 NAND 
 336:App/STM32F4-Discovery/Libraries/STM32F4xx_StdPeriph_Driver/src/stm32f4xx_fsmc.c ****   *            @arg FSMC_Bank3_NAND: FSMC Bank3 NAND 
 337:App/STM32F4-Discovery/Libraries/STM32F4xx_StdPeriph_Driver/src/stm32f4xx_fsmc.c ****   * @retval None
 338:App/STM32F4-Discovery/Libraries/STM32F4xx_StdPeriph_Driver/src/stm32f4xx_fsmc.c ****   */
 339:App/STM32F4-Discovery/Libraries/STM32F4xx_StdPeriph_Driver/src/stm32f4xx_fsmc.c **** void FSMC_NANDDeInit(uint32_t FSMC_Bank)
 340:App/STM32F4-Discovery/Libraries/STM32F4xx_StdPeriph_Driver/src/stm32f4xx_fsmc.c **** {
 1015              		.loc 1 340 0
 1016              		.cfi_startproc
 1017              		@ args = 0, pretend = 0, frame = 8
 1018              		@ frame_needed = 1, uses_anonymous_args = 0
 1019 0000 80B5     		push	{r7, lr}
 1020              	.LCFI12:
 1021              		.cfi_def_cfa_offset 8
 1022              		.cfi_offset 7, -8
 1023              		.cfi_offset 14, -4
 1024 0002 82B0     		sub	sp, sp, #8
 1025              	.LCFI13:
 1026              		.cfi_def_cfa_offset 16
 1027 0004 00AF     		add	r7, sp, #0
 1028              	.LCFI14:
 1029              		.cfi_def_cfa_register 7
 1030 0006 7860     		str	r0, [r7, #4]
 341:App/STM32F4-Discovery/Libraries/STM32F4xx_StdPeriph_Driver/src/stm32f4xx_fsmc.c ****   /* Check the parameter */
 342:App/STM32F4-Discovery/Libraries/STM32F4xx_StdPeriph_Driver/src/stm32f4xx_fsmc.c ****   assert_param(IS_FSMC_NAND_BANK(FSMC_Bank));
 1031              		.loc 1 342 0
 1032 0008 7B68     		ldr	r3, [r7, #4]
 1033 000a 102B     		cmp	r3, #16
 1034 000c 0BD0     		beq	.L44
 1035              		.loc 1 342 0 is_stmt 0 discriminator 1
 1036 000e 7B68     		ldr	r3, [r7, #4]
 1037 0010 B3F5807F 		cmp	r3, #256
 1038 0014 07D0     		beq	.L44
 1039              		.loc 1 342 0 discriminator 2
 1040 0016 40F20000 		movw	r0, #:lower16:.LC0
 1041 001a C0F20000 		movt	r0, #:upper16:.LC0
 1042 001e 4FF4AB71 		mov	r1, #342
 1043 0022 FFF7FEFF 		bl	assert_failed
 1044              	.L44:
 343:App/STM32F4-Discovery/Libraries/STM32F4xx_StdPeriph_Driver/src/stm32f4xx_fsmc.c ****   
 344:App/STM32F4-Discovery/Libraries/STM32F4xx_StdPeriph_Driver/src/stm32f4xx_fsmc.c ****   if(FSMC_Bank == FSMC_Bank2_NAND)
 1045              		.loc 1 344 0 is_stmt 1
 1046 0026 7B68     		ldr	r3, [r7, #4]
 1047 0028 102B     		cmp	r3, #16
 1048 002a 1CD1     		bne	.L45
 345:App/STM32F4-Discovery/Libraries/STM32F4xx_StdPeriph_Driver/src/stm32f4xx_fsmc.c ****   {
 346:App/STM32F4-Discovery/Libraries/STM32F4xx_StdPeriph_Driver/src/stm32f4xx_fsmc.c ****     /* Set the FSMC_Bank2 registers to their reset values */
 347:App/STM32F4-Discovery/Libraries/STM32F4xx_StdPeriph_Driver/src/stm32f4xx_fsmc.c ****     FSMC_Bank2->PCR2 = 0x00000018;
 1049              		.loc 1 347 0
 1050 002c 4FF06003 		mov	r3, #96
 1051 0030 CAF20003 		movt	r3, 40960
 1052 0034 4FF01802 		mov	r2, #24
 1053 0038 1A60     		str	r2, [r3, #0]
 348:App/STM32F4-Discovery/Libraries/STM32F4xx_StdPeriph_Driver/src/stm32f4xx_fsmc.c ****     FSMC_Bank2->SR2 = 0x00000040;
 1054              		.loc 1 348 0
 1055 003a 4FF06003 		mov	r3, #96
 1056 003e CAF20003 		movt	r3, 40960
 1057 0042 4FF04002 		mov	r2, #64
 1058 0046 5A60     		str	r2, [r3, #4]
 349:App/STM32F4-Discovery/Libraries/STM32F4xx_StdPeriph_Driver/src/stm32f4xx_fsmc.c ****     FSMC_Bank2->PMEM2 = 0xFCFCFCFC;
 1059              		.loc 1 349 0
 1060 0048 4FF06003 		mov	r3, #96
 1061 004c CAF20003 		movt	r3, 40960
 1062 0050 4FF0FC32 		mov	r2, #-50529028
 1063 0054 9A60     		str	r2, [r3, #8]
 350:App/STM32F4-Discovery/Libraries/STM32F4xx_StdPeriph_Driver/src/stm32f4xx_fsmc.c ****     FSMC_Bank2->PATT2 = 0xFCFCFCFC;  
 1064              		.loc 1 350 0
 1065 0056 4FF06003 		mov	r3, #96
 1066 005a CAF20003 		movt	r3, 40960
 1067 005e 4FF0FC32 		mov	r2, #-50529028
 1068 0062 DA60     		str	r2, [r3, #12]
 1069 0064 1BE0     		b	.L43
 1070              	.L45:
 351:App/STM32F4-Discovery/Libraries/STM32F4xx_StdPeriph_Driver/src/stm32f4xx_fsmc.c ****   }
 352:App/STM32F4-Discovery/Libraries/STM32F4xx_StdPeriph_Driver/src/stm32f4xx_fsmc.c ****   /* FSMC_Bank3_NAND */  
 353:App/STM32F4-Discovery/Libraries/STM32F4xx_StdPeriph_Driver/src/stm32f4xx_fsmc.c ****   else
 354:App/STM32F4-Discovery/Libraries/STM32F4xx_StdPeriph_Driver/src/stm32f4xx_fsmc.c ****   {
 355:App/STM32F4-Discovery/Libraries/STM32F4xx_StdPeriph_Driver/src/stm32f4xx_fsmc.c ****     /* Set the FSMC_Bank3 registers to their reset values */
 356:App/STM32F4-Discovery/Libraries/STM32F4xx_StdPeriph_Driver/src/stm32f4xx_fsmc.c ****     FSMC_Bank3->PCR3 = 0x00000018;
 1071              		.loc 1 356 0
 1072 0066 4FF08003 		mov	r3, #128
 1073 006a CAF20003 		movt	r3, 40960
 1074 006e 4FF01802 		mov	r2, #24
 1075 0072 1A60     		str	r2, [r3, #0]
 357:App/STM32F4-Discovery/Libraries/STM32F4xx_StdPeriph_Driver/src/stm32f4xx_fsmc.c ****     FSMC_Bank3->SR3 = 0x00000040;
 1076              		.loc 1 357 0
 1077 0074 4FF08003 		mov	r3, #128
 1078 0078 CAF20003 		movt	r3, 40960
 1079 007c 4FF04002 		mov	r2, #64
 1080 0080 5A60     		str	r2, [r3, #4]
 358:App/STM32F4-Discovery/Libraries/STM32F4xx_StdPeriph_Driver/src/stm32f4xx_fsmc.c ****     FSMC_Bank3->PMEM3 = 0xFCFCFCFC;
 1081              		.loc 1 358 0
 1082 0082 4FF08003 		mov	r3, #128
 1083 0086 CAF20003 		movt	r3, 40960
 1084 008a 4FF0FC32 		mov	r2, #-50529028
 1085 008e 9A60     		str	r2, [r3, #8]
 359:App/STM32F4-Discovery/Libraries/STM32F4xx_StdPeriph_Driver/src/stm32f4xx_fsmc.c ****     FSMC_Bank3->PATT3 = 0xFCFCFCFC; 
 1086              		.loc 1 359 0
 1087 0090 4FF08003 		mov	r3, #128
 1088 0094 CAF20003 		movt	r3, 40960
 1089 0098 4FF0FC32 		mov	r2, #-50529028
 1090 009c DA60     		str	r2, [r3, #12]
 1091              	.L43:
 360:App/STM32F4-Discovery/Libraries/STM32F4xx_StdPeriph_Driver/src/stm32f4xx_fsmc.c ****   }  
 361:App/STM32F4-Discovery/Libraries/STM32F4xx_StdPeriph_Driver/src/stm32f4xx_fsmc.c **** }
 1092              		.loc 1 361 0
 1093 009e 07F10807 		add	r7, r7, #8
 1094 00a2 BD46     		mov	sp, r7
 1095 00a4 80BD     		pop	{r7, pc}
 1096              		.cfi_endproc
 1097              	.LFE114:
 1099 00a6 00BF     		.section	.text.FSMC_NANDInit,"ax",%progbits
 1100              		.align	2
 1101              		.global	FSMC_NANDInit
 1102              		.thumb
 1103              		.thumb_func
 1105              	FSMC_NANDInit:
 1106              	.LFB115:
 362:App/STM32F4-Discovery/Libraries/STM32F4xx_StdPeriph_Driver/src/stm32f4xx_fsmc.c **** 
 363:App/STM32F4-Discovery/Libraries/STM32F4xx_StdPeriph_Driver/src/stm32f4xx_fsmc.c **** /**
 364:App/STM32F4-Discovery/Libraries/STM32F4xx_StdPeriph_Driver/src/stm32f4xx_fsmc.c ****   * @brief  Initializes the FSMC NAND Banks according to the specified parameters
 365:App/STM32F4-Discovery/Libraries/STM32F4xx_StdPeriph_Driver/src/stm32f4xx_fsmc.c ****   *         in the FSMC_NANDInitStruct.
 366:App/STM32F4-Discovery/Libraries/STM32F4xx_StdPeriph_Driver/src/stm32f4xx_fsmc.c ****   * @param  FSMC_NANDInitStruct : pointer to a FSMC_NANDInitTypeDef structure that
 367:App/STM32F4-Discovery/Libraries/STM32F4xx_StdPeriph_Driver/src/stm32f4xx_fsmc.c ****   *         contains the configuration information for the FSMC NAND specified Banks.              
 368:App/STM32F4-Discovery/Libraries/STM32F4xx_StdPeriph_Driver/src/stm32f4xx_fsmc.c ****   * @retval None
 369:App/STM32F4-Discovery/Libraries/STM32F4xx_StdPeriph_Driver/src/stm32f4xx_fsmc.c ****   */
 370:App/STM32F4-Discovery/Libraries/STM32F4xx_StdPeriph_Driver/src/stm32f4xx_fsmc.c **** void FSMC_NANDInit(FSMC_NANDInitTypeDef* FSMC_NANDInitStruct)
 371:App/STM32F4-Discovery/Libraries/STM32F4xx_StdPeriph_Driver/src/stm32f4xx_fsmc.c **** {
 1107              		.loc 1 371 0
 1108              		.cfi_startproc
 1109              		@ args = 0, pretend = 0, frame = 24
 1110              		@ frame_needed = 1, uses_anonymous_args = 0
 1111 0000 80B5     		push	{r7, lr}
 1112              	.LCFI15:
 1113              		.cfi_def_cfa_offset 8
 1114              		.cfi_offset 7, -8
 1115              		.cfi_offset 14, -4
 1116 0002 86B0     		sub	sp, sp, #24
 1117              	.LCFI16:
 1118              		.cfi_def_cfa_offset 32
 1119 0004 00AF     		add	r7, sp, #0
 1120              	.LCFI17:
 1121              		.cfi_def_cfa_register 7
 1122 0006 7860     		str	r0, [r7, #4]
 372:App/STM32F4-Discovery/Libraries/STM32F4xx_StdPeriph_Driver/src/stm32f4xx_fsmc.c ****   uint32_t tmppcr = 0x00000000, tmppmem = 0x00000000, tmppatt = 0x00000000; 
 1123              		.loc 1 372 0
 1124 0008 4FF00003 		mov	r3, #0
 1125 000c 7B61     		str	r3, [r7, #20]
 1126 000e 4FF00003 		mov	r3, #0
 1127 0012 3B61     		str	r3, [r7, #16]
 1128 0014 4FF00003 		mov	r3, #0
 1129 0018 FB60     		str	r3, [r7, #12]
 373:App/STM32F4-Discovery/Libraries/STM32F4xx_StdPeriph_Driver/src/stm32f4xx_fsmc.c ****     
 374:App/STM32F4-Discovery/Libraries/STM32F4xx_StdPeriph_Driver/src/stm32f4xx_fsmc.c ****   /* Check the parameters */
 375:App/STM32F4-Discovery/Libraries/STM32F4xx_StdPeriph_Driver/src/stm32f4xx_fsmc.c ****   assert_param( IS_FSMC_NAND_BANK(FSMC_NANDInitStruct->FSMC_Bank));
 1130              		.loc 1 375 0
 1131 001a 7B68     		ldr	r3, [r7, #4]
 1132 001c 1B68     		ldr	r3, [r3, #0]
 1133 001e 102B     		cmp	r3, #16
 1134 0020 0CD0     		beq	.L48
 1135              		.loc 1 375 0 is_stmt 0 discriminator 1
 1136 0022 7B68     		ldr	r3, [r7, #4]
 1137 0024 1B68     		ldr	r3, [r3, #0]
 1138 0026 B3F5807F 		cmp	r3, #256
 1139 002a 07D0     		beq	.L48
 1140              		.loc 1 375 0 discriminator 2
 1141 002c 40F20000 		movw	r0, #:lower16:.LC0
 1142 0030 C0F20000 		movt	r0, #:upper16:.LC0
 1143 0034 40F27711 		movw	r1, #375
 1144 0038 FFF7FEFF 		bl	assert_failed
 1145              	.L48:
 376:App/STM32F4-Discovery/Libraries/STM32F4xx_StdPeriph_Driver/src/stm32f4xx_fsmc.c ****   assert_param( IS_FSMC_WAIT_FEATURE(FSMC_NANDInitStruct->FSMC_Waitfeature));
 1146              		.loc 1 376 0 is_stmt 1
 1147 003c 7B68     		ldr	r3, [r7, #4]
 1148 003e 5B68     		ldr	r3, [r3, #4]
 1149 0040 002B     		cmp	r3, #0
 1150 0042 0BD0     		beq	.L49
 1151              		.loc 1 376 0 is_stmt 0 discriminator 1
 1152 0044 7B68     		ldr	r3, [r7, #4]
 1153 0046 5B68     		ldr	r3, [r3, #4]
 1154 0048 022B     		cmp	r3, #2
 1155 004a 07D0     		beq	.L49
 1156              		.loc 1 376 0 discriminator 2
 1157 004c 40F20000 		movw	r0, #:lower16:.LC0
 1158 0050 C0F20000 		movt	r0, #:upper16:.LC0
 1159 0054 4FF4BC71 		mov	r1, #376
 1160 0058 FFF7FEFF 		bl	assert_failed
 1161              	.L49:
 377:App/STM32F4-Discovery/Libraries/STM32F4xx_StdPeriph_Driver/src/stm32f4xx_fsmc.c ****   assert_param( IS_FSMC_MEMORY_WIDTH(FSMC_NANDInitStruct->FSMC_MemoryDataWidth));
 1162              		.loc 1 377 0 is_stmt 1
 1163 005c 7B68     		ldr	r3, [r7, #4]
 1164 005e 9B68     		ldr	r3, [r3, #8]
 1165 0060 002B     		cmp	r3, #0
 1166 0062 0BD0     		beq	.L50
 1167              		.loc 1 377 0 is_stmt 0 discriminator 1
 1168 0064 7B68     		ldr	r3, [r7, #4]
 1169 0066 9B68     		ldr	r3, [r3, #8]
 1170 0068 102B     		cmp	r3, #16
 1171 006a 07D0     		beq	.L50
 1172              		.loc 1 377 0 discriminator 2
 1173 006c 40F20000 		movw	r0, #:lower16:.LC0
 1174 0070 C0F20000 		movt	r0, #:upper16:.LC0
 1175 0074 40F27911 		movw	r1, #377
 1176 0078 FFF7FEFF 		bl	assert_failed
 1177              	.L50:
 378:App/STM32F4-Discovery/Libraries/STM32F4xx_StdPeriph_Driver/src/stm32f4xx_fsmc.c ****   assert_param( IS_FSMC_ECC_STATE(FSMC_NANDInitStruct->FSMC_ECC));
 1178              		.loc 1 378 0 is_stmt 1
 1179 007c 7B68     		ldr	r3, [r7, #4]
 1180 007e DB68     		ldr	r3, [r3, #12]
 1181 0080 002B     		cmp	r3, #0
 1182 0082 0BD0     		beq	.L51
 1183              		.loc 1 378 0 is_stmt 0 discriminator 1
 1184 0084 7B68     		ldr	r3, [r7, #4]
 1185 0086 DB68     		ldr	r3, [r3, #12]
 1186 0088 402B     		cmp	r3, #64
 1187 008a 07D0     		beq	.L51
 1188              		.loc 1 378 0 discriminator 2
 1189 008c 40F20000 		movw	r0, #:lower16:.LC0
 1190 0090 C0F20000 		movt	r0, #:upper16:.LC0
 1191 0094 4FF4BD71 		mov	r1, #378
 1192 0098 FFF7FEFF 		bl	assert_failed
 1193              	.L51:
 379:App/STM32F4-Discovery/Libraries/STM32F4xx_StdPeriph_Driver/src/stm32f4xx_fsmc.c ****   assert_param( IS_FSMC_ECCPAGE_SIZE(FSMC_NANDInitStruct->FSMC_ECCPageSize));
 1194              		.loc 1 379 0 is_stmt 1
 1195 009c 7B68     		ldr	r3, [r7, #4]
 1196 009e 1B69     		ldr	r3, [r3, #16]
 1197 00a0 002B     		cmp	r3, #0
 1198 00a2 20D0     		beq	.L52
 1199              		.loc 1 379 0 is_stmt 0 discriminator 1
 1200 00a4 7B68     		ldr	r3, [r7, #4]
 1201 00a6 1B69     		ldr	r3, [r3, #16]
 1202 00a8 B3F5003F 		cmp	r3, #131072
 1203 00ac 1BD0     		beq	.L52
 1204              		.loc 1 379 0 discriminator 2
 1205 00ae 7B68     		ldr	r3, [r7, #4]
 1206 00b0 1B69     		ldr	r3, [r3, #16]
 1207 00b2 B3F5802F 		cmp	r3, #262144
 1208 00b6 16D0     		beq	.L52
 1209              		.loc 1 379 0 discriminator 3
 1210 00b8 7B68     		ldr	r3, [r7, #4]
 1211 00ba 1B69     		ldr	r3, [r3, #16]
 1212 00bc B3F5C02F 		cmp	r3, #393216
 1213 00c0 11D0     		beq	.L52
 1214              		.loc 1 379 0 discriminator 4
 1215 00c2 7B68     		ldr	r3, [r7, #4]
 1216 00c4 1B69     		ldr	r3, [r3, #16]
 1217 00c6 B3F5002F 		cmp	r3, #524288
 1218 00ca 0CD0     		beq	.L52
 1219              		.loc 1 379 0 discriminator 5
 1220 00cc 7B68     		ldr	r3, [r7, #4]
 1221 00ce 1B69     		ldr	r3, [r3, #16]
 1222 00d0 B3F5202F 		cmp	r3, #655360
 1223 00d4 07D0     		beq	.L52
 1224              		.loc 1 379 0 discriminator 6
 1225 00d6 40F20000 		movw	r0, #:lower16:.LC0
 1226 00da C0F20000 		movt	r0, #:upper16:.LC0
 1227 00de 40F27B11 		movw	r1, #379
 1228 00e2 FFF7FEFF 		bl	assert_failed
 1229              	.L52:
 380:App/STM32F4-Discovery/Libraries/STM32F4xx_StdPeriph_Driver/src/stm32f4xx_fsmc.c ****   assert_param( IS_FSMC_TCLR_TIME(FSMC_NANDInitStruct->FSMC_TCLRSetupTime));
 1230              		.loc 1 380 0 is_stmt 1
 1231 00e6 7B68     		ldr	r3, [r7, #4]
 1232 00e8 5B69     		ldr	r3, [r3, #20]
 1233 00ea FF2B     		cmp	r3, #255
 1234 00ec 07D9     		bls	.L53
 1235              		.loc 1 380 0 is_stmt 0 discriminator 1
 1236 00ee 40F20000 		movw	r0, #:lower16:.LC0
 1237 00f2 C0F20000 		movt	r0, #:upper16:.LC0
 1238 00f6 4FF4BE71 		mov	r1, #380
 1239 00fa FFF7FEFF 		bl	assert_failed
 1240              	.L53:
 381:App/STM32F4-Discovery/Libraries/STM32F4xx_StdPeriph_Driver/src/stm32f4xx_fsmc.c ****   assert_param( IS_FSMC_TAR_TIME(FSMC_NANDInitStruct->FSMC_TARSetupTime));
 1241              		.loc 1 381 0 is_stmt 1
 1242 00fe 7B68     		ldr	r3, [r7, #4]
 1243 0100 9B69     		ldr	r3, [r3, #24]
 1244 0102 FF2B     		cmp	r3, #255
 1245 0104 07D9     		bls	.L54
 1246              		.loc 1 381 0 is_stmt 0 discriminator 1
 1247 0106 40F20000 		movw	r0, #:lower16:.LC0
 1248 010a C0F20000 		movt	r0, #:upper16:.LC0
 1249 010e 40F27D11 		movw	r1, #381
 1250 0112 FFF7FEFF 		bl	assert_failed
 1251              	.L54:
 382:App/STM32F4-Discovery/Libraries/STM32F4xx_StdPeriph_Driver/src/stm32f4xx_fsmc.c ****   assert_param(IS_FSMC_SETUP_TIME(FSMC_NANDInitStruct->FSMC_CommonSpaceTimingStruct->FSMC_SetupTime
 1252              		.loc 1 382 0 is_stmt 1
 1253 0116 7B68     		ldr	r3, [r7, #4]
 1254 0118 DB69     		ldr	r3, [r3, #28]
 1255 011a 1B68     		ldr	r3, [r3, #0]
 1256 011c FF2B     		cmp	r3, #255
 1257 011e 07D9     		bls	.L55
 1258              		.loc 1 382 0 is_stmt 0 discriminator 1
 1259 0120 40F20000 		movw	r0, #:lower16:.LC0
 1260 0124 C0F20000 		movt	r0, #:upper16:.LC0
 1261 0128 4FF4BF71 		mov	r1, #382
 1262 012c FFF7FEFF 		bl	assert_failed
 1263              	.L55:
 383:App/STM32F4-Discovery/Libraries/STM32F4xx_StdPeriph_Driver/src/stm32f4xx_fsmc.c ****   assert_param(IS_FSMC_WAIT_TIME(FSMC_NANDInitStruct->FSMC_CommonSpaceTimingStruct->FSMC_WaitSetupT
 1264              		.loc 1 383 0 is_stmt 1
 1265 0130 7B68     		ldr	r3, [r7, #4]
 1266 0132 DB69     		ldr	r3, [r3, #28]
 1267 0134 5B68     		ldr	r3, [r3, #4]
 1268 0136 FF2B     		cmp	r3, #255
 1269 0138 07D9     		bls	.L56
 1270              		.loc 1 383 0 is_stmt 0 discriminator 1
 1271 013a 40F20000 		movw	r0, #:lower16:.LC0
 1272 013e C0F20000 		movt	r0, #:upper16:.LC0
 1273 0142 40F27F11 		movw	r1, #383
 1274 0146 FFF7FEFF 		bl	assert_failed
 1275              	.L56:
 384:App/STM32F4-Discovery/Libraries/STM32F4xx_StdPeriph_Driver/src/stm32f4xx_fsmc.c ****   assert_param(IS_FSMC_HOLD_TIME(FSMC_NANDInitStruct->FSMC_CommonSpaceTimingStruct->FSMC_HoldSetupT
 1276              		.loc 1 384 0 is_stmt 1
 1277 014a 7B68     		ldr	r3, [r7, #4]
 1278 014c DB69     		ldr	r3, [r3, #28]
 1279 014e 9B68     		ldr	r3, [r3, #8]
 1280 0150 FF2B     		cmp	r3, #255
 1281 0152 07D9     		bls	.L57
 1282              		.loc 1 384 0 is_stmt 0 discriminator 1
 1283 0154 40F20000 		movw	r0, #:lower16:.LC0
 1284 0158 C0F20000 		movt	r0, #:upper16:.LC0
 1285 015c 4FF4C071 		mov	r1, #384
 1286 0160 FFF7FEFF 		bl	assert_failed
 1287              	.L57:
 385:App/STM32F4-Discovery/Libraries/STM32F4xx_StdPeriph_Driver/src/stm32f4xx_fsmc.c ****   assert_param(IS_FSMC_HIZ_TIME(FSMC_NANDInitStruct->FSMC_CommonSpaceTimingStruct->FSMC_HiZSetupTim
 1288              		.loc 1 385 0 is_stmt 1
 1289 0164 7B68     		ldr	r3, [r7, #4]
 1290 0166 DB69     		ldr	r3, [r3, #28]
 1291 0168 DB68     		ldr	r3, [r3, #12]
 1292 016a FF2B     		cmp	r3, #255
 1293 016c 07D9     		bls	.L58
 1294              		.loc 1 385 0 is_stmt 0 discriminator 1
 1295 016e 40F20000 		movw	r0, #:lower16:.LC0
 1296 0172 C0F20000 		movt	r0, #:upper16:.LC0
 1297 0176 40F28111 		movw	r1, #385
 1298 017a FFF7FEFF 		bl	assert_failed
 1299              	.L58:
 386:App/STM32F4-Discovery/Libraries/STM32F4xx_StdPeriph_Driver/src/stm32f4xx_fsmc.c ****   assert_param(IS_FSMC_SETUP_TIME(FSMC_NANDInitStruct->FSMC_AttributeSpaceTimingStruct->FSMC_SetupT
 1300              		.loc 1 386 0 is_stmt 1
 1301 017e 7B68     		ldr	r3, [r7, #4]
 1302 0180 1B6A     		ldr	r3, [r3, #32]
 1303 0182 1B68     		ldr	r3, [r3, #0]
 1304 0184 FF2B     		cmp	r3, #255
 1305 0186 07D9     		bls	.L59
 1306              		.loc 1 386 0 is_stmt 0 discriminator 1
 1307 0188 40F20000 		movw	r0, #:lower16:.LC0
 1308 018c C0F20000 		movt	r0, #:upper16:.LC0
 1309 0190 4FF4C171 		mov	r1, #386
 1310 0194 FFF7FEFF 		bl	assert_failed
 1311              	.L59:
 387:App/STM32F4-Discovery/Libraries/STM32F4xx_StdPeriph_Driver/src/stm32f4xx_fsmc.c ****   assert_param(IS_FSMC_WAIT_TIME(FSMC_NANDInitStruct->FSMC_AttributeSpaceTimingStruct->FSMC_WaitSet
 1312              		.loc 1 387 0 is_stmt 1
 1313 0198 7B68     		ldr	r3, [r7, #4]
 1314 019a 1B6A     		ldr	r3, [r3, #32]
 1315 019c 5B68     		ldr	r3, [r3, #4]
 1316 019e FF2B     		cmp	r3, #255
 1317 01a0 07D9     		bls	.L60
 1318              		.loc 1 387 0 is_stmt 0 discriminator 1
 1319 01a2 40F20000 		movw	r0, #:lower16:.LC0
 1320 01a6 C0F20000 		movt	r0, #:upper16:.LC0
 1321 01aa 40F28311 		movw	r1, #387
 1322 01ae FFF7FEFF 		bl	assert_failed
 1323              	.L60:
 388:App/STM32F4-Discovery/Libraries/STM32F4xx_StdPeriph_Driver/src/stm32f4xx_fsmc.c ****   assert_param(IS_FSMC_HOLD_TIME(FSMC_NANDInitStruct->FSMC_AttributeSpaceTimingStruct->FSMC_HoldSet
 1324              		.loc 1 388 0 is_stmt 1
 1325 01b2 7B68     		ldr	r3, [r7, #4]
 1326 01b4 1B6A     		ldr	r3, [r3, #32]
 1327 01b6 9B68     		ldr	r3, [r3, #8]
 1328 01b8 FF2B     		cmp	r3, #255
 1329 01ba 07D9     		bls	.L61
 1330              		.loc 1 388 0 is_stmt 0 discriminator 1
 1331 01bc 40F20000 		movw	r0, #:lower16:.LC0
 1332 01c0 C0F20000 		movt	r0, #:upper16:.LC0
 1333 01c4 4FF4C271 		mov	r1, #388
 1334 01c8 FFF7FEFF 		bl	assert_failed
 1335              	.L61:
 389:App/STM32F4-Discovery/Libraries/STM32F4xx_StdPeriph_Driver/src/stm32f4xx_fsmc.c ****   assert_param(IS_FSMC_HIZ_TIME(FSMC_NANDInitStruct->FSMC_AttributeSpaceTimingStruct->FSMC_HiZSetup
 1336              		.loc 1 389 0 is_stmt 1
 1337 01cc 7B68     		ldr	r3, [r7, #4]
 1338 01ce 1B6A     		ldr	r3, [r3, #32]
 1339 01d0 DB68     		ldr	r3, [r3, #12]
 1340 01d2 FF2B     		cmp	r3, #255
 1341 01d4 07D9     		bls	.L62
 1342              		.loc 1 389 0 is_stmt 0 discriminator 1
 1343 01d6 40F20000 		movw	r0, #:lower16:.LC0
 1344 01da C0F20000 		movt	r0, #:upper16:.LC0
 1345 01de 40F28511 		movw	r1, #389
 1346 01e2 FFF7FEFF 		bl	assert_failed
 1347              	.L62:
 390:App/STM32F4-Discovery/Libraries/STM32F4xx_StdPeriph_Driver/src/stm32f4xx_fsmc.c ****   
 391:App/STM32F4-Discovery/Libraries/STM32F4xx_StdPeriph_Driver/src/stm32f4xx_fsmc.c ****   /* Set the tmppcr value according to FSMC_NANDInitStruct parameters */
 392:App/STM32F4-Discovery/Libraries/STM32F4xx_StdPeriph_Driver/src/stm32f4xx_fsmc.c ****   tmppcr = (uint32_t)FSMC_NANDInitStruct->FSMC_Waitfeature |
 1348              		.loc 1 392 0 is_stmt 1
 1349 01e6 7B68     		ldr	r3, [r7, #4]
 1350 01e8 5A68     		ldr	r2, [r3, #4]
 393:App/STM32F4-Discovery/Libraries/STM32F4xx_StdPeriph_Driver/src/stm32f4xx_fsmc.c ****             PCR_MEMORYTYPE_NAND |
 394:App/STM32F4-Discovery/Libraries/STM32F4xx_StdPeriph_Driver/src/stm32f4xx_fsmc.c ****             FSMC_NANDInitStruct->FSMC_MemoryDataWidth |
 1351              		.loc 1 394 0
 1352 01ea 7B68     		ldr	r3, [r7, #4]
 1353 01ec 9B68     		ldr	r3, [r3, #8]
 393:App/STM32F4-Discovery/Libraries/STM32F4xx_StdPeriph_Driver/src/stm32f4xx_fsmc.c ****             PCR_MEMORYTYPE_NAND |
 1354              		.loc 1 393 0
 1355 01ee 1A43     		orrs	r2, r2, r3
 395:App/STM32F4-Discovery/Libraries/STM32F4xx_StdPeriph_Driver/src/stm32f4xx_fsmc.c ****             FSMC_NANDInitStruct->FSMC_ECC |
 1356              		.loc 1 395 0
 1357 01f0 7B68     		ldr	r3, [r7, #4]
 1358 01f2 DB68     		ldr	r3, [r3, #12]
 394:App/STM32F4-Discovery/Libraries/STM32F4xx_StdPeriph_Driver/src/stm32f4xx_fsmc.c ****             FSMC_NANDInitStruct->FSMC_MemoryDataWidth |
 1359              		.loc 1 394 0
 1360 01f4 1A43     		orrs	r2, r2, r3
 396:App/STM32F4-Discovery/Libraries/STM32F4xx_StdPeriph_Driver/src/stm32f4xx_fsmc.c ****             FSMC_NANDInitStruct->FSMC_ECCPageSize |
 1361              		.loc 1 396 0
 1362 01f6 7B68     		ldr	r3, [r7, #4]
 1363 01f8 1B69     		ldr	r3, [r3, #16]
 395:App/STM32F4-Discovery/Libraries/STM32F4xx_StdPeriph_Driver/src/stm32f4xx_fsmc.c ****             FSMC_NANDInitStruct->FSMC_ECC |
 1364              		.loc 1 395 0
 1365 01fa 1A43     		orrs	r2, r2, r3
 397:App/STM32F4-Discovery/Libraries/STM32F4xx_StdPeriph_Driver/src/stm32f4xx_fsmc.c ****             (FSMC_NANDInitStruct->FSMC_TCLRSetupTime << 9 )|
 1366              		.loc 1 397 0
 1367 01fc 7B68     		ldr	r3, [r7, #4]
 1368 01fe 5B69     		ldr	r3, [r3, #20]
 1369 0200 4FEA4323 		lsl	r3, r3, #9
 396:App/STM32F4-Discovery/Libraries/STM32F4xx_StdPeriph_Driver/src/stm32f4xx_fsmc.c ****             FSMC_NANDInitStruct->FSMC_ECCPageSize |
 1370              		.loc 1 396 0
 1371 0204 1A43     		orrs	r2, r2, r3
 398:App/STM32F4-Discovery/Libraries/STM32F4xx_StdPeriph_Driver/src/stm32f4xx_fsmc.c ****             (FSMC_NANDInitStruct->FSMC_TARSetupTime << 13);
 1372              		.loc 1 398 0
 1373 0206 7B68     		ldr	r3, [r7, #4]
 1374 0208 9B69     		ldr	r3, [r3, #24]
 1375 020a 4FEA4333 		lsl	r3, r3, #13
 397:App/STM32F4-Discovery/Libraries/STM32F4xx_StdPeriph_Driver/src/stm32f4xx_fsmc.c ****             (FSMC_NANDInitStruct->FSMC_TCLRSetupTime << 9 )|
 1376              		.loc 1 397 0
 1377 020e 1343     		orrs	r3, r3, r2
 392:App/STM32F4-Discovery/Libraries/STM32F4xx_StdPeriph_Driver/src/stm32f4xx_fsmc.c ****   tmppcr = (uint32_t)FSMC_NANDInitStruct->FSMC_Waitfeature |
 1378              		.loc 1 392 0
 1379 0210 43F00803 		orr	r3, r3, #8
 1380 0214 7B61     		str	r3, [r7, #20]
 399:App/STM32F4-Discovery/Libraries/STM32F4xx_StdPeriph_Driver/src/stm32f4xx_fsmc.c ****             
 400:App/STM32F4-Discovery/Libraries/STM32F4xx_StdPeriph_Driver/src/stm32f4xx_fsmc.c ****   /* Set tmppmem value according to FSMC_CommonSpaceTimingStructure parameters */
 401:App/STM32F4-Discovery/Libraries/STM32F4xx_StdPeriph_Driver/src/stm32f4xx_fsmc.c ****   tmppmem = (uint32_t)FSMC_NANDInitStruct->FSMC_CommonSpaceTimingStruct->FSMC_SetupTime |
 1381              		.loc 1 401 0
 1382 0216 7B68     		ldr	r3, [r7, #4]
 1383 0218 DB69     		ldr	r3, [r3, #28]
 1384 021a 1A68     		ldr	r2, [r3, #0]
 402:App/STM32F4-Discovery/Libraries/STM32F4xx_StdPeriph_Driver/src/stm32f4xx_fsmc.c ****             (FSMC_NANDInitStruct->FSMC_CommonSpaceTimingStruct->FSMC_WaitSetupTime << 8) |
 1385              		.loc 1 402 0
 1386 021c 7B68     		ldr	r3, [r7, #4]
 1387 021e DB69     		ldr	r3, [r3, #28]
 1388 0220 5B68     		ldr	r3, [r3, #4]
 1389 0222 4FEA0323 		lsl	r3, r3, #8
 401:App/STM32F4-Discovery/Libraries/STM32F4xx_StdPeriph_Driver/src/stm32f4xx_fsmc.c ****   tmppmem = (uint32_t)FSMC_NANDInitStruct->FSMC_CommonSpaceTimingStruct->FSMC_SetupTime |
 1390              		.loc 1 401 0
 1391 0226 1A43     		orrs	r2, r2, r3
 403:App/STM32F4-Discovery/Libraries/STM32F4xx_StdPeriph_Driver/src/stm32f4xx_fsmc.c ****             (FSMC_NANDInitStruct->FSMC_CommonSpaceTimingStruct->FSMC_HoldSetupTime << 16)|
 1392              		.loc 1 403 0
 1393 0228 7B68     		ldr	r3, [r7, #4]
 1394 022a DB69     		ldr	r3, [r3, #28]
 1395 022c 9B68     		ldr	r3, [r3, #8]
 1396 022e 4FEA0343 		lsl	r3, r3, #16
 402:App/STM32F4-Discovery/Libraries/STM32F4xx_StdPeriph_Driver/src/stm32f4xx_fsmc.c ****             (FSMC_NANDInitStruct->FSMC_CommonSpaceTimingStruct->FSMC_WaitSetupTime << 8) |
 1397              		.loc 1 402 0
 1398 0232 1A43     		orrs	r2, r2, r3
 404:App/STM32F4-Discovery/Libraries/STM32F4xx_StdPeriph_Driver/src/stm32f4xx_fsmc.c ****             (FSMC_NANDInitStruct->FSMC_CommonSpaceTimingStruct->FSMC_HiZSetupTime << 24); 
 1399              		.loc 1 404 0
 1400 0234 7B68     		ldr	r3, [r7, #4]
 1401 0236 DB69     		ldr	r3, [r3, #28]
 1402 0238 DB68     		ldr	r3, [r3, #12]
 1403 023a 4FEA0363 		lsl	r3, r3, #24
 401:App/STM32F4-Discovery/Libraries/STM32F4xx_StdPeriph_Driver/src/stm32f4xx_fsmc.c ****   tmppmem = (uint32_t)FSMC_NANDInitStruct->FSMC_CommonSpaceTimingStruct->FSMC_SetupTime |
 1404              		.loc 1 401 0
 1405 023e 1343     		orrs	r3, r3, r2
 1406 0240 3B61     		str	r3, [r7, #16]
 405:App/STM32F4-Discovery/Libraries/STM32F4xx_StdPeriph_Driver/src/stm32f4xx_fsmc.c ****             
 406:App/STM32F4-Discovery/Libraries/STM32F4xx_StdPeriph_Driver/src/stm32f4xx_fsmc.c ****   /* Set tmppatt value according to FSMC_AttributeSpaceTimingStructure parameters */
 407:App/STM32F4-Discovery/Libraries/STM32F4xx_StdPeriph_Driver/src/stm32f4xx_fsmc.c ****   tmppatt = (uint32_t)FSMC_NANDInitStruct->FSMC_AttributeSpaceTimingStruct->FSMC_SetupTime |
 1407              		.loc 1 407 0
 1408 0242 7B68     		ldr	r3, [r7, #4]
 1409 0244 1B6A     		ldr	r3, [r3, #32]
 1410 0246 1A68     		ldr	r2, [r3, #0]
 408:App/STM32F4-Discovery/Libraries/STM32F4xx_StdPeriph_Driver/src/stm32f4xx_fsmc.c ****             (FSMC_NANDInitStruct->FSMC_AttributeSpaceTimingStruct->FSMC_WaitSetupTime << 8) |
 1411              		.loc 1 408 0
 1412 0248 7B68     		ldr	r3, [r7, #4]
 1413 024a 1B6A     		ldr	r3, [r3, #32]
 1414 024c 5B68     		ldr	r3, [r3, #4]
 1415 024e 4FEA0323 		lsl	r3, r3, #8
 407:App/STM32F4-Discovery/Libraries/STM32F4xx_StdPeriph_Driver/src/stm32f4xx_fsmc.c ****   tmppatt = (uint32_t)FSMC_NANDInitStruct->FSMC_AttributeSpaceTimingStruct->FSMC_SetupTime |
 1416              		.loc 1 407 0
 1417 0252 1A43     		orrs	r2, r2, r3
 409:App/STM32F4-Discovery/Libraries/STM32F4xx_StdPeriph_Driver/src/stm32f4xx_fsmc.c ****             (FSMC_NANDInitStruct->FSMC_AttributeSpaceTimingStruct->FSMC_HoldSetupTime << 16)|
 1418              		.loc 1 409 0
 1419 0254 7B68     		ldr	r3, [r7, #4]
 1420 0256 1B6A     		ldr	r3, [r3, #32]
 1421 0258 9B68     		ldr	r3, [r3, #8]
 1422 025a 4FEA0343 		lsl	r3, r3, #16
 408:App/STM32F4-Discovery/Libraries/STM32F4xx_StdPeriph_Driver/src/stm32f4xx_fsmc.c ****             (FSMC_NANDInitStruct->FSMC_AttributeSpaceTimingStruct->FSMC_WaitSetupTime << 8) |
 1423              		.loc 1 408 0
 1424 025e 1A43     		orrs	r2, r2, r3
 410:App/STM32F4-Discovery/Libraries/STM32F4xx_StdPeriph_Driver/src/stm32f4xx_fsmc.c ****             (FSMC_NANDInitStruct->FSMC_AttributeSpaceTimingStruct->FSMC_HiZSetupTime << 24);
 1425              		.loc 1 410 0
 1426 0260 7B68     		ldr	r3, [r7, #4]
 1427 0262 1B6A     		ldr	r3, [r3, #32]
 1428 0264 DB68     		ldr	r3, [r3, #12]
 1429 0266 4FEA0363 		lsl	r3, r3, #24
 407:App/STM32F4-Discovery/Libraries/STM32F4xx_StdPeriph_Driver/src/stm32f4xx_fsmc.c ****   tmppatt = (uint32_t)FSMC_NANDInitStruct->FSMC_AttributeSpaceTimingStruct->FSMC_SetupTime |
 1430              		.loc 1 407 0
 1431 026a 1343     		orrs	r3, r3, r2
 1432 026c FB60     		str	r3, [r7, #12]
 411:App/STM32F4-Discovery/Libraries/STM32F4xx_StdPeriph_Driver/src/stm32f4xx_fsmc.c ****   
 412:App/STM32F4-Discovery/Libraries/STM32F4xx_StdPeriph_Driver/src/stm32f4xx_fsmc.c ****   if(FSMC_NANDInitStruct->FSMC_Bank == FSMC_Bank2_NAND)
 1433              		.loc 1 412 0
 1434 026e 7B68     		ldr	r3, [r7, #4]
 1435 0270 1B68     		ldr	r3, [r3, #0]
 1436 0272 102B     		cmp	r3, #16
 1437 0274 12D1     		bne	.L63
 413:App/STM32F4-Discovery/Libraries/STM32F4xx_StdPeriph_Driver/src/stm32f4xx_fsmc.c ****   {
 414:App/STM32F4-Discovery/Libraries/STM32F4xx_StdPeriph_Driver/src/stm32f4xx_fsmc.c ****     /* FSMC_Bank2_NAND registers configuration */
 415:App/STM32F4-Discovery/Libraries/STM32F4xx_StdPeriph_Driver/src/stm32f4xx_fsmc.c ****     FSMC_Bank2->PCR2 = tmppcr;
 1438              		.loc 1 415 0
 1439 0276 4FF06003 		mov	r3, #96
 1440 027a CAF20003 		movt	r3, 40960
 1441 027e 7A69     		ldr	r2, [r7, #20]
 1442 0280 1A60     		str	r2, [r3, #0]
 416:App/STM32F4-Discovery/Libraries/STM32F4xx_StdPeriph_Driver/src/stm32f4xx_fsmc.c ****     FSMC_Bank2->PMEM2 = tmppmem;
 1443              		.loc 1 416 0
 1444 0282 4FF06003 		mov	r3, #96
 1445 0286 CAF20003 		movt	r3, 40960
 1446 028a 3A69     		ldr	r2, [r7, #16]
 1447 028c 9A60     		str	r2, [r3, #8]
 417:App/STM32F4-Discovery/Libraries/STM32F4xx_StdPeriph_Driver/src/stm32f4xx_fsmc.c ****     FSMC_Bank2->PATT2 = tmppatt;
 1448              		.loc 1 417 0
 1449 028e 4FF06003 		mov	r3, #96
 1450 0292 CAF20003 		movt	r3, 40960
 1451 0296 FA68     		ldr	r2, [r7, #12]
 1452 0298 DA60     		str	r2, [r3, #12]
 1453 029a 11E0     		b	.L47
 1454              	.L63:
 418:App/STM32F4-Discovery/Libraries/STM32F4xx_StdPeriph_Driver/src/stm32f4xx_fsmc.c ****   }
 419:App/STM32F4-Discovery/Libraries/STM32F4xx_StdPeriph_Driver/src/stm32f4xx_fsmc.c ****   else
 420:App/STM32F4-Discovery/Libraries/STM32F4xx_StdPeriph_Driver/src/stm32f4xx_fsmc.c ****   {
 421:App/STM32F4-Discovery/Libraries/STM32F4xx_StdPeriph_Driver/src/stm32f4xx_fsmc.c ****     /* FSMC_Bank3_NAND registers configuration */
 422:App/STM32F4-Discovery/Libraries/STM32F4xx_StdPeriph_Driver/src/stm32f4xx_fsmc.c ****     FSMC_Bank3->PCR3 = tmppcr;
 1455              		.loc 1 422 0
 1456 029c 4FF08003 		mov	r3, #128
 1457 02a0 CAF20003 		movt	r3, 40960
 1458 02a4 7A69     		ldr	r2, [r7, #20]
 1459 02a6 1A60     		str	r2, [r3, #0]
 423:App/STM32F4-Discovery/Libraries/STM32F4xx_StdPeriph_Driver/src/stm32f4xx_fsmc.c ****     FSMC_Bank3->PMEM3 = tmppmem;
 1460              		.loc 1 423 0
 1461 02a8 4FF08003 		mov	r3, #128
 1462 02ac CAF20003 		movt	r3, 40960
 1463 02b0 3A69     		ldr	r2, [r7, #16]
 1464 02b2 9A60     		str	r2, [r3, #8]
 424:App/STM32F4-Discovery/Libraries/STM32F4xx_StdPeriph_Driver/src/stm32f4xx_fsmc.c ****     FSMC_Bank3->PATT3 = tmppatt;
 1465              		.loc 1 424 0
 1466 02b4 4FF08003 		mov	r3, #128
 1467 02b8 CAF20003 		movt	r3, 40960
 1468 02bc FA68     		ldr	r2, [r7, #12]
 1469 02be DA60     		str	r2, [r3, #12]
 1470              	.L47:
 425:App/STM32F4-Discovery/Libraries/STM32F4xx_StdPeriph_Driver/src/stm32f4xx_fsmc.c ****   }
 426:App/STM32F4-Discovery/Libraries/STM32F4xx_StdPeriph_Driver/src/stm32f4xx_fsmc.c **** }
 1471              		.loc 1 426 0
 1472 02c0 07F11807 		add	r7, r7, #24
 1473 02c4 BD46     		mov	sp, r7
 1474 02c6 80BD     		pop	{r7, pc}
 1475              		.cfi_endproc
 1476              	.LFE115:
 1478              		.section	.text.FSMC_NANDStructInit,"ax",%progbits
 1479              		.align	2
 1480              		.global	FSMC_NANDStructInit
 1481              		.thumb
 1482              		.thumb_func
 1484              	FSMC_NANDStructInit:
 1485              	.LFB116:
 427:App/STM32F4-Discovery/Libraries/STM32F4xx_StdPeriph_Driver/src/stm32f4xx_fsmc.c **** 
 428:App/STM32F4-Discovery/Libraries/STM32F4xx_StdPeriph_Driver/src/stm32f4xx_fsmc.c **** 
 429:App/STM32F4-Discovery/Libraries/STM32F4xx_StdPeriph_Driver/src/stm32f4xx_fsmc.c **** /**
 430:App/STM32F4-Discovery/Libraries/STM32F4xx_StdPeriph_Driver/src/stm32f4xx_fsmc.c ****   * @brief  Fills each FSMC_NANDInitStruct member with its default value.
 431:App/STM32F4-Discovery/Libraries/STM32F4xx_StdPeriph_Driver/src/stm32f4xx_fsmc.c ****   * @param  FSMC_NANDInitStruct: pointer to a FSMC_NANDInitTypeDef structure which
 432:App/STM32F4-Discovery/Libraries/STM32F4xx_StdPeriph_Driver/src/stm32f4xx_fsmc.c ****   *         will be initialized.
 433:App/STM32F4-Discovery/Libraries/STM32F4xx_StdPeriph_Driver/src/stm32f4xx_fsmc.c ****   * @retval None
 434:App/STM32F4-Discovery/Libraries/STM32F4xx_StdPeriph_Driver/src/stm32f4xx_fsmc.c ****   */
 435:App/STM32F4-Discovery/Libraries/STM32F4xx_StdPeriph_Driver/src/stm32f4xx_fsmc.c **** void FSMC_NANDStructInit(FSMC_NANDInitTypeDef* FSMC_NANDInitStruct)
 436:App/STM32F4-Discovery/Libraries/STM32F4xx_StdPeriph_Driver/src/stm32f4xx_fsmc.c **** { 
 1486              		.loc 1 436 0
 1487              		.cfi_startproc
 1488              		@ args = 0, pretend = 0, frame = 8
 1489              		@ frame_needed = 1, uses_anonymous_args = 0
 1490              		@ link register save eliminated.
 1491 0000 80B4     		push	{r7}
 1492              	.LCFI18:
 1493              		.cfi_def_cfa_offset 4
 1494              		.cfi_offset 7, -4
 1495 0002 83B0     		sub	sp, sp, #12
 1496              	.LCFI19:
 1497              		.cfi_def_cfa_offset 16
 1498 0004 00AF     		add	r7, sp, #0
 1499              	.LCFI20:
 1500              		.cfi_def_cfa_register 7
 1501 0006 7860     		str	r0, [r7, #4]
 437:App/STM32F4-Discovery/Libraries/STM32F4xx_StdPeriph_Driver/src/stm32f4xx_fsmc.c ****   /* Reset NAND Init structure parameters values */
 438:App/STM32F4-Discovery/Libraries/STM32F4xx_StdPeriph_Driver/src/stm32f4xx_fsmc.c ****   FSMC_NANDInitStruct->FSMC_Bank = FSMC_Bank2_NAND;
 1502              		.loc 1 438 0
 1503 0008 7B68     		ldr	r3, [r7, #4]
 1504 000a 4FF01002 		mov	r2, #16
 1505 000e 1A60     		str	r2, [r3, #0]
 439:App/STM32F4-Discovery/Libraries/STM32F4xx_StdPeriph_Driver/src/stm32f4xx_fsmc.c ****   FSMC_NANDInitStruct->FSMC_Waitfeature = FSMC_Waitfeature_Disable;
 1506              		.loc 1 439 0
 1507 0010 7B68     		ldr	r3, [r7, #4]
 1508 0012 4FF00002 		mov	r2, #0
 1509 0016 5A60     		str	r2, [r3, #4]
 440:App/STM32F4-Discovery/Libraries/STM32F4xx_StdPeriph_Driver/src/stm32f4xx_fsmc.c ****   FSMC_NANDInitStruct->FSMC_MemoryDataWidth = FSMC_MemoryDataWidth_8b;
 1510              		.loc 1 440 0
 1511 0018 7B68     		ldr	r3, [r7, #4]
 1512 001a 4FF00002 		mov	r2, #0
 1513 001e 9A60     		str	r2, [r3, #8]
 441:App/STM32F4-Discovery/Libraries/STM32F4xx_StdPeriph_Driver/src/stm32f4xx_fsmc.c ****   FSMC_NANDInitStruct->FSMC_ECC = FSMC_ECC_Disable;
 1514              		.loc 1 441 0
 1515 0020 7B68     		ldr	r3, [r7, #4]
 1516 0022 4FF00002 		mov	r2, #0
 1517 0026 DA60     		str	r2, [r3, #12]
 442:App/STM32F4-Discovery/Libraries/STM32F4xx_StdPeriph_Driver/src/stm32f4xx_fsmc.c ****   FSMC_NANDInitStruct->FSMC_ECCPageSize = FSMC_ECCPageSize_256Bytes;
 1518              		.loc 1 442 0
 1519 0028 7B68     		ldr	r3, [r7, #4]
 1520 002a 4FF00002 		mov	r2, #0
 1521 002e 1A61     		str	r2, [r3, #16]
 443:App/STM32F4-Discovery/Libraries/STM32F4xx_StdPeriph_Driver/src/stm32f4xx_fsmc.c ****   FSMC_NANDInitStruct->FSMC_TCLRSetupTime = 0x0;
 1522              		.loc 1 443 0
 1523 0030 7B68     		ldr	r3, [r7, #4]
 1524 0032 4FF00002 		mov	r2, #0
 1525 0036 5A61     		str	r2, [r3, #20]
 444:App/STM32F4-Discovery/Libraries/STM32F4xx_StdPeriph_Driver/src/stm32f4xx_fsmc.c ****   FSMC_NANDInitStruct->FSMC_TARSetupTime = 0x0;
 1526              		.loc 1 444 0
 1527 0038 7B68     		ldr	r3, [r7, #4]
 1528 003a 4FF00002 		mov	r2, #0
 1529 003e 9A61     		str	r2, [r3, #24]
 445:App/STM32F4-Discovery/Libraries/STM32F4xx_StdPeriph_Driver/src/stm32f4xx_fsmc.c ****   FSMC_NANDInitStruct->FSMC_CommonSpaceTimingStruct->FSMC_SetupTime = 0xFC;
 1530              		.loc 1 445 0
 1531 0040 7B68     		ldr	r3, [r7, #4]
 1532 0042 DB69     		ldr	r3, [r3, #28]
 1533 0044 4FF0FC02 		mov	r2, #252
 1534 0048 1A60     		str	r2, [r3, #0]
 446:App/STM32F4-Discovery/Libraries/STM32F4xx_StdPeriph_Driver/src/stm32f4xx_fsmc.c ****   FSMC_NANDInitStruct->FSMC_CommonSpaceTimingStruct->FSMC_WaitSetupTime = 0xFC;
 1535              		.loc 1 446 0
 1536 004a 7B68     		ldr	r3, [r7, #4]
 1537 004c DB69     		ldr	r3, [r3, #28]
 1538 004e 4FF0FC02 		mov	r2, #252
 1539 0052 5A60     		str	r2, [r3, #4]
 447:App/STM32F4-Discovery/Libraries/STM32F4xx_StdPeriph_Driver/src/stm32f4xx_fsmc.c ****   FSMC_NANDInitStruct->FSMC_CommonSpaceTimingStruct->FSMC_HoldSetupTime = 0xFC;
 1540              		.loc 1 447 0
 1541 0054 7B68     		ldr	r3, [r7, #4]
 1542 0056 DB69     		ldr	r3, [r3, #28]
 1543 0058 4FF0FC02 		mov	r2, #252
 1544 005c 9A60     		str	r2, [r3, #8]
 448:App/STM32F4-Discovery/Libraries/STM32F4xx_StdPeriph_Driver/src/stm32f4xx_fsmc.c ****   FSMC_NANDInitStruct->FSMC_CommonSpaceTimingStruct->FSMC_HiZSetupTime = 0xFC;
 1545              		.loc 1 448 0
 1546 005e 7B68     		ldr	r3, [r7, #4]
 1547 0060 DB69     		ldr	r3, [r3, #28]
 1548 0062 4FF0FC02 		mov	r2, #252
 1549 0066 DA60     		str	r2, [r3, #12]
 449:App/STM32F4-Discovery/Libraries/STM32F4xx_StdPeriph_Driver/src/stm32f4xx_fsmc.c ****   FSMC_NANDInitStruct->FSMC_AttributeSpaceTimingStruct->FSMC_SetupTime = 0xFC;
 1550              		.loc 1 449 0
 1551 0068 7B68     		ldr	r3, [r7, #4]
 1552 006a 1B6A     		ldr	r3, [r3, #32]
 1553 006c 4FF0FC02 		mov	r2, #252
 1554 0070 1A60     		str	r2, [r3, #0]
 450:App/STM32F4-Discovery/Libraries/STM32F4xx_StdPeriph_Driver/src/stm32f4xx_fsmc.c ****   FSMC_NANDInitStruct->FSMC_AttributeSpaceTimingStruct->FSMC_WaitSetupTime = 0xFC;
 1555              		.loc 1 450 0
 1556 0072 7B68     		ldr	r3, [r7, #4]
 1557 0074 1B6A     		ldr	r3, [r3, #32]
 1558 0076 4FF0FC02 		mov	r2, #252
 1559 007a 5A60     		str	r2, [r3, #4]
 451:App/STM32F4-Discovery/Libraries/STM32F4xx_StdPeriph_Driver/src/stm32f4xx_fsmc.c ****   FSMC_NANDInitStruct->FSMC_AttributeSpaceTimingStruct->FSMC_HoldSetupTime = 0xFC;
 1560              		.loc 1 451 0
 1561 007c 7B68     		ldr	r3, [r7, #4]
 1562 007e 1B6A     		ldr	r3, [r3, #32]
 1563 0080 4FF0FC02 		mov	r2, #252
 1564 0084 9A60     		str	r2, [r3, #8]
 452:App/STM32F4-Discovery/Libraries/STM32F4xx_StdPeriph_Driver/src/stm32f4xx_fsmc.c ****   FSMC_NANDInitStruct->FSMC_AttributeSpaceTimingStruct->FSMC_HiZSetupTime = 0xFC;	  
 1565              		.loc 1 452 0
 1566 0086 7B68     		ldr	r3, [r7, #4]
 1567 0088 1B6A     		ldr	r3, [r3, #32]
 1568 008a 4FF0FC02 		mov	r2, #252
 1569 008e DA60     		str	r2, [r3, #12]
 453:App/STM32F4-Discovery/Libraries/STM32F4xx_StdPeriph_Driver/src/stm32f4xx_fsmc.c **** }
 1570              		.loc 1 453 0
 1571 0090 07F10C07 		add	r7, r7, #12
 1572 0094 BD46     		mov	sp, r7
 1573 0096 80BC     		pop	{r7}
 1574 0098 7047     		bx	lr
 1575              		.cfi_endproc
 1576              	.LFE116:
 1578 009a 00BF     		.section	.text.FSMC_NANDCmd,"ax",%progbits
 1579              		.align	2
 1580              		.global	FSMC_NANDCmd
 1581              		.thumb
 1582              		.thumb_func
 1584              	FSMC_NANDCmd:
 1585              	.LFB117:
 454:App/STM32F4-Discovery/Libraries/STM32F4xx_StdPeriph_Driver/src/stm32f4xx_fsmc.c **** 
 455:App/STM32F4-Discovery/Libraries/STM32F4xx_StdPeriph_Driver/src/stm32f4xx_fsmc.c **** /**
 456:App/STM32F4-Discovery/Libraries/STM32F4xx_StdPeriph_Driver/src/stm32f4xx_fsmc.c ****   * @brief  Enables or disables the specified NAND Memory Bank.
 457:App/STM32F4-Discovery/Libraries/STM32F4xx_StdPeriph_Driver/src/stm32f4xx_fsmc.c ****   * @param  FSMC_Bank: specifies the FSMC Bank to be used
 458:App/STM32F4-Discovery/Libraries/STM32F4xx_StdPeriph_Driver/src/stm32f4xx_fsmc.c ****   *          This parameter can be one of the following values:
 459:App/STM32F4-Discovery/Libraries/STM32F4xx_StdPeriph_Driver/src/stm32f4xx_fsmc.c ****   *            @arg FSMC_Bank2_NAND: FSMC Bank2 NAND 
 460:App/STM32F4-Discovery/Libraries/STM32F4xx_StdPeriph_Driver/src/stm32f4xx_fsmc.c ****   *            @arg FSMC_Bank3_NAND: FSMC Bank3 NAND
 461:App/STM32F4-Discovery/Libraries/STM32F4xx_StdPeriph_Driver/src/stm32f4xx_fsmc.c ****   * @param  NewState: new state of the FSMC_Bank. This parameter can be: ENABLE or DISABLE.
 462:App/STM32F4-Discovery/Libraries/STM32F4xx_StdPeriph_Driver/src/stm32f4xx_fsmc.c ****   * @retval None
 463:App/STM32F4-Discovery/Libraries/STM32F4xx_StdPeriph_Driver/src/stm32f4xx_fsmc.c ****   */
 464:App/STM32F4-Discovery/Libraries/STM32F4xx_StdPeriph_Driver/src/stm32f4xx_fsmc.c **** void FSMC_NANDCmd(uint32_t FSMC_Bank, FunctionalState NewState)
 465:App/STM32F4-Discovery/Libraries/STM32F4xx_StdPeriph_Driver/src/stm32f4xx_fsmc.c **** {
 1586              		.loc 1 465 0
 1587              		.cfi_startproc
 1588              		@ args = 0, pretend = 0, frame = 8
 1589              		@ frame_needed = 1, uses_anonymous_args = 0
 1590 0000 80B5     		push	{r7, lr}
 1591              	.LCFI21:
 1592              		.cfi_def_cfa_offset 8
 1593              		.cfi_offset 7, -8
 1594              		.cfi_offset 14, -4
 1595 0002 82B0     		sub	sp, sp, #8
 1596              	.LCFI22:
 1597              		.cfi_def_cfa_offset 16
 1598 0004 00AF     		add	r7, sp, #0
 1599              	.LCFI23:
 1600              		.cfi_def_cfa_register 7
 1601 0006 7860     		str	r0, [r7, #4]
 1602 0008 0B46     		mov	r3, r1
 1603 000a FB70     		strb	r3, [r7, #3]
 466:App/STM32F4-Discovery/Libraries/STM32F4xx_StdPeriph_Driver/src/stm32f4xx_fsmc.c ****   assert_param(IS_FSMC_NAND_BANK(FSMC_Bank));
 1604              		.loc 1 466 0
 1605 000c 7B68     		ldr	r3, [r7, #4]
 1606 000e 102B     		cmp	r3, #16
 1607 0010 0BD0     		beq	.L67
 1608              		.loc 1 466 0 is_stmt 0 discriminator 1
 1609 0012 7B68     		ldr	r3, [r7, #4]
 1610 0014 B3F5807F 		cmp	r3, #256
 1611 0018 07D0     		beq	.L67
 1612              		.loc 1 466 0 discriminator 2
 1613 001a 40F20000 		movw	r0, #:lower16:.LC0
 1614 001e C0F20000 		movt	r0, #:upper16:.LC0
 1615 0022 4FF4E971 		mov	r1, #466
 1616 0026 FFF7FEFF 		bl	assert_failed
 1617              	.L67:
 467:App/STM32F4-Discovery/Libraries/STM32F4xx_StdPeriph_Driver/src/stm32f4xx_fsmc.c ****   assert_param(IS_FUNCTIONAL_STATE(NewState));
 1618              		.loc 1 467 0 is_stmt 1
 1619 002a FB78     		ldrb	r3, [r7, #3]	@ zero_extendqisi2
 1620 002c 002B     		cmp	r3, #0
 1621 002e 0AD0     		beq	.L68
 1622              		.loc 1 467 0 is_stmt 0 discriminator 1
 1623 0030 FB78     		ldrb	r3, [r7, #3]	@ zero_extendqisi2
 1624 0032 012B     		cmp	r3, #1
 1625 0034 07D0     		beq	.L68
 1626              		.loc 1 467 0 discriminator 2
 1627 0036 40F20000 		movw	r0, #:lower16:.LC0
 1628 003a C0F20000 		movt	r0, #:upper16:.LC0
 1629 003e 40F2D311 		movw	r1, #467
 1630 0042 FFF7FEFF 		bl	assert_failed
 1631              	.L68:
 468:App/STM32F4-Discovery/Libraries/STM32F4xx_StdPeriph_Driver/src/stm32f4xx_fsmc.c ****   
 469:App/STM32F4-Discovery/Libraries/STM32F4xx_StdPeriph_Driver/src/stm32f4xx_fsmc.c ****   if (NewState != DISABLE)
 1632              		.loc 1 469 0 is_stmt 1
 1633 0046 FB78     		ldrb	r3, [r7, #3]	@ zero_extendqisi2
 1634 0048 002B     		cmp	r3, #0
 1635 004a 1CD0     		beq	.L69
 470:App/STM32F4-Discovery/Libraries/STM32F4xx_StdPeriph_Driver/src/stm32f4xx_fsmc.c ****   {
 471:App/STM32F4-Discovery/Libraries/STM32F4xx_StdPeriph_Driver/src/stm32f4xx_fsmc.c ****     /* Enable the selected NAND Bank by setting the PBKEN bit in the PCRx register */
 472:App/STM32F4-Discovery/Libraries/STM32F4xx_StdPeriph_Driver/src/stm32f4xx_fsmc.c ****     if(FSMC_Bank == FSMC_Bank2_NAND)
 1636              		.loc 1 472 0
 1637 004c 7B68     		ldr	r3, [r7, #4]
 1638 004e 102B     		cmp	r3, #16
 1639 0050 0CD1     		bne	.L70
 473:App/STM32F4-Discovery/Libraries/STM32F4xx_StdPeriph_Driver/src/stm32f4xx_fsmc.c ****     {
 474:App/STM32F4-Discovery/Libraries/STM32F4xx_StdPeriph_Driver/src/stm32f4xx_fsmc.c ****       FSMC_Bank2->PCR2 |= PCR_PBKEN_SET;
 1640              		.loc 1 474 0
 1641 0052 4FF06003 		mov	r3, #96
 1642 0056 CAF20003 		movt	r3, 40960
 1643 005a 4FF06002 		mov	r2, #96
 1644 005e CAF20002 		movt	r2, 40960
 1645 0062 1268     		ldr	r2, [r2, #0]
 1646 0064 42F00402 		orr	r2, r2, #4
 1647 0068 1A60     		str	r2, [r3, #0]
 1648 006a 2EE0     		b	.L66
 1649              	.L70:
 475:App/STM32F4-Discovery/Libraries/STM32F4xx_StdPeriph_Driver/src/stm32f4xx_fsmc.c ****     }
 476:App/STM32F4-Discovery/Libraries/STM32F4xx_StdPeriph_Driver/src/stm32f4xx_fsmc.c ****     else
 477:App/STM32F4-Discovery/Libraries/STM32F4xx_StdPeriph_Driver/src/stm32f4xx_fsmc.c ****     {
 478:App/STM32F4-Discovery/Libraries/STM32F4xx_StdPeriph_Driver/src/stm32f4xx_fsmc.c ****       FSMC_Bank3->PCR3 |= PCR_PBKEN_SET;
 1650              		.loc 1 478 0
 1651 006c 4FF08003 		mov	r3, #128
 1652 0070 CAF20003 		movt	r3, 40960
 1653 0074 4FF08002 		mov	r2, #128
 1654 0078 CAF20002 		movt	r2, 40960
 1655 007c 1268     		ldr	r2, [r2, #0]
 1656 007e 42F00402 		orr	r2, r2, #4
 1657 0082 1A60     		str	r2, [r3, #0]
 1658 0084 21E0     		b	.L66
 1659              	.L69:
 479:App/STM32F4-Discovery/Libraries/STM32F4xx_StdPeriph_Driver/src/stm32f4xx_fsmc.c ****     }
 480:App/STM32F4-Discovery/Libraries/STM32F4xx_StdPeriph_Driver/src/stm32f4xx_fsmc.c ****   }
 481:App/STM32F4-Discovery/Libraries/STM32F4xx_StdPeriph_Driver/src/stm32f4xx_fsmc.c ****   else
 482:App/STM32F4-Discovery/Libraries/STM32F4xx_StdPeriph_Driver/src/stm32f4xx_fsmc.c ****   {
 483:App/STM32F4-Discovery/Libraries/STM32F4xx_StdPeriph_Driver/src/stm32f4xx_fsmc.c ****     /* Disable the selected NAND Bank by clearing the PBKEN bit in the PCRx register */
 484:App/STM32F4-Discovery/Libraries/STM32F4xx_StdPeriph_Driver/src/stm32f4xx_fsmc.c ****     if(FSMC_Bank == FSMC_Bank2_NAND)
 1660              		.loc 1 484 0
 1661 0086 7B68     		ldr	r3, [r7, #4]
 1662 0088 102B     		cmp	r3, #16
 1663 008a 0FD1     		bne	.L72
 485:App/STM32F4-Discovery/Libraries/STM32F4xx_StdPeriph_Driver/src/stm32f4xx_fsmc.c ****     {
 486:App/STM32F4-Discovery/Libraries/STM32F4xx_StdPeriph_Driver/src/stm32f4xx_fsmc.c ****       FSMC_Bank2->PCR2 &= PCR_PBKEN_RESET;
 1664              		.loc 1 486 0
 1665 008c 4FF06002 		mov	r2, #96
 1666 0090 CAF20002 		movt	r2, 40960
 1667 0094 4FF06003 		mov	r3, #96
 1668 0098 CAF20003 		movt	r3, 40960
 1669 009c 1968     		ldr	r1, [r3, #0]
 1670 009e 4FF6FB73 		movw	r3, #65531
 1671 00a2 C0F20F03 		movt	r3, 15
 1672 00a6 0B40     		ands	r3, r3, r1
 1673 00a8 1360     		str	r3, [r2, #0]
 1674 00aa 0EE0     		b	.L66
 1675              	.L72:
 487:App/STM32F4-Discovery/Libraries/STM32F4xx_StdPeriph_Driver/src/stm32f4xx_fsmc.c ****     }
 488:App/STM32F4-Discovery/Libraries/STM32F4xx_StdPeriph_Driver/src/stm32f4xx_fsmc.c ****     else
 489:App/STM32F4-Discovery/Libraries/STM32F4xx_StdPeriph_Driver/src/stm32f4xx_fsmc.c ****     {
 490:App/STM32F4-Discovery/Libraries/STM32F4xx_StdPeriph_Driver/src/stm32f4xx_fsmc.c ****       FSMC_Bank3->PCR3 &= PCR_PBKEN_RESET;
 1676              		.loc 1 490 0
 1677 00ac 4FF08002 		mov	r2, #128
 1678 00b0 CAF20002 		movt	r2, 40960
 1679 00b4 4FF08003 		mov	r3, #128
 1680 00b8 CAF20003 		movt	r3, 40960
 1681 00bc 1968     		ldr	r1, [r3, #0]
 1682 00be 4FF6FB73 		movw	r3, #65531
 1683 00c2 C0F20F03 		movt	r3, 15
 1684 00c6 0B40     		ands	r3, r3, r1
 1685 00c8 1360     		str	r3, [r2, #0]
 1686              	.L66:
 491:App/STM32F4-Discovery/Libraries/STM32F4xx_StdPeriph_Driver/src/stm32f4xx_fsmc.c ****     }
 492:App/STM32F4-Discovery/Libraries/STM32F4xx_StdPeriph_Driver/src/stm32f4xx_fsmc.c ****   }
 493:App/STM32F4-Discovery/Libraries/STM32F4xx_StdPeriph_Driver/src/stm32f4xx_fsmc.c **** }
 1687              		.loc 1 493 0
 1688 00ca 07F10807 		add	r7, r7, #8
 1689 00ce BD46     		mov	sp, r7
 1690 00d0 80BD     		pop	{r7, pc}
 1691              		.cfi_endproc
 1692              	.LFE117:
 1694 00d2 00BF     		.section	.text.FSMC_NANDECCCmd,"ax",%progbits
 1695              		.align	2
 1696              		.global	FSMC_NANDECCCmd
 1697              		.thumb
 1698              		.thumb_func
 1700              	FSMC_NANDECCCmd:
 1701              	.LFB118:
 494:App/STM32F4-Discovery/Libraries/STM32F4xx_StdPeriph_Driver/src/stm32f4xx_fsmc.c **** /**
 495:App/STM32F4-Discovery/Libraries/STM32F4xx_StdPeriph_Driver/src/stm32f4xx_fsmc.c ****   * @brief  Enables or disables the FSMC NAND ECC feature.
 496:App/STM32F4-Discovery/Libraries/STM32F4xx_StdPeriph_Driver/src/stm32f4xx_fsmc.c ****   * @param  FSMC_Bank: specifies the FSMC Bank to be used
 497:App/STM32F4-Discovery/Libraries/STM32F4xx_StdPeriph_Driver/src/stm32f4xx_fsmc.c ****   *          This parameter can be one of the following values:
 498:App/STM32F4-Discovery/Libraries/STM32F4xx_StdPeriph_Driver/src/stm32f4xx_fsmc.c ****   *            @arg FSMC_Bank2_NAND: FSMC Bank2 NAND 
 499:App/STM32F4-Discovery/Libraries/STM32F4xx_StdPeriph_Driver/src/stm32f4xx_fsmc.c ****   *            @arg FSMC_Bank3_NAND: FSMC Bank3 NAND
 500:App/STM32F4-Discovery/Libraries/STM32F4xx_StdPeriph_Driver/src/stm32f4xx_fsmc.c ****   * @param  NewState: new state of the FSMC NAND ECC feature.  
 501:App/STM32F4-Discovery/Libraries/STM32F4xx_StdPeriph_Driver/src/stm32f4xx_fsmc.c ****   *          This parameter can be: ENABLE or DISABLE.
 502:App/STM32F4-Discovery/Libraries/STM32F4xx_StdPeriph_Driver/src/stm32f4xx_fsmc.c ****   * @retval None
 503:App/STM32F4-Discovery/Libraries/STM32F4xx_StdPeriph_Driver/src/stm32f4xx_fsmc.c ****   */
 504:App/STM32F4-Discovery/Libraries/STM32F4xx_StdPeriph_Driver/src/stm32f4xx_fsmc.c **** void FSMC_NANDECCCmd(uint32_t FSMC_Bank, FunctionalState NewState)
 505:App/STM32F4-Discovery/Libraries/STM32F4xx_StdPeriph_Driver/src/stm32f4xx_fsmc.c **** {
 1702              		.loc 1 505 0
 1703              		.cfi_startproc
 1704              		@ args = 0, pretend = 0, frame = 8
 1705              		@ frame_needed = 1, uses_anonymous_args = 0
 1706 0000 80B5     		push	{r7, lr}
 1707              	.LCFI24:
 1708              		.cfi_def_cfa_offset 8
 1709              		.cfi_offset 7, -8
 1710              		.cfi_offset 14, -4
 1711 0002 82B0     		sub	sp, sp, #8
 1712              	.LCFI25:
 1713              		.cfi_def_cfa_offset 16
 1714 0004 00AF     		add	r7, sp, #0
 1715              	.LCFI26:
 1716              		.cfi_def_cfa_register 7
 1717 0006 7860     		str	r0, [r7, #4]
 1718 0008 0B46     		mov	r3, r1
 1719 000a FB70     		strb	r3, [r7, #3]
 506:App/STM32F4-Discovery/Libraries/STM32F4xx_StdPeriph_Driver/src/stm32f4xx_fsmc.c ****   assert_param(IS_FSMC_NAND_BANK(FSMC_Bank));
 1720              		.loc 1 506 0
 1721 000c 7B68     		ldr	r3, [r7, #4]
 1722 000e 102B     		cmp	r3, #16
 1723 0010 0BD0     		beq	.L74
 1724              		.loc 1 506 0 is_stmt 0 discriminator 1
 1725 0012 7B68     		ldr	r3, [r7, #4]
 1726 0014 B3F5807F 		cmp	r3, #256
 1727 0018 07D0     		beq	.L74
 1728              		.loc 1 506 0 discriminator 2
 1729 001a 40F20000 		movw	r0, #:lower16:.LC0
 1730 001e C0F20000 		movt	r0, #:upper16:.LC0
 1731 0022 4FF4FD71 		mov	r1, #506
 1732 0026 FFF7FEFF 		bl	assert_failed
 1733              	.L74:
 507:App/STM32F4-Discovery/Libraries/STM32F4xx_StdPeriph_Driver/src/stm32f4xx_fsmc.c ****   assert_param(IS_FUNCTIONAL_STATE(NewState));
 1734              		.loc 1 507 0 is_stmt 1
 1735 002a FB78     		ldrb	r3, [r7, #3]	@ zero_extendqisi2
 1736 002c 002B     		cmp	r3, #0
 1737 002e 0AD0     		beq	.L75
 1738              		.loc 1 507 0 is_stmt 0 discriminator 1
 1739 0030 FB78     		ldrb	r3, [r7, #3]	@ zero_extendqisi2
 1740 0032 012B     		cmp	r3, #1
 1741 0034 07D0     		beq	.L75
 1742              		.loc 1 507 0 discriminator 2
 1743 0036 40F20000 		movw	r0, #:lower16:.LC0
 1744 003a C0F20000 		movt	r0, #:upper16:.LC0
 1745 003e 40F2FB11 		movw	r1, #507
 1746 0042 FFF7FEFF 		bl	assert_failed
 1747              	.L75:
 508:App/STM32F4-Discovery/Libraries/STM32F4xx_StdPeriph_Driver/src/stm32f4xx_fsmc.c ****   
 509:App/STM32F4-Discovery/Libraries/STM32F4xx_StdPeriph_Driver/src/stm32f4xx_fsmc.c ****   if (NewState != DISABLE)
 1748              		.loc 1 509 0 is_stmt 1
 1749 0046 FB78     		ldrb	r3, [r7, #3]	@ zero_extendqisi2
 1750 0048 002B     		cmp	r3, #0
 1751 004a 1CD0     		beq	.L76
 510:App/STM32F4-Discovery/Libraries/STM32F4xx_StdPeriph_Driver/src/stm32f4xx_fsmc.c ****   {
 511:App/STM32F4-Discovery/Libraries/STM32F4xx_StdPeriph_Driver/src/stm32f4xx_fsmc.c ****     /* Enable the selected NAND Bank ECC function by setting the ECCEN bit in the PCRx register */
 512:App/STM32F4-Discovery/Libraries/STM32F4xx_StdPeriph_Driver/src/stm32f4xx_fsmc.c ****     if(FSMC_Bank == FSMC_Bank2_NAND)
 1752              		.loc 1 512 0
 1753 004c 7B68     		ldr	r3, [r7, #4]
 1754 004e 102B     		cmp	r3, #16
 1755 0050 0CD1     		bne	.L77
 513:App/STM32F4-Discovery/Libraries/STM32F4xx_StdPeriph_Driver/src/stm32f4xx_fsmc.c ****     {
 514:App/STM32F4-Discovery/Libraries/STM32F4xx_StdPeriph_Driver/src/stm32f4xx_fsmc.c ****       FSMC_Bank2->PCR2 |= PCR_ECCEN_SET;
 1756              		.loc 1 514 0
 1757 0052 4FF06003 		mov	r3, #96
 1758 0056 CAF20003 		movt	r3, 40960
 1759 005a 4FF06002 		mov	r2, #96
 1760 005e CAF20002 		movt	r2, 40960
 1761 0062 1268     		ldr	r2, [r2, #0]
 1762 0064 42F04002 		orr	r2, r2, #64
 1763 0068 1A60     		str	r2, [r3, #0]
 1764 006a 2EE0     		b	.L73
 1765              	.L77:
 515:App/STM32F4-Discovery/Libraries/STM32F4xx_StdPeriph_Driver/src/stm32f4xx_fsmc.c ****     }
 516:App/STM32F4-Discovery/Libraries/STM32F4xx_StdPeriph_Driver/src/stm32f4xx_fsmc.c ****     else
 517:App/STM32F4-Discovery/Libraries/STM32F4xx_StdPeriph_Driver/src/stm32f4xx_fsmc.c ****     {
 518:App/STM32F4-Discovery/Libraries/STM32F4xx_StdPeriph_Driver/src/stm32f4xx_fsmc.c ****       FSMC_Bank3->PCR3 |= PCR_ECCEN_SET;
 1766              		.loc 1 518 0
 1767 006c 4FF08003 		mov	r3, #128
 1768 0070 CAF20003 		movt	r3, 40960
 1769 0074 4FF08002 		mov	r2, #128
 1770 0078 CAF20002 		movt	r2, 40960
 1771 007c 1268     		ldr	r2, [r2, #0]
 1772 007e 42F04002 		orr	r2, r2, #64
 1773 0082 1A60     		str	r2, [r3, #0]
 1774 0084 21E0     		b	.L73
 1775              	.L76:
 519:App/STM32F4-Discovery/Libraries/STM32F4xx_StdPeriph_Driver/src/stm32f4xx_fsmc.c ****     }
 520:App/STM32F4-Discovery/Libraries/STM32F4xx_StdPeriph_Driver/src/stm32f4xx_fsmc.c ****   }
 521:App/STM32F4-Discovery/Libraries/STM32F4xx_StdPeriph_Driver/src/stm32f4xx_fsmc.c ****   else
 522:App/STM32F4-Discovery/Libraries/STM32F4xx_StdPeriph_Driver/src/stm32f4xx_fsmc.c ****   {
 523:App/STM32F4-Discovery/Libraries/STM32F4xx_StdPeriph_Driver/src/stm32f4xx_fsmc.c ****     /* Disable the selected NAND Bank ECC function by clearing the ECCEN bit in the PCRx register *
 524:App/STM32F4-Discovery/Libraries/STM32F4xx_StdPeriph_Driver/src/stm32f4xx_fsmc.c ****     if(FSMC_Bank == FSMC_Bank2_NAND)
 1776              		.loc 1 524 0
 1777 0086 7B68     		ldr	r3, [r7, #4]
 1778 0088 102B     		cmp	r3, #16
 1779 008a 0FD1     		bne	.L79
 525:App/STM32F4-Discovery/Libraries/STM32F4xx_StdPeriph_Driver/src/stm32f4xx_fsmc.c ****     {
 526:App/STM32F4-Discovery/Libraries/STM32F4xx_StdPeriph_Driver/src/stm32f4xx_fsmc.c ****       FSMC_Bank2->PCR2 &= PCR_ECCEN_RESET;
 1780              		.loc 1 526 0
 1781 008c 4FF06002 		mov	r2, #96
 1782 0090 CAF20002 		movt	r2, 40960
 1783 0094 4FF06003 		mov	r3, #96
 1784 0098 CAF20003 		movt	r3, 40960
 1785 009c 1968     		ldr	r1, [r3, #0]
 1786 009e 4FF6BF73 		movw	r3, #65471
 1787 00a2 C0F20F03 		movt	r3, 15
 1788 00a6 0B40     		ands	r3, r3, r1
 1789 00a8 1360     		str	r3, [r2, #0]
 1790 00aa 0EE0     		b	.L73
 1791              	.L79:
 527:App/STM32F4-Discovery/Libraries/STM32F4xx_StdPeriph_Driver/src/stm32f4xx_fsmc.c ****     }
 528:App/STM32F4-Discovery/Libraries/STM32F4xx_StdPeriph_Driver/src/stm32f4xx_fsmc.c ****     else
 529:App/STM32F4-Discovery/Libraries/STM32F4xx_StdPeriph_Driver/src/stm32f4xx_fsmc.c ****     {
 530:App/STM32F4-Discovery/Libraries/STM32F4xx_StdPeriph_Driver/src/stm32f4xx_fsmc.c ****       FSMC_Bank3->PCR3 &= PCR_ECCEN_RESET;
 1792              		.loc 1 530 0
 1793 00ac 4FF08002 		mov	r2, #128
 1794 00b0 CAF20002 		movt	r2, 40960
 1795 00b4 4FF08003 		mov	r3, #128
 1796 00b8 CAF20003 		movt	r3, 40960
 1797 00bc 1968     		ldr	r1, [r3, #0]
 1798 00be 4FF6BF73 		movw	r3, #65471
 1799 00c2 C0F20F03 		movt	r3, 15
 1800 00c6 0B40     		ands	r3, r3, r1
 1801 00c8 1360     		str	r3, [r2, #0]
 1802              	.L73:
 531:App/STM32F4-Discovery/Libraries/STM32F4xx_StdPeriph_Driver/src/stm32f4xx_fsmc.c ****     }
 532:App/STM32F4-Discovery/Libraries/STM32F4xx_StdPeriph_Driver/src/stm32f4xx_fsmc.c ****   }
 533:App/STM32F4-Discovery/Libraries/STM32F4xx_StdPeriph_Driver/src/stm32f4xx_fsmc.c **** }
 1803              		.loc 1 533 0
 1804 00ca 07F10807 		add	r7, r7, #8
 1805 00ce BD46     		mov	sp, r7
 1806 00d0 80BD     		pop	{r7, pc}
 1807              		.cfi_endproc
 1808              	.LFE118:
 1810 00d2 00BF     		.section	.text.FSMC_GetECC,"ax",%progbits
 1811              		.align	2
 1812              		.global	FSMC_GetECC
 1813              		.thumb
 1814              		.thumb_func
 1816              	FSMC_GetECC:
 1817              	.LFB119:
 534:App/STM32F4-Discovery/Libraries/STM32F4xx_StdPeriph_Driver/src/stm32f4xx_fsmc.c **** 
 535:App/STM32F4-Discovery/Libraries/STM32F4xx_StdPeriph_Driver/src/stm32f4xx_fsmc.c **** /**
 536:App/STM32F4-Discovery/Libraries/STM32F4xx_StdPeriph_Driver/src/stm32f4xx_fsmc.c ****   * @brief  Returns the error correction code register value.
 537:App/STM32F4-Discovery/Libraries/STM32F4xx_StdPeriph_Driver/src/stm32f4xx_fsmc.c ****   * @param  FSMC_Bank: specifies the FSMC Bank to be used
 538:App/STM32F4-Discovery/Libraries/STM32F4xx_StdPeriph_Driver/src/stm32f4xx_fsmc.c ****   *          This parameter can be one of the following values:
 539:App/STM32F4-Discovery/Libraries/STM32F4xx_StdPeriph_Driver/src/stm32f4xx_fsmc.c ****   *            @arg FSMC_Bank2_NAND: FSMC Bank2 NAND 
 540:App/STM32F4-Discovery/Libraries/STM32F4xx_StdPeriph_Driver/src/stm32f4xx_fsmc.c ****   *            @arg FSMC_Bank3_NAND: FSMC Bank3 NAND
 541:App/STM32F4-Discovery/Libraries/STM32F4xx_StdPeriph_Driver/src/stm32f4xx_fsmc.c ****   * @retval The Error Correction Code (ECC) value.
 542:App/STM32F4-Discovery/Libraries/STM32F4xx_StdPeriph_Driver/src/stm32f4xx_fsmc.c ****   */
 543:App/STM32F4-Discovery/Libraries/STM32F4xx_StdPeriph_Driver/src/stm32f4xx_fsmc.c **** uint32_t FSMC_GetECC(uint32_t FSMC_Bank)
 544:App/STM32F4-Discovery/Libraries/STM32F4xx_StdPeriph_Driver/src/stm32f4xx_fsmc.c **** {
 1818              		.loc 1 544 0
 1819              		.cfi_startproc
 1820              		@ args = 0, pretend = 0, frame = 16
 1821              		@ frame_needed = 1, uses_anonymous_args = 0
 1822              		@ link register save eliminated.
 1823 0000 80B4     		push	{r7}
 1824              	.LCFI27:
 1825              		.cfi_def_cfa_offset 4
 1826              		.cfi_offset 7, -4
 1827 0002 85B0     		sub	sp, sp, #20
 1828              	.LCFI28:
 1829              		.cfi_def_cfa_offset 24
 1830 0004 00AF     		add	r7, sp, #0
 1831              	.LCFI29:
 1832              		.cfi_def_cfa_register 7
 1833 0006 7860     		str	r0, [r7, #4]
 545:App/STM32F4-Discovery/Libraries/STM32F4xx_StdPeriph_Driver/src/stm32f4xx_fsmc.c ****   uint32_t eccval = 0x00000000;
 1834              		.loc 1 545 0
 1835 0008 4FF00003 		mov	r3, #0
 1836 000c FB60     		str	r3, [r7, #12]
 546:App/STM32F4-Discovery/Libraries/STM32F4xx_StdPeriph_Driver/src/stm32f4xx_fsmc.c ****   
 547:App/STM32F4-Discovery/Libraries/STM32F4xx_StdPeriph_Driver/src/stm32f4xx_fsmc.c ****   if(FSMC_Bank == FSMC_Bank2_NAND)
 1837              		.loc 1 547 0
 1838 000e 7B68     		ldr	r3, [r7, #4]
 1839 0010 102B     		cmp	r3, #16
 1840 0012 06D1     		bne	.L81
 548:App/STM32F4-Discovery/Libraries/STM32F4xx_StdPeriph_Driver/src/stm32f4xx_fsmc.c ****   {
 549:App/STM32F4-Discovery/Libraries/STM32F4xx_StdPeriph_Driver/src/stm32f4xx_fsmc.c ****     /* Get the ECCR2 register value */
 550:App/STM32F4-Discovery/Libraries/STM32F4xx_StdPeriph_Driver/src/stm32f4xx_fsmc.c ****     eccval = FSMC_Bank2->ECCR2;
 1841              		.loc 1 550 0
 1842 0014 4FF06003 		mov	r3, #96
 1843 0018 CAF20003 		movt	r3, 40960
 1844 001c 5B69     		ldr	r3, [r3, #20]
 1845 001e FB60     		str	r3, [r7, #12]
 1846 0020 05E0     		b	.L82
 1847              	.L81:
 551:App/STM32F4-Discovery/Libraries/STM32F4xx_StdPeriph_Driver/src/stm32f4xx_fsmc.c ****   }
 552:App/STM32F4-Discovery/Libraries/STM32F4xx_StdPeriph_Driver/src/stm32f4xx_fsmc.c ****   else
 553:App/STM32F4-Discovery/Libraries/STM32F4xx_StdPeriph_Driver/src/stm32f4xx_fsmc.c ****   {
 554:App/STM32F4-Discovery/Libraries/STM32F4xx_StdPeriph_Driver/src/stm32f4xx_fsmc.c ****     /* Get the ECCR3 register value */
 555:App/STM32F4-Discovery/Libraries/STM32F4xx_StdPeriph_Driver/src/stm32f4xx_fsmc.c ****     eccval = FSMC_Bank3->ECCR3;
 1848              		.loc 1 555 0
 1849 0022 4FF08003 		mov	r3, #128
 1850 0026 CAF20003 		movt	r3, 40960
 1851 002a 5B69     		ldr	r3, [r3, #20]
 1852 002c FB60     		str	r3, [r7, #12]
 1853              	.L82:
 556:App/STM32F4-Discovery/Libraries/STM32F4xx_StdPeriph_Driver/src/stm32f4xx_fsmc.c ****   }
 557:App/STM32F4-Discovery/Libraries/STM32F4xx_StdPeriph_Driver/src/stm32f4xx_fsmc.c ****   /* Return the error correction code value */
 558:App/STM32F4-Discovery/Libraries/STM32F4xx_StdPeriph_Driver/src/stm32f4xx_fsmc.c ****   return(eccval);
 1854              		.loc 1 558 0
 1855 002e FB68     		ldr	r3, [r7, #12]
 559:App/STM32F4-Discovery/Libraries/STM32F4xx_StdPeriph_Driver/src/stm32f4xx_fsmc.c **** }
 1856              		.loc 1 559 0
 1857 0030 1846     		mov	r0, r3
 1858 0032 07F11407 		add	r7, r7, #20
 1859 0036 BD46     		mov	sp, r7
 1860 0038 80BC     		pop	{r7}
 1861 003a 7047     		bx	lr
 1862              		.cfi_endproc
 1863              	.LFE119:
 1865              		.section	.text.FSMC_PCCARDDeInit,"ax",%progbits
 1866              		.align	2
 1867              		.global	FSMC_PCCARDDeInit
 1868              		.thumb
 1869              		.thumb_func
 1871              	FSMC_PCCARDDeInit:
 1872              	.LFB120:
 560:App/STM32F4-Discovery/Libraries/STM32F4xx_StdPeriph_Driver/src/stm32f4xx_fsmc.c **** /**
 561:App/STM32F4-Discovery/Libraries/STM32F4xx_StdPeriph_Driver/src/stm32f4xx_fsmc.c ****   * @}
 562:App/STM32F4-Discovery/Libraries/STM32F4xx_StdPeriph_Driver/src/stm32f4xx_fsmc.c ****   */
 563:App/STM32F4-Discovery/Libraries/STM32F4xx_StdPeriph_Driver/src/stm32f4xx_fsmc.c **** 
 564:App/STM32F4-Discovery/Libraries/STM32F4xx_StdPeriph_Driver/src/stm32f4xx_fsmc.c **** /** @defgroup FSMC_Group3 PCCARD Controller functions
 565:App/STM32F4-Discovery/Libraries/STM32F4xx_StdPeriph_Driver/src/stm32f4xx_fsmc.c ****  *  @brief   PCCARD Controller functions 
 566:App/STM32F4-Discovery/Libraries/STM32F4xx_StdPeriph_Driver/src/stm32f4xx_fsmc.c ****  *
 567:App/STM32F4-Discovery/Libraries/STM32F4xx_StdPeriph_Driver/src/stm32f4xx_fsmc.c **** @verbatim   
 568:App/STM32F4-Discovery/Libraries/STM32F4xx_StdPeriph_Driver/src/stm32f4xx_fsmc.c ****  ===============================================================================
 569:App/STM32F4-Discovery/Libraries/STM32F4xx_StdPeriph_Driver/src/stm32f4xx_fsmc.c ****                     PCCARD Controller functions
 570:App/STM32F4-Discovery/Libraries/STM32F4xx_StdPeriph_Driver/src/stm32f4xx_fsmc.c ****  ===============================================================================  
 571:App/STM32F4-Discovery/Libraries/STM32F4xx_StdPeriph_Driver/src/stm32f4xx_fsmc.c **** 
 572:App/STM32F4-Discovery/Libraries/STM32F4xx_StdPeriph_Driver/src/stm32f4xx_fsmc.c ****  The following sequence should be followed to configure the FSMC to interface with
 573:App/STM32F4-Discovery/Libraries/STM32F4xx_StdPeriph_Driver/src/stm32f4xx_fsmc.c ****  16-bit PC Card compatible memory connected to the PCCARD Bank:
 574:App/STM32F4-Discovery/Libraries/STM32F4xx_StdPeriph_Driver/src/stm32f4xx_fsmc.c ****  
 575:App/STM32F4-Discovery/Libraries/STM32F4xx_StdPeriph_Driver/src/stm32f4xx_fsmc.c ****    1. Enable the clock for the FSMC and associated GPIOs using the following functions:
 576:App/STM32F4-Discovery/Libraries/STM32F4xx_StdPeriph_Driver/src/stm32f4xx_fsmc.c ****           RCC_AHB3PeriphClockCmd(RCC_AHB3Periph_FSMC, ENABLE);
 577:App/STM32F4-Discovery/Libraries/STM32F4xx_StdPeriph_Driver/src/stm32f4xx_fsmc.c ****           RCC_AHB1PeriphClockCmd(RCC_AHB1Periph_GPIOx, ENABLE);
 578:App/STM32F4-Discovery/Libraries/STM32F4xx_StdPeriph_Driver/src/stm32f4xx_fsmc.c **** 
 579:App/STM32F4-Discovery/Libraries/STM32F4xx_StdPeriph_Driver/src/stm32f4xx_fsmc.c ****    2. FSMC pins configuration 
 580:App/STM32F4-Discovery/Libraries/STM32F4xx_StdPeriph_Driver/src/stm32f4xx_fsmc.c ****        - Connect the involved FSMC pins to AF12 using the following function 
 581:App/STM32F4-Discovery/Libraries/STM32F4xx_StdPeriph_Driver/src/stm32f4xx_fsmc.c ****           GPIO_PinAFConfig(GPIOx, GPIO_PinSourcex, GPIO_AF_FSMC); 
 582:App/STM32F4-Discovery/Libraries/STM32F4xx_StdPeriph_Driver/src/stm32f4xx_fsmc.c ****        - Configure these FSMC pins in alternate function mode by calling the function
 583:App/STM32F4-Discovery/Libraries/STM32F4xx_StdPeriph_Driver/src/stm32f4xx_fsmc.c ****           GPIO_Init();    
 584:App/STM32F4-Discovery/Libraries/STM32F4xx_StdPeriph_Driver/src/stm32f4xx_fsmc.c ****        
 585:App/STM32F4-Discovery/Libraries/STM32F4xx_StdPeriph_Driver/src/stm32f4xx_fsmc.c ****    3. Declare a FSMC_PCCARDInitTypeDef structure, for example:
 586:App/STM32F4-Discovery/Libraries/STM32F4xx_StdPeriph_Driver/src/stm32f4xx_fsmc.c ****           FSMC_PCCARDInitTypeDef  FSMC_PCCARDInitStructure;
 587:App/STM32F4-Discovery/Libraries/STM32F4xx_StdPeriph_Driver/src/stm32f4xx_fsmc.c ****       and fill the FSMC_PCCARDInitStructure variable with the allowed values of
 588:App/STM32F4-Discovery/Libraries/STM32F4xx_StdPeriph_Driver/src/stm32f4xx_fsmc.c ****       the structure member.
 589:App/STM32F4-Discovery/Libraries/STM32F4xx_StdPeriph_Driver/src/stm32f4xx_fsmc.c ****       
 590:App/STM32F4-Discovery/Libraries/STM32F4xx_StdPeriph_Driver/src/stm32f4xx_fsmc.c ****    4. Initialize the PCCARD Controller by calling the function
 591:App/STM32F4-Discovery/Libraries/STM32F4xx_StdPeriph_Driver/src/stm32f4xx_fsmc.c ****           FSMC_PCCARDInit(&FSMC_PCCARDInitStructure); 
 592:App/STM32F4-Discovery/Libraries/STM32F4xx_StdPeriph_Driver/src/stm32f4xx_fsmc.c **** 
 593:App/STM32F4-Discovery/Libraries/STM32F4xx_StdPeriph_Driver/src/stm32f4xx_fsmc.c ****    5. Then enable the PCCARD Bank:
 594:App/STM32F4-Discovery/Libraries/STM32F4xx_StdPeriph_Driver/src/stm32f4xx_fsmc.c ****           FSMC_PCCARDCmd(ENABLE);  
 595:App/STM32F4-Discovery/Libraries/STM32F4xx_StdPeriph_Driver/src/stm32f4xx_fsmc.c **** 
 596:App/STM32F4-Discovery/Libraries/STM32F4xx_StdPeriph_Driver/src/stm32f4xx_fsmc.c ****    6. At this stage you can read/write from/to the memory connected to the PCCARD Bank. 
 597:App/STM32F4-Discovery/Libraries/STM32F4xx_StdPeriph_Driver/src/stm32f4xx_fsmc.c ****  
 598:App/STM32F4-Discovery/Libraries/STM32F4xx_StdPeriph_Driver/src/stm32f4xx_fsmc.c **** @endverbatim
 599:App/STM32F4-Discovery/Libraries/STM32F4xx_StdPeriph_Driver/src/stm32f4xx_fsmc.c ****   * @{
 600:App/STM32F4-Discovery/Libraries/STM32F4xx_StdPeriph_Driver/src/stm32f4xx_fsmc.c ****   */
 601:App/STM32F4-Discovery/Libraries/STM32F4xx_StdPeriph_Driver/src/stm32f4xx_fsmc.c **** 
 602:App/STM32F4-Discovery/Libraries/STM32F4xx_StdPeriph_Driver/src/stm32f4xx_fsmc.c **** /**
 603:App/STM32F4-Discovery/Libraries/STM32F4xx_StdPeriph_Driver/src/stm32f4xx_fsmc.c ****   * @brief  Deinitializes the FSMC PCCARD Bank registers to their default reset values.
 604:App/STM32F4-Discovery/Libraries/STM32F4xx_StdPeriph_Driver/src/stm32f4xx_fsmc.c ****   * @param  None                       
 605:App/STM32F4-Discovery/Libraries/STM32F4xx_StdPeriph_Driver/src/stm32f4xx_fsmc.c ****   * @retval None
 606:App/STM32F4-Discovery/Libraries/STM32F4xx_StdPeriph_Driver/src/stm32f4xx_fsmc.c ****   */
 607:App/STM32F4-Discovery/Libraries/STM32F4xx_StdPeriph_Driver/src/stm32f4xx_fsmc.c **** void FSMC_PCCARDDeInit(void)
 608:App/STM32F4-Discovery/Libraries/STM32F4xx_StdPeriph_Driver/src/stm32f4xx_fsmc.c **** {
 1873              		.loc 1 608 0
 1874              		.cfi_startproc
 1875              		@ args = 0, pretend = 0, frame = 0
 1876              		@ frame_needed = 1, uses_anonymous_args = 0
 1877              		@ link register save eliminated.
 1878 0000 80B4     		push	{r7}
 1879              	.LCFI30:
 1880              		.cfi_def_cfa_offset 4
 1881              		.cfi_offset 7, -4
 1882 0002 00AF     		add	r7, sp, #0
 1883              	.LCFI31:
 1884              		.cfi_def_cfa_register 7
 609:App/STM32F4-Discovery/Libraries/STM32F4xx_StdPeriph_Driver/src/stm32f4xx_fsmc.c ****   /* Set the FSMC_Bank4 registers to their reset values */
 610:App/STM32F4-Discovery/Libraries/STM32F4xx_StdPeriph_Driver/src/stm32f4xx_fsmc.c ****   FSMC_Bank4->PCR4 = 0x00000018; 
 1885              		.loc 1 610 0
 1886 0004 4FF0A003 		mov	r3, #160
 1887 0008 CAF20003 		movt	r3, 40960
 1888 000c 4FF01802 		mov	r2, #24
 1889 0010 1A60     		str	r2, [r3, #0]
 611:App/STM32F4-Discovery/Libraries/STM32F4xx_StdPeriph_Driver/src/stm32f4xx_fsmc.c ****   FSMC_Bank4->SR4 = 0x00000000;	
 1890              		.loc 1 611 0
 1891 0012 4FF0A003 		mov	r3, #160
 1892 0016 CAF20003 		movt	r3, 40960
 1893 001a 4FF00002 		mov	r2, #0
 1894 001e 5A60     		str	r2, [r3, #4]
 612:App/STM32F4-Discovery/Libraries/STM32F4xx_StdPeriph_Driver/src/stm32f4xx_fsmc.c ****   FSMC_Bank4->PMEM4 = 0xFCFCFCFC;
 1895              		.loc 1 612 0
 1896 0020 4FF0A003 		mov	r3, #160
 1897 0024 CAF20003 		movt	r3, 40960
 1898 0028 4FF0FC32 		mov	r2, #-50529028
 1899 002c 9A60     		str	r2, [r3, #8]
 613:App/STM32F4-Discovery/Libraries/STM32F4xx_StdPeriph_Driver/src/stm32f4xx_fsmc.c ****   FSMC_Bank4->PATT4 = 0xFCFCFCFC;
 1900              		.loc 1 613 0
 1901 002e 4FF0A003 		mov	r3, #160
 1902 0032 CAF20003 		movt	r3, 40960
 1903 0036 4FF0FC32 		mov	r2, #-50529028
 1904 003a DA60     		str	r2, [r3, #12]
 614:App/STM32F4-Discovery/Libraries/STM32F4xx_StdPeriph_Driver/src/stm32f4xx_fsmc.c ****   FSMC_Bank4->PIO4 = 0xFCFCFCFC;
 1905              		.loc 1 614 0
 1906 003c 4FF0A003 		mov	r3, #160
 1907 0040 CAF20003 		movt	r3, 40960
 1908 0044 4FF0FC32 		mov	r2, #-50529028
 1909 0048 1A61     		str	r2, [r3, #16]
 615:App/STM32F4-Discovery/Libraries/STM32F4xx_StdPeriph_Driver/src/stm32f4xx_fsmc.c **** }
 1910              		.loc 1 615 0
 1911 004a BD46     		mov	sp, r7
 1912 004c 80BC     		pop	{r7}
 1913 004e 7047     		bx	lr
 1914              		.cfi_endproc
 1915              	.LFE120:
 1917              		.section	.text.FSMC_PCCARDInit,"ax",%progbits
 1918              		.align	2
 1919              		.global	FSMC_PCCARDInit
 1920              		.thumb
 1921              		.thumb_func
 1923              	FSMC_PCCARDInit:
 1924              	.LFB121:
 616:App/STM32F4-Discovery/Libraries/STM32F4xx_StdPeriph_Driver/src/stm32f4xx_fsmc.c **** 
 617:App/STM32F4-Discovery/Libraries/STM32F4xx_StdPeriph_Driver/src/stm32f4xx_fsmc.c **** /**
 618:App/STM32F4-Discovery/Libraries/STM32F4xx_StdPeriph_Driver/src/stm32f4xx_fsmc.c ****   * @brief  Initializes the FSMC PCCARD Bank according to the specified parameters
 619:App/STM32F4-Discovery/Libraries/STM32F4xx_StdPeriph_Driver/src/stm32f4xx_fsmc.c ****   *         in the FSMC_PCCARDInitStruct.
 620:App/STM32F4-Discovery/Libraries/STM32F4xx_StdPeriph_Driver/src/stm32f4xx_fsmc.c ****   * @param  FSMC_PCCARDInitStruct : pointer to a FSMC_PCCARDInitTypeDef structure
 621:App/STM32F4-Discovery/Libraries/STM32F4xx_StdPeriph_Driver/src/stm32f4xx_fsmc.c ****   *         that contains the configuration information for the FSMC PCCARD Bank.                  
 622:App/STM32F4-Discovery/Libraries/STM32F4xx_StdPeriph_Driver/src/stm32f4xx_fsmc.c ****   * @retval None
 623:App/STM32F4-Discovery/Libraries/STM32F4xx_StdPeriph_Driver/src/stm32f4xx_fsmc.c ****   */
 624:App/STM32F4-Discovery/Libraries/STM32F4xx_StdPeriph_Driver/src/stm32f4xx_fsmc.c **** void FSMC_PCCARDInit(FSMC_PCCARDInitTypeDef* FSMC_PCCARDInitStruct)
 625:App/STM32F4-Discovery/Libraries/STM32F4xx_StdPeriph_Driver/src/stm32f4xx_fsmc.c **** {
 1925              		.loc 1 625 0
 1926              		.cfi_startproc
 1927              		@ args = 0, pretend = 0, frame = 8
 1928              		@ frame_needed = 1, uses_anonymous_args = 0
 1929 0000 80B5     		push	{r7, lr}
 1930              	.LCFI32:
 1931              		.cfi_def_cfa_offset 8
 1932              		.cfi_offset 7, -8
 1933              		.cfi_offset 14, -4
 1934 0002 82B0     		sub	sp, sp, #8
 1935              	.LCFI33:
 1936              		.cfi_def_cfa_offset 16
 1937 0004 00AF     		add	r7, sp, #0
 1938              	.LCFI34:
 1939              		.cfi_def_cfa_register 7
 1940 0006 7860     		str	r0, [r7, #4]
 626:App/STM32F4-Discovery/Libraries/STM32F4xx_StdPeriph_Driver/src/stm32f4xx_fsmc.c ****   /* Check the parameters */
 627:App/STM32F4-Discovery/Libraries/STM32F4xx_StdPeriph_Driver/src/stm32f4xx_fsmc.c ****   assert_param(IS_FSMC_WAIT_FEATURE(FSMC_PCCARDInitStruct->FSMC_Waitfeature));
 1941              		.loc 1 627 0
 1942 0008 7B68     		ldr	r3, [r7, #4]
 1943 000a 1B68     		ldr	r3, [r3, #0]
 1944 000c 002B     		cmp	r3, #0
 1945 000e 0BD0     		beq	.L86
 1946              		.loc 1 627 0 is_stmt 0 discriminator 1
 1947 0010 7B68     		ldr	r3, [r7, #4]
 1948 0012 1B68     		ldr	r3, [r3, #0]
 1949 0014 022B     		cmp	r3, #2
 1950 0016 07D0     		beq	.L86
 1951              		.loc 1 627 0 discriminator 2
 1952 0018 40F20000 		movw	r0, #:lower16:.LC0
 1953 001c C0F20000 		movt	r0, #:upper16:.LC0
 1954 0020 40F27321 		movw	r1, #627
 1955 0024 FFF7FEFF 		bl	assert_failed
 1956              	.L86:
 628:App/STM32F4-Discovery/Libraries/STM32F4xx_StdPeriph_Driver/src/stm32f4xx_fsmc.c ****   assert_param(IS_FSMC_TCLR_TIME(FSMC_PCCARDInitStruct->FSMC_TCLRSetupTime));
 1957              		.loc 1 628 0 is_stmt 1
 1958 0028 7B68     		ldr	r3, [r7, #4]
 1959 002a 5B68     		ldr	r3, [r3, #4]
 1960 002c FF2B     		cmp	r3, #255
 1961 002e 07D9     		bls	.L87
 1962              		.loc 1 628 0 is_stmt 0 discriminator 1
 1963 0030 40F20000 		movw	r0, #:lower16:.LC0
 1964 0034 C0F20000 		movt	r0, #:upper16:.LC0
 1965 0038 4FF41D71 		mov	r1, #628
 1966 003c FFF7FEFF 		bl	assert_failed
 1967              	.L87:
 629:App/STM32F4-Discovery/Libraries/STM32F4xx_StdPeriph_Driver/src/stm32f4xx_fsmc.c ****   assert_param(IS_FSMC_TAR_TIME(FSMC_PCCARDInitStruct->FSMC_TARSetupTime));
 1968              		.loc 1 629 0 is_stmt 1
 1969 0040 7B68     		ldr	r3, [r7, #4]
 1970 0042 9B68     		ldr	r3, [r3, #8]
 1971 0044 FF2B     		cmp	r3, #255
 1972 0046 07D9     		bls	.L88
 1973              		.loc 1 629 0 is_stmt 0 discriminator 1
 1974 0048 40F20000 		movw	r0, #:lower16:.LC0
 1975 004c C0F20000 		movt	r0, #:upper16:.LC0
 1976 0050 40F27521 		movw	r1, #629
 1977 0054 FFF7FEFF 		bl	assert_failed
 1978              	.L88:
 630:App/STM32F4-Discovery/Libraries/STM32F4xx_StdPeriph_Driver/src/stm32f4xx_fsmc.c ****  
 631:App/STM32F4-Discovery/Libraries/STM32F4xx_StdPeriph_Driver/src/stm32f4xx_fsmc.c ****   assert_param(IS_FSMC_SETUP_TIME(FSMC_PCCARDInitStruct->FSMC_CommonSpaceTimingStruct->FSMC_SetupTi
 1979              		.loc 1 631 0 is_stmt 1
 1980 0058 7B68     		ldr	r3, [r7, #4]
 1981 005a DB68     		ldr	r3, [r3, #12]
 1982 005c 1B68     		ldr	r3, [r3, #0]
 1983 005e FF2B     		cmp	r3, #255
 1984 0060 07D9     		bls	.L89
 1985              		.loc 1 631 0 is_stmt 0 discriminator 1
 1986 0062 40F20000 		movw	r0, #:lower16:.LC0
 1987 0066 C0F20000 		movt	r0, #:upper16:.LC0
 1988 006a 40F27721 		movw	r1, #631
 1989 006e FFF7FEFF 		bl	assert_failed
 1990              	.L89:
 632:App/STM32F4-Discovery/Libraries/STM32F4xx_StdPeriph_Driver/src/stm32f4xx_fsmc.c ****   assert_param(IS_FSMC_WAIT_TIME(FSMC_PCCARDInitStruct->FSMC_CommonSpaceTimingStruct->FSMC_WaitSetu
 1991              		.loc 1 632 0 is_stmt 1
 1992 0072 7B68     		ldr	r3, [r7, #4]
 1993 0074 DB68     		ldr	r3, [r3, #12]
 1994 0076 5B68     		ldr	r3, [r3, #4]
 1995 0078 FF2B     		cmp	r3, #255
 1996 007a 07D9     		bls	.L90
 1997              		.loc 1 632 0 is_stmt 0 discriminator 1
 1998 007c 40F20000 		movw	r0, #:lower16:.LC0
 1999 0080 C0F20000 		movt	r0, #:upper16:.LC0
 2000 0084 4FF41E71 		mov	r1, #632
 2001 0088 FFF7FEFF 		bl	assert_failed
 2002              	.L90:
 633:App/STM32F4-Discovery/Libraries/STM32F4xx_StdPeriph_Driver/src/stm32f4xx_fsmc.c ****   assert_param(IS_FSMC_HOLD_TIME(FSMC_PCCARDInitStruct->FSMC_CommonSpaceTimingStruct->FSMC_HoldSetu
 2003              		.loc 1 633 0 is_stmt 1
 2004 008c 7B68     		ldr	r3, [r7, #4]
 2005 008e DB68     		ldr	r3, [r3, #12]
 2006 0090 9B68     		ldr	r3, [r3, #8]
 2007 0092 FF2B     		cmp	r3, #255
 2008 0094 07D9     		bls	.L91
 2009              		.loc 1 633 0 is_stmt 0 discriminator 1
 2010 0096 40F20000 		movw	r0, #:lower16:.LC0
 2011 009a C0F20000 		movt	r0, #:upper16:.LC0
 2012 009e 40F27921 		movw	r1, #633
 2013 00a2 FFF7FEFF 		bl	assert_failed
 2014              	.L91:
 634:App/STM32F4-Discovery/Libraries/STM32F4xx_StdPeriph_Driver/src/stm32f4xx_fsmc.c ****   assert_param(IS_FSMC_HIZ_TIME(FSMC_PCCARDInitStruct->FSMC_CommonSpaceTimingStruct->FSMC_HiZSetupT
 2015              		.loc 1 634 0 is_stmt 1
 2016 00a6 7B68     		ldr	r3, [r7, #4]
 2017 00a8 DB68     		ldr	r3, [r3, #12]
 2018 00aa DB68     		ldr	r3, [r3, #12]
 2019 00ac FF2B     		cmp	r3, #255
 2020 00ae 07D9     		bls	.L92
 2021              		.loc 1 634 0 is_stmt 0 discriminator 1
 2022 00b0 40F20000 		movw	r0, #:lower16:.LC0
 2023 00b4 C0F20000 		movt	r0, #:upper16:.LC0
 2024 00b8 40F27A21 		movw	r1, #634
 2025 00bc FFF7FEFF 		bl	assert_failed
 2026              	.L92:
 635:App/STM32F4-Discovery/Libraries/STM32F4xx_StdPeriph_Driver/src/stm32f4xx_fsmc.c ****   
 636:App/STM32F4-Discovery/Libraries/STM32F4xx_StdPeriph_Driver/src/stm32f4xx_fsmc.c ****   assert_param(IS_FSMC_SETUP_TIME(FSMC_PCCARDInitStruct->FSMC_AttributeSpaceTimingStruct->FSMC_Setu
 2027              		.loc 1 636 0 is_stmt 1
 2028 00c0 7B68     		ldr	r3, [r7, #4]
 2029 00c2 1B69     		ldr	r3, [r3, #16]
 2030 00c4 1B68     		ldr	r3, [r3, #0]
 2031 00c6 FF2B     		cmp	r3, #255
 2032 00c8 07D9     		bls	.L93
 2033              		.loc 1 636 0 is_stmt 0 discriminator 1
 2034 00ca 40F20000 		movw	r0, #:lower16:.LC0
 2035 00ce C0F20000 		movt	r0, #:upper16:.LC0
 2036 00d2 4FF41F71 		mov	r1, #636
 2037 00d6 FFF7FEFF 		bl	assert_failed
 2038              	.L93:
 637:App/STM32F4-Discovery/Libraries/STM32F4xx_StdPeriph_Driver/src/stm32f4xx_fsmc.c ****   assert_param(IS_FSMC_WAIT_TIME(FSMC_PCCARDInitStruct->FSMC_AttributeSpaceTimingStruct->FSMC_WaitS
 2039              		.loc 1 637 0 is_stmt 1
 2040 00da 7B68     		ldr	r3, [r7, #4]
 2041 00dc 1B69     		ldr	r3, [r3, #16]
 2042 00de 5B68     		ldr	r3, [r3, #4]
 2043 00e0 FF2B     		cmp	r3, #255
 2044 00e2 07D9     		bls	.L94
 2045              		.loc 1 637 0 is_stmt 0 discriminator 1
 2046 00e4 40F20000 		movw	r0, #:lower16:.LC0
 2047 00e8 C0F20000 		movt	r0, #:upper16:.LC0
 2048 00ec 40F27D21 		movw	r1, #637
 2049 00f0 FFF7FEFF 		bl	assert_failed
 2050              	.L94:
 638:App/STM32F4-Discovery/Libraries/STM32F4xx_StdPeriph_Driver/src/stm32f4xx_fsmc.c ****   assert_param(IS_FSMC_HOLD_TIME(FSMC_PCCARDInitStruct->FSMC_AttributeSpaceTimingStruct->FSMC_HoldS
 2051              		.loc 1 638 0 is_stmt 1
 2052 00f4 7B68     		ldr	r3, [r7, #4]
 2053 00f6 1B69     		ldr	r3, [r3, #16]
 2054 00f8 9B68     		ldr	r3, [r3, #8]
 2055 00fa FF2B     		cmp	r3, #255
 2056 00fc 07D9     		bls	.L95
 2057              		.loc 1 638 0 is_stmt 0 discriminator 1
 2058 00fe 40F20000 		movw	r0, #:lower16:.LC0
 2059 0102 C0F20000 		movt	r0, #:upper16:.LC0
 2060 0106 40F27E21 		movw	r1, #638
 2061 010a FFF7FEFF 		bl	assert_failed
 2062              	.L95:
 639:App/STM32F4-Discovery/Libraries/STM32F4xx_StdPeriph_Driver/src/stm32f4xx_fsmc.c ****   assert_param(IS_FSMC_HIZ_TIME(FSMC_PCCARDInitStruct->FSMC_AttributeSpaceTimingStruct->FSMC_HiZSet
 2063              		.loc 1 639 0 is_stmt 1
 2064 010e 7B68     		ldr	r3, [r7, #4]
 2065 0110 1B69     		ldr	r3, [r3, #16]
 2066 0112 DB68     		ldr	r3, [r3, #12]
 2067 0114 FF2B     		cmp	r3, #255
 2068 0116 07D9     		bls	.L96
 2069              		.loc 1 639 0 is_stmt 0 discriminator 1
 2070 0118 40F20000 		movw	r0, #:lower16:.LC0
 2071 011c C0F20000 		movt	r0, #:upper16:.LC0
 2072 0120 40F27F21 		movw	r1, #639
 2073 0124 FFF7FEFF 		bl	assert_failed
 2074              	.L96:
 640:App/STM32F4-Discovery/Libraries/STM32F4xx_StdPeriph_Driver/src/stm32f4xx_fsmc.c ****   assert_param(IS_FSMC_SETUP_TIME(FSMC_PCCARDInitStruct->FSMC_IOSpaceTimingStruct->FSMC_SetupTime))
 2075              		.loc 1 640 0 is_stmt 1
 2076 0128 7B68     		ldr	r3, [r7, #4]
 2077 012a 5B69     		ldr	r3, [r3, #20]
 2078 012c 1B68     		ldr	r3, [r3, #0]
 2079 012e FF2B     		cmp	r3, #255
 2080 0130 07D9     		bls	.L97
 2081              		.loc 1 640 0 is_stmt 0 discriminator 1
 2082 0132 40F20000 		movw	r0, #:lower16:.LC0
 2083 0136 C0F20000 		movt	r0, #:upper16:.LC0
 2084 013a 4FF42071 		mov	r1, #640
 2085 013e FFF7FEFF 		bl	assert_failed
 2086              	.L97:
 641:App/STM32F4-Discovery/Libraries/STM32F4xx_StdPeriph_Driver/src/stm32f4xx_fsmc.c ****   assert_param(IS_FSMC_WAIT_TIME(FSMC_PCCARDInitStruct->FSMC_IOSpaceTimingStruct->FSMC_WaitSetupTim
 2087              		.loc 1 641 0 is_stmt 1
 2088 0142 7B68     		ldr	r3, [r7, #4]
 2089 0144 5B69     		ldr	r3, [r3, #20]
 2090 0146 5B68     		ldr	r3, [r3, #4]
 2091 0148 FF2B     		cmp	r3, #255
 2092 014a 07D9     		bls	.L98
 2093              		.loc 1 641 0 is_stmt 0 discriminator 1
 2094 014c 40F20000 		movw	r0, #:lower16:.LC0
 2095 0150 C0F20000 		movt	r0, #:upper16:.LC0
 2096 0154 40F28121 		movw	r1, #641
 2097 0158 FFF7FEFF 		bl	assert_failed
 2098              	.L98:
 642:App/STM32F4-Discovery/Libraries/STM32F4xx_StdPeriph_Driver/src/stm32f4xx_fsmc.c ****   assert_param(IS_FSMC_HOLD_TIME(FSMC_PCCARDInitStruct->FSMC_IOSpaceTimingStruct->FSMC_HoldSetupTim
 2099              		.loc 1 642 0 is_stmt 1
 2100 015c 7B68     		ldr	r3, [r7, #4]
 2101 015e 5B69     		ldr	r3, [r3, #20]
 2102 0160 9B68     		ldr	r3, [r3, #8]
 2103 0162 FF2B     		cmp	r3, #255
 2104 0164 07D9     		bls	.L99
 2105              		.loc 1 642 0 is_stmt 0 discriminator 1
 2106 0166 40F20000 		movw	r0, #:lower16:.LC0
 2107 016a C0F20000 		movt	r0, #:upper16:.LC0
 2108 016e 40F28221 		movw	r1, #642
 2109 0172 FFF7FEFF 		bl	assert_failed
 2110              	.L99:
 643:App/STM32F4-Discovery/Libraries/STM32F4xx_StdPeriph_Driver/src/stm32f4xx_fsmc.c ****   assert_param(IS_FSMC_HIZ_TIME(FSMC_PCCARDInitStruct->FSMC_IOSpaceTimingStruct->FSMC_HiZSetupTime)
 2111              		.loc 1 643 0 is_stmt 1
 2112 0176 7B68     		ldr	r3, [r7, #4]
 2113 0178 5B69     		ldr	r3, [r3, #20]
 2114 017a DB68     		ldr	r3, [r3, #12]
 2115 017c FF2B     		cmp	r3, #255
 2116 017e 07D9     		bls	.L100
 2117              		.loc 1 643 0 is_stmt 0 discriminator 1
 2118 0180 40F20000 		movw	r0, #:lower16:.LC0
 2119 0184 C0F20000 		movt	r0, #:upper16:.LC0
 2120 0188 40F28321 		movw	r1, #643
 2121 018c FFF7FEFF 		bl	assert_failed
 2122              	.L100:
 644:App/STM32F4-Discovery/Libraries/STM32F4xx_StdPeriph_Driver/src/stm32f4xx_fsmc.c ****   
 645:App/STM32F4-Discovery/Libraries/STM32F4xx_StdPeriph_Driver/src/stm32f4xx_fsmc.c ****   /* Set the PCR4 register value according to FSMC_PCCARDInitStruct parameters */
 646:App/STM32F4-Discovery/Libraries/STM32F4xx_StdPeriph_Driver/src/stm32f4xx_fsmc.c ****   FSMC_Bank4->PCR4 = (uint32_t)FSMC_PCCARDInitStruct->FSMC_Waitfeature |
 2123              		.loc 1 646 0 is_stmt 1
 2124 0190 4FF0A003 		mov	r3, #160
 2125 0194 CAF20003 		movt	r3, 40960
 2126 0198 7A68     		ldr	r2, [r7, #4]
 2127 019a 1168     		ldr	r1, [r2, #0]
 647:App/STM32F4-Discovery/Libraries/STM32F4xx_StdPeriph_Driver/src/stm32f4xx_fsmc.c ****                      FSMC_MemoryDataWidth_16b |  
 648:App/STM32F4-Discovery/Libraries/STM32F4xx_StdPeriph_Driver/src/stm32f4xx_fsmc.c ****                      (FSMC_PCCARDInitStruct->FSMC_TCLRSetupTime << 9) |
 2128              		.loc 1 648 0
 2129 019c 7A68     		ldr	r2, [r7, #4]
 2130 019e 5268     		ldr	r2, [r2, #4]
 2131 01a0 4FEA4222 		lsl	r2, r2, #9
 647:App/STM32F4-Discovery/Libraries/STM32F4xx_StdPeriph_Driver/src/stm32f4xx_fsmc.c ****                      FSMC_MemoryDataWidth_16b |  
 2132              		.loc 1 647 0
 2133 01a4 1143     		orrs	r1, r1, r2
 649:App/STM32F4-Discovery/Libraries/STM32F4xx_StdPeriph_Driver/src/stm32f4xx_fsmc.c ****                      (FSMC_PCCARDInitStruct->FSMC_TARSetupTime << 13);
 2134              		.loc 1 649 0
 2135 01a6 7A68     		ldr	r2, [r7, #4]
 2136 01a8 9268     		ldr	r2, [r2, #8]
 2137 01aa 4FEA4232 		lsl	r2, r2, #13
 648:App/STM32F4-Discovery/Libraries/STM32F4xx_StdPeriph_Driver/src/stm32f4xx_fsmc.c ****                      (FSMC_PCCARDInitStruct->FSMC_TCLRSetupTime << 9) |
 2138              		.loc 1 648 0
 2139 01ae 0A43     		orrs	r2, r2, r1
 2140 01b0 42F01002 		orr	r2, r2, #16
 646:App/STM32F4-Discovery/Libraries/STM32F4xx_StdPeriph_Driver/src/stm32f4xx_fsmc.c ****   FSMC_Bank4->PCR4 = (uint32_t)FSMC_PCCARDInitStruct->FSMC_Waitfeature |
 2141              		.loc 1 646 0
 2142 01b4 1A60     		str	r2, [r3, #0]
 650:App/STM32F4-Discovery/Libraries/STM32F4xx_StdPeriph_Driver/src/stm32f4xx_fsmc.c ****             
 651:App/STM32F4-Discovery/Libraries/STM32F4xx_StdPeriph_Driver/src/stm32f4xx_fsmc.c ****   /* Set PMEM4 register value according to FSMC_CommonSpaceTimingStructure parameters */
 652:App/STM32F4-Discovery/Libraries/STM32F4xx_StdPeriph_Driver/src/stm32f4xx_fsmc.c ****   FSMC_Bank4->PMEM4 = (uint32_t)FSMC_PCCARDInitStruct->FSMC_CommonSpaceTimingStruct->FSMC_SetupTime
 2143              		.loc 1 652 0
 2144 01b6 4FF0A003 		mov	r3, #160
 2145 01ba CAF20003 		movt	r3, 40960
 2146 01be 7A68     		ldr	r2, [r7, #4]
 2147 01c0 D268     		ldr	r2, [r2, #12]
 2148 01c2 1168     		ldr	r1, [r2, #0]
 653:App/STM32F4-Discovery/Libraries/STM32F4xx_StdPeriph_Driver/src/stm32f4xx_fsmc.c ****                       (FSMC_PCCARDInitStruct->FSMC_CommonSpaceTimingStruct->FSMC_WaitSetupTime << 8
 2149              		.loc 1 653 0
 2150 01c4 7A68     		ldr	r2, [r7, #4]
 2151 01c6 D268     		ldr	r2, [r2, #12]
 2152 01c8 5268     		ldr	r2, [r2, #4]
 2153 01ca 4FEA0222 		lsl	r2, r2, #8
 652:App/STM32F4-Discovery/Libraries/STM32F4xx_StdPeriph_Driver/src/stm32f4xx_fsmc.c ****   FSMC_Bank4->PMEM4 = (uint32_t)FSMC_PCCARDInitStruct->FSMC_CommonSpaceTimingStruct->FSMC_SetupTime
 2154              		.loc 1 652 0
 2155 01ce 1143     		orrs	r1, r1, r2
 654:App/STM32F4-Discovery/Libraries/STM32F4xx_StdPeriph_Driver/src/stm32f4xx_fsmc.c ****                       (FSMC_PCCARDInitStruct->FSMC_CommonSpaceTimingStruct->FSMC_HoldSetupTime << 1
 2156              		.loc 1 654 0
 2157 01d0 7A68     		ldr	r2, [r7, #4]
 2158 01d2 D268     		ldr	r2, [r2, #12]
 2159 01d4 9268     		ldr	r2, [r2, #8]
 2160 01d6 4FEA0242 		lsl	r2, r2, #16
 653:App/STM32F4-Discovery/Libraries/STM32F4xx_StdPeriph_Driver/src/stm32f4xx_fsmc.c ****                       (FSMC_PCCARDInitStruct->FSMC_CommonSpaceTimingStruct->FSMC_WaitSetupTime << 8
 2161              		.loc 1 653 0
 2162 01da 1143     		orrs	r1, r1, r2
 655:App/STM32F4-Discovery/Libraries/STM32F4xx_StdPeriph_Driver/src/stm32f4xx_fsmc.c ****                       (FSMC_PCCARDInitStruct->FSMC_CommonSpaceTimingStruct->FSMC_HiZSetupTime << 24
 2163              		.loc 1 655 0
 2164 01dc 7A68     		ldr	r2, [r7, #4]
 2165 01de D268     		ldr	r2, [r2, #12]
 2166 01e0 D268     		ldr	r2, [r2, #12]
 2167 01e2 4FEA0262 		lsl	r2, r2, #24
 654:App/STM32F4-Discovery/Libraries/STM32F4xx_StdPeriph_Driver/src/stm32f4xx_fsmc.c ****                       (FSMC_PCCARDInitStruct->FSMC_CommonSpaceTimingStruct->FSMC_HoldSetupTime << 1
 2168              		.loc 1 654 0
 2169 01e6 0A43     		orrs	r2, r2, r1
 652:App/STM32F4-Discovery/Libraries/STM32F4xx_StdPeriph_Driver/src/stm32f4xx_fsmc.c ****   FSMC_Bank4->PMEM4 = (uint32_t)FSMC_PCCARDInitStruct->FSMC_CommonSpaceTimingStruct->FSMC_SetupTime
 2170              		.loc 1 652 0
 2171 01e8 9A60     		str	r2, [r3, #8]
 656:App/STM32F4-Discovery/Libraries/STM32F4xx_StdPeriph_Driver/src/stm32f4xx_fsmc.c ****             
 657:App/STM32F4-Discovery/Libraries/STM32F4xx_StdPeriph_Driver/src/stm32f4xx_fsmc.c ****   /* Set PATT4 register value according to FSMC_AttributeSpaceTimingStructure parameters */
 658:App/STM32F4-Discovery/Libraries/STM32F4xx_StdPeriph_Driver/src/stm32f4xx_fsmc.c ****   FSMC_Bank4->PATT4 = (uint32_t)FSMC_PCCARDInitStruct->FSMC_AttributeSpaceTimingStruct->FSMC_SetupT
 2172              		.loc 1 658 0
 2173 01ea 4FF0A003 		mov	r3, #160
 2174 01ee CAF20003 		movt	r3, 40960
 2175 01f2 7A68     		ldr	r2, [r7, #4]
 2176 01f4 1269     		ldr	r2, [r2, #16]
 2177 01f6 1168     		ldr	r1, [r2, #0]
 659:App/STM32F4-Discovery/Libraries/STM32F4xx_StdPeriph_Driver/src/stm32f4xx_fsmc.c ****                       (FSMC_PCCARDInitStruct->FSMC_AttributeSpaceTimingStruct->FSMC_WaitSetupTime <
 2178              		.loc 1 659 0
 2179 01f8 7A68     		ldr	r2, [r7, #4]
 2180 01fa 1269     		ldr	r2, [r2, #16]
 2181 01fc 5268     		ldr	r2, [r2, #4]
 2182 01fe 4FEA0222 		lsl	r2, r2, #8
 658:App/STM32F4-Discovery/Libraries/STM32F4xx_StdPeriph_Driver/src/stm32f4xx_fsmc.c ****   FSMC_Bank4->PATT4 = (uint32_t)FSMC_PCCARDInitStruct->FSMC_AttributeSpaceTimingStruct->FSMC_SetupT
 2183              		.loc 1 658 0
 2184 0202 1143     		orrs	r1, r1, r2
 660:App/STM32F4-Discovery/Libraries/STM32F4xx_StdPeriph_Driver/src/stm32f4xx_fsmc.c ****                       (FSMC_PCCARDInitStruct->FSMC_AttributeSpaceTimingStruct->FSMC_HoldSetupTime <
 2185              		.loc 1 660 0
 2186 0204 7A68     		ldr	r2, [r7, #4]
 2187 0206 1269     		ldr	r2, [r2, #16]
 2188 0208 9268     		ldr	r2, [r2, #8]
 2189 020a 4FEA0242 		lsl	r2, r2, #16
 659:App/STM32F4-Discovery/Libraries/STM32F4xx_StdPeriph_Driver/src/stm32f4xx_fsmc.c ****                       (FSMC_PCCARDInitStruct->FSMC_AttributeSpaceTimingStruct->FSMC_WaitSetupTime <
 2190              		.loc 1 659 0
 2191 020e 1143     		orrs	r1, r1, r2
 661:App/STM32F4-Discovery/Libraries/STM32F4xx_StdPeriph_Driver/src/stm32f4xx_fsmc.c ****                       (FSMC_PCCARDInitStruct->FSMC_AttributeSpaceTimingStruct->FSMC_HiZSetupTime <<
 2192              		.loc 1 661 0
 2193 0210 7A68     		ldr	r2, [r7, #4]
 2194 0212 1269     		ldr	r2, [r2, #16]
 2195 0214 D268     		ldr	r2, [r2, #12]
 2196 0216 4FEA0262 		lsl	r2, r2, #24
 660:App/STM32F4-Discovery/Libraries/STM32F4xx_StdPeriph_Driver/src/stm32f4xx_fsmc.c ****                       (FSMC_PCCARDInitStruct->FSMC_AttributeSpaceTimingStruct->FSMC_HoldSetupTime <
 2197              		.loc 1 660 0
 2198 021a 0A43     		orrs	r2, r2, r1
 658:App/STM32F4-Discovery/Libraries/STM32F4xx_StdPeriph_Driver/src/stm32f4xx_fsmc.c ****   FSMC_Bank4->PATT4 = (uint32_t)FSMC_PCCARDInitStruct->FSMC_AttributeSpaceTimingStruct->FSMC_SetupT
 2199              		.loc 1 658 0
 2200 021c DA60     		str	r2, [r3, #12]
 662:App/STM32F4-Discovery/Libraries/STM32F4xx_StdPeriph_Driver/src/stm32f4xx_fsmc.c ****             
 663:App/STM32F4-Discovery/Libraries/STM32F4xx_StdPeriph_Driver/src/stm32f4xx_fsmc.c ****   /* Set PIO4 register value according to FSMC_IOSpaceTimingStructure parameters */
 664:App/STM32F4-Discovery/Libraries/STM32F4xx_StdPeriph_Driver/src/stm32f4xx_fsmc.c ****   FSMC_Bank4->PIO4 = (uint32_t)FSMC_PCCARDInitStruct->FSMC_IOSpaceTimingStruct->FSMC_SetupTime |
 2201              		.loc 1 664 0
 2202 021e 4FF0A003 		mov	r3, #160
 2203 0222 CAF20003 		movt	r3, 40960
 2204 0226 7A68     		ldr	r2, [r7, #4]
 2205 0228 5269     		ldr	r2, [r2, #20]
 2206 022a 1168     		ldr	r1, [r2, #0]
 665:App/STM32F4-Discovery/Libraries/STM32F4xx_StdPeriph_Driver/src/stm32f4xx_fsmc.c ****                      (FSMC_PCCARDInitStruct->FSMC_IOSpaceTimingStruct->FSMC_WaitSetupTime << 8) |
 2207              		.loc 1 665 0
 2208 022c 7A68     		ldr	r2, [r7, #4]
 2209 022e 5269     		ldr	r2, [r2, #20]
 2210 0230 5268     		ldr	r2, [r2, #4]
 2211 0232 4FEA0222 		lsl	r2, r2, #8
 664:App/STM32F4-Discovery/Libraries/STM32F4xx_StdPeriph_Driver/src/stm32f4xx_fsmc.c ****   FSMC_Bank4->PIO4 = (uint32_t)FSMC_PCCARDInitStruct->FSMC_IOSpaceTimingStruct->FSMC_SetupTime |
 2212              		.loc 1 664 0
 2213 0236 1143     		orrs	r1, r1, r2
 666:App/STM32F4-Discovery/Libraries/STM32F4xx_StdPeriph_Driver/src/stm32f4xx_fsmc.c ****                      (FSMC_PCCARDInitStruct->FSMC_IOSpaceTimingStruct->FSMC_HoldSetupTime << 16)|
 2214              		.loc 1 666 0
 2215 0238 7A68     		ldr	r2, [r7, #4]
 2216 023a 5269     		ldr	r2, [r2, #20]
 2217 023c 9268     		ldr	r2, [r2, #8]
 2218 023e 4FEA0242 		lsl	r2, r2, #16
 665:App/STM32F4-Discovery/Libraries/STM32F4xx_StdPeriph_Driver/src/stm32f4xx_fsmc.c ****                      (FSMC_PCCARDInitStruct->FSMC_IOSpaceTimingStruct->FSMC_WaitSetupTime << 8) |
 2219              		.loc 1 665 0
 2220 0242 1143     		orrs	r1, r1, r2
 667:App/STM32F4-Discovery/Libraries/STM32F4xx_StdPeriph_Driver/src/stm32f4xx_fsmc.c ****                      (FSMC_PCCARDInitStruct->FSMC_IOSpaceTimingStruct->FSMC_HiZSetupTime << 24);   
 2221              		.loc 1 667 0
 2222 0244 7A68     		ldr	r2, [r7, #4]
 2223 0246 5269     		ldr	r2, [r2, #20]
 2224 0248 D268     		ldr	r2, [r2, #12]
 2225 024a 4FEA0262 		lsl	r2, r2, #24
 666:App/STM32F4-Discovery/Libraries/STM32F4xx_StdPeriph_Driver/src/stm32f4xx_fsmc.c ****                      (FSMC_PCCARDInitStruct->FSMC_IOSpaceTimingStruct->FSMC_HoldSetupTime << 16)|
 2226              		.loc 1 666 0
 2227 024e 0A43     		orrs	r2, r2, r1
 664:App/STM32F4-Discovery/Libraries/STM32F4xx_StdPeriph_Driver/src/stm32f4xx_fsmc.c ****   FSMC_Bank4->PIO4 = (uint32_t)FSMC_PCCARDInitStruct->FSMC_IOSpaceTimingStruct->FSMC_SetupTime |
 2228              		.loc 1 664 0
 2229 0250 1A61     		str	r2, [r3, #16]
 668:App/STM32F4-Discovery/Libraries/STM32F4xx_StdPeriph_Driver/src/stm32f4xx_fsmc.c **** }
 2230              		.loc 1 668 0
 2231 0252 07F10807 		add	r7, r7, #8
 2232 0256 BD46     		mov	sp, r7
 2233 0258 80BD     		pop	{r7, pc}
 2234              		.cfi_endproc
 2235              	.LFE121:
 2237 025a 00BF     		.section	.text.FSMC_PCCARDStructInit,"ax",%progbits
 2238              		.align	2
 2239              		.global	FSMC_PCCARDStructInit
 2240              		.thumb
 2241              		.thumb_func
 2243              	FSMC_PCCARDStructInit:
 2244              	.LFB122:
 669:App/STM32F4-Discovery/Libraries/STM32F4xx_StdPeriph_Driver/src/stm32f4xx_fsmc.c **** 
 670:App/STM32F4-Discovery/Libraries/STM32F4xx_StdPeriph_Driver/src/stm32f4xx_fsmc.c **** /**
 671:App/STM32F4-Discovery/Libraries/STM32F4xx_StdPeriph_Driver/src/stm32f4xx_fsmc.c ****   * @brief  Fills each FSMC_PCCARDInitStruct member with its default value.
 672:App/STM32F4-Discovery/Libraries/STM32F4xx_StdPeriph_Driver/src/stm32f4xx_fsmc.c ****   * @param  FSMC_PCCARDInitStruct: pointer to a FSMC_PCCARDInitTypeDef structure
 673:App/STM32F4-Discovery/Libraries/STM32F4xx_StdPeriph_Driver/src/stm32f4xx_fsmc.c ****   *         which will be initialized.
 674:App/STM32F4-Discovery/Libraries/STM32F4xx_StdPeriph_Driver/src/stm32f4xx_fsmc.c ****   * @retval None
 675:App/STM32F4-Discovery/Libraries/STM32F4xx_StdPeriph_Driver/src/stm32f4xx_fsmc.c ****   */
 676:App/STM32F4-Discovery/Libraries/STM32F4xx_StdPeriph_Driver/src/stm32f4xx_fsmc.c **** void FSMC_PCCARDStructInit(FSMC_PCCARDInitTypeDef* FSMC_PCCARDInitStruct)
 677:App/STM32F4-Discovery/Libraries/STM32F4xx_StdPeriph_Driver/src/stm32f4xx_fsmc.c **** {
 2245              		.loc 1 677 0
 2246              		.cfi_startproc
 2247              		@ args = 0, pretend = 0, frame = 8
 2248              		@ frame_needed = 1, uses_anonymous_args = 0
 2249              		@ link register save eliminated.
 2250 0000 80B4     		push	{r7}
 2251              	.LCFI35:
 2252              		.cfi_def_cfa_offset 4
 2253              		.cfi_offset 7, -4
 2254 0002 83B0     		sub	sp, sp, #12
 2255              	.LCFI36:
 2256              		.cfi_def_cfa_offset 16
 2257 0004 00AF     		add	r7, sp, #0
 2258              	.LCFI37:
 2259              		.cfi_def_cfa_register 7
 2260 0006 7860     		str	r0, [r7, #4]
 678:App/STM32F4-Discovery/Libraries/STM32F4xx_StdPeriph_Driver/src/stm32f4xx_fsmc.c ****   /* Reset PCCARD Init structure parameters values */
 679:App/STM32F4-Discovery/Libraries/STM32F4xx_StdPeriph_Driver/src/stm32f4xx_fsmc.c ****   FSMC_PCCARDInitStruct->FSMC_Waitfeature = FSMC_Waitfeature_Disable;
 2261              		.loc 1 679 0
 2262 0008 7B68     		ldr	r3, [r7, #4]
 2263 000a 4FF00002 		mov	r2, #0
 2264 000e 1A60     		str	r2, [r3, #0]
 680:App/STM32F4-Discovery/Libraries/STM32F4xx_StdPeriph_Driver/src/stm32f4xx_fsmc.c ****   FSMC_PCCARDInitStruct->FSMC_TCLRSetupTime = 0x0;
 2265              		.loc 1 680 0
 2266 0010 7B68     		ldr	r3, [r7, #4]
 2267 0012 4FF00002 		mov	r2, #0
 2268 0016 5A60     		str	r2, [r3, #4]
 681:App/STM32F4-Discovery/Libraries/STM32F4xx_StdPeriph_Driver/src/stm32f4xx_fsmc.c ****   FSMC_PCCARDInitStruct->FSMC_TARSetupTime = 0x0;
 2269              		.loc 1 681 0
 2270 0018 7B68     		ldr	r3, [r7, #4]
 2271 001a 4FF00002 		mov	r2, #0
 2272 001e 9A60     		str	r2, [r3, #8]
 682:App/STM32F4-Discovery/Libraries/STM32F4xx_StdPeriph_Driver/src/stm32f4xx_fsmc.c ****   FSMC_PCCARDInitStruct->FSMC_CommonSpaceTimingStruct->FSMC_SetupTime = 0xFC;
 2273              		.loc 1 682 0
 2274 0020 7B68     		ldr	r3, [r7, #4]
 2275 0022 DB68     		ldr	r3, [r3, #12]
 2276 0024 4FF0FC02 		mov	r2, #252
 2277 0028 1A60     		str	r2, [r3, #0]
 683:App/STM32F4-Discovery/Libraries/STM32F4xx_StdPeriph_Driver/src/stm32f4xx_fsmc.c ****   FSMC_PCCARDInitStruct->FSMC_CommonSpaceTimingStruct->FSMC_WaitSetupTime = 0xFC;
 2278              		.loc 1 683 0
 2279 002a 7B68     		ldr	r3, [r7, #4]
 2280 002c DB68     		ldr	r3, [r3, #12]
 2281 002e 4FF0FC02 		mov	r2, #252
 2282 0032 5A60     		str	r2, [r3, #4]
 684:App/STM32F4-Discovery/Libraries/STM32F4xx_StdPeriph_Driver/src/stm32f4xx_fsmc.c ****   FSMC_PCCARDInitStruct->FSMC_CommonSpaceTimingStruct->FSMC_HoldSetupTime = 0xFC;
 2283              		.loc 1 684 0
 2284 0034 7B68     		ldr	r3, [r7, #4]
 2285 0036 DB68     		ldr	r3, [r3, #12]
 2286 0038 4FF0FC02 		mov	r2, #252
 2287 003c 9A60     		str	r2, [r3, #8]
 685:App/STM32F4-Discovery/Libraries/STM32F4xx_StdPeriph_Driver/src/stm32f4xx_fsmc.c ****   FSMC_PCCARDInitStruct->FSMC_CommonSpaceTimingStruct->FSMC_HiZSetupTime = 0xFC;
 2288              		.loc 1 685 0
 2289 003e 7B68     		ldr	r3, [r7, #4]
 2290 0040 DB68     		ldr	r3, [r3, #12]
 2291 0042 4FF0FC02 		mov	r2, #252
 2292 0046 DA60     		str	r2, [r3, #12]
 686:App/STM32F4-Discovery/Libraries/STM32F4xx_StdPeriph_Driver/src/stm32f4xx_fsmc.c ****   FSMC_PCCARDInitStruct->FSMC_AttributeSpaceTimingStruct->FSMC_SetupTime = 0xFC;
 2293              		.loc 1 686 0
 2294 0048 7B68     		ldr	r3, [r7, #4]
 2295 004a 1B69     		ldr	r3, [r3, #16]
 2296 004c 4FF0FC02 		mov	r2, #252
 2297 0050 1A60     		str	r2, [r3, #0]
 687:App/STM32F4-Discovery/Libraries/STM32F4xx_StdPeriph_Driver/src/stm32f4xx_fsmc.c ****   FSMC_PCCARDInitStruct->FSMC_AttributeSpaceTimingStruct->FSMC_WaitSetupTime = 0xFC;
 2298              		.loc 1 687 0
 2299 0052 7B68     		ldr	r3, [r7, #4]
 2300 0054 1B69     		ldr	r3, [r3, #16]
 2301 0056 4FF0FC02 		mov	r2, #252
 2302 005a 5A60     		str	r2, [r3, #4]
 688:App/STM32F4-Discovery/Libraries/STM32F4xx_StdPeriph_Driver/src/stm32f4xx_fsmc.c ****   FSMC_PCCARDInitStruct->FSMC_AttributeSpaceTimingStruct->FSMC_HoldSetupTime = 0xFC;
 2303              		.loc 1 688 0
 2304 005c 7B68     		ldr	r3, [r7, #4]
 2305 005e 1B69     		ldr	r3, [r3, #16]
 2306 0060 4FF0FC02 		mov	r2, #252
 2307 0064 9A60     		str	r2, [r3, #8]
 689:App/STM32F4-Discovery/Libraries/STM32F4xx_StdPeriph_Driver/src/stm32f4xx_fsmc.c ****   FSMC_PCCARDInitStruct->FSMC_AttributeSpaceTimingStruct->FSMC_HiZSetupTime = 0xFC;	
 2308              		.loc 1 689 0
 2309 0066 7B68     		ldr	r3, [r7, #4]
 2310 0068 1B69     		ldr	r3, [r3, #16]
 2311 006a 4FF0FC02 		mov	r2, #252
 2312 006e DA60     		str	r2, [r3, #12]
 690:App/STM32F4-Discovery/Libraries/STM32F4xx_StdPeriph_Driver/src/stm32f4xx_fsmc.c ****   FSMC_PCCARDInitStruct->FSMC_IOSpaceTimingStruct->FSMC_SetupTime = 0xFC;
 2313              		.loc 1 690 0
 2314 0070 7B68     		ldr	r3, [r7, #4]
 2315 0072 5B69     		ldr	r3, [r3, #20]
 2316 0074 4FF0FC02 		mov	r2, #252
 2317 0078 1A60     		str	r2, [r3, #0]
 691:App/STM32F4-Discovery/Libraries/STM32F4xx_StdPeriph_Driver/src/stm32f4xx_fsmc.c ****   FSMC_PCCARDInitStruct->FSMC_IOSpaceTimingStruct->FSMC_WaitSetupTime = 0xFC;
 2318              		.loc 1 691 0
 2319 007a 7B68     		ldr	r3, [r7, #4]
 2320 007c 5B69     		ldr	r3, [r3, #20]
 2321 007e 4FF0FC02 		mov	r2, #252
 2322 0082 5A60     		str	r2, [r3, #4]
 692:App/STM32F4-Discovery/Libraries/STM32F4xx_StdPeriph_Driver/src/stm32f4xx_fsmc.c ****   FSMC_PCCARDInitStruct->FSMC_IOSpaceTimingStruct->FSMC_HoldSetupTime = 0xFC;
 2323              		.loc 1 692 0
 2324 0084 7B68     		ldr	r3, [r7, #4]
 2325 0086 5B69     		ldr	r3, [r3, #20]
 2326 0088 4FF0FC02 		mov	r2, #252
 2327 008c 9A60     		str	r2, [r3, #8]
 693:App/STM32F4-Discovery/Libraries/STM32F4xx_StdPeriph_Driver/src/stm32f4xx_fsmc.c ****   FSMC_PCCARDInitStruct->FSMC_IOSpaceTimingStruct->FSMC_HiZSetupTime = 0xFC;
 2328              		.loc 1 693 0
 2329 008e 7B68     		ldr	r3, [r7, #4]
 2330 0090 5B69     		ldr	r3, [r3, #20]
 2331 0092 4FF0FC02 		mov	r2, #252
 2332 0096 DA60     		str	r2, [r3, #12]
 694:App/STM32F4-Discovery/Libraries/STM32F4xx_StdPeriph_Driver/src/stm32f4xx_fsmc.c **** }
 2333              		.loc 1 694 0
 2334 0098 07F10C07 		add	r7, r7, #12
 2335 009c BD46     		mov	sp, r7
 2336 009e 80BC     		pop	{r7}
 2337 00a0 7047     		bx	lr
 2338              		.cfi_endproc
 2339              	.LFE122:
 2341 00a2 00BF     		.section	.text.FSMC_PCCARDCmd,"ax",%progbits
 2342              		.align	2
 2343              		.global	FSMC_PCCARDCmd
 2344              		.thumb
 2345              		.thumb_func
 2347              	FSMC_PCCARDCmd:
 2348              	.LFB123:
 695:App/STM32F4-Discovery/Libraries/STM32F4xx_StdPeriph_Driver/src/stm32f4xx_fsmc.c **** 
 696:App/STM32F4-Discovery/Libraries/STM32F4xx_StdPeriph_Driver/src/stm32f4xx_fsmc.c **** /**
 697:App/STM32F4-Discovery/Libraries/STM32F4xx_StdPeriph_Driver/src/stm32f4xx_fsmc.c ****   * @brief  Enables or disables the PCCARD Memory Bank.
 698:App/STM32F4-Discovery/Libraries/STM32F4xx_StdPeriph_Driver/src/stm32f4xx_fsmc.c ****   * @param  NewState: new state of the PCCARD Memory Bank.  
 699:App/STM32F4-Discovery/Libraries/STM32F4xx_StdPeriph_Driver/src/stm32f4xx_fsmc.c ****   *          This parameter can be: ENABLE or DISABLE.
 700:App/STM32F4-Discovery/Libraries/STM32F4xx_StdPeriph_Driver/src/stm32f4xx_fsmc.c ****   * @retval None
 701:App/STM32F4-Discovery/Libraries/STM32F4xx_StdPeriph_Driver/src/stm32f4xx_fsmc.c ****   */
 702:App/STM32F4-Discovery/Libraries/STM32F4xx_StdPeriph_Driver/src/stm32f4xx_fsmc.c **** void FSMC_PCCARDCmd(FunctionalState NewState)
 703:App/STM32F4-Discovery/Libraries/STM32F4xx_StdPeriph_Driver/src/stm32f4xx_fsmc.c **** {
 2349              		.loc 1 703 0
 2350              		.cfi_startproc
 2351              		@ args = 0, pretend = 0, frame = 8
 2352              		@ frame_needed = 1, uses_anonymous_args = 0
 2353 0000 80B5     		push	{r7, lr}
 2354              	.LCFI38:
 2355              		.cfi_def_cfa_offset 8
 2356              		.cfi_offset 7, -8
 2357              		.cfi_offset 14, -4
 2358 0002 82B0     		sub	sp, sp, #8
 2359              	.LCFI39:
 2360              		.cfi_def_cfa_offset 16
 2361 0004 00AF     		add	r7, sp, #0
 2362              	.LCFI40:
 2363              		.cfi_def_cfa_register 7
 2364 0006 0346     		mov	r3, r0
 2365 0008 FB71     		strb	r3, [r7, #7]
 704:App/STM32F4-Discovery/Libraries/STM32F4xx_StdPeriph_Driver/src/stm32f4xx_fsmc.c ****   assert_param(IS_FUNCTIONAL_STATE(NewState));
 2366              		.loc 1 704 0
 2367 000a FB79     		ldrb	r3, [r7, #7]	@ zero_extendqisi2
 2368 000c 002B     		cmp	r3, #0
 2369 000e 0AD0     		beq	.L103
 2370              		.loc 1 704 0 is_stmt 0 discriminator 1
 2371 0010 FB79     		ldrb	r3, [r7, #7]	@ zero_extendqisi2
 2372 0012 012B     		cmp	r3, #1
 2373 0014 07D0     		beq	.L103
 2374              		.loc 1 704 0 discriminator 2
 2375 0016 40F20000 		movw	r0, #:lower16:.LC0
 2376 001a C0F20000 		movt	r0, #:upper16:.LC0
 2377 001e 4FF43071 		mov	r1, #704
 2378 0022 FFF7FEFF 		bl	assert_failed
 2379              	.L103:
 705:App/STM32F4-Discovery/Libraries/STM32F4xx_StdPeriph_Driver/src/stm32f4xx_fsmc.c ****   
 706:App/STM32F4-Discovery/Libraries/STM32F4xx_StdPeriph_Driver/src/stm32f4xx_fsmc.c ****   if (NewState != DISABLE)
 2380              		.loc 1 706 0 is_stmt 1
 2381 0026 FB79     		ldrb	r3, [r7, #7]	@ zero_extendqisi2
 2382 0028 002B     		cmp	r3, #0
 2383 002a 0CD0     		beq	.L104
 707:App/STM32F4-Discovery/Libraries/STM32F4xx_StdPeriph_Driver/src/stm32f4xx_fsmc.c ****   {
 708:App/STM32F4-Discovery/Libraries/STM32F4xx_StdPeriph_Driver/src/stm32f4xx_fsmc.c ****     /* Enable the PCCARD Bank by setting the PBKEN bit in the PCR4 register */
 709:App/STM32F4-Discovery/Libraries/STM32F4xx_StdPeriph_Driver/src/stm32f4xx_fsmc.c ****     FSMC_Bank4->PCR4 |= PCR_PBKEN_SET;
 2384              		.loc 1 709 0
 2385 002c 4FF0A003 		mov	r3, #160
 2386 0030 CAF20003 		movt	r3, 40960
 2387 0034 4FF0A002 		mov	r2, #160
 2388 0038 CAF20002 		movt	r2, 40960
 2389 003c 1268     		ldr	r2, [r2, #0]
 2390 003e 42F00402 		orr	r2, r2, #4
 2391 0042 1A60     		str	r2, [r3, #0]
 2392 0044 0EE0     		b	.L102
 2393              	.L104:
 710:App/STM32F4-Discovery/Libraries/STM32F4xx_StdPeriph_Driver/src/stm32f4xx_fsmc.c ****   }
 711:App/STM32F4-Discovery/Libraries/STM32F4xx_StdPeriph_Driver/src/stm32f4xx_fsmc.c ****   else
 712:App/STM32F4-Discovery/Libraries/STM32F4xx_StdPeriph_Driver/src/stm32f4xx_fsmc.c ****   {
 713:App/STM32F4-Discovery/Libraries/STM32F4xx_StdPeriph_Driver/src/stm32f4xx_fsmc.c ****     /* Disable the PCCARD Bank by clearing the PBKEN bit in the PCR4 register */
 714:App/STM32F4-Discovery/Libraries/STM32F4xx_StdPeriph_Driver/src/stm32f4xx_fsmc.c ****     FSMC_Bank4->PCR4 &= PCR_PBKEN_RESET;
 2394              		.loc 1 714 0
 2395 0046 4FF0A002 		mov	r2, #160
 2396 004a CAF20002 		movt	r2, 40960
 2397 004e 4FF0A003 		mov	r3, #160
 2398 0052 CAF20003 		movt	r3, 40960
 2399 0056 1968     		ldr	r1, [r3, #0]
 2400 0058 4FF6FB73 		movw	r3, #65531
 2401 005c C0F20F03 		movt	r3, 15
 2402 0060 0B40     		ands	r3, r3, r1
 2403 0062 1360     		str	r3, [r2, #0]
 2404              	.L102:
 715:App/STM32F4-Discovery/Libraries/STM32F4xx_StdPeriph_Driver/src/stm32f4xx_fsmc.c ****   }
 716:App/STM32F4-Discovery/Libraries/STM32F4xx_StdPeriph_Driver/src/stm32f4xx_fsmc.c **** }
 2405              		.loc 1 716 0
 2406 0064 07F10807 		add	r7, r7, #8
 2407 0068 BD46     		mov	sp, r7
 2408 006a 80BD     		pop	{r7, pc}
 2409              		.cfi_endproc
 2410              	.LFE123:
 2412              		.section	.text.FSMC_ITConfig,"ax",%progbits
 2413              		.align	2
 2414              		.global	FSMC_ITConfig
 2415              		.thumb
 2416              		.thumb_func
 2418              	FSMC_ITConfig:
 2419              	.LFB124:
 717:App/STM32F4-Discovery/Libraries/STM32F4xx_StdPeriph_Driver/src/stm32f4xx_fsmc.c **** /**
 718:App/STM32F4-Discovery/Libraries/STM32F4xx_StdPeriph_Driver/src/stm32f4xx_fsmc.c ****   * @}
 719:App/STM32F4-Discovery/Libraries/STM32F4xx_StdPeriph_Driver/src/stm32f4xx_fsmc.c ****   */
 720:App/STM32F4-Discovery/Libraries/STM32F4xx_StdPeriph_Driver/src/stm32f4xx_fsmc.c **** 
 721:App/STM32F4-Discovery/Libraries/STM32F4xx_StdPeriph_Driver/src/stm32f4xx_fsmc.c **** /** @defgroup FSMC_Group4  Interrupts and flags management functions
 722:App/STM32F4-Discovery/Libraries/STM32F4xx_StdPeriph_Driver/src/stm32f4xx_fsmc.c ****  *  @brief    Interrupts and flags management functions
 723:App/STM32F4-Discovery/Libraries/STM32F4xx_StdPeriph_Driver/src/stm32f4xx_fsmc.c ****  *
 724:App/STM32F4-Discovery/Libraries/STM32F4xx_StdPeriph_Driver/src/stm32f4xx_fsmc.c **** @verbatim   
 725:App/STM32F4-Discovery/Libraries/STM32F4xx_StdPeriph_Driver/src/stm32f4xx_fsmc.c ****  ===============================================================================
 726:App/STM32F4-Discovery/Libraries/STM32F4xx_StdPeriph_Driver/src/stm32f4xx_fsmc.c ****                      Interrupts and flags management functions
 727:App/STM32F4-Discovery/Libraries/STM32F4xx_StdPeriph_Driver/src/stm32f4xx_fsmc.c ****  ===============================================================================  
 728:App/STM32F4-Discovery/Libraries/STM32F4xx_StdPeriph_Driver/src/stm32f4xx_fsmc.c **** 
 729:App/STM32F4-Discovery/Libraries/STM32F4xx_StdPeriph_Driver/src/stm32f4xx_fsmc.c **** @endverbatim
 730:App/STM32F4-Discovery/Libraries/STM32F4xx_StdPeriph_Driver/src/stm32f4xx_fsmc.c ****   * @{
 731:App/STM32F4-Discovery/Libraries/STM32F4xx_StdPeriph_Driver/src/stm32f4xx_fsmc.c ****   */
 732:App/STM32F4-Discovery/Libraries/STM32F4xx_StdPeriph_Driver/src/stm32f4xx_fsmc.c **** 
 733:App/STM32F4-Discovery/Libraries/STM32F4xx_StdPeriph_Driver/src/stm32f4xx_fsmc.c **** /**
 734:App/STM32F4-Discovery/Libraries/STM32F4xx_StdPeriph_Driver/src/stm32f4xx_fsmc.c ****   * @brief  Enables or disables the specified FSMC interrupts.
 735:App/STM32F4-Discovery/Libraries/STM32F4xx_StdPeriph_Driver/src/stm32f4xx_fsmc.c ****   * @param  FSMC_Bank: specifies the FSMC Bank to be used
 736:App/STM32F4-Discovery/Libraries/STM32F4xx_StdPeriph_Driver/src/stm32f4xx_fsmc.c ****   *          This parameter can be one of the following values:
 737:App/STM32F4-Discovery/Libraries/STM32F4xx_StdPeriph_Driver/src/stm32f4xx_fsmc.c ****   *            @arg FSMC_Bank2_NAND: FSMC Bank2 NAND 
 738:App/STM32F4-Discovery/Libraries/STM32F4xx_StdPeriph_Driver/src/stm32f4xx_fsmc.c ****   *            @arg FSMC_Bank3_NAND: FSMC Bank3 NAND
 739:App/STM32F4-Discovery/Libraries/STM32F4xx_StdPeriph_Driver/src/stm32f4xx_fsmc.c ****   *            @arg FSMC_Bank4_PCCARD: FSMC Bank4 PCCARD
 740:App/STM32F4-Discovery/Libraries/STM32F4xx_StdPeriph_Driver/src/stm32f4xx_fsmc.c ****   * @param  FSMC_IT: specifies the FSMC interrupt sources to be enabled or disabled.
 741:App/STM32F4-Discovery/Libraries/STM32F4xx_StdPeriph_Driver/src/stm32f4xx_fsmc.c ****   *          This parameter can be any combination of the following values:
 742:App/STM32F4-Discovery/Libraries/STM32F4xx_StdPeriph_Driver/src/stm32f4xx_fsmc.c ****   *            @arg FSMC_IT_RisingEdge: Rising edge detection interrupt. 
 743:App/STM32F4-Discovery/Libraries/STM32F4xx_StdPeriph_Driver/src/stm32f4xx_fsmc.c ****   *            @arg FSMC_IT_Level: Level edge detection interrupt.
 744:App/STM32F4-Discovery/Libraries/STM32F4xx_StdPeriph_Driver/src/stm32f4xx_fsmc.c ****   *            @arg FSMC_IT_FallingEdge: Falling edge detection interrupt.
 745:App/STM32F4-Discovery/Libraries/STM32F4xx_StdPeriph_Driver/src/stm32f4xx_fsmc.c ****   * @param  NewState: new state of the specified FSMC interrupts.
 746:App/STM32F4-Discovery/Libraries/STM32F4xx_StdPeriph_Driver/src/stm32f4xx_fsmc.c ****   *          This parameter can be: ENABLE or DISABLE.
 747:App/STM32F4-Discovery/Libraries/STM32F4xx_StdPeriph_Driver/src/stm32f4xx_fsmc.c ****   * @retval None
 748:App/STM32F4-Discovery/Libraries/STM32F4xx_StdPeriph_Driver/src/stm32f4xx_fsmc.c ****   */
 749:App/STM32F4-Discovery/Libraries/STM32F4xx_StdPeriph_Driver/src/stm32f4xx_fsmc.c **** void FSMC_ITConfig(uint32_t FSMC_Bank, uint32_t FSMC_IT, FunctionalState NewState)
 750:App/STM32F4-Discovery/Libraries/STM32F4xx_StdPeriph_Driver/src/stm32f4xx_fsmc.c **** {
 2420              		.loc 1 750 0
 2421              		.cfi_startproc
 2422              		@ args = 0, pretend = 0, frame = 16
 2423              		@ frame_needed = 1, uses_anonymous_args = 0
 2424 0000 80B5     		push	{r7, lr}
 2425              	.LCFI41:
 2426              		.cfi_def_cfa_offset 8
 2427              		.cfi_offset 7, -8
 2428              		.cfi_offset 14, -4
 2429 0002 84B0     		sub	sp, sp, #16
 2430              	.LCFI42:
 2431              		.cfi_def_cfa_offset 24
 2432 0004 00AF     		add	r7, sp, #0
 2433              	.LCFI43:
 2434              		.cfi_def_cfa_register 7
 2435 0006 F860     		str	r0, [r7, #12]
 2436 0008 B960     		str	r1, [r7, #8]
 2437 000a 1346     		mov	r3, r2
 2438 000c FB71     		strb	r3, [r7, #7]
 751:App/STM32F4-Discovery/Libraries/STM32F4xx_StdPeriph_Driver/src/stm32f4xx_fsmc.c ****   assert_param(IS_FSMC_IT_BANK(FSMC_Bank));
 2439              		.loc 1 751 0
 2440 000e FB68     		ldr	r3, [r7, #12]
 2441 0010 102B     		cmp	r3, #16
 2442 0012 0FD0     		beq	.L107
 2443              		.loc 1 751 0 is_stmt 0 discriminator 1
 2444 0014 FB68     		ldr	r3, [r7, #12]
 2445 0016 B3F5807F 		cmp	r3, #256
 2446 001a 0BD0     		beq	.L107
 2447              		.loc 1 751 0 discriminator 2
 2448 001c FB68     		ldr	r3, [r7, #12]
 2449 001e B3F5805F 		cmp	r3, #4096
 2450 0022 07D0     		beq	.L107
 2451              		.loc 1 751 0 discriminator 3
 2452 0024 40F20000 		movw	r0, #:lower16:.LC0
 2453 0028 C0F20000 		movt	r0, #:upper16:.LC0
 2454 002c 40F2EF21 		movw	r1, #751
 2455 0030 FFF7FEFF 		bl	assert_failed
 2456              	.L107:
 752:App/STM32F4-Discovery/Libraries/STM32F4xx_StdPeriph_Driver/src/stm32f4xx_fsmc.c ****   assert_param(IS_FSMC_IT(FSMC_IT));	
 2457              		.loc 1 752 0 is_stmt 1
 2458 0034 BB68     		ldr	r3, [r7, #8]
 2459 0036 23F03803 		bic	r3, r3, #56
 2460 003a 002B     		cmp	r3, #0
 2461 003c 02D1     		bne	.L108
 2462              		.loc 1 752 0 is_stmt 0 discriminator 2
 2463 003e BB68     		ldr	r3, [r7, #8]
 2464 0040 002B     		cmp	r3, #0
 2465 0042 07D1     		bne	.L109
 2466              	.L108:
 2467              		.loc 1 752 0 discriminator 1
 2468 0044 40F20000 		movw	r0, #:lower16:.LC0
 2469 0048 C0F20000 		movt	r0, #:upper16:.LC0
 2470 004c 4FF43C71 		mov	r1, #752
 2471 0050 FFF7FEFF 		bl	assert_failed
 2472              	.L109:
 753:App/STM32F4-Discovery/Libraries/STM32F4xx_StdPeriph_Driver/src/stm32f4xx_fsmc.c ****   assert_param(IS_FUNCTIONAL_STATE(NewState));
 2473              		.loc 1 753 0 is_stmt 1
 2474 0054 FB79     		ldrb	r3, [r7, #7]	@ zero_extendqisi2
 2475 0056 002B     		cmp	r3, #0
 2476 0058 0AD0     		beq	.L110
 2477              		.loc 1 753 0 is_stmt 0 discriminator 1
 2478 005a FB79     		ldrb	r3, [r7, #7]	@ zero_extendqisi2
 2479 005c 012B     		cmp	r3, #1
 2480 005e 07D0     		beq	.L110
 2481              		.loc 1 753 0 discriminator 2
 2482 0060 40F20000 		movw	r0, #:lower16:.LC0
 2483 0064 C0F20000 		movt	r0, #:upper16:.LC0
 2484 0068 40F2F121 		movw	r1, #753
 2485 006c FFF7FEFF 		bl	assert_failed
 2486              	.L110:
 754:App/STM32F4-Discovery/Libraries/STM32F4xx_StdPeriph_Driver/src/stm32f4xx_fsmc.c ****   
 755:App/STM32F4-Discovery/Libraries/STM32F4xx_StdPeriph_Driver/src/stm32f4xx_fsmc.c ****   if (NewState != DISABLE)
 2487              		.loc 1 755 0 is_stmt 1
 2488 0070 FB79     		ldrb	r3, [r7, #7]	@ zero_extendqisi2
 2489 0072 002B     		cmp	r3, #0
 2490 0074 2DD0     		beq	.L111
 756:App/STM32F4-Discovery/Libraries/STM32F4xx_StdPeriph_Driver/src/stm32f4xx_fsmc.c ****   {
 757:App/STM32F4-Discovery/Libraries/STM32F4xx_StdPeriph_Driver/src/stm32f4xx_fsmc.c ****     /* Enable the selected FSMC_Bank2 interrupts */
 758:App/STM32F4-Discovery/Libraries/STM32F4xx_StdPeriph_Driver/src/stm32f4xx_fsmc.c ****     if(FSMC_Bank == FSMC_Bank2_NAND)
 2491              		.loc 1 758 0
 2492 0076 FB68     		ldr	r3, [r7, #12]
 2493 0078 102B     		cmp	r3, #16
 2494 007a 0CD1     		bne	.L112
 759:App/STM32F4-Discovery/Libraries/STM32F4xx_StdPeriph_Driver/src/stm32f4xx_fsmc.c ****     {
 760:App/STM32F4-Discovery/Libraries/STM32F4xx_StdPeriph_Driver/src/stm32f4xx_fsmc.c ****       FSMC_Bank2->SR2 |= FSMC_IT;
 2495              		.loc 1 760 0
 2496 007c 4FF06003 		mov	r3, #96
 2497 0080 CAF20003 		movt	r3, 40960
 2498 0084 4FF06002 		mov	r2, #96
 2499 0088 CAF20002 		movt	r2, 40960
 2500 008c 5168     		ldr	r1, [r2, #4]
 2501 008e BA68     		ldr	r2, [r7, #8]
 2502 0090 0A43     		orrs	r2, r2, r1
 2503 0092 5A60     		str	r2, [r3, #4]
 2504 0094 50E0     		b	.L106
 2505              	.L112:
 761:App/STM32F4-Discovery/Libraries/STM32F4xx_StdPeriph_Driver/src/stm32f4xx_fsmc.c ****     }
 762:App/STM32F4-Discovery/Libraries/STM32F4xx_StdPeriph_Driver/src/stm32f4xx_fsmc.c ****     /* Enable the selected FSMC_Bank3 interrupts */
 763:App/STM32F4-Discovery/Libraries/STM32F4xx_StdPeriph_Driver/src/stm32f4xx_fsmc.c ****     else if (FSMC_Bank == FSMC_Bank3_NAND)
 2506              		.loc 1 763 0
 2507 0096 FB68     		ldr	r3, [r7, #12]
 2508 0098 B3F5807F 		cmp	r3, #256
 2509 009c 0CD1     		bne	.L114
 764:App/STM32F4-Discovery/Libraries/STM32F4xx_StdPeriph_Driver/src/stm32f4xx_fsmc.c ****     {
 765:App/STM32F4-Discovery/Libraries/STM32F4xx_StdPeriph_Driver/src/stm32f4xx_fsmc.c ****       FSMC_Bank3->SR3 |= FSMC_IT;
 2510              		.loc 1 765 0
 2511 009e 4FF08003 		mov	r3, #128
 2512 00a2 CAF20003 		movt	r3, 40960
 2513 00a6 4FF08002 		mov	r2, #128
 2514 00aa CAF20002 		movt	r2, 40960
 2515 00ae 5168     		ldr	r1, [r2, #4]
 2516 00b0 BA68     		ldr	r2, [r7, #8]
 2517 00b2 0A43     		orrs	r2, r2, r1
 2518 00b4 5A60     		str	r2, [r3, #4]
 2519 00b6 3FE0     		b	.L106
 2520              	.L114:
 766:App/STM32F4-Discovery/Libraries/STM32F4xx_StdPeriph_Driver/src/stm32f4xx_fsmc.c ****     }
 767:App/STM32F4-Discovery/Libraries/STM32F4xx_StdPeriph_Driver/src/stm32f4xx_fsmc.c ****     /* Enable the selected FSMC_Bank4 interrupts */
 768:App/STM32F4-Discovery/Libraries/STM32F4xx_StdPeriph_Driver/src/stm32f4xx_fsmc.c ****     else
 769:App/STM32F4-Discovery/Libraries/STM32F4xx_StdPeriph_Driver/src/stm32f4xx_fsmc.c ****     {
 770:App/STM32F4-Discovery/Libraries/STM32F4xx_StdPeriph_Driver/src/stm32f4xx_fsmc.c ****       FSMC_Bank4->SR4 |= FSMC_IT;    
 2521              		.loc 1 770 0
 2522 00b8 4FF0A003 		mov	r3, #160
 2523 00bc CAF20003 		movt	r3, 40960
 2524 00c0 4FF0A002 		mov	r2, #160
 2525 00c4 CAF20002 		movt	r2, 40960
 2526 00c8 5168     		ldr	r1, [r2, #4]
 2527 00ca BA68     		ldr	r2, [r7, #8]
 2528 00cc 0A43     		orrs	r2, r2, r1
 2529 00ce 5A60     		str	r2, [r3, #4]
 2530 00d0 32E0     		b	.L106
 2531              	.L111:
 771:App/STM32F4-Discovery/Libraries/STM32F4xx_StdPeriph_Driver/src/stm32f4xx_fsmc.c ****     }
 772:App/STM32F4-Discovery/Libraries/STM32F4xx_StdPeriph_Driver/src/stm32f4xx_fsmc.c ****   }
 773:App/STM32F4-Discovery/Libraries/STM32F4xx_StdPeriph_Driver/src/stm32f4xx_fsmc.c ****   else
 774:App/STM32F4-Discovery/Libraries/STM32F4xx_StdPeriph_Driver/src/stm32f4xx_fsmc.c ****   {
 775:App/STM32F4-Discovery/Libraries/STM32F4xx_StdPeriph_Driver/src/stm32f4xx_fsmc.c ****     /* Disable the selected FSMC_Bank2 interrupts */
 776:App/STM32F4-Discovery/Libraries/STM32F4xx_StdPeriph_Driver/src/stm32f4xx_fsmc.c ****     if(FSMC_Bank == FSMC_Bank2_NAND)
 2532              		.loc 1 776 0
 2533 00d2 FB68     		ldr	r3, [r7, #12]
 2534 00d4 102B     		cmp	r3, #16
 2535 00d6 0ED1     		bne	.L115
 777:App/STM32F4-Discovery/Libraries/STM32F4xx_StdPeriph_Driver/src/stm32f4xx_fsmc.c ****     {
 778:App/STM32F4-Discovery/Libraries/STM32F4xx_StdPeriph_Driver/src/stm32f4xx_fsmc.c ****       
 779:App/STM32F4-Discovery/Libraries/STM32F4xx_StdPeriph_Driver/src/stm32f4xx_fsmc.c ****       FSMC_Bank2->SR2 &= (uint32_t)~FSMC_IT;
 2536              		.loc 1 779 0
 2537 00d8 4FF06003 		mov	r3, #96
 2538 00dc CAF20003 		movt	r3, 40960
 2539 00e0 4FF06002 		mov	r2, #96
 2540 00e4 CAF20002 		movt	r2, 40960
 2541 00e8 5168     		ldr	r1, [r2, #4]
 2542 00ea BA68     		ldr	r2, [r7, #8]
 2543 00ec 6FEA0202 		mvn	r2, r2
 2544 00f0 0A40     		ands	r2, r2, r1
 2545 00f2 5A60     		str	r2, [r3, #4]
 2546 00f4 20E0     		b	.L106
 2547              	.L115:
 780:App/STM32F4-Discovery/Libraries/STM32F4xx_StdPeriph_Driver/src/stm32f4xx_fsmc.c ****     }
 781:App/STM32F4-Discovery/Libraries/STM32F4xx_StdPeriph_Driver/src/stm32f4xx_fsmc.c ****     /* Disable the selected FSMC_Bank3 interrupts */
 782:App/STM32F4-Discovery/Libraries/STM32F4xx_StdPeriph_Driver/src/stm32f4xx_fsmc.c ****     else if (FSMC_Bank == FSMC_Bank3_NAND)
 2548              		.loc 1 782 0
 2549 00f6 FB68     		ldr	r3, [r7, #12]
 2550 00f8 B3F5807F 		cmp	r3, #256
 2551 00fc 0ED1     		bne	.L116
 783:App/STM32F4-Discovery/Libraries/STM32F4xx_StdPeriph_Driver/src/stm32f4xx_fsmc.c ****     {
 784:App/STM32F4-Discovery/Libraries/STM32F4xx_StdPeriph_Driver/src/stm32f4xx_fsmc.c ****       FSMC_Bank3->SR3 &= (uint32_t)~FSMC_IT;
 2552              		.loc 1 784 0
 2553 00fe 4FF08003 		mov	r3, #128
 2554 0102 CAF20003 		movt	r3, 40960
 2555 0106 4FF08002 		mov	r2, #128
 2556 010a CAF20002 		movt	r2, 40960
 2557 010e 5168     		ldr	r1, [r2, #4]
 2558 0110 BA68     		ldr	r2, [r7, #8]
 2559 0112 6FEA0202 		mvn	r2, r2
 2560 0116 0A40     		ands	r2, r2, r1
 2561 0118 5A60     		str	r2, [r3, #4]
 2562 011a 0DE0     		b	.L106
 2563              	.L116:
 785:App/STM32F4-Discovery/Libraries/STM32F4xx_StdPeriph_Driver/src/stm32f4xx_fsmc.c ****     }
 786:App/STM32F4-Discovery/Libraries/STM32F4xx_StdPeriph_Driver/src/stm32f4xx_fsmc.c ****     /* Disable the selected FSMC_Bank4 interrupts */
 787:App/STM32F4-Discovery/Libraries/STM32F4xx_StdPeriph_Driver/src/stm32f4xx_fsmc.c ****     else
 788:App/STM32F4-Discovery/Libraries/STM32F4xx_StdPeriph_Driver/src/stm32f4xx_fsmc.c ****     {
 789:App/STM32F4-Discovery/Libraries/STM32F4xx_StdPeriph_Driver/src/stm32f4xx_fsmc.c ****       FSMC_Bank4->SR4 &= (uint32_t)~FSMC_IT;    
 2564              		.loc 1 789 0
 2565 011c 4FF0A003 		mov	r3, #160
 2566 0120 CAF20003 		movt	r3, 40960
 2567 0124 4FF0A002 		mov	r2, #160
 2568 0128 CAF20002 		movt	r2, 40960
 2569 012c 5168     		ldr	r1, [r2, #4]
 2570 012e BA68     		ldr	r2, [r7, #8]
 2571 0130 6FEA0202 		mvn	r2, r2
 2572 0134 0A40     		ands	r2, r2, r1
 2573 0136 5A60     		str	r2, [r3, #4]
 2574              	.L106:
 790:App/STM32F4-Discovery/Libraries/STM32F4xx_StdPeriph_Driver/src/stm32f4xx_fsmc.c ****     }
 791:App/STM32F4-Discovery/Libraries/STM32F4xx_StdPeriph_Driver/src/stm32f4xx_fsmc.c ****   }
 792:App/STM32F4-Discovery/Libraries/STM32F4xx_StdPeriph_Driver/src/stm32f4xx_fsmc.c **** }
 2575              		.loc 1 792 0
 2576 0138 07F11007 		add	r7, r7, #16
 2577 013c BD46     		mov	sp, r7
 2578 013e 80BD     		pop	{r7, pc}
 2579              		.cfi_endproc
 2580              	.LFE124:
 2582              		.section	.text.FSMC_GetFlagStatus,"ax",%progbits
 2583              		.align	2
 2584              		.global	FSMC_GetFlagStatus
 2585              		.thumb
 2586              		.thumb_func
 2588              	FSMC_GetFlagStatus:
 2589              	.LFB125:
 793:App/STM32F4-Discovery/Libraries/STM32F4xx_StdPeriph_Driver/src/stm32f4xx_fsmc.c **** 
 794:App/STM32F4-Discovery/Libraries/STM32F4xx_StdPeriph_Driver/src/stm32f4xx_fsmc.c **** /**
 795:App/STM32F4-Discovery/Libraries/STM32F4xx_StdPeriph_Driver/src/stm32f4xx_fsmc.c ****   * @brief  Checks whether the specified FSMC flag is set or not.
 796:App/STM32F4-Discovery/Libraries/STM32F4xx_StdPeriph_Driver/src/stm32f4xx_fsmc.c ****   * @param  FSMC_Bank: specifies the FSMC Bank to be used
 797:App/STM32F4-Discovery/Libraries/STM32F4xx_StdPeriph_Driver/src/stm32f4xx_fsmc.c ****   *          This parameter can be one of the following values:
 798:App/STM32F4-Discovery/Libraries/STM32F4xx_StdPeriph_Driver/src/stm32f4xx_fsmc.c ****   *            @arg FSMC_Bank2_NAND: FSMC Bank2 NAND 
 799:App/STM32F4-Discovery/Libraries/STM32F4xx_StdPeriph_Driver/src/stm32f4xx_fsmc.c ****   *            @arg FSMC_Bank3_NAND: FSMC Bank3 NAND
 800:App/STM32F4-Discovery/Libraries/STM32F4xx_StdPeriph_Driver/src/stm32f4xx_fsmc.c ****   *            @arg FSMC_Bank4_PCCARD: FSMC Bank4 PCCARD
 801:App/STM32F4-Discovery/Libraries/STM32F4xx_StdPeriph_Driver/src/stm32f4xx_fsmc.c ****   * @param  FSMC_FLAG: specifies the flag to check.
 802:App/STM32F4-Discovery/Libraries/STM32F4xx_StdPeriph_Driver/src/stm32f4xx_fsmc.c ****   *          This parameter can be one of the following values:
 803:App/STM32F4-Discovery/Libraries/STM32F4xx_StdPeriph_Driver/src/stm32f4xx_fsmc.c ****   *            @arg FSMC_FLAG_RisingEdge: Rising edge detection Flag.
 804:App/STM32F4-Discovery/Libraries/STM32F4xx_StdPeriph_Driver/src/stm32f4xx_fsmc.c ****   *            @arg FSMC_FLAG_Level: Level detection Flag.
 805:App/STM32F4-Discovery/Libraries/STM32F4xx_StdPeriph_Driver/src/stm32f4xx_fsmc.c ****   *            @arg FSMC_FLAG_FallingEdge: Falling edge detection Flag.
 806:App/STM32F4-Discovery/Libraries/STM32F4xx_StdPeriph_Driver/src/stm32f4xx_fsmc.c ****   *            @arg FSMC_FLAG_FEMPT: Fifo empty Flag. 
 807:App/STM32F4-Discovery/Libraries/STM32F4xx_StdPeriph_Driver/src/stm32f4xx_fsmc.c ****   * @retval The new state of FSMC_FLAG (SET or RESET).
 808:App/STM32F4-Discovery/Libraries/STM32F4xx_StdPeriph_Driver/src/stm32f4xx_fsmc.c ****   */
 809:App/STM32F4-Discovery/Libraries/STM32F4xx_StdPeriph_Driver/src/stm32f4xx_fsmc.c **** FlagStatus FSMC_GetFlagStatus(uint32_t FSMC_Bank, uint32_t FSMC_FLAG)
 810:App/STM32F4-Discovery/Libraries/STM32F4xx_StdPeriph_Driver/src/stm32f4xx_fsmc.c **** {
 2590              		.loc 1 810 0
 2591              		.cfi_startproc
 2592              		@ args = 0, pretend = 0, frame = 16
 2593              		@ frame_needed = 1, uses_anonymous_args = 0
 2594 0000 80B5     		push	{r7, lr}
 2595              	.LCFI44:
 2596              		.cfi_def_cfa_offset 8
 2597              		.cfi_offset 7, -8
 2598              		.cfi_offset 14, -4
 2599 0002 84B0     		sub	sp, sp, #16
 2600              	.LCFI45:
 2601              		.cfi_def_cfa_offset 24
 2602 0004 00AF     		add	r7, sp, #0
 2603              	.LCFI46:
 2604              		.cfi_def_cfa_register 7
 2605 0006 7860     		str	r0, [r7, #4]
 2606 0008 3960     		str	r1, [r7, #0]
 811:App/STM32F4-Discovery/Libraries/STM32F4xx_StdPeriph_Driver/src/stm32f4xx_fsmc.c ****   FlagStatus bitstatus = RESET;
 2607              		.loc 1 811 0
 2608 000a 4FF00003 		mov	r3, #0
 2609 000e FB73     		strb	r3, [r7, #15]
 812:App/STM32F4-Discovery/Libraries/STM32F4xx_StdPeriph_Driver/src/stm32f4xx_fsmc.c ****   uint32_t tmpsr = 0x00000000;
 2610              		.loc 1 812 0
 2611 0010 4FF00003 		mov	r3, #0
 2612 0014 BB60     		str	r3, [r7, #8]
 813:App/STM32F4-Discovery/Libraries/STM32F4xx_StdPeriph_Driver/src/stm32f4xx_fsmc.c ****   
 814:App/STM32F4-Discovery/Libraries/STM32F4xx_StdPeriph_Driver/src/stm32f4xx_fsmc.c ****   /* Check the parameters */
 815:App/STM32F4-Discovery/Libraries/STM32F4xx_StdPeriph_Driver/src/stm32f4xx_fsmc.c ****   assert_param(IS_FSMC_GETFLAG_BANK(FSMC_Bank));
 2613              		.loc 1 815 0
 2614 0016 7B68     		ldr	r3, [r7, #4]
 2615 0018 102B     		cmp	r3, #16
 2616 001a 0FD0     		beq	.L118
 2617              		.loc 1 815 0 is_stmt 0 discriminator 1
 2618 001c 7B68     		ldr	r3, [r7, #4]
 2619 001e B3F5807F 		cmp	r3, #256
 2620 0022 0BD0     		beq	.L118
 2621              		.loc 1 815 0 discriminator 2
 2622 0024 7B68     		ldr	r3, [r7, #4]
 2623 0026 B3F5805F 		cmp	r3, #4096
 2624 002a 07D0     		beq	.L118
 2625              		.loc 1 815 0 discriminator 3
 2626 002c 40F20000 		movw	r0, #:lower16:.LC0
 2627 0030 C0F20000 		movt	r0, #:upper16:.LC0
 2628 0034 40F22F31 		movw	r1, #815
 2629 0038 FFF7FEFF 		bl	assert_failed
 2630              	.L118:
 816:App/STM32F4-Discovery/Libraries/STM32F4xx_StdPeriph_Driver/src/stm32f4xx_fsmc.c ****   assert_param(IS_FSMC_GET_FLAG(FSMC_FLAG));
 2631              		.loc 1 816 0 is_stmt 1
 2632 003c 3B68     		ldr	r3, [r7, #0]
 2633 003e 012B     		cmp	r3, #1
 2634 0040 10D0     		beq	.L119
 2635              		.loc 1 816 0 is_stmt 0 discriminator 1
 2636 0042 3B68     		ldr	r3, [r7, #0]
 2637 0044 022B     		cmp	r3, #2
 2638 0046 0DD0     		beq	.L119
 2639              		.loc 1 816 0 discriminator 2
 2640 0048 3B68     		ldr	r3, [r7, #0]
 2641 004a 042B     		cmp	r3, #4
 2642 004c 0AD0     		beq	.L119
 2643              		.loc 1 816 0 discriminator 3
 2644 004e 3B68     		ldr	r3, [r7, #0]
 2645 0050 402B     		cmp	r3, #64
 2646 0052 07D0     		beq	.L119
 2647              		.loc 1 816 0 discriminator 4
 2648 0054 40F20000 		movw	r0, #:lower16:.LC0
 2649 0058 C0F20000 		movt	r0, #:upper16:.LC0
 2650 005c 4FF44C71 		mov	r1, #816
 2651 0060 FFF7FEFF 		bl	assert_failed
 2652              	.L119:
 817:App/STM32F4-Discovery/Libraries/STM32F4xx_StdPeriph_Driver/src/stm32f4xx_fsmc.c ****   
 818:App/STM32F4-Discovery/Libraries/STM32F4xx_StdPeriph_Driver/src/stm32f4xx_fsmc.c ****   if(FSMC_Bank == FSMC_Bank2_NAND)
 2653              		.loc 1 818 0 is_stmt 1
 2654 0064 7B68     		ldr	r3, [r7, #4]
 2655 0066 102B     		cmp	r3, #16
 2656 0068 06D1     		bne	.L120
 819:App/STM32F4-Discovery/Libraries/STM32F4xx_StdPeriph_Driver/src/stm32f4xx_fsmc.c ****   {
 820:App/STM32F4-Discovery/Libraries/STM32F4xx_StdPeriph_Driver/src/stm32f4xx_fsmc.c ****     tmpsr = FSMC_Bank2->SR2;
 2657              		.loc 1 820 0
 2658 006a 4FF06003 		mov	r3, #96
 2659 006e CAF20003 		movt	r3, 40960
 2660 0072 5B68     		ldr	r3, [r3, #4]
 2661 0074 BB60     		str	r3, [r7, #8]
 2662 0076 10E0     		b	.L121
 2663              	.L120:
 821:App/STM32F4-Discovery/Libraries/STM32F4xx_StdPeriph_Driver/src/stm32f4xx_fsmc.c ****   }  
 822:App/STM32F4-Discovery/Libraries/STM32F4xx_StdPeriph_Driver/src/stm32f4xx_fsmc.c ****   else if(FSMC_Bank == FSMC_Bank3_NAND)
 2664              		.loc 1 822 0
 2665 0078 7B68     		ldr	r3, [r7, #4]
 2666 007a B3F5807F 		cmp	r3, #256
 2667 007e 06D1     		bne	.L122
 823:App/STM32F4-Discovery/Libraries/STM32F4xx_StdPeriph_Driver/src/stm32f4xx_fsmc.c ****   {
 824:App/STM32F4-Discovery/Libraries/STM32F4xx_StdPeriph_Driver/src/stm32f4xx_fsmc.c ****     tmpsr = FSMC_Bank3->SR3;
 2668              		.loc 1 824 0
 2669 0080 4FF08003 		mov	r3, #128
 2670 0084 CAF20003 		movt	r3, 40960
 2671 0088 5B68     		ldr	r3, [r3, #4]
 2672 008a BB60     		str	r3, [r7, #8]
 2673 008c 05E0     		b	.L121
 2674              	.L122:
 825:App/STM32F4-Discovery/Libraries/STM32F4xx_StdPeriph_Driver/src/stm32f4xx_fsmc.c ****   }
 826:App/STM32F4-Discovery/Libraries/STM32F4xx_StdPeriph_Driver/src/stm32f4xx_fsmc.c ****   /* FSMC_Bank4_PCCARD*/
 827:App/STM32F4-Discovery/Libraries/STM32F4xx_StdPeriph_Driver/src/stm32f4xx_fsmc.c ****   else
 828:App/STM32F4-Discovery/Libraries/STM32F4xx_StdPeriph_Driver/src/stm32f4xx_fsmc.c ****   {
 829:App/STM32F4-Discovery/Libraries/STM32F4xx_StdPeriph_Driver/src/stm32f4xx_fsmc.c ****     tmpsr = FSMC_Bank4->SR4;
 2675              		.loc 1 829 0
 2676 008e 4FF0A003 		mov	r3, #160
 2677 0092 CAF20003 		movt	r3, 40960
 2678 0096 5B68     		ldr	r3, [r3, #4]
 2679 0098 BB60     		str	r3, [r7, #8]
 2680              	.L121:
 830:App/STM32F4-Discovery/Libraries/STM32F4xx_StdPeriph_Driver/src/stm32f4xx_fsmc.c ****   } 
 831:App/STM32F4-Discovery/Libraries/STM32F4xx_StdPeriph_Driver/src/stm32f4xx_fsmc.c ****   
 832:App/STM32F4-Discovery/Libraries/STM32F4xx_StdPeriph_Driver/src/stm32f4xx_fsmc.c ****   /* Get the flag status */
 833:App/STM32F4-Discovery/Libraries/STM32F4xx_StdPeriph_Driver/src/stm32f4xx_fsmc.c ****   if ((tmpsr & FSMC_FLAG) != (uint16_t)RESET )
 2681              		.loc 1 833 0
 2682 009a BA68     		ldr	r2, [r7, #8]
 2683 009c 3B68     		ldr	r3, [r7, #0]
 2684 009e 1340     		ands	r3, r3, r2
 2685 00a0 002B     		cmp	r3, #0
 2686 00a2 03D0     		beq	.L123
 834:App/STM32F4-Discovery/Libraries/STM32F4xx_StdPeriph_Driver/src/stm32f4xx_fsmc.c ****   {
 835:App/STM32F4-Discovery/Libraries/STM32F4xx_StdPeriph_Driver/src/stm32f4xx_fsmc.c ****     bitstatus = SET;
 2687              		.loc 1 835 0
 2688 00a4 4FF00103 		mov	r3, #1
 2689 00a8 FB73     		strb	r3, [r7, #15]
 2690 00aa 02E0     		b	.L124
 2691              	.L123:
 836:App/STM32F4-Discovery/Libraries/STM32F4xx_StdPeriph_Driver/src/stm32f4xx_fsmc.c ****   }
 837:App/STM32F4-Discovery/Libraries/STM32F4xx_StdPeriph_Driver/src/stm32f4xx_fsmc.c ****   else
 838:App/STM32F4-Discovery/Libraries/STM32F4xx_StdPeriph_Driver/src/stm32f4xx_fsmc.c ****   {
 839:App/STM32F4-Discovery/Libraries/STM32F4xx_StdPeriph_Driver/src/stm32f4xx_fsmc.c ****     bitstatus = RESET;
 2692              		.loc 1 839 0
 2693 00ac 4FF00003 		mov	r3, #0
 2694 00b0 FB73     		strb	r3, [r7, #15]
 2695              	.L124:
 840:App/STM32F4-Discovery/Libraries/STM32F4xx_StdPeriph_Driver/src/stm32f4xx_fsmc.c ****   }
 841:App/STM32F4-Discovery/Libraries/STM32F4xx_StdPeriph_Driver/src/stm32f4xx_fsmc.c ****   /* Return the flag status */
 842:App/STM32F4-Discovery/Libraries/STM32F4xx_StdPeriph_Driver/src/stm32f4xx_fsmc.c ****   return bitstatus;
 2696              		.loc 1 842 0
 2697 00b2 FB7B     		ldrb	r3, [r7, #15]	@ zero_extendqisi2
 843:App/STM32F4-Discovery/Libraries/STM32F4xx_StdPeriph_Driver/src/stm32f4xx_fsmc.c **** }
 2698              		.loc 1 843 0
 2699 00b4 1846     		mov	r0, r3
 2700 00b6 07F11007 		add	r7, r7, #16
 2701 00ba BD46     		mov	sp, r7
 2702 00bc 80BD     		pop	{r7, pc}
 2703              		.cfi_endproc
 2704              	.LFE125:
 2706 00be 00BF     		.section	.text.FSMC_ClearFlag,"ax",%progbits
 2707              		.align	2
 2708              		.global	FSMC_ClearFlag
 2709              		.thumb
 2710              		.thumb_func
 2712              	FSMC_ClearFlag:
 2713              	.LFB126:
 844:App/STM32F4-Discovery/Libraries/STM32F4xx_StdPeriph_Driver/src/stm32f4xx_fsmc.c **** 
 845:App/STM32F4-Discovery/Libraries/STM32F4xx_StdPeriph_Driver/src/stm32f4xx_fsmc.c **** /**
 846:App/STM32F4-Discovery/Libraries/STM32F4xx_StdPeriph_Driver/src/stm32f4xx_fsmc.c ****   * @brief  Clears the FSMC's pending flags.
 847:App/STM32F4-Discovery/Libraries/STM32F4xx_StdPeriph_Driver/src/stm32f4xx_fsmc.c ****   * @param  FSMC_Bank: specifies the FSMC Bank to be used
 848:App/STM32F4-Discovery/Libraries/STM32F4xx_StdPeriph_Driver/src/stm32f4xx_fsmc.c ****   *          This parameter can be one of the following values:
 849:App/STM32F4-Discovery/Libraries/STM32F4xx_StdPeriph_Driver/src/stm32f4xx_fsmc.c ****   *            @arg FSMC_Bank2_NAND: FSMC Bank2 NAND 
 850:App/STM32F4-Discovery/Libraries/STM32F4xx_StdPeriph_Driver/src/stm32f4xx_fsmc.c ****   *            @arg FSMC_Bank3_NAND: FSMC Bank3 NAND
 851:App/STM32F4-Discovery/Libraries/STM32F4xx_StdPeriph_Driver/src/stm32f4xx_fsmc.c ****   *            @arg FSMC_Bank4_PCCARD: FSMC Bank4 PCCARD
 852:App/STM32F4-Discovery/Libraries/STM32F4xx_StdPeriph_Driver/src/stm32f4xx_fsmc.c ****   * @param  FSMC_FLAG: specifies the flag to clear.
 853:App/STM32F4-Discovery/Libraries/STM32F4xx_StdPeriph_Driver/src/stm32f4xx_fsmc.c ****   *          This parameter can be any combination of the following values:
 854:App/STM32F4-Discovery/Libraries/STM32F4xx_StdPeriph_Driver/src/stm32f4xx_fsmc.c ****   *            @arg FSMC_FLAG_RisingEdge: Rising edge detection Flag.
 855:App/STM32F4-Discovery/Libraries/STM32F4xx_StdPeriph_Driver/src/stm32f4xx_fsmc.c ****   *            @arg FSMC_FLAG_Level: Level detection Flag.
 856:App/STM32F4-Discovery/Libraries/STM32F4xx_StdPeriph_Driver/src/stm32f4xx_fsmc.c ****   *            @arg FSMC_FLAG_FallingEdge: Falling edge detection Flag.
 857:App/STM32F4-Discovery/Libraries/STM32F4xx_StdPeriph_Driver/src/stm32f4xx_fsmc.c ****   * @retval None
 858:App/STM32F4-Discovery/Libraries/STM32F4xx_StdPeriph_Driver/src/stm32f4xx_fsmc.c ****   */
 859:App/STM32F4-Discovery/Libraries/STM32F4xx_StdPeriph_Driver/src/stm32f4xx_fsmc.c **** void FSMC_ClearFlag(uint32_t FSMC_Bank, uint32_t FSMC_FLAG)
 860:App/STM32F4-Discovery/Libraries/STM32F4xx_StdPeriph_Driver/src/stm32f4xx_fsmc.c **** {
 2714              		.loc 1 860 0
 2715              		.cfi_startproc
 2716              		@ args = 0, pretend = 0, frame = 8
 2717              		@ frame_needed = 1, uses_anonymous_args = 0
 2718 0000 80B5     		push	{r7, lr}
 2719              	.LCFI47:
 2720              		.cfi_def_cfa_offset 8
 2721              		.cfi_offset 7, -8
 2722              		.cfi_offset 14, -4
 2723 0002 82B0     		sub	sp, sp, #8
 2724              	.LCFI48:
 2725              		.cfi_def_cfa_offset 16
 2726 0004 00AF     		add	r7, sp, #0
 2727              	.LCFI49:
 2728              		.cfi_def_cfa_register 7
 2729 0006 7860     		str	r0, [r7, #4]
 2730 0008 3960     		str	r1, [r7, #0]
 861:App/STM32F4-Discovery/Libraries/STM32F4xx_StdPeriph_Driver/src/stm32f4xx_fsmc.c ****  /* Check the parameters */
 862:App/STM32F4-Discovery/Libraries/STM32F4xx_StdPeriph_Driver/src/stm32f4xx_fsmc.c ****   assert_param(IS_FSMC_GETFLAG_BANK(FSMC_Bank));
 2731              		.loc 1 862 0
 2732 000a 7B68     		ldr	r3, [r7, #4]
 2733 000c 102B     		cmp	r3, #16
 2734 000e 0FD0     		beq	.L127
 2735              		.loc 1 862 0 is_stmt 0 discriminator 1
 2736 0010 7B68     		ldr	r3, [r7, #4]
 2737 0012 B3F5807F 		cmp	r3, #256
 2738 0016 0BD0     		beq	.L127
 2739              		.loc 1 862 0 discriminator 2
 2740 0018 7B68     		ldr	r3, [r7, #4]
 2741 001a B3F5805F 		cmp	r3, #4096
 2742 001e 07D0     		beq	.L127
 2743              		.loc 1 862 0 discriminator 3
 2744 0020 40F20000 		movw	r0, #:lower16:.LC0
 2745 0024 C0F20000 		movt	r0, #:upper16:.LC0
 2746 0028 40F25E31 		movw	r1, #862
 2747 002c FFF7FEFF 		bl	assert_failed
 2748              	.L127:
 863:App/STM32F4-Discovery/Libraries/STM32F4xx_StdPeriph_Driver/src/stm32f4xx_fsmc.c ****   assert_param(IS_FSMC_CLEAR_FLAG(FSMC_FLAG)) ;
 2749              		.loc 1 863 0 is_stmt 1
 2750 0030 3B68     		ldr	r3, [r7, #0]
 2751 0032 23F00703 		bic	r3, r3, #7
 2752 0036 002B     		cmp	r3, #0
 2753 0038 02D1     		bne	.L128
 2754              		.loc 1 863 0 is_stmt 0 discriminator 2
 2755 003a 3B68     		ldr	r3, [r7, #0]
 2756 003c 002B     		cmp	r3, #0
 2757 003e 07D1     		bne	.L129
 2758              	.L128:
 2759              		.loc 1 863 0 discriminator 1
 2760 0040 40F20000 		movw	r0, #:lower16:.LC0
 2761 0044 C0F20000 		movt	r0, #:upper16:.LC0
 2762 0048 40F25F31 		movw	r1, #863
 2763 004c FFF7FEFF 		bl	assert_failed
 2764              	.L129:
 864:App/STM32F4-Discovery/Libraries/STM32F4xx_StdPeriph_Driver/src/stm32f4xx_fsmc.c ****     
 865:App/STM32F4-Discovery/Libraries/STM32F4xx_StdPeriph_Driver/src/stm32f4xx_fsmc.c ****   if(FSMC_Bank == FSMC_Bank2_NAND)
 2765              		.loc 1 865 0 is_stmt 1
 2766 0050 7B68     		ldr	r3, [r7, #4]
 2767 0052 102B     		cmp	r3, #16
 2768 0054 0ED1     		bne	.L130
 866:App/STM32F4-Discovery/Libraries/STM32F4xx_StdPeriph_Driver/src/stm32f4xx_fsmc.c ****   {
 867:App/STM32F4-Discovery/Libraries/STM32F4xx_StdPeriph_Driver/src/stm32f4xx_fsmc.c ****     FSMC_Bank2->SR2 &= ~FSMC_FLAG; 
 2769              		.loc 1 867 0
 2770 0056 4FF06003 		mov	r3, #96
 2771 005a CAF20003 		movt	r3, 40960
 2772 005e 4FF06002 		mov	r2, #96
 2773 0062 CAF20002 		movt	r2, 40960
 2774 0066 5168     		ldr	r1, [r2, #4]
 2775 0068 3A68     		ldr	r2, [r7, #0]
 2776 006a 6FEA0202 		mvn	r2, r2
 2777 006e 0A40     		ands	r2, r2, r1
 2778 0070 5A60     		str	r2, [r3, #4]
 2779 0072 20E0     		b	.L126
 2780              	.L130:
 868:App/STM32F4-Discovery/Libraries/STM32F4xx_StdPeriph_Driver/src/stm32f4xx_fsmc.c ****   }  
 869:App/STM32F4-Discovery/Libraries/STM32F4xx_StdPeriph_Driver/src/stm32f4xx_fsmc.c ****   else if(FSMC_Bank == FSMC_Bank3_NAND)
 2781              		.loc 1 869 0
 2782 0074 7B68     		ldr	r3, [r7, #4]
 2783 0076 B3F5807F 		cmp	r3, #256
 2784 007a 0ED1     		bne	.L132
 870:App/STM32F4-Discovery/Libraries/STM32F4xx_StdPeriph_Driver/src/stm32f4xx_fsmc.c ****   {
 871:App/STM32F4-Discovery/Libraries/STM32F4xx_StdPeriph_Driver/src/stm32f4xx_fsmc.c ****     FSMC_Bank3->SR3 &= ~FSMC_FLAG;
 2785              		.loc 1 871 0
 2786 007c 4FF08003 		mov	r3, #128
 2787 0080 CAF20003 		movt	r3, 40960
 2788 0084 4FF08002 		mov	r2, #128
 2789 0088 CAF20002 		movt	r2, 40960
 2790 008c 5168     		ldr	r1, [r2, #4]
 2791 008e 3A68     		ldr	r2, [r7, #0]
 2792 0090 6FEA0202 		mvn	r2, r2
 2793 0094 0A40     		ands	r2, r2, r1
 2794 0096 5A60     		str	r2, [r3, #4]
 2795 0098 0DE0     		b	.L126
 2796              	.L132:
 872:App/STM32F4-Discovery/Libraries/STM32F4xx_StdPeriph_Driver/src/stm32f4xx_fsmc.c ****   }
 873:App/STM32F4-Discovery/Libraries/STM32F4xx_StdPeriph_Driver/src/stm32f4xx_fsmc.c ****   /* FSMC_Bank4_PCCARD*/
 874:App/STM32F4-Discovery/Libraries/STM32F4xx_StdPeriph_Driver/src/stm32f4xx_fsmc.c ****   else
 875:App/STM32F4-Discovery/Libraries/STM32F4xx_StdPeriph_Driver/src/stm32f4xx_fsmc.c ****   {
 876:App/STM32F4-Discovery/Libraries/STM32F4xx_StdPeriph_Driver/src/stm32f4xx_fsmc.c ****     FSMC_Bank4->SR4 &= ~FSMC_FLAG;
 2797              		.loc 1 876 0
 2798 009a 4FF0A003 		mov	r3, #160
 2799 009e CAF20003 		movt	r3, 40960
 2800 00a2 4FF0A002 		mov	r2, #160
 2801 00a6 CAF20002 		movt	r2, 40960
 2802 00aa 5168     		ldr	r1, [r2, #4]
 2803 00ac 3A68     		ldr	r2, [r7, #0]
 2804 00ae 6FEA0202 		mvn	r2, r2
 2805 00b2 0A40     		ands	r2, r2, r1
 2806 00b4 5A60     		str	r2, [r3, #4]
 2807              	.L126:
 877:App/STM32F4-Discovery/Libraries/STM32F4xx_StdPeriph_Driver/src/stm32f4xx_fsmc.c ****   }
 878:App/STM32F4-Discovery/Libraries/STM32F4xx_StdPeriph_Driver/src/stm32f4xx_fsmc.c **** }
 2808              		.loc 1 878 0
 2809 00b6 07F10807 		add	r7, r7, #8
 2810 00ba BD46     		mov	sp, r7
 2811 00bc 80BD     		pop	{r7, pc}
 2812              		.cfi_endproc
 2813              	.LFE126:
 2815 00be 00BF     		.section	.text.FSMC_GetITStatus,"ax",%progbits
 2816              		.align	2
 2817              		.global	FSMC_GetITStatus
 2818              		.thumb
 2819              		.thumb_func
 2821              	FSMC_GetITStatus:
 2822              	.LFB127:
 879:App/STM32F4-Discovery/Libraries/STM32F4xx_StdPeriph_Driver/src/stm32f4xx_fsmc.c **** 
 880:App/STM32F4-Discovery/Libraries/STM32F4xx_StdPeriph_Driver/src/stm32f4xx_fsmc.c **** /**
 881:App/STM32F4-Discovery/Libraries/STM32F4xx_StdPeriph_Driver/src/stm32f4xx_fsmc.c ****   * @brief  Checks whether the specified FSMC interrupt has occurred or not.
 882:App/STM32F4-Discovery/Libraries/STM32F4xx_StdPeriph_Driver/src/stm32f4xx_fsmc.c ****   * @param  FSMC_Bank: specifies the FSMC Bank to be used
 883:App/STM32F4-Discovery/Libraries/STM32F4xx_StdPeriph_Driver/src/stm32f4xx_fsmc.c ****   *          This parameter can be one of the following values:
 884:App/STM32F4-Discovery/Libraries/STM32F4xx_StdPeriph_Driver/src/stm32f4xx_fsmc.c ****   *            @arg FSMC_Bank2_NAND: FSMC Bank2 NAND 
 885:App/STM32F4-Discovery/Libraries/STM32F4xx_StdPeriph_Driver/src/stm32f4xx_fsmc.c ****   *            @arg FSMC_Bank3_NAND: FSMC Bank3 NAND
 886:App/STM32F4-Discovery/Libraries/STM32F4xx_StdPeriph_Driver/src/stm32f4xx_fsmc.c ****   *            @arg FSMC_Bank4_PCCARD: FSMC Bank4 PCCARD
 887:App/STM32F4-Discovery/Libraries/STM32F4xx_StdPeriph_Driver/src/stm32f4xx_fsmc.c ****   * @param  FSMC_IT: specifies the FSMC interrupt source to check.
 888:App/STM32F4-Discovery/Libraries/STM32F4xx_StdPeriph_Driver/src/stm32f4xx_fsmc.c ****   *          This parameter can be one of the following values:
 889:App/STM32F4-Discovery/Libraries/STM32F4xx_StdPeriph_Driver/src/stm32f4xx_fsmc.c ****   *            @arg FSMC_IT_RisingEdge: Rising edge detection interrupt. 
 890:App/STM32F4-Discovery/Libraries/STM32F4xx_StdPeriph_Driver/src/stm32f4xx_fsmc.c ****   *            @arg FSMC_IT_Level: Level edge detection interrupt.
 891:App/STM32F4-Discovery/Libraries/STM32F4xx_StdPeriph_Driver/src/stm32f4xx_fsmc.c ****   *            @arg FSMC_IT_FallingEdge: Falling edge detection interrupt. 
 892:App/STM32F4-Discovery/Libraries/STM32F4xx_StdPeriph_Driver/src/stm32f4xx_fsmc.c ****   * @retval The new state of FSMC_IT (SET or RESET).
 893:App/STM32F4-Discovery/Libraries/STM32F4xx_StdPeriph_Driver/src/stm32f4xx_fsmc.c ****   */
 894:App/STM32F4-Discovery/Libraries/STM32F4xx_StdPeriph_Driver/src/stm32f4xx_fsmc.c **** ITStatus FSMC_GetITStatus(uint32_t FSMC_Bank, uint32_t FSMC_IT)
 895:App/STM32F4-Discovery/Libraries/STM32F4xx_StdPeriph_Driver/src/stm32f4xx_fsmc.c **** {
 2823              		.loc 1 895 0
 2824              		.cfi_startproc
 2825              		@ args = 0, pretend = 0, frame = 24
 2826              		@ frame_needed = 1, uses_anonymous_args = 0
 2827 0000 80B5     		push	{r7, lr}
 2828              	.LCFI50:
 2829              		.cfi_def_cfa_offset 8
 2830              		.cfi_offset 7, -8
 2831              		.cfi_offset 14, -4
 2832 0002 86B0     		sub	sp, sp, #24
 2833              	.LCFI51:
 2834              		.cfi_def_cfa_offset 32
 2835 0004 00AF     		add	r7, sp, #0
 2836              	.LCFI52:
 2837              		.cfi_def_cfa_register 7
 2838 0006 7860     		str	r0, [r7, #4]
 2839 0008 3960     		str	r1, [r7, #0]
 896:App/STM32F4-Discovery/Libraries/STM32F4xx_StdPeriph_Driver/src/stm32f4xx_fsmc.c ****   ITStatus bitstatus = RESET;
 2840              		.loc 1 896 0
 2841 000a 4FF00003 		mov	r3, #0
 2842 000e FB75     		strb	r3, [r7, #23]
 897:App/STM32F4-Discovery/Libraries/STM32F4xx_StdPeriph_Driver/src/stm32f4xx_fsmc.c ****   uint32_t tmpsr = 0x0, itstatus = 0x0, itenable = 0x0; 
 2843              		.loc 1 897 0
 2844 0010 4FF00003 		mov	r3, #0
 2845 0014 3B61     		str	r3, [r7, #16]
 2846 0016 4FF00003 		mov	r3, #0
 2847 001a FB60     		str	r3, [r7, #12]
 2848 001c 4FF00003 		mov	r3, #0
 2849 0020 BB60     		str	r3, [r7, #8]
 898:App/STM32F4-Discovery/Libraries/STM32F4xx_StdPeriph_Driver/src/stm32f4xx_fsmc.c ****   
 899:App/STM32F4-Discovery/Libraries/STM32F4xx_StdPeriph_Driver/src/stm32f4xx_fsmc.c ****   /* Check the parameters */
 900:App/STM32F4-Discovery/Libraries/STM32F4xx_StdPeriph_Driver/src/stm32f4xx_fsmc.c ****   assert_param(IS_FSMC_IT_BANK(FSMC_Bank));
 2850              		.loc 1 900 0
 2851 0022 7B68     		ldr	r3, [r7, #4]
 2852 0024 102B     		cmp	r3, #16
 2853 0026 0FD0     		beq	.L134
 2854              		.loc 1 900 0 is_stmt 0 discriminator 1
 2855 0028 7B68     		ldr	r3, [r7, #4]
 2856 002a B3F5807F 		cmp	r3, #256
 2857 002e 0BD0     		beq	.L134
 2858              		.loc 1 900 0 discriminator 2
 2859 0030 7B68     		ldr	r3, [r7, #4]
 2860 0032 B3F5805F 		cmp	r3, #4096
 2861 0036 07D0     		beq	.L134
 2862              		.loc 1 900 0 discriminator 3
 2863 0038 40F20000 		movw	r0, #:lower16:.LC0
 2864 003c C0F20000 		movt	r0, #:upper16:.LC0
 2865 0040 4FF46171 		mov	r1, #900
 2866 0044 FFF7FEFF 		bl	assert_failed
 2867              	.L134:
 901:App/STM32F4-Discovery/Libraries/STM32F4xx_StdPeriph_Driver/src/stm32f4xx_fsmc.c ****   assert_param(IS_FSMC_GET_IT(FSMC_IT));
 2868              		.loc 1 901 0 is_stmt 1
 2869 0048 3B68     		ldr	r3, [r7, #0]
 2870 004a 082B     		cmp	r3, #8
 2871 004c 0DD0     		beq	.L135
 2872              		.loc 1 901 0 is_stmt 0 discriminator 1
 2873 004e 3B68     		ldr	r3, [r7, #0]
 2874 0050 102B     		cmp	r3, #16
 2875 0052 0AD0     		beq	.L135
 2876              		.loc 1 901 0 discriminator 2
 2877 0054 3B68     		ldr	r3, [r7, #0]
 2878 0056 202B     		cmp	r3, #32
 2879 0058 07D0     		beq	.L135
 2880              		.loc 1 901 0 discriminator 3
 2881 005a 40F20000 		movw	r0, #:lower16:.LC0
 2882 005e C0F20000 		movt	r0, #:upper16:.LC0
 2883 0062 40F28531 		movw	r1, #901
 2884 0066 FFF7FEFF 		bl	assert_failed
 2885              	.L135:
 902:App/STM32F4-Discovery/Libraries/STM32F4xx_StdPeriph_Driver/src/stm32f4xx_fsmc.c ****   
 903:App/STM32F4-Discovery/Libraries/STM32F4xx_StdPeriph_Driver/src/stm32f4xx_fsmc.c ****   if(FSMC_Bank == FSMC_Bank2_NAND)
 2886              		.loc 1 903 0 is_stmt 1
 2887 006a 7B68     		ldr	r3, [r7, #4]
 2888 006c 102B     		cmp	r3, #16
 2889 006e 06D1     		bne	.L136
 904:App/STM32F4-Discovery/Libraries/STM32F4xx_StdPeriph_Driver/src/stm32f4xx_fsmc.c ****   {
 905:App/STM32F4-Discovery/Libraries/STM32F4xx_StdPeriph_Driver/src/stm32f4xx_fsmc.c ****     tmpsr = FSMC_Bank2->SR2;
 2890              		.loc 1 905 0
 2891 0070 4FF06003 		mov	r3, #96
 2892 0074 CAF20003 		movt	r3, 40960
 2893 0078 5B68     		ldr	r3, [r3, #4]
 2894 007a 3B61     		str	r3, [r7, #16]
 2895 007c 10E0     		b	.L137
 2896              	.L136:
 906:App/STM32F4-Discovery/Libraries/STM32F4xx_StdPeriph_Driver/src/stm32f4xx_fsmc.c ****   }  
 907:App/STM32F4-Discovery/Libraries/STM32F4xx_StdPeriph_Driver/src/stm32f4xx_fsmc.c ****   else if(FSMC_Bank == FSMC_Bank3_NAND)
 2897              		.loc 1 907 0
 2898 007e 7B68     		ldr	r3, [r7, #4]
 2899 0080 B3F5807F 		cmp	r3, #256
 2900 0084 06D1     		bne	.L138
 908:App/STM32F4-Discovery/Libraries/STM32F4xx_StdPeriph_Driver/src/stm32f4xx_fsmc.c ****   {
 909:App/STM32F4-Discovery/Libraries/STM32F4xx_StdPeriph_Driver/src/stm32f4xx_fsmc.c ****     tmpsr = FSMC_Bank3->SR3;
 2901              		.loc 1 909 0
 2902 0086 4FF08003 		mov	r3, #128
 2903 008a CAF20003 		movt	r3, 40960
 2904 008e 5B68     		ldr	r3, [r3, #4]
 2905 0090 3B61     		str	r3, [r7, #16]
 2906 0092 05E0     		b	.L137
 2907              	.L138:
 910:App/STM32F4-Discovery/Libraries/STM32F4xx_StdPeriph_Driver/src/stm32f4xx_fsmc.c ****   }
 911:App/STM32F4-Discovery/Libraries/STM32F4xx_StdPeriph_Driver/src/stm32f4xx_fsmc.c ****   /* FSMC_Bank4_PCCARD*/
 912:App/STM32F4-Discovery/Libraries/STM32F4xx_StdPeriph_Driver/src/stm32f4xx_fsmc.c ****   else
 913:App/STM32F4-Discovery/Libraries/STM32F4xx_StdPeriph_Driver/src/stm32f4xx_fsmc.c ****   {
 914:App/STM32F4-Discovery/Libraries/STM32F4xx_StdPeriph_Driver/src/stm32f4xx_fsmc.c ****     tmpsr = FSMC_Bank4->SR4;
 2908              		.loc 1 914 0
 2909 0094 4FF0A003 		mov	r3, #160
 2910 0098 CAF20003 		movt	r3, 40960
 2911 009c 5B68     		ldr	r3, [r3, #4]
 2912 009e 3B61     		str	r3, [r7, #16]
 2913              	.L137:
 915:App/STM32F4-Discovery/Libraries/STM32F4xx_StdPeriph_Driver/src/stm32f4xx_fsmc.c ****   } 
 916:App/STM32F4-Discovery/Libraries/STM32F4xx_StdPeriph_Driver/src/stm32f4xx_fsmc.c ****   
 917:App/STM32F4-Discovery/Libraries/STM32F4xx_StdPeriph_Driver/src/stm32f4xx_fsmc.c ****   itstatus = tmpsr & FSMC_IT;
 2914              		.loc 1 917 0
 2915 00a0 3A69     		ldr	r2, [r7, #16]
 2916 00a2 3B68     		ldr	r3, [r7, #0]
 2917 00a4 1340     		ands	r3, r3, r2
 2918 00a6 FB60     		str	r3, [r7, #12]
 918:App/STM32F4-Discovery/Libraries/STM32F4xx_StdPeriph_Driver/src/stm32f4xx_fsmc.c ****   
 919:App/STM32F4-Discovery/Libraries/STM32F4xx_StdPeriph_Driver/src/stm32f4xx_fsmc.c ****   itenable = tmpsr & (FSMC_IT >> 3);
 2919              		.loc 1 919 0
 2920 00a8 3B68     		ldr	r3, [r7, #0]
 2921 00aa 4FEAD302 		lsr	r2, r3, #3
 2922 00ae 3B69     		ldr	r3, [r7, #16]
 2923 00b0 1340     		ands	r3, r3, r2
 2924 00b2 BB60     		str	r3, [r7, #8]
 920:App/STM32F4-Discovery/Libraries/STM32F4xx_StdPeriph_Driver/src/stm32f4xx_fsmc.c ****   if ((itstatus != (uint32_t)RESET)  && (itenable != (uint32_t)RESET))
 2925              		.loc 1 920 0
 2926 00b4 FB68     		ldr	r3, [r7, #12]
 2927 00b6 002B     		cmp	r3, #0
 2928 00b8 06D0     		beq	.L139
 2929              		.loc 1 920 0 is_stmt 0 discriminator 1
 2930 00ba BB68     		ldr	r3, [r7, #8]
 2931 00bc 002B     		cmp	r3, #0
 2932 00be 03D0     		beq	.L139
 921:App/STM32F4-Discovery/Libraries/STM32F4xx_StdPeriph_Driver/src/stm32f4xx_fsmc.c ****   {
 922:App/STM32F4-Discovery/Libraries/STM32F4xx_StdPeriph_Driver/src/stm32f4xx_fsmc.c ****     bitstatus = SET;
 2933              		.loc 1 922 0 is_stmt 1
 2934 00c0 4FF00103 		mov	r3, #1
 2935 00c4 FB75     		strb	r3, [r7, #23]
 2936 00c6 02E0     		b	.L140
 2937              	.L139:
 923:App/STM32F4-Discovery/Libraries/STM32F4xx_StdPeriph_Driver/src/stm32f4xx_fsmc.c ****   }
 924:App/STM32F4-Discovery/Libraries/STM32F4xx_StdPeriph_Driver/src/stm32f4xx_fsmc.c ****   else
 925:App/STM32F4-Discovery/Libraries/STM32F4xx_StdPeriph_Driver/src/stm32f4xx_fsmc.c ****   {
 926:App/STM32F4-Discovery/Libraries/STM32F4xx_StdPeriph_Driver/src/stm32f4xx_fsmc.c ****     bitstatus = RESET;
 2938              		.loc 1 926 0
 2939 00c8 4FF00003 		mov	r3, #0
 2940 00cc FB75     		strb	r3, [r7, #23]
 2941              	.L140:
 927:App/STM32F4-Discovery/Libraries/STM32F4xx_StdPeriph_Driver/src/stm32f4xx_fsmc.c ****   }
 928:App/STM32F4-Discovery/Libraries/STM32F4xx_StdPeriph_Driver/src/stm32f4xx_fsmc.c ****   return bitstatus; 
 2942              		.loc 1 928 0
 2943 00ce FB7D     		ldrb	r3, [r7, #23]	@ zero_extendqisi2
 929:App/STM32F4-Discovery/Libraries/STM32F4xx_StdPeriph_Driver/src/stm32f4xx_fsmc.c **** }
 2944              		.loc 1 929 0
 2945 00d0 1846     		mov	r0, r3
 2946 00d2 07F11807 		add	r7, r7, #24
 2947 00d6 BD46     		mov	sp, r7
 2948 00d8 80BD     		pop	{r7, pc}
 2949              		.cfi_endproc
 2950              	.LFE127:
 2952 00da 00BF     		.section	.text.FSMC_ClearITPendingBit,"ax",%progbits
 2953              		.align	2
 2954              		.global	FSMC_ClearITPendingBit
 2955              		.thumb
 2956              		.thumb_func
 2958              	FSMC_ClearITPendingBit:
 2959              	.LFB128:
 930:App/STM32F4-Discovery/Libraries/STM32F4xx_StdPeriph_Driver/src/stm32f4xx_fsmc.c **** 
 931:App/STM32F4-Discovery/Libraries/STM32F4xx_StdPeriph_Driver/src/stm32f4xx_fsmc.c **** /**
 932:App/STM32F4-Discovery/Libraries/STM32F4xx_StdPeriph_Driver/src/stm32f4xx_fsmc.c ****   * @brief  Clears the FSMC's interrupt pending bits.
 933:App/STM32F4-Discovery/Libraries/STM32F4xx_StdPeriph_Driver/src/stm32f4xx_fsmc.c ****   * @param  FSMC_Bank: specifies the FSMC Bank to be used
 934:App/STM32F4-Discovery/Libraries/STM32F4xx_StdPeriph_Driver/src/stm32f4xx_fsmc.c ****   *          This parameter can be one of the following values:
 935:App/STM32F4-Discovery/Libraries/STM32F4xx_StdPeriph_Driver/src/stm32f4xx_fsmc.c ****   *            @arg FSMC_Bank2_NAND: FSMC Bank2 NAND 
 936:App/STM32F4-Discovery/Libraries/STM32F4xx_StdPeriph_Driver/src/stm32f4xx_fsmc.c ****   *            @arg FSMC_Bank3_NAND: FSMC Bank3 NAND
 937:App/STM32F4-Discovery/Libraries/STM32F4xx_StdPeriph_Driver/src/stm32f4xx_fsmc.c ****   *            @arg FSMC_Bank4_PCCARD: FSMC Bank4 PCCARD
 938:App/STM32F4-Discovery/Libraries/STM32F4xx_StdPeriph_Driver/src/stm32f4xx_fsmc.c ****   * @param  FSMC_IT: specifies the interrupt pending bit to clear.
 939:App/STM32F4-Discovery/Libraries/STM32F4xx_StdPeriph_Driver/src/stm32f4xx_fsmc.c ****   *          This parameter can be any combination of the following values:
 940:App/STM32F4-Discovery/Libraries/STM32F4xx_StdPeriph_Driver/src/stm32f4xx_fsmc.c ****   *            @arg FSMC_IT_RisingEdge: Rising edge detection interrupt. 
 941:App/STM32F4-Discovery/Libraries/STM32F4xx_StdPeriph_Driver/src/stm32f4xx_fsmc.c ****   *            @arg FSMC_IT_Level: Level edge detection interrupt.
 942:App/STM32F4-Discovery/Libraries/STM32F4xx_StdPeriph_Driver/src/stm32f4xx_fsmc.c ****   *            @arg FSMC_IT_FallingEdge: Falling edge detection interrupt.
 943:App/STM32F4-Discovery/Libraries/STM32F4xx_StdPeriph_Driver/src/stm32f4xx_fsmc.c ****   * @retval None
 944:App/STM32F4-Discovery/Libraries/STM32F4xx_StdPeriph_Driver/src/stm32f4xx_fsmc.c ****   */
 945:App/STM32F4-Discovery/Libraries/STM32F4xx_StdPeriph_Driver/src/stm32f4xx_fsmc.c **** void FSMC_ClearITPendingBit(uint32_t FSMC_Bank, uint32_t FSMC_IT)
 946:App/STM32F4-Discovery/Libraries/STM32F4xx_StdPeriph_Driver/src/stm32f4xx_fsmc.c **** {
 2960              		.loc 1 946 0
 2961              		.cfi_startproc
 2962              		@ args = 0, pretend = 0, frame = 8
 2963              		@ frame_needed = 1, uses_anonymous_args = 0
 2964 0000 80B5     		push	{r7, lr}
 2965              	.LCFI53:
 2966              		.cfi_def_cfa_offset 8
 2967              		.cfi_offset 7, -8
 2968              		.cfi_offset 14, -4
 2969 0002 82B0     		sub	sp, sp, #8
 2970              	.LCFI54:
 2971              		.cfi_def_cfa_offset 16
 2972 0004 00AF     		add	r7, sp, #0
 2973              	.LCFI55:
 2974              		.cfi_def_cfa_register 7
 2975 0006 7860     		str	r0, [r7, #4]
 2976 0008 3960     		str	r1, [r7, #0]
 947:App/STM32F4-Discovery/Libraries/STM32F4xx_StdPeriph_Driver/src/stm32f4xx_fsmc.c ****   /* Check the parameters */
 948:App/STM32F4-Discovery/Libraries/STM32F4xx_StdPeriph_Driver/src/stm32f4xx_fsmc.c ****   assert_param(IS_FSMC_IT_BANK(FSMC_Bank));
 2977              		.loc 1 948 0
 2978 000a 7B68     		ldr	r3, [r7, #4]
 2979 000c 102B     		cmp	r3, #16
 2980 000e 0FD0     		beq	.L143
 2981              		.loc 1 948 0 is_stmt 0 discriminator 1
 2982 0010 7B68     		ldr	r3, [r7, #4]
 2983 0012 B3F5807F 		cmp	r3, #256
 2984 0016 0BD0     		beq	.L143
 2985              		.loc 1 948 0 discriminator 2
 2986 0018 7B68     		ldr	r3, [r7, #4]
 2987 001a B3F5805F 		cmp	r3, #4096
 2988 001e 07D0     		beq	.L143
 2989              		.loc 1 948 0 discriminator 3
 2990 0020 40F20000 		movw	r0, #:lower16:.LC0
 2991 0024 C0F20000 		movt	r0, #:upper16:.LC0
 2992 0028 4FF46D71 		mov	r1, #948
 2993 002c FFF7FEFF 		bl	assert_failed
 2994              	.L143:
 949:App/STM32F4-Discovery/Libraries/STM32F4xx_StdPeriph_Driver/src/stm32f4xx_fsmc.c ****   assert_param(IS_FSMC_IT(FSMC_IT));
 2995              		.loc 1 949 0 is_stmt 1
 2996 0030 3B68     		ldr	r3, [r7, #0]
 2997 0032 23F03803 		bic	r3, r3, #56
 2998 0036 002B     		cmp	r3, #0
 2999 0038 02D1     		bne	.L144
 3000              		.loc 1 949 0 is_stmt 0 discriminator 2
 3001 003a 3B68     		ldr	r3, [r7, #0]
 3002 003c 002B     		cmp	r3, #0
 3003 003e 07D1     		bne	.L145
 3004              	.L144:
 3005              		.loc 1 949 0 discriminator 1
 3006 0040 40F20000 		movw	r0, #:lower16:.LC0
 3007 0044 C0F20000 		movt	r0, #:upper16:.LC0
 3008 0048 40F2B531 		movw	r1, #949
 3009 004c FFF7FEFF 		bl	assert_failed
 3010              	.L145:
 950:App/STM32F4-Discovery/Libraries/STM32F4xx_StdPeriph_Driver/src/stm32f4xx_fsmc.c ****     
 951:App/STM32F4-Discovery/Libraries/STM32F4xx_StdPeriph_Driver/src/stm32f4xx_fsmc.c ****   if(FSMC_Bank == FSMC_Bank2_NAND)
 3011              		.loc 1 951 0 is_stmt 1
 3012 0050 7B68     		ldr	r3, [r7, #4]
 3013 0052 102B     		cmp	r3, #16
 3014 0054 10D1     		bne	.L146
 952:App/STM32F4-Discovery/Libraries/STM32F4xx_StdPeriph_Driver/src/stm32f4xx_fsmc.c ****   {
 953:App/STM32F4-Discovery/Libraries/STM32F4xx_StdPeriph_Driver/src/stm32f4xx_fsmc.c ****     FSMC_Bank2->SR2 &= ~(FSMC_IT >> 3); 
 3015              		.loc 1 953 0
 3016 0056 4FF06003 		mov	r3, #96
 3017 005a CAF20003 		movt	r3, 40960
 3018 005e 4FF06002 		mov	r2, #96
 3019 0062 CAF20002 		movt	r2, 40960
 3020 0066 5168     		ldr	r1, [r2, #4]
 3021 0068 3A68     		ldr	r2, [r7, #0]
 3022 006a 4FEAD202 		lsr	r2, r2, #3
 3023 006e 6FEA0202 		mvn	r2, r2
 3024 0072 0A40     		ands	r2, r2, r1
 3025 0074 5A60     		str	r2, [r3, #4]
 3026 0076 24E0     		b	.L142
 3027              	.L146:
 954:App/STM32F4-Discovery/Libraries/STM32F4xx_StdPeriph_Driver/src/stm32f4xx_fsmc.c ****   }  
 955:App/STM32F4-Discovery/Libraries/STM32F4xx_StdPeriph_Driver/src/stm32f4xx_fsmc.c ****   else if(FSMC_Bank == FSMC_Bank3_NAND)
 3028              		.loc 1 955 0
 3029 0078 7B68     		ldr	r3, [r7, #4]
 3030 007a B3F5807F 		cmp	r3, #256
 3031 007e 10D1     		bne	.L148
 956:App/STM32F4-Discovery/Libraries/STM32F4xx_StdPeriph_Driver/src/stm32f4xx_fsmc.c ****   {
 957:App/STM32F4-Discovery/Libraries/STM32F4xx_StdPeriph_Driver/src/stm32f4xx_fsmc.c ****     FSMC_Bank3->SR3 &= ~(FSMC_IT >> 3);
 3032              		.loc 1 957 0
 3033 0080 4FF08003 		mov	r3, #128
 3034 0084 CAF20003 		movt	r3, 40960
 3035 0088 4FF08002 		mov	r2, #128
 3036 008c CAF20002 		movt	r2, 40960
 3037 0090 5168     		ldr	r1, [r2, #4]
 3038 0092 3A68     		ldr	r2, [r7, #0]
 3039 0094 4FEAD202 		lsr	r2, r2, #3
 3040 0098 6FEA0202 		mvn	r2, r2
 3041 009c 0A40     		ands	r2, r2, r1
 3042 009e 5A60     		str	r2, [r3, #4]
 3043 00a0 0FE0     		b	.L142
 3044              	.L148:
 958:App/STM32F4-Discovery/Libraries/STM32F4xx_StdPeriph_Driver/src/stm32f4xx_fsmc.c ****   }
 959:App/STM32F4-Discovery/Libraries/STM32F4xx_StdPeriph_Driver/src/stm32f4xx_fsmc.c ****   /* FSMC_Bank4_PCCARD*/
 960:App/STM32F4-Discovery/Libraries/STM32F4xx_StdPeriph_Driver/src/stm32f4xx_fsmc.c ****   else
 961:App/STM32F4-Discovery/Libraries/STM32F4xx_StdPeriph_Driver/src/stm32f4xx_fsmc.c ****   {
 962:App/STM32F4-Discovery/Libraries/STM32F4xx_StdPeriph_Driver/src/stm32f4xx_fsmc.c ****     FSMC_Bank4->SR4 &= ~(FSMC_IT >> 3);
 3045              		.loc 1 962 0
 3046 00a2 4FF0A003 		mov	r3, #160
 3047 00a6 CAF20003 		movt	r3, 40960
 3048 00aa 4FF0A002 		mov	r2, #160
 3049 00ae CAF20002 		movt	r2, 40960
 3050 00b2 5168     		ldr	r1, [r2, #4]
 3051 00b4 3A68     		ldr	r2, [r7, #0]
