   1              		.syntax unified
   2              		.cpu cortex-m4
   3              		.eabi_attribute 27, 3
   4              		.fpu fpv4-sp-d16
   5              		.eabi_attribute 20, 1
   6              		.eabi_attribute 21, 1
   7              		.eabi_attribute 23, 3
   8              		.eabi_attribute 24, 1
   9              		.eabi_attribute 25, 1
  10              		.eabi_attribute 26, 1
  11              		.eabi_attribute 30, 6
  12              		.eabi_attribute 34, 1
  13              		.eabi_attribute 18, 4
  14              		.thumb
  15              		.file	"stm32f4xx_can.c"
  16              		.text
  17              	.Ltext0:
  18              		.cfi_sections	.debug_frame
  19              		.section	.rodata
  20              		.align	2
  21              	.LC0:
  22 0000 4170702F 		.ascii	"App/STM32F4-Discovery/Libraries/STM32F4xx_StdPeriph"
  22      53544D33 
  22      3246342D 
  22      44697363 
  22      6F766572 
  23 0033 5F447269 		.ascii	"_Driver/src/stm32f4xx_can.c\000"
  23      7665722F 
  23      7372632F 
  23      73746D33 
  23      32663478 
  24 004f 00       		.section	.text.CAN_DeInit,"ax",%progbits
  25              		.align	2
  26              		.global	CAN_DeInit
  27              		.thumb
  28              		.thumb_func
  30              	CAN_DeInit:
  31              	.LFB110:
  32              		.file 1 "App/STM32F4-Discovery/Libraries/STM32F4xx_StdPeriph_Driver/src/stm32f4xx_can.c"
   1:App/STM32F4-Discovery/Libraries/STM32F4xx_StdPeriph_Driver/src/stm32f4xx_can.c **** /**
   2:App/STM32F4-Discovery/Libraries/STM32F4xx_StdPeriph_Driver/src/stm32f4xx_can.c ****   ******************************************************************************
   3:App/STM32F4-Discovery/Libraries/STM32F4xx_StdPeriph_Driver/src/stm32f4xx_can.c ****   * @file    stm32f4xx_can.c
   4:App/STM32F4-Discovery/Libraries/STM32F4xx_StdPeriph_Driver/src/stm32f4xx_can.c ****   * @author  MCD Application Team
   5:App/STM32F4-Discovery/Libraries/STM32F4xx_StdPeriph_Driver/src/stm32f4xx_can.c ****   * @version V1.0.0
   6:App/STM32F4-Discovery/Libraries/STM32F4xx_StdPeriph_Driver/src/stm32f4xx_can.c ****   * @date    30-September-2011
   7:App/STM32F4-Discovery/Libraries/STM32F4xx_StdPeriph_Driver/src/stm32f4xx_can.c ****   * @brief   This file provides firmware functions to manage the following 
   8:App/STM32F4-Discovery/Libraries/STM32F4xx_StdPeriph_Driver/src/stm32f4xx_can.c ****   *          functionalities of the Controller area network (CAN) peripheral:           
   9:App/STM32F4-Discovery/Libraries/STM32F4xx_StdPeriph_Driver/src/stm32f4xx_can.c ****   *           - Initialization and Configuration 
  10:App/STM32F4-Discovery/Libraries/STM32F4xx_StdPeriph_Driver/src/stm32f4xx_can.c ****   *           - CAN Frames Transmission 
  11:App/STM32F4-Discovery/Libraries/STM32F4xx_StdPeriph_Driver/src/stm32f4xx_can.c ****   *           - CAN Frames Reception    
  12:App/STM32F4-Discovery/Libraries/STM32F4xx_StdPeriph_Driver/src/stm32f4xx_can.c ****   *           - Operation modes switch  
  13:App/STM32F4-Discovery/Libraries/STM32F4xx_StdPeriph_Driver/src/stm32f4xx_can.c ****   *           - Error management          
  14:App/STM32F4-Discovery/Libraries/STM32F4xx_StdPeriph_Driver/src/stm32f4xx_can.c ****   *           - Interrupts and flags        
  15:App/STM32F4-Discovery/Libraries/STM32F4xx_StdPeriph_Driver/src/stm32f4xx_can.c ****   *         
  16:App/STM32F4-Discovery/Libraries/STM32F4xx_StdPeriph_Driver/src/stm32f4xx_can.c ****   *  @verbatim
  17:App/STM32F4-Discovery/Libraries/STM32F4xx_StdPeriph_Driver/src/stm32f4xx_can.c ****   *                               
  18:App/STM32F4-Discovery/Libraries/STM32F4xx_StdPeriph_Driver/src/stm32f4xx_can.c ****   *          ===================================================================      
  19:App/STM32F4-Discovery/Libraries/STM32F4xx_StdPeriph_Driver/src/stm32f4xx_can.c ****   *                                   How to use this driver
  20:App/STM32F4-Discovery/Libraries/STM32F4xx_StdPeriph_Driver/src/stm32f4xx_can.c ****   *          ===================================================================
  21:App/STM32F4-Discovery/Libraries/STM32F4xx_StdPeriph_Driver/src/stm32f4xx_can.c ****                 
  22:App/STM32F4-Discovery/Libraries/STM32F4xx_StdPeriph_Driver/src/stm32f4xx_can.c ****   *          1.  Enable the CAN controller interface clock using 
  23:App/STM32F4-Discovery/Libraries/STM32F4xx_StdPeriph_Driver/src/stm32f4xx_can.c ****   *                  RCC_APB1PeriphClockCmd(RCC_APB1Periph_CAN1, ENABLE); for CAN1 
  24:App/STM32F4-Discovery/Libraries/STM32F4xx_StdPeriph_Driver/src/stm32f4xx_can.c ****   *              and RCC_APB1PeriphClockCmd(RCC_APB1Periph_CAN2, ENABLE); for CAN2
  25:App/STM32F4-Discovery/Libraries/STM32F4xx_StdPeriph_Driver/src/stm32f4xx_can.c ****   *  @note   In case you are using CAN2 only, you have to enable the CAN1 clock.
  26:App/STM32F4-Discovery/Libraries/STM32F4xx_StdPeriph_Driver/src/stm32f4xx_can.c ****   *     
  27:App/STM32F4-Discovery/Libraries/STM32F4xx_StdPeriph_Driver/src/stm32f4xx_can.c ****   *          2. CAN pins configuration
  28:App/STM32F4-Discovery/Libraries/STM32F4xx_StdPeriph_Driver/src/stm32f4xx_can.c ****   *               - Enable the clock for the CAN GPIOs using the following function:
  29:App/STM32F4-Discovery/Libraries/STM32F4xx_StdPeriph_Driver/src/stm32f4xx_can.c ****   *                   RCC_AHB1PeriphClockCmd(RCC_AHB1Periph_GPIOx, ENABLE);   
  30:App/STM32F4-Discovery/Libraries/STM32F4xx_StdPeriph_Driver/src/stm32f4xx_can.c ****   *               - Connect the involved CAN pins to AF9 using the following function 
  31:App/STM32F4-Discovery/Libraries/STM32F4xx_StdPeriph_Driver/src/stm32f4xx_can.c ****   *                   GPIO_PinAFConfig(GPIOx, GPIO_PinSourcex, GPIO_AF_CANx); 
  32:App/STM32F4-Discovery/Libraries/STM32F4xx_StdPeriph_Driver/src/stm32f4xx_can.c ****   *                - Configure these CAN pins in alternate function mode by calling
  33:App/STM32F4-Discovery/Libraries/STM32F4xx_StdPeriph_Driver/src/stm32f4xx_can.c ****   *                  the function  GPIO_Init();
  34:App/STM32F4-Discovery/Libraries/STM32F4xx_StdPeriph_Driver/src/stm32f4xx_can.c ****   *    
  35:App/STM32F4-Discovery/Libraries/STM32F4xx_StdPeriph_Driver/src/stm32f4xx_can.c ****   *          3.  Initialise and configure the CAN using CAN_Init() and 
  36:App/STM32F4-Discovery/Libraries/STM32F4xx_StdPeriph_Driver/src/stm32f4xx_can.c ****   *               CAN_FilterInit() functions.   
  37:App/STM32F4-Discovery/Libraries/STM32F4xx_StdPeriph_Driver/src/stm32f4xx_can.c ****   *               
  38:App/STM32F4-Discovery/Libraries/STM32F4xx_StdPeriph_Driver/src/stm32f4xx_can.c ****   *          4.  Transmit the desired CAN frame using CAN_Transmit() function.
  39:App/STM32F4-Discovery/Libraries/STM32F4xx_StdPeriph_Driver/src/stm32f4xx_can.c ****   *         
  40:App/STM32F4-Discovery/Libraries/STM32F4xx_StdPeriph_Driver/src/stm32f4xx_can.c ****   *          5.  Check the transmission of a CAN frame using CAN_TransmitStatus()
  41:App/STM32F4-Discovery/Libraries/STM32F4xx_StdPeriph_Driver/src/stm32f4xx_can.c ****   *              function.
  42:App/STM32F4-Discovery/Libraries/STM32F4xx_StdPeriph_Driver/src/stm32f4xx_can.c ****   *               
  43:App/STM32F4-Discovery/Libraries/STM32F4xx_StdPeriph_Driver/src/stm32f4xx_can.c ****   *          6.  Cancel the transmission of a CAN frame using CAN_CancelTransmit()
  44:App/STM32F4-Discovery/Libraries/STM32F4xx_StdPeriph_Driver/src/stm32f4xx_can.c ****   *              function.  
  45:App/STM32F4-Discovery/Libraries/STM32F4xx_StdPeriph_Driver/src/stm32f4xx_can.c ****   *            
  46:App/STM32F4-Discovery/Libraries/STM32F4xx_StdPeriph_Driver/src/stm32f4xx_can.c ****   *          7.  Receive a CAN frame using CAN_Recieve() function.
  47:App/STM32F4-Discovery/Libraries/STM32F4xx_StdPeriph_Driver/src/stm32f4xx_can.c ****   *         
  48:App/STM32F4-Discovery/Libraries/STM32F4xx_StdPeriph_Driver/src/stm32f4xx_can.c ****   *          8.  Release the receive FIFOs using CAN_FIFORelease() function.
  49:App/STM32F4-Discovery/Libraries/STM32F4xx_StdPeriph_Driver/src/stm32f4xx_can.c ****   *               
  50:App/STM32F4-Discovery/Libraries/STM32F4xx_StdPeriph_Driver/src/stm32f4xx_can.c ****   *          9. Return the number of pending received frames using 
  51:App/STM32F4-Discovery/Libraries/STM32F4xx_StdPeriph_Driver/src/stm32f4xx_can.c ****   *              CAN_MessagePending() function.            
  52:App/STM32F4-Discovery/Libraries/STM32F4xx_StdPeriph_Driver/src/stm32f4xx_can.c ****   *                   
  53:App/STM32F4-Discovery/Libraries/STM32F4xx_StdPeriph_Driver/src/stm32f4xx_can.c ****   *          10. To control CAN events you can use one of the following two methods:
  54:App/STM32F4-Discovery/Libraries/STM32F4xx_StdPeriph_Driver/src/stm32f4xx_can.c ****   *               - Check on CAN flags using the CAN_GetFlagStatus() function.  
  55:App/STM32F4-Discovery/Libraries/STM32F4xx_StdPeriph_Driver/src/stm32f4xx_can.c ****   *               - Use CAN interrupts through the function CAN_ITConfig() at 
  56:App/STM32F4-Discovery/Libraries/STM32F4xx_StdPeriph_Driver/src/stm32f4xx_can.c ****   *                 initialization phase and CAN_GetITStatus() function into 
  57:App/STM32F4-Discovery/Libraries/STM32F4xx_StdPeriph_Driver/src/stm32f4xx_can.c ****   *                 interrupt routines to check if the event has occurred or not.
  58:App/STM32F4-Discovery/Libraries/STM32F4xx_StdPeriph_Driver/src/stm32f4xx_can.c ****   *             After checking on a flag you should clear it using CAN_ClearFlag()
  59:App/STM32F4-Discovery/Libraries/STM32F4xx_StdPeriph_Driver/src/stm32f4xx_can.c ****   *             function. And after checking on an interrupt event you should 
  60:App/STM32F4-Discovery/Libraries/STM32F4xx_StdPeriph_Driver/src/stm32f4xx_can.c ****   *             clear it using CAN_ClearITPendingBit() function.            
  61:App/STM32F4-Discovery/Libraries/STM32F4xx_StdPeriph_Driver/src/stm32f4xx_can.c ****   *               
  62:App/STM32F4-Discovery/Libraries/STM32F4xx_StdPeriph_Driver/src/stm32f4xx_can.c ****   *              
  63:App/STM32F4-Discovery/Libraries/STM32F4xx_StdPeriph_Driver/src/stm32f4xx_can.c ****   *  @endverbatim
  64:App/STM32F4-Discovery/Libraries/STM32F4xx_StdPeriph_Driver/src/stm32f4xx_can.c ****   *         
  65:App/STM32F4-Discovery/Libraries/STM32F4xx_StdPeriph_Driver/src/stm32f4xx_can.c ****   ******************************************************************************
  66:App/STM32F4-Discovery/Libraries/STM32F4xx_StdPeriph_Driver/src/stm32f4xx_can.c ****   * @attention
  67:App/STM32F4-Discovery/Libraries/STM32F4xx_StdPeriph_Driver/src/stm32f4xx_can.c ****   *
  68:App/STM32F4-Discovery/Libraries/STM32F4xx_StdPeriph_Driver/src/stm32f4xx_can.c ****   * THE PRESENT FIRMWARE WHICH IS FOR GUIDANCE ONLY AIMS AT PROVIDING CUSTOMERS
  69:App/STM32F4-Discovery/Libraries/STM32F4xx_StdPeriph_Driver/src/stm32f4xx_can.c ****   * WITH CODING INFORMATION REGARDING THEIR PRODUCTS IN ORDER FOR THEM TO SAVE
  70:App/STM32F4-Discovery/Libraries/STM32F4xx_StdPeriph_Driver/src/stm32f4xx_can.c ****   * TIME. AS A RESULT, STMICROELECTRONICS SHALL NOT BE HELD LIABLE FOR ANY
  71:App/STM32F4-Discovery/Libraries/STM32F4xx_StdPeriph_Driver/src/stm32f4xx_can.c ****   * DIRECT, INDIRECT OR CONSEQUENTIAL DAMAGES WITH RESPECT TO ANY CLAIMS ARISING
  72:App/STM32F4-Discovery/Libraries/STM32F4xx_StdPeriph_Driver/src/stm32f4xx_can.c ****   * FROM THE CONTENT OF SUCH FIRMWARE AND/OR THE USE MADE BY CUSTOMERS OF THE
  73:App/STM32F4-Discovery/Libraries/STM32F4xx_StdPeriph_Driver/src/stm32f4xx_can.c ****   * CODING INFORMATION CONTAINED HEREIN IN CONNECTION WITH THEIR PRODUCTS.
  74:App/STM32F4-Discovery/Libraries/STM32F4xx_StdPeriph_Driver/src/stm32f4xx_can.c ****   *
  75:App/STM32F4-Discovery/Libraries/STM32F4xx_StdPeriph_Driver/src/stm32f4xx_can.c ****   * <h2><center>&copy; COPYRIGHT 2011 STMicroelectronics</center></h2>
  76:App/STM32F4-Discovery/Libraries/STM32F4xx_StdPeriph_Driver/src/stm32f4xx_can.c ****   ******************************************************************************  
  77:App/STM32F4-Discovery/Libraries/STM32F4xx_StdPeriph_Driver/src/stm32f4xx_can.c ****   */
  78:App/STM32F4-Discovery/Libraries/STM32F4xx_StdPeriph_Driver/src/stm32f4xx_can.c **** 
  79:App/STM32F4-Discovery/Libraries/STM32F4xx_StdPeriph_Driver/src/stm32f4xx_can.c **** /* Includes ------------------------------------------------------------------*/
  80:App/STM32F4-Discovery/Libraries/STM32F4xx_StdPeriph_Driver/src/stm32f4xx_can.c **** #include "stm32f4xx_can.h"
  81:App/STM32F4-Discovery/Libraries/STM32F4xx_StdPeriph_Driver/src/stm32f4xx_can.c **** #include "stm32f4xx_rcc.h"
  82:App/STM32F4-Discovery/Libraries/STM32F4xx_StdPeriph_Driver/src/stm32f4xx_can.c **** 
  83:App/STM32F4-Discovery/Libraries/STM32F4xx_StdPeriph_Driver/src/stm32f4xx_can.c **** /** @addtogroup STM32F4xx_StdPeriph_Driver
  84:App/STM32F4-Discovery/Libraries/STM32F4xx_StdPeriph_Driver/src/stm32f4xx_can.c ****   * @{
  85:App/STM32F4-Discovery/Libraries/STM32F4xx_StdPeriph_Driver/src/stm32f4xx_can.c ****   */
  86:App/STM32F4-Discovery/Libraries/STM32F4xx_StdPeriph_Driver/src/stm32f4xx_can.c **** 
  87:App/STM32F4-Discovery/Libraries/STM32F4xx_StdPeriph_Driver/src/stm32f4xx_can.c **** /** @defgroup CAN 
  88:App/STM32F4-Discovery/Libraries/STM32F4xx_StdPeriph_Driver/src/stm32f4xx_can.c ****   * @brief CAN driver modules
  89:App/STM32F4-Discovery/Libraries/STM32F4xx_StdPeriph_Driver/src/stm32f4xx_can.c ****   * @{
  90:App/STM32F4-Discovery/Libraries/STM32F4xx_StdPeriph_Driver/src/stm32f4xx_can.c ****   */ 
  91:App/STM32F4-Discovery/Libraries/STM32F4xx_StdPeriph_Driver/src/stm32f4xx_can.c **** /* Private typedef -----------------------------------------------------------*/
  92:App/STM32F4-Discovery/Libraries/STM32F4xx_StdPeriph_Driver/src/stm32f4xx_can.c **** /* Private define ------------------------------------------------------------*/
  93:App/STM32F4-Discovery/Libraries/STM32F4xx_StdPeriph_Driver/src/stm32f4xx_can.c **** 
  94:App/STM32F4-Discovery/Libraries/STM32F4xx_StdPeriph_Driver/src/stm32f4xx_can.c **** /* CAN Master Control Register bits */
  95:App/STM32F4-Discovery/Libraries/STM32F4xx_StdPeriph_Driver/src/stm32f4xx_can.c **** #define MCR_DBF           ((uint32_t)0x00010000) /* software master reset */
  96:App/STM32F4-Discovery/Libraries/STM32F4xx_StdPeriph_Driver/src/stm32f4xx_can.c **** 
  97:App/STM32F4-Discovery/Libraries/STM32F4xx_StdPeriph_Driver/src/stm32f4xx_can.c **** /* CAN Mailbox Transmit Request */
  98:App/STM32F4-Discovery/Libraries/STM32F4xx_StdPeriph_Driver/src/stm32f4xx_can.c **** #define TMIDxR_TXRQ       ((uint32_t)0x00000001) /* Transmit mailbox request */
  99:App/STM32F4-Discovery/Libraries/STM32F4xx_StdPeriph_Driver/src/stm32f4xx_can.c **** 
 100:App/STM32F4-Discovery/Libraries/STM32F4xx_StdPeriph_Driver/src/stm32f4xx_can.c **** /* CAN Filter Master Register bits */
 101:App/STM32F4-Discovery/Libraries/STM32F4xx_StdPeriph_Driver/src/stm32f4xx_can.c **** #define FMR_FINIT         ((uint32_t)0x00000001) /* Filter init mode */
 102:App/STM32F4-Discovery/Libraries/STM32F4xx_StdPeriph_Driver/src/stm32f4xx_can.c **** 
 103:App/STM32F4-Discovery/Libraries/STM32F4xx_StdPeriph_Driver/src/stm32f4xx_can.c **** /* Time out for INAK bit */
 104:App/STM32F4-Discovery/Libraries/STM32F4xx_StdPeriph_Driver/src/stm32f4xx_can.c **** #define INAK_TIMEOUT      ((uint32_t)0x0000FFFF)
 105:App/STM32F4-Discovery/Libraries/STM32F4xx_StdPeriph_Driver/src/stm32f4xx_can.c **** /* Time out for SLAK bit */
 106:App/STM32F4-Discovery/Libraries/STM32F4xx_StdPeriph_Driver/src/stm32f4xx_can.c **** #define SLAK_TIMEOUT      ((uint32_t)0x0000FFFF)
 107:App/STM32F4-Discovery/Libraries/STM32F4xx_StdPeriph_Driver/src/stm32f4xx_can.c **** 
 108:App/STM32F4-Discovery/Libraries/STM32F4xx_StdPeriph_Driver/src/stm32f4xx_can.c **** /* Flags in TSR register */
 109:App/STM32F4-Discovery/Libraries/STM32F4xx_StdPeriph_Driver/src/stm32f4xx_can.c **** #define CAN_FLAGS_TSR     ((uint32_t)0x08000000) 
 110:App/STM32F4-Discovery/Libraries/STM32F4xx_StdPeriph_Driver/src/stm32f4xx_can.c **** /* Flags in RF1R register */
 111:App/STM32F4-Discovery/Libraries/STM32F4xx_StdPeriph_Driver/src/stm32f4xx_can.c **** #define CAN_FLAGS_RF1R    ((uint32_t)0x04000000) 
 112:App/STM32F4-Discovery/Libraries/STM32F4xx_StdPeriph_Driver/src/stm32f4xx_can.c **** /* Flags in RF0R register */
 113:App/STM32F4-Discovery/Libraries/STM32F4xx_StdPeriph_Driver/src/stm32f4xx_can.c **** #define CAN_FLAGS_RF0R    ((uint32_t)0x02000000) 
 114:App/STM32F4-Discovery/Libraries/STM32F4xx_StdPeriph_Driver/src/stm32f4xx_can.c **** /* Flags in MSR register */
 115:App/STM32F4-Discovery/Libraries/STM32F4xx_StdPeriph_Driver/src/stm32f4xx_can.c **** #define CAN_FLAGS_MSR     ((uint32_t)0x01000000) 
 116:App/STM32F4-Discovery/Libraries/STM32F4xx_StdPeriph_Driver/src/stm32f4xx_can.c **** /* Flags in ESR register */
 117:App/STM32F4-Discovery/Libraries/STM32F4xx_StdPeriph_Driver/src/stm32f4xx_can.c **** #define CAN_FLAGS_ESR     ((uint32_t)0x00F00000) 
 118:App/STM32F4-Discovery/Libraries/STM32F4xx_StdPeriph_Driver/src/stm32f4xx_can.c **** 
 119:App/STM32F4-Discovery/Libraries/STM32F4xx_StdPeriph_Driver/src/stm32f4xx_can.c **** /* Mailboxes definition */
 120:App/STM32F4-Discovery/Libraries/STM32F4xx_StdPeriph_Driver/src/stm32f4xx_can.c **** #define CAN_TXMAILBOX_0   ((uint8_t)0x00)
 121:App/STM32F4-Discovery/Libraries/STM32F4xx_StdPeriph_Driver/src/stm32f4xx_can.c **** #define CAN_TXMAILBOX_1   ((uint8_t)0x01)
 122:App/STM32F4-Discovery/Libraries/STM32F4xx_StdPeriph_Driver/src/stm32f4xx_can.c **** #define CAN_TXMAILBOX_2   ((uint8_t)0x02) 
 123:App/STM32F4-Discovery/Libraries/STM32F4xx_StdPeriph_Driver/src/stm32f4xx_can.c **** 
 124:App/STM32F4-Discovery/Libraries/STM32F4xx_StdPeriph_Driver/src/stm32f4xx_can.c **** #define CAN_MODE_MASK     ((uint32_t) 0x00000003)
 125:App/STM32F4-Discovery/Libraries/STM32F4xx_StdPeriph_Driver/src/stm32f4xx_can.c **** 
 126:App/STM32F4-Discovery/Libraries/STM32F4xx_StdPeriph_Driver/src/stm32f4xx_can.c **** /* Private macro -------------------------------------------------------------*/
 127:App/STM32F4-Discovery/Libraries/STM32F4xx_StdPeriph_Driver/src/stm32f4xx_can.c **** /* Private variables ---------------------------------------------------------*/
 128:App/STM32F4-Discovery/Libraries/STM32F4xx_StdPeriph_Driver/src/stm32f4xx_can.c **** /* Private function prototypes -----------------------------------------------*/
 129:App/STM32F4-Discovery/Libraries/STM32F4xx_StdPeriph_Driver/src/stm32f4xx_can.c **** /* Private functions ---------------------------------------------------------*/
 130:App/STM32F4-Discovery/Libraries/STM32F4xx_StdPeriph_Driver/src/stm32f4xx_can.c **** static ITStatus CheckITStatus(uint32_t CAN_Reg, uint32_t It_Bit);
 131:App/STM32F4-Discovery/Libraries/STM32F4xx_StdPeriph_Driver/src/stm32f4xx_can.c **** 
 132:App/STM32F4-Discovery/Libraries/STM32F4xx_StdPeriph_Driver/src/stm32f4xx_can.c **** /** @defgroup CAN_Private_Functions
 133:App/STM32F4-Discovery/Libraries/STM32F4xx_StdPeriph_Driver/src/stm32f4xx_can.c ****   * @{
 134:App/STM32F4-Discovery/Libraries/STM32F4xx_StdPeriph_Driver/src/stm32f4xx_can.c ****   */
 135:App/STM32F4-Discovery/Libraries/STM32F4xx_StdPeriph_Driver/src/stm32f4xx_can.c **** 
 136:App/STM32F4-Discovery/Libraries/STM32F4xx_StdPeriph_Driver/src/stm32f4xx_can.c **** /** @defgroup CAN_Group1 Initialization and Configuration functions
 137:App/STM32F4-Discovery/Libraries/STM32F4xx_StdPeriph_Driver/src/stm32f4xx_can.c ****  *  @brief    Initialization and Configuration functions 
 138:App/STM32F4-Discovery/Libraries/STM32F4xx_StdPeriph_Driver/src/stm32f4xx_can.c ****  *
 139:App/STM32F4-Discovery/Libraries/STM32F4xx_StdPeriph_Driver/src/stm32f4xx_can.c **** @verbatim    
 140:App/STM32F4-Discovery/Libraries/STM32F4xx_StdPeriph_Driver/src/stm32f4xx_can.c ****  ===============================================================================
 141:App/STM32F4-Discovery/Libraries/STM32F4xx_StdPeriph_Driver/src/stm32f4xx_can.c ****                       Initialization and Configuration functions
 142:App/STM32F4-Discovery/Libraries/STM32F4xx_StdPeriph_Driver/src/stm32f4xx_can.c ****  ===============================================================================  
 143:App/STM32F4-Discovery/Libraries/STM32F4xx_StdPeriph_Driver/src/stm32f4xx_can.c ****   This section provides functions allowing to 
 144:App/STM32F4-Discovery/Libraries/STM32F4xx_StdPeriph_Driver/src/stm32f4xx_can.c ****    - Initialize the CAN peripherals : Prescaler, operating mode, the maximum number 
 145:App/STM32F4-Discovery/Libraries/STM32F4xx_StdPeriph_Driver/src/stm32f4xx_can.c ****      of time quanta to perform resynchronization, the number of time quanta in
 146:App/STM32F4-Discovery/Libraries/STM32F4xx_StdPeriph_Driver/src/stm32f4xx_can.c ****      Bit Segment 1 and 2 and many other modes. 
 147:App/STM32F4-Discovery/Libraries/STM32F4xx_StdPeriph_Driver/src/stm32f4xx_can.c ****      Refer to  @ref CAN_InitTypeDef  for more details.
 148:App/STM32F4-Discovery/Libraries/STM32F4xx_StdPeriph_Driver/src/stm32f4xx_can.c ****    - Configures the CAN reception filter.                                      
 149:App/STM32F4-Discovery/Libraries/STM32F4xx_StdPeriph_Driver/src/stm32f4xx_can.c ****    - Select the start bank filter for slave CAN.
 150:App/STM32F4-Discovery/Libraries/STM32F4xx_StdPeriph_Driver/src/stm32f4xx_can.c ****    - Enables or disables the Debug Freeze mode for CAN
 151:App/STM32F4-Discovery/Libraries/STM32F4xx_StdPeriph_Driver/src/stm32f4xx_can.c ****    - Enables or disables the CAN Time Trigger Operation communication mode
 152:App/STM32F4-Discovery/Libraries/STM32F4xx_StdPeriph_Driver/src/stm32f4xx_can.c ****    
 153:App/STM32F4-Discovery/Libraries/STM32F4xx_StdPeriph_Driver/src/stm32f4xx_can.c **** @endverbatim
 154:App/STM32F4-Discovery/Libraries/STM32F4xx_StdPeriph_Driver/src/stm32f4xx_can.c ****   * @{
 155:App/STM32F4-Discovery/Libraries/STM32F4xx_StdPeriph_Driver/src/stm32f4xx_can.c ****   */
 156:App/STM32F4-Discovery/Libraries/STM32F4xx_StdPeriph_Driver/src/stm32f4xx_can.c ****   
 157:App/STM32F4-Discovery/Libraries/STM32F4xx_StdPeriph_Driver/src/stm32f4xx_can.c **** /**
 158:App/STM32F4-Discovery/Libraries/STM32F4xx_StdPeriph_Driver/src/stm32f4xx_can.c ****   * @brief  Deinitializes the CAN peripheral registers to their default reset values.
 159:App/STM32F4-Discovery/Libraries/STM32F4xx_StdPeriph_Driver/src/stm32f4xx_can.c ****   * @param  CANx: where x can be 1 or 2 to select the CAN peripheral.
 160:App/STM32F4-Discovery/Libraries/STM32F4xx_StdPeriph_Driver/src/stm32f4xx_can.c ****   * @retval None.
 161:App/STM32F4-Discovery/Libraries/STM32F4xx_StdPeriph_Driver/src/stm32f4xx_can.c ****   */
 162:App/STM32F4-Discovery/Libraries/STM32F4xx_StdPeriph_Driver/src/stm32f4xx_can.c **** void CAN_DeInit(CAN_TypeDef* CANx)
 163:App/STM32F4-Discovery/Libraries/STM32F4xx_StdPeriph_Driver/src/stm32f4xx_can.c **** {
  33              		.loc 1 163 0
  34              		.cfi_startproc
  35              		@ args = 0, pretend = 0, frame = 8
  36              		@ frame_needed = 1, uses_anonymous_args = 0
  37 0000 80B5     		push	{r7, lr}
  38              	.LCFI0:
  39              		.cfi_def_cfa_offset 8
  40              		.cfi_offset 7, -8
  41              		.cfi_offset 14, -4
  42 0002 82B0     		sub	sp, sp, #8
  43              	.LCFI1:
  44              		.cfi_def_cfa_offset 16
  45 0004 00AF     		add	r7, sp, #0
  46              	.LCFI2:
  47              		.cfi_def_cfa_register 7
  48 0006 7860     		str	r0, [r7, #4]
 164:App/STM32F4-Discovery/Libraries/STM32F4xx_StdPeriph_Driver/src/stm32f4xx_can.c ****   /* Check the parameters */
 165:App/STM32F4-Discovery/Libraries/STM32F4xx_StdPeriph_Driver/src/stm32f4xx_can.c ****   assert_param(IS_CAN_ALL_PERIPH(CANx));
  49              		.loc 1 165 0
  50 0008 7A68     		ldr	r2, [r7, #4]
  51 000a 4FF4C843 		mov	r3, #25600
  52 000e C4F20003 		movt	r3, 16384
  53 0012 9A42     		cmp	r2, r3
  54 0014 0ED0     		beq	.L2
  55              		.loc 1 165 0 is_stmt 0 discriminator 1
  56 0016 7A68     		ldr	r2, [r7, #4]
  57 0018 4FF4D043 		mov	r3, #26624
  58 001c C4F20003 		movt	r3, 16384
  59 0020 9A42     		cmp	r2, r3
  60 0022 07D0     		beq	.L2
  61              		.loc 1 165 0 discriminator 2
  62 0024 40F20000 		movw	r0, #:lower16:.LC0
  63 0028 C0F20000 		movt	r0, #:upper16:.LC0
  64 002c 4FF0A501 		mov	r1, #165
  65 0030 FFF7FEFF 		bl	assert_failed
  66              	.L2:
 166:App/STM32F4-Discovery/Libraries/STM32F4xx_StdPeriph_Driver/src/stm32f4xx_can.c ****  
 167:App/STM32F4-Discovery/Libraries/STM32F4xx_StdPeriph_Driver/src/stm32f4xx_can.c ****   if (CANx == CAN1)
  67              		.loc 1 167 0 is_stmt 1
  68 0034 7A68     		ldr	r2, [r7, #4]
  69 0036 4FF4C843 		mov	r3, #25600
  70 003a C4F20003 		movt	r3, 16384
  71 003e 9A42     		cmp	r2, r3
  72 0040 0CD1     		bne	.L3
 168:App/STM32F4-Discovery/Libraries/STM32F4xx_StdPeriph_Driver/src/stm32f4xx_can.c ****   {
 169:App/STM32F4-Discovery/Libraries/STM32F4xx_StdPeriph_Driver/src/stm32f4xx_can.c ****     /* Enable CAN1 reset state */
 170:App/STM32F4-Discovery/Libraries/STM32F4xx_StdPeriph_Driver/src/stm32f4xx_can.c ****     RCC_APB1PeriphResetCmd(RCC_APB1Periph_CAN1, ENABLE);
  73              		.loc 1 170 0
  74 0042 4FF00070 		mov	r0, #33554432
  75 0046 4FF00101 		mov	r1, #1
  76 004a FFF7FEFF 		bl	RCC_APB1PeriphResetCmd
 171:App/STM32F4-Discovery/Libraries/STM32F4xx_StdPeriph_Driver/src/stm32f4xx_can.c ****     /* Release CAN1 from reset state */
 172:App/STM32F4-Discovery/Libraries/STM32F4xx_StdPeriph_Driver/src/stm32f4xx_can.c ****     RCC_APB1PeriphResetCmd(RCC_APB1Periph_CAN1, DISABLE);
  77              		.loc 1 172 0
  78 004e 4FF00070 		mov	r0, #33554432
  79 0052 4FF00001 		mov	r1, #0
  80 0056 FFF7FEFF 		bl	RCC_APB1PeriphResetCmd
  81 005a 0BE0     		b	.L1
  82              	.L3:
 173:App/STM32F4-Discovery/Libraries/STM32F4xx_StdPeriph_Driver/src/stm32f4xx_can.c ****   }
 174:App/STM32F4-Discovery/Libraries/STM32F4xx_StdPeriph_Driver/src/stm32f4xx_can.c ****   else
 175:App/STM32F4-Discovery/Libraries/STM32F4xx_StdPeriph_Driver/src/stm32f4xx_can.c ****   {  
 176:App/STM32F4-Discovery/Libraries/STM32F4xx_StdPeriph_Driver/src/stm32f4xx_can.c ****     /* Enable CAN2 reset state */
 177:App/STM32F4-Discovery/Libraries/STM32F4xx_StdPeriph_Driver/src/stm32f4xx_can.c ****     RCC_APB1PeriphResetCmd(RCC_APB1Periph_CAN2, ENABLE);
  83              		.loc 1 177 0
  84 005c 4FF08060 		mov	r0, #67108864
  85 0060 4FF00101 		mov	r1, #1
  86 0064 FFF7FEFF 		bl	RCC_APB1PeriphResetCmd
 178:App/STM32F4-Discovery/Libraries/STM32F4xx_StdPeriph_Driver/src/stm32f4xx_can.c ****     /* Release CAN2 from reset state */
 179:App/STM32F4-Discovery/Libraries/STM32F4xx_StdPeriph_Driver/src/stm32f4xx_can.c ****     RCC_APB1PeriphResetCmd(RCC_APB1Periph_CAN2, DISABLE);
  87              		.loc 1 179 0
  88 0068 4FF08060 		mov	r0, #67108864
  89 006c 4FF00001 		mov	r1, #0
  90 0070 FFF7FEFF 		bl	RCC_APB1PeriphResetCmd
  91              	.L1:
 180:App/STM32F4-Discovery/Libraries/STM32F4xx_StdPeriph_Driver/src/stm32f4xx_can.c ****   }
 181:App/STM32F4-Discovery/Libraries/STM32F4xx_StdPeriph_Driver/src/stm32f4xx_can.c **** }
  92              		.loc 1 181 0
  93 0074 07F10807 		add	r7, r7, #8
  94 0078 BD46     		mov	sp, r7
  95 007a 80BD     		pop	{r7, pc}
  96              		.cfi_endproc
  97              	.LFE110:
  99              		.section	.text.CAN_Init,"ax",%progbits
 100              		.align	2
 101              		.global	CAN_Init
 102              		.thumb
 103              		.thumb_func
 105              	CAN_Init:
 106              	.LFB111:
 182:App/STM32F4-Discovery/Libraries/STM32F4xx_StdPeriph_Driver/src/stm32f4xx_can.c **** 
 183:App/STM32F4-Discovery/Libraries/STM32F4xx_StdPeriph_Driver/src/stm32f4xx_can.c **** /**
 184:App/STM32F4-Discovery/Libraries/STM32F4xx_StdPeriph_Driver/src/stm32f4xx_can.c ****   * @brief  Initializes the CAN peripheral according to the specified
 185:App/STM32F4-Discovery/Libraries/STM32F4xx_StdPeriph_Driver/src/stm32f4xx_can.c ****   *         parameters in the CAN_InitStruct.
 186:App/STM32F4-Discovery/Libraries/STM32F4xx_StdPeriph_Driver/src/stm32f4xx_can.c ****   * @param  CANx: where x can be 1 or 2 to select the CAN peripheral.
 187:App/STM32F4-Discovery/Libraries/STM32F4xx_StdPeriph_Driver/src/stm32f4xx_can.c ****   * @param  CAN_InitStruct: pointer to a CAN_InitTypeDef structure that contains
 188:App/STM32F4-Discovery/Libraries/STM32F4xx_StdPeriph_Driver/src/stm32f4xx_can.c ****   *         the configuration information for the CAN peripheral.
 189:App/STM32F4-Discovery/Libraries/STM32F4xx_StdPeriph_Driver/src/stm32f4xx_can.c ****   * @retval Constant indicates initialization succeed which will be 
 190:App/STM32F4-Discovery/Libraries/STM32F4xx_StdPeriph_Driver/src/stm32f4xx_can.c ****   *         CAN_InitStatus_Failed or CAN_InitStatus_Success.
 191:App/STM32F4-Discovery/Libraries/STM32F4xx_StdPeriph_Driver/src/stm32f4xx_can.c ****   */
 192:App/STM32F4-Discovery/Libraries/STM32F4xx_StdPeriph_Driver/src/stm32f4xx_can.c **** uint8_t CAN_Init(CAN_TypeDef* CANx, CAN_InitTypeDef* CAN_InitStruct)
 193:App/STM32F4-Discovery/Libraries/STM32F4xx_StdPeriph_Driver/src/stm32f4xx_can.c **** {
 107              		.loc 1 193 0
 108              		.cfi_startproc
 109              		@ args = 0, pretend = 0, frame = 16
 110              		@ frame_needed = 1, uses_anonymous_args = 0
 111 0000 80B5     		push	{r7, lr}
 112              	.LCFI3:
 113              		.cfi_def_cfa_offset 8
 114              		.cfi_offset 7, -8
 115              		.cfi_offset 14, -4
 116 0002 84B0     		sub	sp, sp, #16
 117              	.LCFI4:
 118              		.cfi_def_cfa_offset 24
 119 0004 00AF     		add	r7, sp, #0
 120              	.LCFI5:
 121              		.cfi_def_cfa_register 7
 122 0006 7860     		str	r0, [r7, #4]
 123 0008 3960     		str	r1, [r7, #0]
 194:App/STM32F4-Discovery/Libraries/STM32F4xx_StdPeriph_Driver/src/stm32f4xx_can.c ****   uint8_t InitStatus = CAN_InitStatus_Failed;
 124              		.loc 1 194 0
 125 000a 4FF00003 		mov	r3, #0
 126 000e FB73     		strb	r3, [r7, #15]
 195:App/STM32F4-Discovery/Libraries/STM32F4xx_StdPeriph_Driver/src/stm32f4xx_can.c ****   uint32_t wait_ack = 0x00000000;
 127              		.loc 1 195 0
 128 0010 4FF00003 		mov	r3, #0
 129 0014 BB60     		str	r3, [r7, #8]
 196:App/STM32F4-Discovery/Libraries/STM32F4xx_StdPeriph_Driver/src/stm32f4xx_can.c ****   /* Check the parameters */
 197:App/STM32F4-Discovery/Libraries/STM32F4xx_StdPeriph_Driver/src/stm32f4xx_can.c ****   assert_param(IS_CAN_ALL_PERIPH(CANx));
 130              		.loc 1 197 0
 131 0016 7A68     		ldr	r2, [r7, #4]
 132 0018 4FF4C843 		mov	r3, #25600
 133 001c C4F20003 		movt	r3, 16384
 134 0020 9A42     		cmp	r2, r3
 135 0022 0ED0     		beq	.L6
 136              		.loc 1 197 0 is_stmt 0 discriminator 1
 137 0024 7A68     		ldr	r2, [r7, #4]
 138 0026 4FF4D043 		mov	r3, #26624
 139 002a C4F20003 		movt	r3, 16384
 140 002e 9A42     		cmp	r2, r3
 141 0030 07D0     		beq	.L6
 142              		.loc 1 197 0 discriminator 2
 143 0032 40F20000 		movw	r0, #:lower16:.LC0
 144 0036 C0F20000 		movt	r0, #:upper16:.LC0
 145 003a 4FF0C501 		mov	r1, #197
 146 003e FFF7FEFF 		bl	assert_failed
 147              	.L6:
 198:App/STM32F4-Discovery/Libraries/STM32F4xx_StdPeriph_Driver/src/stm32f4xx_can.c ****   assert_param(IS_FUNCTIONAL_STATE(CAN_InitStruct->CAN_TTCM));
 148              		.loc 1 198 0 is_stmt 1
 149 0042 3B68     		ldr	r3, [r7, #0]
 150 0044 9B79     		ldrb	r3, [r3, #6]	@ zero_extendqisi2
 151 0046 002B     		cmp	r3, #0
 152 0048 0BD0     		beq	.L7
 153              		.loc 1 198 0 is_stmt 0 discriminator 1
 154 004a 3B68     		ldr	r3, [r7, #0]
 155 004c 9B79     		ldrb	r3, [r3, #6]	@ zero_extendqisi2
 156 004e 012B     		cmp	r3, #1
 157 0050 07D0     		beq	.L7
 158              		.loc 1 198 0 discriminator 2
 159 0052 40F20000 		movw	r0, #:lower16:.LC0
 160 0056 C0F20000 		movt	r0, #:upper16:.LC0
 161 005a 4FF0C601 		mov	r1, #198
 162 005e FFF7FEFF 		bl	assert_failed
 163              	.L7:
 199:App/STM32F4-Discovery/Libraries/STM32F4xx_StdPeriph_Driver/src/stm32f4xx_can.c ****   assert_param(IS_FUNCTIONAL_STATE(CAN_InitStruct->CAN_ABOM));
 164              		.loc 1 199 0 is_stmt 1
 165 0062 3B68     		ldr	r3, [r7, #0]
 166 0064 DB79     		ldrb	r3, [r3, #7]	@ zero_extendqisi2
 167 0066 002B     		cmp	r3, #0
 168 0068 0BD0     		beq	.L8
 169              		.loc 1 199 0 is_stmt 0 discriminator 1
 170 006a 3B68     		ldr	r3, [r7, #0]
 171 006c DB79     		ldrb	r3, [r3, #7]	@ zero_extendqisi2
 172 006e 012B     		cmp	r3, #1
 173 0070 07D0     		beq	.L8
 174              		.loc 1 199 0 discriminator 2
 175 0072 40F20000 		movw	r0, #:lower16:.LC0
 176 0076 C0F20000 		movt	r0, #:upper16:.LC0
 177 007a 4FF0C701 		mov	r1, #199
 178 007e FFF7FEFF 		bl	assert_failed
 179              	.L8:
 200:App/STM32F4-Discovery/Libraries/STM32F4xx_StdPeriph_Driver/src/stm32f4xx_can.c ****   assert_param(IS_FUNCTIONAL_STATE(CAN_InitStruct->CAN_AWUM));
 180              		.loc 1 200 0 is_stmt 1
 181 0082 3B68     		ldr	r3, [r7, #0]
 182 0084 1B7A     		ldrb	r3, [r3, #8]	@ zero_extendqisi2
 183 0086 002B     		cmp	r3, #0
 184 0088 0BD0     		beq	.L9
 185              		.loc 1 200 0 is_stmt 0 discriminator 1
 186 008a 3B68     		ldr	r3, [r7, #0]
 187 008c 1B7A     		ldrb	r3, [r3, #8]	@ zero_extendqisi2
 188 008e 012B     		cmp	r3, #1
 189 0090 07D0     		beq	.L9
 190              		.loc 1 200 0 discriminator 2
 191 0092 40F20000 		movw	r0, #:lower16:.LC0
 192 0096 C0F20000 		movt	r0, #:upper16:.LC0
 193 009a 4FF0C801 		mov	r1, #200
 194 009e FFF7FEFF 		bl	assert_failed
 195              	.L9:
 201:App/STM32F4-Discovery/Libraries/STM32F4xx_StdPeriph_Driver/src/stm32f4xx_can.c ****   assert_param(IS_FUNCTIONAL_STATE(CAN_InitStruct->CAN_NART));
 196              		.loc 1 201 0 is_stmt 1
 197 00a2 3B68     		ldr	r3, [r7, #0]
 198 00a4 5B7A     		ldrb	r3, [r3, #9]	@ zero_extendqisi2
 199 00a6 002B     		cmp	r3, #0
 200 00a8 0BD0     		beq	.L10
 201              		.loc 1 201 0 is_stmt 0 discriminator 1
 202 00aa 3B68     		ldr	r3, [r7, #0]
 203 00ac 5B7A     		ldrb	r3, [r3, #9]	@ zero_extendqisi2
 204 00ae 012B     		cmp	r3, #1
 205 00b0 07D0     		beq	.L10
 206              		.loc 1 201 0 discriminator 2
 207 00b2 40F20000 		movw	r0, #:lower16:.LC0
 208 00b6 C0F20000 		movt	r0, #:upper16:.LC0
 209 00ba 4FF0C901 		mov	r1, #201
 210 00be FFF7FEFF 		bl	assert_failed
 211              	.L10:
 202:App/STM32F4-Discovery/Libraries/STM32F4xx_StdPeriph_Driver/src/stm32f4xx_can.c ****   assert_param(IS_FUNCTIONAL_STATE(CAN_InitStruct->CAN_RFLM));
 212              		.loc 1 202 0 is_stmt 1
 213 00c2 3B68     		ldr	r3, [r7, #0]
 214 00c4 9B7A     		ldrb	r3, [r3, #10]	@ zero_extendqisi2
 215 00c6 002B     		cmp	r3, #0
 216 00c8 0BD0     		beq	.L11
 217              		.loc 1 202 0 is_stmt 0 discriminator 1
 218 00ca 3B68     		ldr	r3, [r7, #0]
 219 00cc 9B7A     		ldrb	r3, [r3, #10]	@ zero_extendqisi2
 220 00ce 012B     		cmp	r3, #1
 221 00d0 07D0     		beq	.L11
 222              		.loc 1 202 0 discriminator 2
 223 00d2 40F20000 		movw	r0, #:lower16:.LC0
 224 00d6 C0F20000 		movt	r0, #:upper16:.LC0
 225 00da 4FF0CA01 		mov	r1, #202
 226 00de FFF7FEFF 		bl	assert_failed
 227              	.L11:
 203:App/STM32F4-Discovery/Libraries/STM32F4xx_StdPeriph_Driver/src/stm32f4xx_can.c ****   assert_param(IS_FUNCTIONAL_STATE(CAN_InitStruct->CAN_TXFP));
 228              		.loc 1 203 0 is_stmt 1
 229 00e2 3B68     		ldr	r3, [r7, #0]
 230 00e4 DB7A     		ldrb	r3, [r3, #11]	@ zero_extendqisi2
 231 00e6 002B     		cmp	r3, #0
 232 00e8 0BD0     		beq	.L12
 233              		.loc 1 203 0 is_stmt 0 discriminator 1
 234 00ea 3B68     		ldr	r3, [r7, #0]
 235 00ec DB7A     		ldrb	r3, [r3, #11]	@ zero_extendqisi2
 236 00ee 012B     		cmp	r3, #1
 237 00f0 07D0     		beq	.L12
 238              		.loc 1 203 0 discriminator 2
 239 00f2 40F20000 		movw	r0, #:lower16:.LC0
 240 00f6 C0F20000 		movt	r0, #:upper16:.LC0
 241 00fa 4FF0CB01 		mov	r1, #203
 242 00fe FFF7FEFF 		bl	assert_failed
 243              	.L12:
 204:App/STM32F4-Discovery/Libraries/STM32F4xx_StdPeriph_Driver/src/stm32f4xx_can.c ****   assert_param(IS_CAN_MODE(CAN_InitStruct->CAN_Mode));
 244              		.loc 1 204 0 is_stmt 1
 245 0102 3B68     		ldr	r3, [r7, #0]
 246 0104 9B78     		ldrb	r3, [r3, #2]	@ zero_extendqisi2
 247 0106 002B     		cmp	r3, #0
 248 0108 13D0     		beq	.L13
 249              		.loc 1 204 0 is_stmt 0 discriminator 1
 250 010a 3B68     		ldr	r3, [r7, #0]
 251 010c 9B78     		ldrb	r3, [r3, #2]	@ zero_extendqisi2
 252 010e 012B     		cmp	r3, #1
 253 0110 0FD0     		beq	.L13
 254              		.loc 1 204 0 discriminator 2
 255 0112 3B68     		ldr	r3, [r7, #0]
 256 0114 9B78     		ldrb	r3, [r3, #2]	@ zero_extendqisi2
 257 0116 022B     		cmp	r3, #2
 258 0118 0BD0     		beq	.L13
 259              		.loc 1 204 0 discriminator 3
 260 011a 3B68     		ldr	r3, [r7, #0]
 261 011c 9B78     		ldrb	r3, [r3, #2]	@ zero_extendqisi2
 262 011e 032B     		cmp	r3, #3
 263 0120 07D0     		beq	.L13
 264              		.loc 1 204 0 discriminator 4
 265 0122 40F20000 		movw	r0, #:lower16:.LC0
 266 0126 C0F20000 		movt	r0, #:upper16:.LC0
 267 012a 4FF0CC01 		mov	r1, #204
 268 012e FFF7FEFF 		bl	assert_failed
 269              	.L13:
 205:App/STM32F4-Discovery/Libraries/STM32F4xx_StdPeriph_Driver/src/stm32f4xx_can.c ****   assert_param(IS_CAN_SJW(CAN_InitStruct->CAN_SJW));
 270              		.loc 1 205 0 is_stmt 1
 271 0132 3B68     		ldr	r3, [r7, #0]
 272 0134 DB78     		ldrb	r3, [r3, #3]	@ zero_extendqisi2
 273 0136 002B     		cmp	r3, #0
 274 0138 13D0     		beq	.L14
 275              		.loc 1 205 0 is_stmt 0 discriminator 1
 276 013a 3B68     		ldr	r3, [r7, #0]
 277 013c DB78     		ldrb	r3, [r3, #3]	@ zero_extendqisi2
 278 013e 012B     		cmp	r3, #1
 279 0140 0FD0     		beq	.L14
 280              		.loc 1 205 0 discriminator 2
 281 0142 3B68     		ldr	r3, [r7, #0]
 282 0144 DB78     		ldrb	r3, [r3, #3]	@ zero_extendqisi2
 283 0146 022B     		cmp	r3, #2
 284 0148 0BD0     		beq	.L14
 285              		.loc 1 205 0 discriminator 3
 286 014a 3B68     		ldr	r3, [r7, #0]
 287 014c DB78     		ldrb	r3, [r3, #3]	@ zero_extendqisi2
 288 014e 032B     		cmp	r3, #3
 289 0150 07D0     		beq	.L14
 290              		.loc 1 205 0 discriminator 4
 291 0152 40F20000 		movw	r0, #:lower16:.LC0
 292 0156 C0F20000 		movt	r0, #:upper16:.LC0
 293 015a 4FF0CD01 		mov	r1, #205
 294 015e FFF7FEFF 		bl	assert_failed
 295              	.L14:
 206:App/STM32F4-Discovery/Libraries/STM32F4xx_StdPeriph_Driver/src/stm32f4xx_can.c ****   assert_param(IS_CAN_BS1(CAN_InitStruct->CAN_BS1));
 296              		.loc 1 206 0 is_stmt 1
 297 0162 3B68     		ldr	r3, [r7, #0]
 298 0164 1B79     		ldrb	r3, [r3, #4]	@ zero_extendqisi2
 299 0166 0F2B     		cmp	r3, #15
 300 0168 07D9     		bls	.L15
 301              		.loc 1 206 0 is_stmt 0 discriminator 1
 302 016a 40F20000 		movw	r0, #:lower16:.LC0
 303 016e C0F20000 		movt	r0, #:upper16:.LC0
 304 0172 4FF0CE01 		mov	r1, #206
 305 0176 FFF7FEFF 		bl	assert_failed
 306              	.L15:
 207:App/STM32F4-Discovery/Libraries/STM32F4xx_StdPeriph_Driver/src/stm32f4xx_can.c ****   assert_param(IS_CAN_BS2(CAN_InitStruct->CAN_BS2));
 307              		.loc 1 207 0 is_stmt 1
 308 017a 3B68     		ldr	r3, [r7, #0]
 309 017c 5B79     		ldrb	r3, [r3, #5]	@ zero_extendqisi2
 310 017e 072B     		cmp	r3, #7
 311 0180 07D9     		bls	.L16
 312              		.loc 1 207 0 is_stmt 0 discriminator 1
 313 0182 40F20000 		movw	r0, #:lower16:.LC0
 314 0186 C0F20000 		movt	r0, #:upper16:.LC0
 315 018a 4FF0CF01 		mov	r1, #207
 316 018e FFF7FEFF 		bl	assert_failed
 317              	.L16:
 208:App/STM32F4-Discovery/Libraries/STM32F4xx_StdPeriph_Driver/src/stm32f4xx_can.c ****   assert_param(IS_CAN_PRESCALER(CAN_InitStruct->CAN_Prescaler));
 318              		.loc 1 208 0 is_stmt 1
 319 0192 3B68     		ldr	r3, [r7, #0]
 320 0194 1B88     		ldrh	r3, [r3, #0]
 321 0196 002B     		cmp	r3, #0
 322 0198 04D0     		beq	.L17
 323              		.loc 1 208 0 is_stmt 0 discriminator 2
 324 019a 3B68     		ldr	r3, [r7, #0]
 325 019c 1B88     		ldrh	r3, [r3, #0]
 326 019e B3F5806F 		cmp	r3, #1024
 327 01a2 07D9     		bls	.L18
 328              	.L17:
 329              		.loc 1 208 0 discriminator 1
 330 01a4 40F20000 		movw	r0, #:lower16:.LC0
 331 01a8 C0F20000 		movt	r0, #:upper16:.LC0
 332 01ac 4FF0D001 		mov	r1, #208
 333 01b0 FFF7FEFF 		bl	assert_failed
 334              	.L18:
 209:App/STM32F4-Discovery/Libraries/STM32F4xx_StdPeriph_Driver/src/stm32f4xx_can.c **** 
 210:App/STM32F4-Discovery/Libraries/STM32F4xx_StdPeriph_Driver/src/stm32f4xx_can.c ****   /* Exit from sleep mode */
 211:App/STM32F4-Discovery/Libraries/STM32F4xx_StdPeriph_Driver/src/stm32f4xx_can.c ****   CANx->MCR &= (~(uint32_t)CAN_MCR_SLEEP);
 335              		.loc 1 211 0 is_stmt 1
 336 01b4 7B68     		ldr	r3, [r7, #4]
 337 01b6 1B68     		ldr	r3, [r3, #0]
 338 01b8 23F00202 		bic	r2, r3, #2
 339 01bc 7B68     		ldr	r3, [r7, #4]
 340 01be 1A60     		str	r2, [r3, #0]
 212:App/STM32F4-Discovery/Libraries/STM32F4xx_StdPeriph_Driver/src/stm32f4xx_can.c **** 
 213:App/STM32F4-Discovery/Libraries/STM32F4xx_StdPeriph_Driver/src/stm32f4xx_can.c ****   /* Request initialisation */
 214:App/STM32F4-Discovery/Libraries/STM32F4xx_StdPeriph_Driver/src/stm32f4xx_can.c ****   CANx->MCR |= CAN_MCR_INRQ ;
 341              		.loc 1 214 0
 342 01c0 7B68     		ldr	r3, [r7, #4]
 343 01c2 1B68     		ldr	r3, [r3, #0]
 344 01c4 43F00102 		orr	r2, r3, #1
 345 01c8 7B68     		ldr	r3, [r7, #4]
 346 01ca 1A60     		str	r2, [r3, #0]
 215:App/STM32F4-Discovery/Libraries/STM32F4xx_StdPeriph_Driver/src/stm32f4xx_can.c **** 
 216:App/STM32F4-Discovery/Libraries/STM32F4xx_StdPeriph_Driver/src/stm32f4xx_can.c ****   /* Wait the acknowledge */
 217:App/STM32F4-Discovery/Libraries/STM32F4xx_StdPeriph_Driver/src/stm32f4xx_can.c ****   while (((CANx->MSR & CAN_MSR_INAK) != CAN_MSR_INAK) && (wait_ack != INAK_TIMEOUT))
 347              		.loc 1 217 0
 348 01cc 03E0     		b	.L19
 349              	.L21:
 218:App/STM32F4-Discovery/Libraries/STM32F4xx_StdPeriph_Driver/src/stm32f4xx_can.c ****   {
 219:App/STM32F4-Discovery/Libraries/STM32F4xx_StdPeriph_Driver/src/stm32f4xx_can.c ****     wait_ack++;
 350              		.loc 1 219 0
 351 01ce BB68     		ldr	r3, [r7, #8]
 352 01d0 03F10103 		add	r3, r3, #1
 353 01d4 BB60     		str	r3, [r7, #8]
 354              	.L19:
 217:App/STM32F4-Discovery/Libraries/STM32F4xx_StdPeriph_Driver/src/stm32f4xx_can.c ****   while (((CANx->MSR & CAN_MSR_INAK) != CAN_MSR_INAK) && (wait_ack != INAK_TIMEOUT))
 355              		.loc 1 217 0 discriminator 1
 356 01d6 7B68     		ldr	r3, [r7, #4]
 357 01d8 5B68     		ldr	r3, [r3, #4]
 358 01da 03F00103 		and	r3, r3, #1
 359 01de 002B     		cmp	r3, #0
 360 01e0 04D1     		bne	.L20
 217:App/STM32F4-Discovery/Libraries/STM32F4xx_StdPeriph_Driver/src/stm32f4xx_can.c ****   while (((CANx->MSR & CAN_MSR_INAK) != CAN_MSR_INAK) && (wait_ack != INAK_TIMEOUT))
 361              		.loc 1 217 0 is_stmt 0 discriminator 2
 362 01e2 BA68     		ldr	r2, [r7, #8]
 363 01e4 4FF6FF73 		movw	r3, #65535
 364 01e8 9A42     		cmp	r2, r3
 365 01ea F0D1     		bne	.L21
 366              	.L20:
 220:App/STM32F4-Discovery/Libraries/STM32F4xx_StdPeriph_Driver/src/stm32f4xx_can.c ****   }
 221:App/STM32F4-Discovery/Libraries/STM32F4xx_StdPeriph_Driver/src/stm32f4xx_can.c **** 
 222:App/STM32F4-Discovery/Libraries/STM32F4xx_StdPeriph_Driver/src/stm32f4xx_can.c ****   /* Check acknowledge */
 223:App/STM32F4-Discovery/Libraries/STM32F4xx_StdPeriph_Driver/src/stm32f4xx_can.c ****   if ((CANx->MSR & CAN_MSR_INAK) != CAN_MSR_INAK)
 367              		.loc 1 223 0 is_stmt 1
 368 01ec 7B68     		ldr	r3, [r7, #4]
 369 01ee 5B68     		ldr	r3, [r3, #4]
 370 01f0 03F00103 		and	r3, r3, #1
 371 01f4 002B     		cmp	r3, #0
 372 01f6 03D1     		bne	.L22
 224:App/STM32F4-Discovery/Libraries/STM32F4xx_StdPeriph_Driver/src/stm32f4xx_can.c ****   {
 225:App/STM32F4-Discovery/Libraries/STM32F4xx_StdPeriph_Driver/src/stm32f4xx_can.c ****     InitStatus = CAN_InitStatus_Failed;
 373              		.loc 1 225 0
 374 01f8 4FF00003 		mov	r3, #0
 375 01fc FB73     		strb	r3, [r7, #15]
 376 01fe A5E0     		b	.L23
 377              	.L22:
 226:App/STM32F4-Discovery/Libraries/STM32F4xx_StdPeriph_Driver/src/stm32f4xx_can.c ****   }
 227:App/STM32F4-Discovery/Libraries/STM32F4xx_StdPeriph_Driver/src/stm32f4xx_can.c ****   else 
 228:App/STM32F4-Discovery/Libraries/STM32F4xx_StdPeriph_Driver/src/stm32f4xx_can.c ****   {
 229:App/STM32F4-Discovery/Libraries/STM32F4xx_StdPeriph_Driver/src/stm32f4xx_can.c ****     /* Set the time triggered communication mode */
 230:App/STM32F4-Discovery/Libraries/STM32F4xx_StdPeriph_Driver/src/stm32f4xx_can.c ****     if (CAN_InitStruct->CAN_TTCM == ENABLE)
 378              		.loc 1 230 0
 379 0200 3B68     		ldr	r3, [r7, #0]
 380 0202 9B79     		ldrb	r3, [r3, #6]	@ zero_extendqisi2
 381 0204 012B     		cmp	r3, #1
 382 0206 06D1     		bne	.L24
 231:App/STM32F4-Discovery/Libraries/STM32F4xx_StdPeriph_Driver/src/stm32f4xx_can.c ****     {
 232:App/STM32F4-Discovery/Libraries/STM32F4xx_StdPeriph_Driver/src/stm32f4xx_can.c ****       CANx->MCR |= CAN_MCR_TTCM;
 383              		.loc 1 232 0
 384 0208 7B68     		ldr	r3, [r7, #4]
 385 020a 1B68     		ldr	r3, [r3, #0]
 386 020c 43F08002 		orr	r2, r3, #128
 387 0210 7B68     		ldr	r3, [r7, #4]
 388 0212 1A60     		str	r2, [r3, #0]
 389 0214 05E0     		b	.L25
 390              	.L24:
 233:App/STM32F4-Discovery/Libraries/STM32F4xx_StdPeriph_Driver/src/stm32f4xx_can.c ****     }
 234:App/STM32F4-Discovery/Libraries/STM32F4xx_StdPeriph_Driver/src/stm32f4xx_can.c ****     else
 235:App/STM32F4-Discovery/Libraries/STM32F4xx_StdPeriph_Driver/src/stm32f4xx_can.c ****     {
 236:App/STM32F4-Discovery/Libraries/STM32F4xx_StdPeriph_Driver/src/stm32f4xx_can.c ****       CANx->MCR &= ~(uint32_t)CAN_MCR_TTCM;
 391              		.loc 1 236 0
 392 0216 7B68     		ldr	r3, [r7, #4]
 393 0218 1B68     		ldr	r3, [r3, #0]
 394 021a 23F08002 		bic	r2, r3, #128
 395 021e 7B68     		ldr	r3, [r7, #4]
 396 0220 1A60     		str	r2, [r3, #0]
 397              	.L25:
 237:App/STM32F4-Discovery/Libraries/STM32F4xx_StdPeriph_Driver/src/stm32f4xx_can.c ****     }
 238:App/STM32F4-Discovery/Libraries/STM32F4xx_StdPeriph_Driver/src/stm32f4xx_can.c **** 
 239:App/STM32F4-Discovery/Libraries/STM32F4xx_StdPeriph_Driver/src/stm32f4xx_can.c ****     /* Set the automatic bus-off management */
 240:App/STM32F4-Discovery/Libraries/STM32F4xx_StdPeriph_Driver/src/stm32f4xx_can.c ****     if (CAN_InitStruct->CAN_ABOM == ENABLE)
 398              		.loc 1 240 0
 399 0222 3B68     		ldr	r3, [r7, #0]
 400 0224 DB79     		ldrb	r3, [r3, #7]	@ zero_extendqisi2
 401 0226 012B     		cmp	r3, #1
 402 0228 06D1     		bne	.L26
 241:App/STM32F4-Discovery/Libraries/STM32F4xx_StdPeriph_Driver/src/stm32f4xx_can.c ****     {
 242:App/STM32F4-Discovery/Libraries/STM32F4xx_StdPeriph_Driver/src/stm32f4xx_can.c ****       CANx->MCR |= CAN_MCR_ABOM;
 403              		.loc 1 242 0
 404 022a 7B68     		ldr	r3, [r7, #4]
 405 022c 1B68     		ldr	r3, [r3, #0]
 406 022e 43F04002 		orr	r2, r3, #64
 407 0232 7B68     		ldr	r3, [r7, #4]
 408 0234 1A60     		str	r2, [r3, #0]
 409 0236 05E0     		b	.L27
 410              	.L26:
 243:App/STM32F4-Discovery/Libraries/STM32F4xx_StdPeriph_Driver/src/stm32f4xx_can.c ****     }
 244:App/STM32F4-Discovery/Libraries/STM32F4xx_StdPeriph_Driver/src/stm32f4xx_can.c ****     else
 245:App/STM32F4-Discovery/Libraries/STM32F4xx_StdPeriph_Driver/src/stm32f4xx_can.c ****     {
 246:App/STM32F4-Discovery/Libraries/STM32F4xx_StdPeriph_Driver/src/stm32f4xx_can.c ****       CANx->MCR &= ~(uint32_t)CAN_MCR_ABOM;
 411              		.loc 1 246 0
 412 0238 7B68     		ldr	r3, [r7, #4]
 413 023a 1B68     		ldr	r3, [r3, #0]
 414 023c 23F04002 		bic	r2, r3, #64
 415 0240 7B68     		ldr	r3, [r7, #4]
 416 0242 1A60     		str	r2, [r3, #0]
 417              	.L27:
 247:App/STM32F4-Discovery/Libraries/STM32F4xx_StdPeriph_Driver/src/stm32f4xx_can.c ****     }
 248:App/STM32F4-Discovery/Libraries/STM32F4xx_StdPeriph_Driver/src/stm32f4xx_can.c **** 
 249:App/STM32F4-Discovery/Libraries/STM32F4xx_StdPeriph_Driver/src/stm32f4xx_can.c ****     /* Set the automatic wake-up mode */
 250:App/STM32F4-Discovery/Libraries/STM32F4xx_StdPeriph_Driver/src/stm32f4xx_can.c ****     if (CAN_InitStruct->CAN_AWUM == ENABLE)
 418              		.loc 1 250 0
 419 0244 3B68     		ldr	r3, [r7, #0]
 420 0246 1B7A     		ldrb	r3, [r3, #8]	@ zero_extendqisi2
 421 0248 012B     		cmp	r3, #1
 422 024a 06D1     		bne	.L28
 251:App/STM32F4-Discovery/Libraries/STM32F4xx_StdPeriph_Driver/src/stm32f4xx_can.c ****     {
 252:App/STM32F4-Discovery/Libraries/STM32F4xx_StdPeriph_Driver/src/stm32f4xx_can.c ****       CANx->MCR |= CAN_MCR_AWUM;
 423              		.loc 1 252 0
 424 024c 7B68     		ldr	r3, [r7, #4]
 425 024e 1B68     		ldr	r3, [r3, #0]
 426 0250 43F02002 		orr	r2, r3, #32
 427 0254 7B68     		ldr	r3, [r7, #4]
 428 0256 1A60     		str	r2, [r3, #0]
 429 0258 05E0     		b	.L29
 430              	.L28:
 253:App/STM32F4-Discovery/Libraries/STM32F4xx_StdPeriph_Driver/src/stm32f4xx_can.c ****     }
 254:App/STM32F4-Discovery/Libraries/STM32F4xx_StdPeriph_Driver/src/stm32f4xx_can.c ****     else
 255:App/STM32F4-Discovery/Libraries/STM32F4xx_StdPeriph_Driver/src/stm32f4xx_can.c ****     {
 256:App/STM32F4-Discovery/Libraries/STM32F4xx_StdPeriph_Driver/src/stm32f4xx_can.c ****       CANx->MCR &= ~(uint32_t)CAN_MCR_AWUM;
 431              		.loc 1 256 0
 432 025a 7B68     		ldr	r3, [r7, #4]
 433 025c 1B68     		ldr	r3, [r3, #0]
 434 025e 23F02002 		bic	r2, r3, #32
 435 0262 7B68     		ldr	r3, [r7, #4]
 436 0264 1A60     		str	r2, [r3, #0]
 437              	.L29:
 257:App/STM32F4-Discovery/Libraries/STM32F4xx_StdPeriph_Driver/src/stm32f4xx_can.c ****     }
 258:App/STM32F4-Discovery/Libraries/STM32F4xx_StdPeriph_Driver/src/stm32f4xx_can.c **** 
 259:App/STM32F4-Discovery/Libraries/STM32F4xx_StdPeriph_Driver/src/stm32f4xx_can.c ****     /* Set the no automatic retransmission */
 260:App/STM32F4-Discovery/Libraries/STM32F4xx_StdPeriph_Driver/src/stm32f4xx_can.c ****     if (CAN_InitStruct->CAN_NART == ENABLE)
 438              		.loc 1 260 0
 439 0266 3B68     		ldr	r3, [r7, #0]
 440 0268 5B7A     		ldrb	r3, [r3, #9]	@ zero_extendqisi2
 441 026a 012B     		cmp	r3, #1
 442 026c 06D1     		bne	.L30
 261:App/STM32F4-Discovery/Libraries/STM32F4xx_StdPeriph_Driver/src/stm32f4xx_can.c ****     {
 262:App/STM32F4-Discovery/Libraries/STM32F4xx_StdPeriph_Driver/src/stm32f4xx_can.c ****       CANx->MCR |= CAN_MCR_NART;
 443              		.loc 1 262 0
 444 026e 7B68     		ldr	r3, [r7, #4]
 445 0270 1B68     		ldr	r3, [r3, #0]
 446 0272 43F01002 		orr	r2, r3, #16
 447 0276 7B68     		ldr	r3, [r7, #4]
 448 0278 1A60     		str	r2, [r3, #0]
 449 027a 05E0     		b	.L31
 450              	.L30:
 263:App/STM32F4-Discovery/Libraries/STM32F4xx_StdPeriph_Driver/src/stm32f4xx_can.c ****     }
 264:App/STM32F4-Discovery/Libraries/STM32F4xx_StdPeriph_Driver/src/stm32f4xx_can.c ****     else
 265:App/STM32F4-Discovery/Libraries/STM32F4xx_StdPeriph_Driver/src/stm32f4xx_can.c ****     {
 266:App/STM32F4-Discovery/Libraries/STM32F4xx_StdPeriph_Driver/src/stm32f4xx_can.c ****       CANx->MCR &= ~(uint32_t)CAN_MCR_NART;
 451              		.loc 1 266 0
 452 027c 7B68     		ldr	r3, [r7, #4]
 453 027e 1B68     		ldr	r3, [r3, #0]
 454 0280 23F01002 		bic	r2, r3, #16
 455 0284 7B68     		ldr	r3, [r7, #4]
 456 0286 1A60     		str	r2, [r3, #0]
 457              	.L31:
 267:App/STM32F4-Discovery/Libraries/STM32F4xx_StdPeriph_Driver/src/stm32f4xx_can.c ****     }
 268:App/STM32F4-Discovery/Libraries/STM32F4xx_StdPeriph_Driver/src/stm32f4xx_can.c **** 
 269:App/STM32F4-Discovery/Libraries/STM32F4xx_StdPeriph_Driver/src/stm32f4xx_can.c ****     /* Set the receive FIFO locked mode */
 270:App/STM32F4-Discovery/Libraries/STM32F4xx_StdPeriph_Driver/src/stm32f4xx_can.c ****     if (CAN_InitStruct->CAN_RFLM == ENABLE)
 458              		.loc 1 270 0
 459 0288 3B68     		ldr	r3, [r7, #0]
 460 028a 9B7A     		ldrb	r3, [r3, #10]	@ zero_extendqisi2
 461 028c 012B     		cmp	r3, #1
 462 028e 06D1     		bne	.L32
 271:App/STM32F4-Discovery/Libraries/STM32F4xx_StdPeriph_Driver/src/stm32f4xx_can.c ****     {
 272:App/STM32F4-Discovery/Libraries/STM32F4xx_StdPeriph_Driver/src/stm32f4xx_can.c ****       CANx->MCR |= CAN_MCR_RFLM;
 463              		.loc 1 272 0
 464 0290 7B68     		ldr	r3, [r7, #4]
 465 0292 1B68     		ldr	r3, [r3, #0]
 466 0294 43F00802 		orr	r2, r3, #8
 467 0298 7B68     		ldr	r3, [r7, #4]
 468 029a 1A60     		str	r2, [r3, #0]
 469 029c 05E0     		b	.L33
 470              	.L32:
 273:App/STM32F4-Discovery/Libraries/STM32F4xx_StdPeriph_Driver/src/stm32f4xx_can.c ****     }
 274:App/STM32F4-Discovery/Libraries/STM32F4xx_StdPeriph_Driver/src/stm32f4xx_can.c ****     else
 275:App/STM32F4-Discovery/Libraries/STM32F4xx_StdPeriph_Driver/src/stm32f4xx_can.c ****     {
 276:App/STM32F4-Discovery/Libraries/STM32F4xx_StdPeriph_Driver/src/stm32f4xx_can.c ****       CANx->MCR &= ~(uint32_t)CAN_MCR_RFLM;
 471              		.loc 1 276 0
 472 029e 7B68     		ldr	r3, [r7, #4]
 473 02a0 1B68     		ldr	r3, [r3, #0]
 474 02a2 23F00802 		bic	r2, r3, #8
 475 02a6 7B68     		ldr	r3, [r7, #4]
 476 02a8 1A60     		str	r2, [r3, #0]
 477              	.L33:
 277:App/STM32F4-Discovery/Libraries/STM32F4xx_StdPeriph_Driver/src/stm32f4xx_can.c ****     }
 278:App/STM32F4-Discovery/Libraries/STM32F4xx_StdPeriph_Driver/src/stm32f4xx_can.c **** 
 279:App/STM32F4-Discovery/Libraries/STM32F4xx_StdPeriph_Driver/src/stm32f4xx_can.c ****     /* Set the transmit FIFO priority */
 280:App/STM32F4-Discovery/Libraries/STM32F4xx_StdPeriph_Driver/src/stm32f4xx_can.c ****     if (CAN_InitStruct->CAN_TXFP == ENABLE)
 478              		.loc 1 280 0
 479 02aa 3B68     		ldr	r3, [r7, #0]
 480 02ac DB7A     		ldrb	r3, [r3, #11]	@ zero_extendqisi2
 481 02ae 012B     		cmp	r3, #1
 482 02b0 06D1     		bne	.L34
 281:App/STM32F4-Discovery/Libraries/STM32F4xx_StdPeriph_Driver/src/stm32f4xx_can.c ****     {
 282:App/STM32F4-Discovery/Libraries/STM32F4xx_StdPeriph_Driver/src/stm32f4xx_can.c ****       CANx->MCR |= CAN_MCR_TXFP;
 483              		.loc 1 282 0
 484 02b2 7B68     		ldr	r3, [r7, #4]
 485 02b4 1B68     		ldr	r3, [r3, #0]
 486 02b6 43F00402 		orr	r2, r3, #4
 487 02ba 7B68     		ldr	r3, [r7, #4]
 488 02bc 1A60     		str	r2, [r3, #0]
 489 02be 05E0     		b	.L35
 490              	.L34:
 283:App/STM32F4-Discovery/Libraries/STM32F4xx_StdPeriph_Driver/src/stm32f4xx_can.c ****     }
 284:App/STM32F4-Discovery/Libraries/STM32F4xx_StdPeriph_Driver/src/stm32f4xx_can.c ****     else
 285:App/STM32F4-Discovery/Libraries/STM32F4xx_StdPeriph_Driver/src/stm32f4xx_can.c ****     {
 286:App/STM32F4-Discovery/Libraries/STM32F4xx_StdPeriph_Driver/src/stm32f4xx_can.c ****       CANx->MCR &= ~(uint32_t)CAN_MCR_TXFP;
 491              		.loc 1 286 0
 492 02c0 7B68     		ldr	r3, [r7, #4]
 493 02c2 1B68     		ldr	r3, [r3, #0]
 494 02c4 23F00402 		bic	r2, r3, #4
 495 02c8 7B68     		ldr	r3, [r7, #4]
 496 02ca 1A60     		str	r2, [r3, #0]
 497              	.L35:
 287:App/STM32F4-Discovery/Libraries/STM32F4xx_StdPeriph_Driver/src/stm32f4xx_can.c ****     }
 288:App/STM32F4-Discovery/Libraries/STM32F4xx_StdPeriph_Driver/src/stm32f4xx_can.c **** 
 289:App/STM32F4-Discovery/Libraries/STM32F4xx_StdPeriph_Driver/src/stm32f4xx_can.c ****     /* Set the bit timing register */
 290:App/STM32F4-Discovery/Libraries/STM32F4xx_StdPeriph_Driver/src/stm32f4xx_can.c ****     CANx->BTR = (uint32_t)((uint32_t)CAN_InitStruct->CAN_Mode << 30) | \
 498              		.loc 1 290 0
 499 02cc 3B68     		ldr	r3, [r7, #0]
 500 02ce 9B78     		ldrb	r3, [r3, #2]	@ zero_extendqisi2
 501 02d0 4FEA8372 		lsl	r2, r3, #30
 291:App/STM32F4-Discovery/Libraries/STM32F4xx_StdPeriph_Driver/src/stm32f4xx_can.c ****                 ((uint32_t)CAN_InitStruct->CAN_SJW << 24) | \
 502              		.loc 1 291 0
 503 02d4 3B68     		ldr	r3, [r7, #0]
 504 02d6 DB78     		ldrb	r3, [r3, #3]	@ zero_extendqisi2
 505 02d8 4FEA0363 		lsl	r3, r3, #24
 290:App/STM32F4-Discovery/Libraries/STM32F4xx_StdPeriph_Driver/src/stm32f4xx_can.c ****     CANx->BTR = (uint32_t)((uint32_t)CAN_InitStruct->CAN_Mode << 30) | \
 506              		.loc 1 290 0
 507 02dc 1A43     		orrs	r2, r2, r3
 292:App/STM32F4-Discovery/Libraries/STM32F4xx_StdPeriph_Driver/src/stm32f4xx_can.c ****                 ((uint32_t)CAN_InitStruct->CAN_BS1 << 16) | \
 508              		.loc 1 292 0
 509 02de 3B68     		ldr	r3, [r7, #0]
 510 02e0 1B79     		ldrb	r3, [r3, #4]	@ zero_extendqisi2
 511 02e2 4FEA0343 		lsl	r3, r3, #16
 291:App/STM32F4-Discovery/Libraries/STM32F4xx_StdPeriph_Driver/src/stm32f4xx_can.c ****                 ((uint32_t)CAN_InitStruct->CAN_SJW << 24) | \
 512              		.loc 1 291 0
 513 02e6 1A43     		orrs	r2, r2, r3
 293:App/STM32F4-Discovery/Libraries/STM32F4xx_StdPeriph_Driver/src/stm32f4xx_can.c ****                 ((uint32_t)CAN_InitStruct->CAN_BS2 << 20) | \
 514              		.loc 1 293 0
 515 02e8 3B68     		ldr	r3, [r7, #0]
 516 02ea 5B79     		ldrb	r3, [r3, #5]	@ zero_extendqisi2
 517 02ec 4FEA0353 		lsl	r3, r3, #20
 292:App/STM32F4-Discovery/Libraries/STM32F4xx_StdPeriph_Driver/src/stm32f4xx_can.c ****                 ((uint32_t)CAN_InitStruct->CAN_BS1 << 16) | \
 518              		.loc 1 292 0
 519 02f0 1A43     		orrs	r2, r2, r3
 294:App/STM32F4-Discovery/Libraries/STM32F4xx_StdPeriph_Driver/src/stm32f4xx_can.c ****                ((uint32_t)CAN_InitStruct->CAN_Prescaler - 1);
 520              		.loc 1 294 0
 521 02f2 3B68     		ldr	r3, [r7, #0]
 522 02f4 1B88     		ldrh	r3, [r3, #0]
 523 02f6 03F1FF33 		add	r3, r3, #-1
 293:App/STM32F4-Discovery/Libraries/STM32F4xx_StdPeriph_Driver/src/stm32f4xx_can.c ****                 ((uint32_t)CAN_InitStruct->CAN_BS2 << 20) | \
 524              		.loc 1 293 0
 525 02fa 1A43     		orrs	r2, r2, r3
 290:App/STM32F4-Discovery/Libraries/STM32F4xx_StdPeriph_Driver/src/stm32f4xx_can.c ****     CANx->BTR = (uint32_t)((uint32_t)CAN_InitStruct->CAN_Mode << 30) | \
 526              		.loc 1 290 0
 527 02fc 7B68     		ldr	r3, [r7, #4]
 528 02fe DA61     		str	r2, [r3, #28]
 295:App/STM32F4-Discovery/Libraries/STM32F4xx_StdPeriph_Driver/src/stm32f4xx_can.c **** 
 296:App/STM32F4-Discovery/Libraries/STM32F4xx_StdPeriph_Driver/src/stm32f4xx_can.c ****     /* Request leave initialisation */
 297:App/STM32F4-Discovery/Libraries/STM32F4xx_StdPeriph_Driver/src/stm32f4xx_can.c ****     CANx->MCR &= ~(uint32_t)CAN_MCR_INRQ;
 529              		.loc 1 297 0
 530 0300 7B68     		ldr	r3, [r7, #4]
 531 0302 1B68     		ldr	r3, [r3, #0]
 532 0304 23F00102 		bic	r2, r3, #1
 533 0308 7B68     		ldr	r3, [r7, #4]
 534 030a 1A60     		str	r2, [r3, #0]
 298:App/STM32F4-Discovery/Libraries/STM32F4xx_StdPeriph_Driver/src/stm32f4xx_can.c **** 
 299:App/STM32F4-Discovery/Libraries/STM32F4xx_StdPeriph_Driver/src/stm32f4xx_can.c ****    /* Wait the acknowledge */
 300:App/STM32F4-Discovery/Libraries/STM32F4xx_StdPeriph_Driver/src/stm32f4xx_can.c ****    wait_ack = 0;
 535              		.loc 1 300 0
 536 030c 4FF00003 		mov	r3, #0
 537 0310 BB60     		str	r3, [r7, #8]
 301:App/STM32F4-Discovery/Libraries/STM32F4xx_StdPeriph_Driver/src/stm32f4xx_can.c **** 
 302:App/STM32F4-Discovery/Libraries/STM32F4xx_StdPeriph_Driver/src/stm32f4xx_can.c ****    while (((CANx->MSR & CAN_MSR_INAK) == CAN_MSR_INAK) && (wait_ack != INAK_TIMEOUT))
 538              		.loc 1 302 0
 539 0312 03E0     		b	.L36
 540              	.L38:
 303:App/STM32F4-Discovery/Libraries/STM32F4xx_StdPeriph_Driver/src/stm32f4xx_can.c ****    {
 304:App/STM32F4-Discovery/Libraries/STM32F4xx_StdPeriph_Driver/src/stm32f4xx_can.c ****      wait_ack++;
 541              		.loc 1 304 0
 542 0314 BB68     		ldr	r3, [r7, #8]
 543 0316 03F10103 		add	r3, r3, #1
 544 031a BB60     		str	r3, [r7, #8]
 545              	.L36:
 302:App/STM32F4-Discovery/Libraries/STM32F4xx_StdPeriph_Driver/src/stm32f4xx_can.c ****    while (((CANx->MSR & CAN_MSR_INAK) == CAN_MSR_INAK) && (wait_ack != INAK_TIMEOUT))
 546              		.loc 1 302 0 discriminator 1
 547 031c 7B68     		ldr	r3, [r7, #4]
 548 031e 5B68     		ldr	r3, [r3, #4]
 549 0320 03F00103 		and	r3, r3, #1
 550 0324 002B     		cmp	r3, #0
 551 0326 04D0     		beq	.L37
 302:App/STM32F4-Discovery/Libraries/STM32F4xx_StdPeriph_Driver/src/stm32f4xx_can.c ****    while (((CANx->MSR & CAN_MSR_INAK) == CAN_MSR_INAK) && (wait_ack != INAK_TIMEOUT))
 552              		.loc 1 302 0 is_stmt 0 discriminator 2
 553 0328 BA68     		ldr	r2, [r7, #8]
 554 032a 4FF6FF73 		movw	r3, #65535
 555 032e 9A42     		cmp	r2, r3
 556 0330 F0D1     		bne	.L38
 557              	.L37:
 305:App/STM32F4-Discovery/Libraries/STM32F4xx_StdPeriph_Driver/src/stm32f4xx_can.c ****    }
 306:App/STM32F4-Discovery/Libraries/STM32F4xx_StdPeriph_Driver/src/stm32f4xx_can.c **** 
 307:App/STM32F4-Discovery/Libraries/STM32F4xx_StdPeriph_Driver/src/stm32f4xx_can.c ****     /* ...and check acknowledged */
 308:App/STM32F4-Discovery/Libraries/STM32F4xx_StdPeriph_Driver/src/stm32f4xx_can.c ****     if ((CANx->MSR & CAN_MSR_INAK) == CAN_MSR_INAK)
 558              		.loc 1 308 0 is_stmt 1
 559 0332 7B68     		ldr	r3, [r7, #4]
 560 0334 5B68     		ldr	r3, [r3, #4]
 561 0336 03F00103 		and	r3, r3, #1
 562 033a 002B     		cmp	r3, #0
 563 033c 03D0     		beq	.L39
 309:App/STM32F4-Discovery/Libraries/STM32F4xx_StdPeriph_Driver/src/stm32f4xx_can.c ****     {
 310:App/STM32F4-Discovery/Libraries/STM32F4xx_StdPeriph_Driver/src/stm32f4xx_can.c ****       InitStatus = CAN_InitStatus_Failed;
 564              		.loc 1 310 0
 565 033e 4FF00003 		mov	r3, #0
 566 0342 FB73     		strb	r3, [r7, #15]
 567 0344 02E0     		b	.L23
 568              	.L39:
 311:App/STM32F4-Discovery/Libraries/STM32F4xx_StdPeriph_Driver/src/stm32f4xx_can.c ****     }
 312:App/STM32F4-Discovery/Libraries/STM32F4xx_StdPeriph_Driver/src/stm32f4xx_can.c ****     else
 313:App/STM32F4-Discovery/Libraries/STM32F4xx_StdPeriph_Driver/src/stm32f4xx_can.c ****     {
 314:App/STM32F4-Discovery/Libraries/STM32F4xx_StdPeriph_Driver/src/stm32f4xx_can.c ****       InitStatus = CAN_InitStatus_Success ;
 569              		.loc 1 314 0
 570 0346 4FF00103 		mov	r3, #1
 571 034a FB73     		strb	r3, [r7, #15]
 572              	.L23:
 315:App/STM32F4-Discovery/Libraries/STM32F4xx_StdPeriph_Driver/src/stm32f4xx_can.c ****     }
 316:App/STM32F4-Discovery/Libraries/STM32F4xx_StdPeriph_Driver/src/stm32f4xx_can.c ****   }
 317:App/STM32F4-Discovery/Libraries/STM32F4xx_StdPeriph_Driver/src/stm32f4xx_can.c **** 
 318:App/STM32F4-Discovery/Libraries/STM32F4xx_StdPeriph_Driver/src/stm32f4xx_can.c ****   /* At this step, return the status of initialization */
 319:App/STM32F4-Discovery/Libraries/STM32F4xx_StdPeriph_Driver/src/stm32f4xx_can.c ****   return InitStatus;
 573              		.loc 1 319 0
 574 034c FB7B     		ldrb	r3, [r7, #15]	@ zero_extendqisi2
 320:App/STM32F4-Discovery/Libraries/STM32F4xx_StdPeriph_Driver/src/stm32f4xx_can.c **** }
 575              		.loc 1 320 0
 576 034e 1846     		mov	r0, r3
 577 0350 07F11007 		add	r7, r7, #16
 578 0354 BD46     		mov	sp, r7
 579 0356 80BD     		pop	{r7, pc}
 580              		.cfi_endproc
 581              	.LFE111:
 583              		.section	.text.CAN_FilterInit,"ax",%progbits
 584              		.align	2
 585              		.global	CAN_FilterInit
 586              		.thumb
 587              		.thumb_func
 589              	CAN_FilterInit:
 590              	.LFB112:
 321:App/STM32F4-Discovery/Libraries/STM32F4xx_StdPeriph_Driver/src/stm32f4xx_can.c **** 
 322:App/STM32F4-Discovery/Libraries/STM32F4xx_StdPeriph_Driver/src/stm32f4xx_can.c **** /**
 323:App/STM32F4-Discovery/Libraries/STM32F4xx_StdPeriph_Driver/src/stm32f4xx_can.c ****   * @brief  Configures the CAN reception filter according to the specified
 324:App/STM32F4-Discovery/Libraries/STM32F4xx_StdPeriph_Driver/src/stm32f4xx_can.c ****   *         parameters in the CAN_FilterInitStruct.
 325:App/STM32F4-Discovery/Libraries/STM32F4xx_StdPeriph_Driver/src/stm32f4xx_can.c ****   * @param  CAN_FilterInitStruct: pointer to a CAN_FilterInitTypeDef structure that
 326:App/STM32F4-Discovery/Libraries/STM32F4xx_StdPeriph_Driver/src/stm32f4xx_can.c ****   *         contains the configuration information.
 327:App/STM32F4-Discovery/Libraries/STM32F4xx_StdPeriph_Driver/src/stm32f4xx_can.c ****   * @retval None
 328:App/STM32F4-Discovery/Libraries/STM32F4xx_StdPeriph_Driver/src/stm32f4xx_can.c ****   */
 329:App/STM32F4-Discovery/Libraries/STM32F4xx_StdPeriph_Driver/src/stm32f4xx_can.c **** void CAN_FilterInit(CAN_FilterInitTypeDef* CAN_FilterInitStruct)
 330:App/STM32F4-Discovery/Libraries/STM32F4xx_StdPeriph_Driver/src/stm32f4xx_can.c **** {
 591              		.loc 1 330 0
 592              		.cfi_startproc
 593              		@ args = 0, pretend = 0, frame = 16
 594              		@ frame_needed = 1, uses_anonymous_args = 0
 595 0000 80B5     		push	{r7, lr}
 596              	.LCFI6:
 597              		.cfi_def_cfa_offset 8
 598              		.cfi_offset 7, -8
 599              		.cfi_offset 14, -4
 600 0002 84B0     		sub	sp, sp, #16
 601              	.LCFI7:
 602              		.cfi_def_cfa_offset 24
 603 0004 00AF     		add	r7, sp, #0
 604              	.LCFI8:
 605              		.cfi_def_cfa_register 7
 606 0006 7860     		str	r0, [r7, #4]
 331:App/STM32F4-Discovery/Libraries/STM32F4xx_StdPeriph_Driver/src/stm32f4xx_can.c ****   uint32_t filter_number_bit_pos = 0;
 607              		.loc 1 331 0
 608 0008 4FF00003 		mov	r3, #0
 609 000c FB60     		str	r3, [r7, #12]
 332:App/STM32F4-Discovery/Libraries/STM32F4xx_StdPeriph_Driver/src/stm32f4xx_can.c ****   /* Check the parameters */
 333:App/STM32F4-Discovery/Libraries/STM32F4xx_StdPeriph_Driver/src/stm32f4xx_can.c ****   assert_param(IS_CAN_FILTER_NUMBER(CAN_FilterInitStruct->CAN_FilterNumber));
 610              		.loc 1 333 0
 611 000e 7B68     		ldr	r3, [r7, #4]
 612 0010 9B7A     		ldrb	r3, [r3, #10]	@ zero_extendqisi2
 613 0012 1B2B     		cmp	r3, #27
 614 0014 07D9     		bls	.L42
 615              		.loc 1 333 0 is_stmt 0 discriminator 1
 616 0016 40F20000 		movw	r0, #:lower16:.LC0
 617 001a C0F20000 		movt	r0, #:upper16:.LC0
 618 001e 40F24D11 		movw	r1, #333
 619 0022 FFF7FEFF 		bl	assert_failed
 620              	.L42:
 334:App/STM32F4-Discovery/Libraries/STM32F4xx_StdPeriph_Driver/src/stm32f4xx_can.c ****   assert_param(IS_CAN_FILTER_MODE(CAN_FilterInitStruct->CAN_FilterMode));
 621              		.loc 1 334 0 is_stmt 1
 622 0026 7B68     		ldr	r3, [r7, #4]
 623 0028 DB7A     		ldrb	r3, [r3, #11]	@ zero_extendqisi2
 624 002a 002B     		cmp	r3, #0
 625 002c 0BD0     		beq	.L43
 626              		.loc 1 334 0 is_stmt 0 discriminator 1
 627 002e 7B68     		ldr	r3, [r7, #4]
 628 0030 DB7A     		ldrb	r3, [r3, #11]	@ zero_extendqisi2
 629 0032 012B     		cmp	r3, #1
 630 0034 07D0     		beq	.L43
 631              		.loc 1 334 0 discriminator 2
 632 0036 40F20000 		movw	r0, #:lower16:.LC0
 633 003a C0F20000 		movt	r0, #:upper16:.LC0
 634 003e 4FF4A771 		mov	r1, #334
 635 0042 FFF7FEFF 		bl	assert_failed
 636              	.L43:
 335:App/STM32F4-Discovery/Libraries/STM32F4xx_StdPeriph_Driver/src/stm32f4xx_can.c ****   assert_param(IS_CAN_FILTER_SCALE(CAN_FilterInitStruct->CAN_FilterScale));
 637              		.loc 1 335 0 is_stmt 1
 638 0046 7B68     		ldr	r3, [r7, #4]
 639 0048 1B7B     		ldrb	r3, [r3, #12]	@ zero_extendqisi2
 640 004a 002B     		cmp	r3, #0
 641 004c 0BD0     		beq	.L44
 642              		.loc 1 335 0 is_stmt 0 discriminator 1
 643 004e 7B68     		ldr	r3, [r7, #4]
 644 0050 1B7B     		ldrb	r3, [r3, #12]	@ zero_extendqisi2
 645 0052 012B     		cmp	r3, #1
 646 0054 07D0     		beq	.L44
 647              		.loc 1 335 0 discriminator 2
 648 0056 40F20000 		movw	r0, #:lower16:.LC0
 649 005a C0F20000 		movt	r0, #:upper16:.LC0
 650 005e 40F24F11 		movw	r1, #335
 651 0062 FFF7FEFF 		bl	assert_failed
 652              	.L44:
 336:App/STM32F4-Discovery/Libraries/STM32F4xx_StdPeriph_Driver/src/stm32f4xx_can.c ****   assert_param(IS_CAN_FILTER_FIFO(CAN_FilterInitStruct->CAN_FilterFIFOAssignment));
 653              		.loc 1 336 0 is_stmt 1
 654 0066 7B68     		ldr	r3, [r7, #4]
 655 0068 1B89     		ldrh	r3, [r3, #8]
 656 006a 002B     		cmp	r3, #0
 657 006c 0BD0     		beq	.L45
 658              		.loc 1 336 0 is_stmt 0 discriminator 1
 659 006e 7B68     		ldr	r3, [r7, #4]
 660 0070 1B89     		ldrh	r3, [r3, #8]
 661 0072 012B     		cmp	r3, #1
 662 0074 07D0     		beq	.L45
 663              		.loc 1 336 0 discriminator 2
 664 0076 40F20000 		movw	r0, #:lower16:.LC0
 665 007a C0F20000 		movt	r0, #:upper16:.LC0
 666 007e 4FF4A871 		mov	r1, #336
 667 0082 FFF7FEFF 		bl	assert_failed
 668              	.L45:
 337:App/STM32F4-Discovery/Libraries/STM32F4xx_StdPeriph_Driver/src/stm32f4xx_can.c ****   assert_param(IS_FUNCTIONAL_STATE(CAN_FilterInitStruct->CAN_FilterActivation));
 669              		.loc 1 337 0 is_stmt 1
 670 0086 7B68     		ldr	r3, [r7, #4]
 671 0088 5B7B     		ldrb	r3, [r3, #13]	@ zero_extendqisi2
 672 008a 002B     		cmp	r3, #0
 673 008c 0BD0     		beq	.L46
 674              		.loc 1 337 0 is_stmt 0 discriminator 1
 675 008e 7B68     		ldr	r3, [r7, #4]
 676 0090 5B7B     		ldrb	r3, [r3, #13]	@ zero_extendqisi2
 677 0092 012B     		cmp	r3, #1
 678 0094 07D0     		beq	.L46
 679              		.loc 1 337 0 discriminator 2
 680 0096 40F20000 		movw	r0, #:lower16:.LC0
 681 009a C0F20000 		movt	r0, #:upper16:.LC0
 682 009e 40F25111 		movw	r1, #337
 683 00a2 FFF7FEFF 		bl	assert_failed
 684              	.L46:
 338:App/STM32F4-Discovery/Libraries/STM32F4xx_StdPeriph_Driver/src/stm32f4xx_can.c **** 
 339:App/STM32F4-Discovery/Libraries/STM32F4xx_StdPeriph_Driver/src/stm32f4xx_can.c ****   filter_number_bit_pos = ((uint32_t)1) << CAN_FilterInitStruct->CAN_FilterNumber;
 685              		.loc 1 339 0 is_stmt 1
 686 00a6 7B68     		ldr	r3, [r7, #4]
 687 00a8 9B7A     		ldrb	r3, [r3, #10]	@ zero_extendqisi2
 688 00aa 4FF00102 		mov	r2, #1
 689 00ae 02FA03F3 		lsl	r3, r2, r3
 690 00b2 FB60     		str	r3, [r7, #12]
 340:App/STM32F4-Discovery/Libraries/STM32F4xx_StdPeriph_Driver/src/stm32f4xx_can.c **** 
 341:App/STM32F4-Discovery/Libraries/STM32F4xx_StdPeriph_Driver/src/stm32f4xx_can.c ****   /* Initialisation mode for the filter */
 342:App/STM32F4-Discovery/Libraries/STM32F4xx_StdPeriph_Driver/src/stm32f4xx_can.c ****   CAN1->FMR |= FMR_FINIT;
 691              		.loc 1 342 0
 692 00b4 4FF4C843 		mov	r3, #25600
 693 00b8 C4F20003 		movt	r3, 16384
 694 00bc 4FF4C842 		mov	r2, #25600
 695 00c0 C4F20002 		movt	r2, 16384
 696 00c4 D2F80022 		ldr	r2, [r2, #512]
 697 00c8 42F00102 		orr	r2, r2, #1
 698 00cc C3F80022 		str	r2, [r3, #512]
 343:App/STM32F4-Discovery/Libraries/STM32F4xx_StdPeriph_Driver/src/stm32f4xx_can.c **** 
 344:App/STM32F4-Discovery/Libraries/STM32F4xx_StdPeriph_Driver/src/stm32f4xx_can.c ****   /* Filter Deactivation */
 345:App/STM32F4-Discovery/Libraries/STM32F4xx_StdPeriph_Driver/src/stm32f4xx_can.c ****   CAN1->FA1R &= ~(uint32_t)filter_number_bit_pos;
 699              		.loc 1 345 0
 700 00d0 4FF4C843 		mov	r3, #25600
 701 00d4 C4F20003 		movt	r3, 16384
 702 00d8 4FF4C842 		mov	r2, #25600
 703 00dc C4F20002 		movt	r2, 16384
 704 00e0 D2F81C12 		ldr	r1, [r2, #540]
 705 00e4 FA68     		ldr	r2, [r7, #12]
 706 00e6 6FEA0202 		mvn	r2, r2
 707 00ea 0A40     		ands	r2, r2, r1
 708 00ec C3F81C22 		str	r2, [r3, #540]
 346:App/STM32F4-Discovery/Libraries/STM32F4xx_StdPeriph_Driver/src/stm32f4xx_can.c **** 
 347:App/STM32F4-Discovery/Libraries/STM32F4xx_StdPeriph_Driver/src/stm32f4xx_can.c ****   /* Filter Scale */
 348:App/STM32F4-Discovery/Libraries/STM32F4xx_StdPeriph_Driver/src/stm32f4xx_can.c ****   if (CAN_FilterInitStruct->CAN_FilterScale == CAN_FilterScale_16bit)
 709              		.loc 1 348 0
 710 00f0 7B68     		ldr	r3, [r7, #4]
 711 00f2 1B7B     		ldrb	r3, [r3, #12]	@ zero_extendqisi2
 712 00f4 002B     		cmp	r3, #0
 713 00f6 33D1     		bne	.L47
 349:App/STM32F4-Discovery/Libraries/STM32F4xx_StdPeriph_Driver/src/stm32f4xx_can.c ****   {
 350:App/STM32F4-Discovery/Libraries/STM32F4xx_StdPeriph_Driver/src/stm32f4xx_can.c ****     /* 16-bit scale for the filter */
 351:App/STM32F4-Discovery/Libraries/STM32F4xx_StdPeriph_Driver/src/stm32f4xx_can.c ****     CAN1->FS1R &= ~(uint32_t)filter_number_bit_pos;
 714              		.loc 1 351 0
 715 00f8 4FF4C843 		mov	r3, #25600
 716 00fc C4F20003 		movt	r3, 16384
 717 0100 4FF4C842 		mov	r2, #25600
 718 0104 C4F20002 		movt	r2, 16384
 719 0108 D2F80C12 		ldr	r1, [r2, #524]
 720 010c FA68     		ldr	r2, [r7, #12]
 721 010e 6FEA0202 		mvn	r2, r2
 722 0112 0A40     		ands	r2, r2, r1
 723 0114 C3F80C22 		str	r2, [r3, #524]
 352:App/STM32F4-Discovery/Libraries/STM32F4xx_StdPeriph_Driver/src/stm32f4xx_can.c **** 
 353:App/STM32F4-Discovery/Libraries/STM32F4xx_StdPeriph_Driver/src/stm32f4xx_can.c ****     /* First 16-bit identifier and First 16-bit mask */
 354:App/STM32F4-Discovery/Libraries/STM32F4xx_StdPeriph_Driver/src/stm32f4xx_can.c ****     /* Or First 16-bit identifier and Second 16-bit identifier */
 355:App/STM32F4-Discovery/Libraries/STM32F4xx_StdPeriph_Driver/src/stm32f4xx_can.c ****     CAN1->sFilterRegister[CAN_FilterInitStruct->CAN_FilterNumber].FR1 = 
 724              		.loc 1 355 0
 725 0118 4FF4C843 		mov	r3, #25600
 726 011c C4F20003 		movt	r3, 16384
 727 0120 7A68     		ldr	r2, [r7, #4]
 728 0122 927A     		ldrb	r2, [r2, #10]	@ zero_extendqisi2
 356:App/STM32F4-Discovery/Libraries/STM32F4xx_StdPeriph_Driver/src/stm32f4xx_can.c ****        ((0x0000FFFF & (uint32_t)CAN_FilterInitStruct->CAN_FilterMaskIdLow) << 16) |
 729              		.loc 1 356 0
 730 0124 7968     		ldr	r1, [r7, #4]
 731 0126 C988     		ldrh	r1, [r1, #6]
 732 0128 4FEA0140 		lsl	r0, r1, #16
 357:App/STM32F4-Discovery/Libraries/STM32F4xx_StdPeriph_Driver/src/stm32f4xx_can.c ****         (0x0000FFFF & (uint32_t)CAN_FilterInitStruct->CAN_FilterIdLow);
 733              		.loc 1 357 0
 734 012c 7968     		ldr	r1, [r7, #4]
 735 012e 4988     		ldrh	r1, [r1, #2]
 356:App/STM32F4-Discovery/Libraries/STM32F4xx_StdPeriph_Driver/src/stm32f4xx_can.c ****        ((0x0000FFFF & (uint32_t)CAN_FilterInitStruct->CAN_FilterMaskIdLow) << 16) |
 736              		.loc 1 356 0
 737 0130 0143     		orrs	r1, r1, r0
 355:App/STM32F4-Discovery/Libraries/STM32F4xx_StdPeriph_Driver/src/stm32f4xx_can.c ****     CAN1->sFilterRegister[CAN_FilterInitStruct->CAN_FilterNumber].FR1 = 
 738              		.loc 1 355 0
 739 0132 02F14802 		add	r2, r2, #72
 740 0136 43F83210 		str	r1, [r3, r2, lsl #3]
 358:App/STM32F4-Discovery/Libraries/STM32F4xx_StdPeriph_Driver/src/stm32f4xx_can.c **** 
 359:App/STM32F4-Discovery/Libraries/STM32F4xx_StdPeriph_Driver/src/stm32f4xx_can.c ****     /* Second 16-bit identifier and Second 16-bit mask */
 360:App/STM32F4-Discovery/Libraries/STM32F4xx_StdPeriph_Driver/src/stm32f4xx_can.c ****     /* Or Third 16-bit identifier and Fourth 16-bit identifier */
 361:App/STM32F4-Discovery/Libraries/STM32F4xx_StdPeriph_Driver/src/stm32f4xx_can.c ****     CAN1->sFilterRegister[CAN_FilterInitStruct->CAN_FilterNumber].FR2 = 
 741              		.loc 1 361 0
 742 013a 4FF4C842 		mov	r2, #25600
 743 013e C4F20002 		movt	r2, 16384
 744 0142 7B68     		ldr	r3, [r7, #4]
 745 0144 9B7A     		ldrb	r3, [r3, #10]	@ zero_extendqisi2
 362:App/STM32F4-Discovery/Libraries/STM32F4xx_StdPeriph_Driver/src/stm32f4xx_can.c ****        ((0x0000FFFF & (uint32_t)CAN_FilterInitStruct->CAN_FilterMaskIdHigh) << 16) |
 746              		.loc 1 362 0
 747 0146 7968     		ldr	r1, [r7, #4]
 748 0148 8988     		ldrh	r1, [r1, #4]
 749 014a 4FEA0140 		lsl	r0, r1, #16
 363:App/STM32F4-Discovery/Libraries/STM32F4xx_StdPeriph_Driver/src/stm32f4xx_can.c ****         (0x0000FFFF & (uint32_t)CAN_FilterInitStruct->CAN_FilterIdHigh);
 750              		.loc 1 363 0
 751 014e 7968     		ldr	r1, [r7, #4]
 752 0150 0988     		ldrh	r1, [r1, #0]
 362:App/STM32F4-Discovery/Libraries/STM32F4xx_StdPeriph_Driver/src/stm32f4xx_can.c ****        ((0x0000FFFF & (uint32_t)CAN_FilterInitStruct->CAN_FilterMaskIdHigh) << 16) |
 753              		.loc 1 362 0
 754 0152 0143     		orrs	r1, r1, r0
 361:App/STM32F4-Discovery/Libraries/STM32F4xx_StdPeriph_Driver/src/stm32f4xx_can.c ****     CAN1->sFilterRegister[CAN_FilterInitStruct->CAN_FilterNumber].FR2 = 
 755              		.loc 1 361 0
 756 0154 03F14803 		add	r3, r3, #72
 757 0158 4FEAC303 		lsl	r3, r3, #3
 758 015c D318     		adds	r3, r2, r3
 759 015e 5960     		str	r1, [r3, #4]
 760              	.L47:
 364:App/STM32F4-Discovery/Libraries/STM32F4xx_StdPeriph_Driver/src/stm32f4xx_can.c ****   }
 365:App/STM32F4-Discovery/Libraries/STM32F4xx_StdPeriph_Driver/src/stm32f4xx_can.c **** 
 366:App/STM32F4-Discovery/Libraries/STM32F4xx_StdPeriph_Driver/src/stm32f4xx_can.c ****   if (CAN_FilterInitStruct->CAN_FilterScale == CAN_FilterScale_32bit)
 761              		.loc 1 366 0
 762 0160 7B68     		ldr	r3, [r7, #4]
 763 0162 1B7B     		ldrb	r3, [r3, #12]	@ zero_extendqisi2
 764 0164 012B     		cmp	r3, #1
 765 0166 31D1     		bne	.L48
 367:App/STM32F4-Discovery/Libraries/STM32F4xx_StdPeriph_Driver/src/stm32f4xx_can.c ****   {
 368:App/STM32F4-Discovery/Libraries/STM32F4xx_StdPeriph_Driver/src/stm32f4xx_can.c ****     /* 32-bit scale for the filter */
 369:App/STM32F4-Discovery/Libraries/STM32F4xx_StdPeriph_Driver/src/stm32f4xx_can.c ****     CAN1->FS1R |= filter_number_bit_pos;
 766              		.loc 1 369 0
 767 0168 4FF4C843 		mov	r3, #25600
 768 016c C4F20003 		movt	r3, 16384
 769 0170 4FF4C842 		mov	r2, #25600
 770 0174 C4F20002 		movt	r2, 16384
 771 0178 D2F80C12 		ldr	r1, [r2, #524]
 772 017c FA68     		ldr	r2, [r7, #12]
 773 017e 0A43     		orrs	r2, r2, r1
 774 0180 C3F80C22 		str	r2, [r3, #524]
 370:App/STM32F4-Discovery/Libraries/STM32F4xx_StdPeriph_Driver/src/stm32f4xx_can.c ****     /* 32-bit identifier or First 32-bit identifier */
 371:App/STM32F4-Discovery/Libraries/STM32F4xx_StdPeriph_Driver/src/stm32f4xx_can.c ****     CAN1->sFilterRegister[CAN_FilterInitStruct->CAN_FilterNumber].FR1 = 
 775              		.loc 1 371 0
 776 0184 4FF4C843 		mov	r3, #25600
 777 0188 C4F20003 		movt	r3, 16384
 778 018c 7A68     		ldr	r2, [r7, #4]
 779 018e 927A     		ldrb	r2, [r2, #10]	@ zero_extendqisi2
 372:App/STM32F4-Discovery/Libraries/STM32F4xx_StdPeriph_Driver/src/stm32f4xx_can.c ****        ((0x0000FFFF & (uint32_t)CAN_FilterInitStruct->CAN_FilterIdHigh) << 16) |
 780              		.loc 1 372 0
 781 0190 7968     		ldr	r1, [r7, #4]
 782 0192 0988     		ldrh	r1, [r1, #0]
 783 0194 4FEA0140 		lsl	r0, r1, #16
 373:App/STM32F4-Discovery/Libraries/STM32F4xx_StdPeriph_Driver/src/stm32f4xx_can.c ****         (0x0000FFFF & (uint32_t)CAN_FilterInitStruct->CAN_FilterIdLow);
 784              		.loc 1 373 0
 785 0198 7968     		ldr	r1, [r7, #4]
 786 019a 4988     		ldrh	r1, [r1, #2]
 372:App/STM32F4-Discovery/Libraries/STM32F4xx_StdPeriph_Driver/src/stm32f4xx_can.c ****        ((0x0000FFFF & (uint32_t)CAN_FilterInitStruct->CAN_FilterIdHigh) << 16) |
 787              		.loc 1 372 0
 788 019c 0143     		orrs	r1, r1, r0
 371:App/STM32F4-Discovery/Libraries/STM32F4xx_StdPeriph_Driver/src/stm32f4xx_can.c ****     CAN1->sFilterRegister[CAN_FilterInitStruct->CAN_FilterNumber].FR1 = 
 789              		.loc 1 371 0
 790 019e 02F14802 		add	r2, r2, #72
 791 01a2 43F83210 		str	r1, [r3, r2, lsl #3]
 374:App/STM32F4-Discovery/Libraries/STM32F4xx_StdPeriph_Driver/src/stm32f4xx_can.c ****     /* 32-bit mask or Second 32-bit identifier */
 375:App/STM32F4-Discovery/Libraries/STM32F4xx_StdPeriph_Driver/src/stm32f4xx_can.c ****     CAN1->sFilterRegister[CAN_FilterInitStruct->CAN_FilterNumber].FR2 = 
 792              		.loc 1 375 0
 793 01a6 4FF4C842 		mov	r2, #25600
 794 01aa C4F20002 		movt	r2, 16384
 795 01ae 7B68     		ldr	r3, [r7, #4]
 796 01b0 9B7A     		ldrb	r3, [r3, #10]	@ zero_extendqisi2
 376:App/STM32F4-Discovery/Libraries/STM32F4xx_StdPeriph_Driver/src/stm32f4xx_can.c ****        ((0x0000FFFF & (uint32_t)CAN_FilterInitStruct->CAN_FilterMaskIdHigh) << 16) |
 797              		.loc 1 376 0
 798 01b2 7968     		ldr	r1, [r7, #4]
 799 01b4 8988     		ldrh	r1, [r1, #4]
 800 01b6 4FEA0140 		lsl	r0, r1, #16
 377:App/STM32F4-Discovery/Libraries/STM32F4xx_StdPeriph_Driver/src/stm32f4xx_can.c ****         (0x0000FFFF & (uint32_t)CAN_FilterInitStruct->CAN_FilterMaskIdLow);
 801              		.loc 1 377 0
 802 01ba 7968     		ldr	r1, [r7, #4]
 803 01bc C988     		ldrh	r1, [r1, #6]
 376:App/STM32F4-Discovery/Libraries/STM32F4xx_StdPeriph_Driver/src/stm32f4xx_can.c ****        ((0x0000FFFF & (uint32_t)CAN_FilterInitStruct->CAN_FilterMaskIdHigh) << 16) |
 804              		.loc 1 376 0
 805 01be 0143     		orrs	r1, r1, r0
 375:App/STM32F4-Discovery/Libraries/STM32F4xx_StdPeriph_Driver/src/stm32f4xx_can.c ****     CAN1->sFilterRegister[CAN_FilterInitStruct->CAN_FilterNumber].FR2 = 
 806              		.loc 1 375 0
 807 01c0 03F14803 		add	r3, r3, #72
 808 01c4 4FEAC303 		lsl	r3, r3, #3
 809 01c8 D318     		adds	r3, r2, r3
 810 01ca 5960     		str	r1, [r3, #4]
 811              	.L48:
 378:App/STM32F4-Discovery/Libraries/STM32F4xx_StdPeriph_Driver/src/stm32f4xx_can.c ****   }
 379:App/STM32F4-Discovery/Libraries/STM32F4xx_StdPeriph_Driver/src/stm32f4xx_can.c **** 
 380:App/STM32F4-Discovery/Libraries/STM32F4xx_StdPeriph_Driver/src/stm32f4xx_can.c ****   /* Filter Mode */
 381:App/STM32F4-Discovery/Libraries/STM32F4xx_StdPeriph_Driver/src/stm32f4xx_can.c ****   if (CAN_FilterInitStruct->CAN_FilterMode == CAN_FilterMode_IdMask)
 812              		.loc 1 381 0
 813 01cc 7B68     		ldr	r3, [r7, #4]
 814 01ce DB7A     		ldrb	r3, [r3, #11]	@ zero_extendqisi2
 815 01d0 002B     		cmp	r3, #0
 816 01d2 10D1     		bne	.L49
 382:App/STM32F4-Discovery/Libraries/STM32F4xx_StdPeriph_Driver/src/stm32f4xx_can.c ****   {
 383:App/STM32F4-Discovery/Libraries/STM32F4xx_StdPeriph_Driver/src/stm32f4xx_can.c ****     /*Id/Mask mode for the filter*/
 384:App/STM32F4-Discovery/Libraries/STM32F4xx_StdPeriph_Driver/src/stm32f4xx_can.c ****     CAN1->FM1R &= ~(uint32_t)filter_number_bit_pos;
 817              		.loc 1 384 0
 818 01d4 4FF4C843 		mov	r3, #25600
 819 01d8 C4F20003 		movt	r3, 16384
 820 01dc 4FF4C842 		mov	r2, #25600
 821 01e0 C4F20002 		movt	r2, 16384
 822 01e4 D2F80412 		ldr	r1, [r2, #516]
 823 01e8 FA68     		ldr	r2, [r7, #12]
 824 01ea 6FEA0202 		mvn	r2, r2
 825 01ee 0A40     		ands	r2, r2, r1
 826 01f0 C3F80422 		str	r2, [r3, #516]
 827 01f4 0DE0     		b	.L50
 828              	.L49:
 385:App/STM32F4-Discovery/Libraries/STM32F4xx_StdPeriph_Driver/src/stm32f4xx_can.c ****   }
 386:App/STM32F4-Discovery/Libraries/STM32F4xx_StdPeriph_Driver/src/stm32f4xx_can.c ****   else /* CAN_FilterInitStruct->CAN_FilterMode == CAN_FilterMode_IdList */
 387:App/STM32F4-Discovery/Libraries/STM32F4xx_StdPeriph_Driver/src/stm32f4xx_can.c ****   {
 388:App/STM32F4-Discovery/Libraries/STM32F4xx_StdPeriph_Driver/src/stm32f4xx_can.c ****     /*Identifier list mode for the filter*/
 389:App/STM32F4-Discovery/Libraries/STM32F4xx_StdPeriph_Driver/src/stm32f4xx_can.c ****     CAN1->FM1R |= (uint32_t)filter_number_bit_pos;
 829              		.loc 1 389 0
 830 01f6 4FF4C843 		mov	r3, #25600
 831 01fa C4F20003 		movt	r3, 16384
 832 01fe 4FF4C842 		mov	r2, #25600
 833 0202 C4F20002 		movt	r2, 16384
 834 0206 D2F80412 		ldr	r1, [r2, #516]
 835 020a FA68     		ldr	r2, [r7, #12]
 836 020c 0A43     		orrs	r2, r2, r1
 837 020e C3F80422 		str	r2, [r3, #516]
 838              	.L50:
 390:App/STM32F4-Discovery/Libraries/STM32F4xx_StdPeriph_Driver/src/stm32f4xx_can.c ****   }
 391:App/STM32F4-Discovery/Libraries/STM32F4xx_StdPeriph_Driver/src/stm32f4xx_can.c **** 
 392:App/STM32F4-Discovery/Libraries/STM32F4xx_StdPeriph_Driver/src/stm32f4xx_can.c ****   /* Filter FIFO assignment */
 393:App/STM32F4-Discovery/Libraries/STM32F4xx_StdPeriph_Driver/src/stm32f4xx_can.c ****   if (CAN_FilterInitStruct->CAN_FilterFIFOAssignment == CAN_Filter_FIFO0)
 839              		.loc 1 393 0
 840 0212 7B68     		ldr	r3, [r7, #4]
 841 0214 1B89     		ldrh	r3, [r3, #8]
 842 0216 002B     		cmp	r3, #0
 843 0218 0FD1     		bne	.L51
 394:App/STM32F4-Discovery/Libraries/STM32F4xx_StdPeriph_Driver/src/stm32f4xx_can.c ****   {
 395:App/STM32F4-Discovery/Libraries/STM32F4xx_StdPeriph_Driver/src/stm32f4xx_can.c ****     /* FIFO 0 assignation for the filter */
 396:App/STM32F4-Discovery/Libraries/STM32F4xx_StdPeriph_Driver/src/stm32f4xx_can.c ****     CAN1->FFA1R &= ~(uint32_t)filter_number_bit_pos;
 844              		.loc 1 396 0
 845 021a 4FF4C843 		mov	r3, #25600
 846 021e C4F20003 		movt	r3, 16384
 847 0222 4FF4C842 		mov	r2, #25600
 848 0226 C4F20002 		movt	r2, 16384
 849 022a D2F81412 		ldr	r1, [r2, #532]
 850 022e FA68     		ldr	r2, [r7, #12]
 851 0230 6FEA0202 		mvn	r2, r2
 852 0234 0A40     		ands	r2, r2, r1
 853 0236 C3F81422 		str	r2, [r3, #532]
 854              	.L51:
 397:App/STM32F4-Discovery/Libraries/STM32F4xx_StdPeriph_Driver/src/stm32f4xx_can.c ****   }
 398:App/STM32F4-Discovery/Libraries/STM32F4xx_StdPeriph_Driver/src/stm32f4xx_can.c **** 
 399:App/STM32F4-Discovery/Libraries/STM32F4xx_StdPeriph_Driver/src/stm32f4xx_can.c ****   if (CAN_FilterInitStruct->CAN_FilterFIFOAssignment == CAN_Filter_FIFO1)
 855              		.loc 1 399 0
 856 023a 7B68     		ldr	r3, [r7, #4]
 857 023c 1B89     		ldrh	r3, [r3, #8]
 858 023e 012B     		cmp	r3, #1
 859 0240 0DD1     		bne	.L52
 400:App/STM32F4-Discovery/Libraries/STM32F4xx_StdPeriph_Driver/src/stm32f4xx_can.c ****   {
 401:App/STM32F4-Discovery/Libraries/STM32F4xx_StdPeriph_Driver/src/stm32f4xx_can.c ****     /* FIFO 1 assignation for the filter */
 402:App/STM32F4-Discovery/Libraries/STM32F4xx_StdPeriph_Driver/src/stm32f4xx_can.c ****     CAN1->FFA1R |= (uint32_t)filter_number_bit_pos;
 860              		.loc 1 402 0
 861 0242 4FF4C843 		mov	r3, #25600
 862 0246 C4F20003 		movt	r3, 16384
 863 024a 4FF4C842 		mov	r2, #25600
 864 024e C4F20002 		movt	r2, 16384
 865 0252 D2F81412 		ldr	r1, [r2, #532]
 866 0256 FA68     		ldr	r2, [r7, #12]
 867 0258 0A43     		orrs	r2, r2, r1
 868 025a C3F81422 		str	r2, [r3, #532]
 869              	.L52:
 403:App/STM32F4-Discovery/Libraries/STM32F4xx_StdPeriph_Driver/src/stm32f4xx_can.c ****   }
 404:App/STM32F4-Discovery/Libraries/STM32F4xx_StdPeriph_Driver/src/stm32f4xx_can.c ****   
 405:App/STM32F4-Discovery/Libraries/STM32F4xx_StdPeriph_Driver/src/stm32f4xx_can.c ****   /* Filter activation */
 406:App/STM32F4-Discovery/Libraries/STM32F4xx_StdPeriph_Driver/src/stm32f4xx_can.c ****   if (CAN_FilterInitStruct->CAN_FilterActivation == ENABLE)
 870              		.loc 1 406 0
 871 025e 7B68     		ldr	r3, [r7, #4]
 872 0260 5B7B     		ldrb	r3, [r3, #13]	@ zero_extendqisi2
 873 0262 012B     		cmp	r3, #1
 874 0264 0DD1     		bne	.L53
 407:App/STM32F4-Discovery/Libraries/STM32F4xx_StdPeriph_Driver/src/stm32f4xx_can.c ****   {
 408:App/STM32F4-Discovery/Libraries/STM32F4xx_StdPeriph_Driver/src/stm32f4xx_can.c ****     CAN1->FA1R |= filter_number_bit_pos;
 875              		.loc 1 408 0
 876 0266 4FF4C843 		mov	r3, #25600
 877 026a C4F20003 		movt	r3, 16384
 878 026e 4FF4C842 		mov	r2, #25600
 879 0272 C4F20002 		movt	r2, 16384
 880 0276 D2F81C12 		ldr	r1, [r2, #540]
 881 027a FA68     		ldr	r2, [r7, #12]
 882 027c 0A43     		orrs	r2, r2, r1
 883 027e C3F81C22 		str	r2, [r3, #540]
 884              	.L53:
 409:App/STM32F4-Discovery/Libraries/STM32F4xx_StdPeriph_Driver/src/stm32f4xx_can.c ****   }
 410:App/STM32F4-Discovery/Libraries/STM32F4xx_StdPeriph_Driver/src/stm32f4xx_can.c **** 
 411:App/STM32F4-Discovery/Libraries/STM32F4xx_StdPeriph_Driver/src/stm32f4xx_can.c ****   /* Leave the initialisation mode for the filter */
 412:App/STM32F4-Discovery/Libraries/STM32F4xx_StdPeriph_Driver/src/stm32f4xx_can.c ****   CAN1->FMR &= ~FMR_FINIT;
 885              		.loc 1 412 0
 886 0282 4FF4C843 		mov	r3, #25600
 887 0286 C4F20003 		movt	r3, 16384
 888 028a 4FF4C842 		mov	r2, #25600
 889 028e C4F20002 		movt	r2, 16384
 890 0292 D2F80022 		ldr	r2, [r2, #512]
 891 0296 22F00102 		bic	r2, r2, #1
 892 029a C3F80022 		str	r2, [r3, #512]
 413:App/STM32F4-Discovery/Libraries/STM32F4xx_StdPeriph_Driver/src/stm32f4xx_can.c **** }
 893              		.loc 1 413 0
 894 029e 07F11007 		add	r7, r7, #16
 895 02a2 BD46     		mov	sp, r7
 896 02a4 80BD     		pop	{r7, pc}
 897              		.cfi_endproc
 898              	.LFE112:
 900 02a6 00BF     		.section	.text.CAN_StructInit,"ax",%progbits
 901              		.align	2
 902              		.global	CAN_StructInit
 903              		.thumb
 904              		.thumb_func
 906              	CAN_StructInit:
 907              	.LFB113:
 414:App/STM32F4-Discovery/Libraries/STM32F4xx_StdPeriph_Driver/src/stm32f4xx_can.c **** 
 415:App/STM32F4-Discovery/Libraries/STM32F4xx_StdPeriph_Driver/src/stm32f4xx_can.c **** /**
 416:App/STM32F4-Discovery/Libraries/STM32F4xx_StdPeriph_Driver/src/stm32f4xx_can.c ****   * @brief  Fills each CAN_InitStruct member with its default value.
 417:App/STM32F4-Discovery/Libraries/STM32F4xx_StdPeriph_Driver/src/stm32f4xx_can.c ****   * @param  CAN_InitStruct: pointer to a CAN_InitTypeDef structure which ill be initialized.
 418:App/STM32F4-Discovery/Libraries/STM32F4xx_StdPeriph_Driver/src/stm32f4xx_can.c ****   * @retval None
 419:App/STM32F4-Discovery/Libraries/STM32F4xx_StdPeriph_Driver/src/stm32f4xx_can.c ****   */
 420:App/STM32F4-Discovery/Libraries/STM32F4xx_StdPeriph_Driver/src/stm32f4xx_can.c **** void CAN_StructInit(CAN_InitTypeDef* CAN_InitStruct)
 421:App/STM32F4-Discovery/Libraries/STM32F4xx_StdPeriph_Driver/src/stm32f4xx_can.c **** {
 908              		.loc 1 421 0
 909              		.cfi_startproc
 910              		@ args = 0, pretend = 0, frame = 8
 911              		@ frame_needed = 1, uses_anonymous_args = 0
 912              		@ link register save eliminated.
 913 0000 80B4     		push	{r7}
 914              	.LCFI9:
 915              		.cfi_def_cfa_offset 4
 916              		.cfi_offset 7, -4
 917 0002 83B0     		sub	sp, sp, #12
 918              	.LCFI10:
 919              		.cfi_def_cfa_offset 16
 920 0004 00AF     		add	r7, sp, #0
 921              	.LCFI11:
 922              		.cfi_def_cfa_register 7
 923 0006 7860     		str	r0, [r7, #4]
 422:App/STM32F4-Discovery/Libraries/STM32F4xx_StdPeriph_Driver/src/stm32f4xx_can.c ****   /* Reset CAN init structure parameters values */
 423:App/STM32F4-Discovery/Libraries/STM32F4xx_StdPeriph_Driver/src/stm32f4xx_can.c ****   
 424:App/STM32F4-Discovery/Libraries/STM32F4xx_StdPeriph_Driver/src/stm32f4xx_can.c ****   /* Initialize the time triggered communication mode */
 425:App/STM32F4-Discovery/Libraries/STM32F4xx_StdPeriph_Driver/src/stm32f4xx_can.c ****   CAN_InitStruct->CAN_TTCM = DISABLE;
 924              		.loc 1 425 0
 925 0008 7B68     		ldr	r3, [r7, #4]
 926 000a 4FF00002 		mov	r2, #0
 927 000e 9A71     		strb	r2, [r3, #6]
 426:App/STM32F4-Discovery/Libraries/STM32F4xx_StdPeriph_Driver/src/stm32f4xx_can.c ****   
 427:App/STM32F4-Discovery/Libraries/STM32F4xx_StdPeriph_Driver/src/stm32f4xx_can.c ****   /* Initialize the automatic bus-off management */
 428:App/STM32F4-Discovery/Libraries/STM32F4xx_StdPeriph_Driver/src/stm32f4xx_can.c ****   CAN_InitStruct->CAN_ABOM = DISABLE;
 928              		.loc 1 428 0
 929 0010 7B68     		ldr	r3, [r7, #4]
 930 0012 4FF00002 		mov	r2, #0
 931 0016 DA71     		strb	r2, [r3, #7]
 429:App/STM32F4-Discovery/Libraries/STM32F4xx_StdPeriph_Driver/src/stm32f4xx_can.c ****   
 430:App/STM32F4-Discovery/Libraries/STM32F4xx_StdPeriph_Driver/src/stm32f4xx_can.c ****   /* Initialize the automatic wake-up mode */
 431:App/STM32F4-Discovery/Libraries/STM32F4xx_StdPeriph_Driver/src/stm32f4xx_can.c ****   CAN_InitStruct->CAN_AWUM = DISABLE;
 932              		.loc 1 431 0
 933 0018 7B68     		ldr	r3, [r7, #4]
 934 001a 4FF00002 		mov	r2, #0
 935 001e 1A72     		strb	r2, [r3, #8]
 432:App/STM32F4-Discovery/Libraries/STM32F4xx_StdPeriph_Driver/src/stm32f4xx_can.c ****   
 433:App/STM32F4-Discovery/Libraries/STM32F4xx_StdPeriph_Driver/src/stm32f4xx_can.c ****   /* Initialize the no automatic retransmission */
 434:App/STM32F4-Discovery/Libraries/STM32F4xx_StdPeriph_Driver/src/stm32f4xx_can.c ****   CAN_InitStruct->CAN_NART = DISABLE;
 936              		.loc 1 434 0
 937 0020 7B68     		ldr	r3, [r7, #4]
 938 0022 4FF00002 		mov	r2, #0
 939 0026 5A72     		strb	r2, [r3, #9]
 435:App/STM32F4-Discovery/Libraries/STM32F4xx_StdPeriph_Driver/src/stm32f4xx_can.c ****   
 436:App/STM32F4-Discovery/Libraries/STM32F4xx_StdPeriph_Driver/src/stm32f4xx_can.c ****   /* Initialize the receive FIFO locked mode */
 437:App/STM32F4-Discovery/Libraries/STM32F4xx_StdPeriph_Driver/src/stm32f4xx_can.c ****   CAN_InitStruct->CAN_RFLM = DISABLE;
 940              		.loc 1 437 0
 941 0028 7B68     		ldr	r3, [r7, #4]
 942 002a 4FF00002 		mov	r2, #0
 943 002e 9A72     		strb	r2, [r3, #10]
 438:App/STM32F4-Discovery/Libraries/STM32F4xx_StdPeriph_Driver/src/stm32f4xx_can.c ****   
 439:App/STM32F4-Discovery/Libraries/STM32F4xx_StdPeriph_Driver/src/stm32f4xx_can.c ****   /* Initialize the transmit FIFO priority */
 440:App/STM32F4-Discovery/Libraries/STM32F4xx_StdPeriph_Driver/src/stm32f4xx_can.c ****   CAN_InitStruct->CAN_TXFP = DISABLE;
 944              		.loc 1 440 0
 945 0030 7B68     		ldr	r3, [r7, #4]
 946 0032 4FF00002 		mov	r2, #0
 947 0036 DA72     		strb	r2, [r3, #11]
 441:App/STM32F4-Discovery/Libraries/STM32F4xx_StdPeriph_Driver/src/stm32f4xx_can.c ****   
 442:App/STM32F4-Discovery/Libraries/STM32F4xx_StdPeriph_Driver/src/stm32f4xx_can.c ****   /* Initialize the CAN_Mode member */
 443:App/STM32F4-Discovery/Libraries/STM32F4xx_StdPeriph_Driver/src/stm32f4xx_can.c ****   CAN_InitStruct->CAN_Mode = CAN_Mode_Normal;
 948              		.loc 1 443 0
 949 0038 7B68     		ldr	r3, [r7, #4]
 950 003a 4FF00002 		mov	r2, #0
 951 003e 9A70     		strb	r2, [r3, #2]
 444:App/STM32F4-Discovery/Libraries/STM32F4xx_StdPeriph_Driver/src/stm32f4xx_can.c ****   
 445:App/STM32F4-Discovery/Libraries/STM32F4xx_StdPeriph_Driver/src/stm32f4xx_can.c ****   /* Initialize the CAN_SJW member */
 446:App/STM32F4-Discovery/Libraries/STM32F4xx_StdPeriph_Driver/src/stm32f4xx_can.c ****   CAN_InitStruct->CAN_SJW = CAN_SJW_1tq;
 952              		.loc 1 446 0
 953 0040 7B68     		ldr	r3, [r7, #4]
 954 0042 4FF00002 		mov	r2, #0
 955 0046 DA70     		strb	r2, [r3, #3]
 447:App/STM32F4-Discovery/Libraries/STM32F4xx_StdPeriph_Driver/src/stm32f4xx_can.c ****   
 448:App/STM32F4-Discovery/Libraries/STM32F4xx_StdPeriph_Driver/src/stm32f4xx_can.c ****   /* Initialize the CAN_BS1 member */
 449:App/STM32F4-Discovery/Libraries/STM32F4xx_StdPeriph_Driver/src/stm32f4xx_can.c ****   CAN_InitStruct->CAN_BS1 = CAN_BS1_4tq;
 956              		.loc 1 449 0
 957 0048 7B68     		ldr	r3, [r7, #4]
 958 004a 4FF00302 		mov	r2, #3
 959 004e 1A71     		strb	r2, [r3, #4]
 450:App/STM32F4-Discovery/Libraries/STM32F4xx_StdPeriph_Driver/src/stm32f4xx_can.c ****   
 451:App/STM32F4-Discovery/Libraries/STM32F4xx_StdPeriph_Driver/src/stm32f4xx_can.c ****   /* Initialize the CAN_BS2 member */
 452:App/STM32F4-Discovery/Libraries/STM32F4xx_StdPeriph_Driver/src/stm32f4xx_can.c ****   CAN_InitStruct->CAN_BS2 = CAN_BS2_3tq;
 960              		.loc 1 452 0
 961 0050 7B68     		ldr	r3, [r7, #4]
 962 0052 4FF00202 		mov	r2, #2
 963 0056 5A71     		strb	r2, [r3, #5]
 453:App/STM32F4-Discovery/Libraries/STM32F4xx_StdPeriph_Driver/src/stm32f4xx_can.c ****   
 454:App/STM32F4-Discovery/Libraries/STM32F4xx_StdPeriph_Driver/src/stm32f4xx_can.c ****   /* Initialize the CAN_Prescaler member */
 455:App/STM32F4-Discovery/Libraries/STM32F4xx_StdPeriph_Driver/src/stm32f4xx_can.c ****   CAN_InitStruct->CAN_Prescaler = 1;
 964              		.loc 1 455 0
 965 0058 7B68     		ldr	r3, [r7, #4]
 966 005a 4FF00102 		mov	r2, #1
 967 005e 1A80     		strh	r2, [r3, #0]	@ movhi
 456:App/STM32F4-Discovery/Libraries/STM32F4xx_StdPeriph_Driver/src/stm32f4xx_can.c **** }
 968              		.loc 1 456 0
 969 0060 07F10C07 		add	r7, r7, #12
 970 0064 BD46     		mov	sp, r7
 971 0066 80BC     		pop	{r7}
 972 0068 7047     		bx	lr
 973              		.cfi_endproc
 974              	.LFE113:
 976 006a 00BF     		.section	.text.CAN_SlaveStartBank,"ax",%progbits
 977              		.align	2
 978              		.global	CAN_SlaveStartBank
 979              		.thumb
 980              		.thumb_func
 982              	CAN_SlaveStartBank:
 983              	.LFB114:
 457:App/STM32F4-Discovery/Libraries/STM32F4xx_StdPeriph_Driver/src/stm32f4xx_can.c **** 
 458:App/STM32F4-Discovery/Libraries/STM32F4xx_StdPeriph_Driver/src/stm32f4xx_can.c **** /**
 459:App/STM32F4-Discovery/Libraries/STM32F4xx_StdPeriph_Driver/src/stm32f4xx_can.c ****   * @brief  Select the start bank filter for slave CAN.
 460:App/STM32F4-Discovery/Libraries/STM32F4xx_StdPeriph_Driver/src/stm32f4xx_can.c ****   * @param  CAN_BankNumber: Select the start slave bank filter from 1..27.
 461:App/STM32F4-Discovery/Libraries/STM32F4xx_StdPeriph_Driver/src/stm32f4xx_can.c ****   * @retval None
 462:App/STM32F4-Discovery/Libraries/STM32F4xx_StdPeriph_Driver/src/stm32f4xx_can.c ****   */
 463:App/STM32F4-Discovery/Libraries/STM32F4xx_StdPeriph_Driver/src/stm32f4xx_can.c **** void CAN_SlaveStartBank(uint8_t CAN_BankNumber) 
 464:App/STM32F4-Discovery/Libraries/STM32F4xx_StdPeriph_Driver/src/stm32f4xx_can.c **** {
 984              		.loc 1 464 0
 985              		.cfi_startproc
 986              		@ args = 0, pretend = 0, frame = 8
 987              		@ frame_needed = 1, uses_anonymous_args = 0
 988 0000 80B5     		push	{r7, lr}
 989              	.LCFI12:
 990              		.cfi_def_cfa_offset 8
 991              		.cfi_offset 7, -8
 992              		.cfi_offset 14, -4
 993 0002 82B0     		sub	sp, sp, #8
 994              	.LCFI13:
 995              		.cfi_def_cfa_offset 16
 996 0004 00AF     		add	r7, sp, #0
 997              	.LCFI14:
 998              		.cfi_def_cfa_register 7
 999 0006 0346     		mov	r3, r0
 1000 0008 FB71     		strb	r3, [r7, #7]
 465:App/STM32F4-Discovery/Libraries/STM32F4xx_StdPeriph_Driver/src/stm32f4xx_can.c ****   /* Check the parameters */
 466:App/STM32F4-Discovery/Libraries/STM32F4xx_StdPeriph_Driver/src/stm32f4xx_can.c ****   assert_param(IS_CAN_BANKNUMBER(CAN_BankNumber));
 1001              		.loc 1 466 0
 1002 000a FB79     		ldrb	r3, [r7, #7]	@ zero_extendqisi2
 1003 000c 002B     		cmp	r3, #0
 1004 000e 02D0     		beq	.L56
 1005              		.loc 1 466 0 is_stmt 0 discriminator 2
 1006 0010 FB79     		ldrb	r3, [r7, #7]	@ zero_extendqisi2
 1007 0012 1B2B     		cmp	r3, #27
 1008 0014 07D9     		bls	.L57
 1009              	.L56:
 1010              		.loc 1 466 0 discriminator 1
 1011 0016 40F20000 		movw	r0, #:lower16:.LC0
 1012 001a C0F20000 		movt	r0, #:upper16:.LC0
 1013 001e 4FF4E971 		mov	r1, #466
 1014 0022 FFF7FEFF 		bl	assert_failed
 1015              	.L57:
 467:App/STM32F4-Discovery/Libraries/STM32F4xx_StdPeriph_Driver/src/stm32f4xx_can.c ****   
 468:App/STM32F4-Discovery/Libraries/STM32F4xx_StdPeriph_Driver/src/stm32f4xx_can.c ****   /* Enter Initialisation mode for the filter */
 469:App/STM32F4-Discovery/Libraries/STM32F4xx_StdPeriph_Driver/src/stm32f4xx_can.c ****   CAN1->FMR |= FMR_FINIT;
 1016              		.loc 1 469 0 is_stmt 1
 1017 0026 4FF4C843 		mov	r3, #25600
 1018 002a C4F20003 		movt	r3, 16384
 1019 002e 4FF4C842 		mov	r2, #25600
 1020 0032 C4F20002 		movt	r2, 16384
 1021 0036 D2F80022 		ldr	r2, [r2, #512]
 1022 003a 42F00102 		orr	r2, r2, #1
 1023 003e C3F80022 		str	r2, [r3, #512]
 470:App/STM32F4-Discovery/Libraries/STM32F4xx_StdPeriph_Driver/src/stm32f4xx_can.c ****   
 471:App/STM32F4-Discovery/Libraries/STM32F4xx_StdPeriph_Driver/src/stm32f4xx_can.c ****   /* Select the start slave bank */
 472:App/STM32F4-Discovery/Libraries/STM32F4xx_StdPeriph_Driver/src/stm32f4xx_can.c ****   CAN1->FMR &= (uint32_t)0xFFFFC0F1 ;
 1024              		.loc 1 472 0
 1025 0042 4FF4C843 		mov	r3, #25600
 1026 0046 C4F20003 		movt	r3, 16384
 1027 004a 4FF4C842 		mov	r2, #25600
 1028 004e C4F20002 		movt	r2, 16384
 1029 0052 D2F80022 		ldr	r2, [r2, #512]
 1030 0056 22F47C52 		bic	r2, r2, #16128
 1031 005a 22F00E02 		bic	r2, r2, #14
 1032 005e C3F80022 		str	r2, [r3, #512]
 473:App/STM32F4-Discovery/Libraries/STM32F4xx_StdPeriph_Driver/src/stm32f4xx_can.c ****   CAN1->FMR |= (uint32_t)(CAN_BankNumber)<<8;
 1033              		.loc 1 473 0
 1034 0062 4FF4C843 		mov	r3, #25600
 1035 0066 C4F20003 		movt	r3, 16384
 1036 006a 4FF4C842 		mov	r2, #25600
 1037 006e C4F20002 		movt	r2, 16384
 1038 0072 D2F80012 		ldr	r1, [r2, #512]
 1039 0076 FA79     		ldrb	r2, [r7, #7]	@ zero_extendqisi2
 1040 0078 4FEA0222 		lsl	r2, r2, #8
 1041 007c 0A43     		orrs	r2, r2, r1
 1042 007e C3F80022 		str	r2, [r3, #512]
 474:App/STM32F4-Discovery/Libraries/STM32F4xx_StdPeriph_Driver/src/stm32f4xx_can.c ****   
 475:App/STM32F4-Discovery/Libraries/STM32F4xx_StdPeriph_Driver/src/stm32f4xx_can.c ****   /* Leave Initialisation mode for the filter */
 476:App/STM32F4-Discovery/Libraries/STM32F4xx_StdPeriph_Driver/src/stm32f4xx_can.c ****   CAN1->FMR &= ~FMR_FINIT;
 1043              		.loc 1 476 0
 1044 0082 4FF4C843 		mov	r3, #25600
 1045 0086 C4F20003 		movt	r3, 16384
 1046 008a 4FF4C842 		mov	r2, #25600
 1047 008e C4F20002 		movt	r2, 16384
 1048 0092 D2F80022 		ldr	r2, [r2, #512]
 1049 0096 22F00102 		bic	r2, r2, #1
 1050 009a C3F80022 		str	r2, [r3, #512]
 477:App/STM32F4-Discovery/Libraries/STM32F4xx_StdPeriph_Driver/src/stm32f4xx_can.c **** }
 1051              		.loc 1 477 0
 1052 009e 07F10807 		add	r7, r7, #8
 1053 00a2 BD46     		mov	sp, r7
 1054 00a4 80BD     		pop	{r7, pc}
 1055              		.cfi_endproc
 1056              	.LFE114:
 1058 00a6 00BF     		.section	.text.CAN_DBGFreeze,"ax",%progbits
 1059              		.align	2
 1060              		.global	CAN_DBGFreeze
 1061              		.thumb
 1062              		.thumb_func
 1064              	CAN_DBGFreeze:
 1065              	.LFB115:
 478:App/STM32F4-Discovery/Libraries/STM32F4xx_StdPeriph_Driver/src/stm32f4xx_can.c **** 
 479:App/STM32F4-Discovery/Libraries/STM32F4xx_StdPeriph_Driver/src/stm32f4xx_can.c **** /**
 480:App/STM32F4-Discovery/Libraries/STM32F4xx_StdPeriph_Driver/src/stm32f4xx_can.c ****   * @brief  Enables or disables the DBG Freeze for CAN.
 481:App/STM32F4-Discovery/Libraries/STM32F4xx_StdPeriph_Driver/src/stm32f4xx_can.c ****   * @param  CANx: where x can be 1 or 2 to to select the CAN peripheral.
 482:App/STM32F4-Discovery/Libraries/STM32F4xx_StdPeriph_Driver/src/stm32f4xx_can.c ****   * @param  NewState: new state of the CAN peripheral. 
 483:App/STM32F4-Discovery/Libraries/STM32F4xx_StdPeriph_Driver/src/stm32f4xx_can.c ****   *          This parameter can be: ENABLE (CAN reception/transmission is frozen
 484:App/STM32F4-Discovery/Libraries/STM32F4xx_StdPeriph_Driver/src/stm32f4xx_can.c ****   *          during debug. Reception FIFOs can still be accessed/controlled normally) 
 485:App/STM32F4-Discovery/Libraries/STM32F4xx_StdPeriph_Driver/src/stm32f4xx_can.c ****   *          or DISABLE (CAN is working during debug).
 486:App/STM32F4-Discovery/Libraries/STM32F4xx_StdPeriph_Driver/src/stm32f4xx_can.c ****   * @retval None
 487:App/STM32F4-Discovery/Libraries/STM32F4xx_StdPeriph_Driver/src/stm32f4xx_can.c ****   */
 488:App/STM32F4-Discovery/Libraries/STM32F4xx_StdPeriph_Driver/src/stm32f4xx_can.c **** void CAN_DBGFreeze(CAN_TypeDef* CANx, FunctionalState NewState)
 489:App/STM32F4-Discovery/Libraries/STM32F4xx_StdPeriph_Driver/src/stm32f4xx_can.c **** {
 1066              		.loc 1 489 0
 1067              		.cfi_startproc
 1068              		@ args = 0, pretend = 0, frame = 8
 1069              		@ frame_needed = 1, uses_anonymous_args = 0
 1070 0000 80B5     		push	{r7, lr}
 1071              	.LCFI15:
 1072              		.cfi_def_cfa_offset 8
 1073              		.cfi_offset 7, -8
 1074              		.cfi_offset 14, -4
 1075 0002 82B0     		sub	sp, sp, #8
 1076              	.LCFI16:
 1077              		.cfi_def_cfa_offset 16
 1078 0004 00AF     		add	r7, sp, #0
 1079              	.LCFI17:
 1080              		.cfi_def_cfa_register 7
 1081 0006 7860     		str	r0, [r7, #4]
 1082 0008 0B46     		mov	r3, r1
 1083 000a FB70     		strb	r3, [r7, #3]
 490:App/STM32F4-Discovery/Libraries/STM32F4xx_StdPeriph_Driver/src/stm32f4xx_can.c ****   /* Check the parameters */
 491:App/STM32F4-Discovery/Libraries/STM32F4xx_StdPeriph_Driver/src/stm32f4xx_can.c ****   assert_param(IS_CAN_ALL_PERIPH(CANx));
 1084              		.loc 1 491 0
 1085 000c 7A68     		ldr	r2, [r7, #4]
 1086 000e 4FF4C843 		mov	r3, #25600
 1087 0012 C4F20003 		movt	r3, 16384
 1088 0016 9A42     		cmp	r2, r3
 1089 0018 0ED0     		beq	.L59
 1090              		.loc 1 491 0 is_stmt 0 discriminator 1
 1091 001a 7A68     		ldr	r2, [r7, #4]
 1092 001c 4FF4D043 		mov	r3, #26624
 1093 0020 C4F20003 		movt	r3, 16384
 1094 0024 9A42     		cmp	r2, r3
 1095 0026 07D0     		beq	.L59
 1096              		.loc 1 491 0 discriminator 2
 1097 0028 40F20000 		movw	r0, #:lower16:.LC0
 1098 002c C0F20000 		movt	r0, #:upper16:.LC0
 1099 0030 40F2EB11 		movw	r1, #491
 1100 0034 FFF7FEFF 		bl	assert_failed
 1101              	.L59:
 492:App/STM32F4-Discovery/Libraries/STM32F4xx_StdPeriph_Driver/src/stm32f4xx_can.c ****   assert_param(IS_FUNCTIONAL_STATE(NewState));
 1102              		.loc 1 492 0 is_stmt 1
 1103 0038 FB78     		ldrb	r3, [r7, #3]	@ zero_extendqisi2
 1104 003a 002B     		cmp	r3, #0
 1105 003c 0AD0     		beq	.L60
 1106              		.loc 1 492 0 is_stmt 0 discriminator 1
 1107 003e FB78     		ldrb	r3, [r7, #3]	@ zero_extendqisi2
 1108 0040 012B     		cmp	r3, #1
 1109 0042 07D0     		beq	.L60
 1110              		.loc 1 492 0 discriminator 2
 1111 0044 40F20000 		movw	r0, #:lower16:.LC0
 1112 0048 C0F20000 		movt	r0, #:upper16:.LC0
 1113 004c 4FF4F671 		mov	r1, #492
 1114 0050 FFF7FEFF 		bl	assert_failed
 1115              	.L60:
 493:App/STM32F4-Discovery/Libraries/STM32F4xx_StdPeriph_Driver/src/stm32f4xx_can.c ****   
 494:App/STM32F4-Discovery/Libraries/STM32F4xx_StdPeriph_Driver/src/stm32f4xx_can.c ****   if (NewState != DISABLE)
 1116              		.loc 1 494 0 is_stmt 1
 1117 0054 FB78     		ldrb	r3, [r7, #3]	@ zero_extendqisi2
 1118 0056 002B     		cmp	r3, #0
 1119 0058 06D0     		beq	.L61
 495:App/STM32F4-Discovery/Libraries/STM32F4xx_StdPeriph_Driver/src/stm32f4xx_can.c ****   {
 496:App/STM32F4-Discovery/Libraries/STM32F4xx_StdPeriph_Driver/src/stm32f4xx_can.c ****     /* Enable Debug Freeze  */
 497:App/STM32F4-Discovery/Libraries/STM32F4xx_StdPeriph_Driver/src/stm32f4xx_can.c ****     CANx->MCR |= MCR_DBF;
 1120              		.loc 1 497 0
 1121 005a 7B68     		ldr	r3, [r7, #4]
 1122 005c 1B68     		ldr	r3, [r3, #0]
 1123 005e 43F48032 		orr	r2, r3, #65536
 1124 0062 7B68     		ldr	r3, [r7, #4]
 1125 0064 1A60     		str	r2, [r3, #0]
 1126 0066 05E0     		b	.L58
 1127              	.L61:
 498:App/STM32F4-Discovery/Libraries/STM32F4xx_StdPeriph_Driver/src/stm32f4xx_can.c ****   }
 499:App/STM32F4-Discovery/Libraries/STM32F4xx_StdPeriph_Driver/src/stm32f4xx_can.c ****   else
 500:App/STM32F4-Discovery/Libraries/STM32F4xx_StdPeriph_Driver/src/stm32f4xx_can.c ****   {
 501:App/STM32F4-Discovery/Libraries/STM32F4xx_StdPeriph_Driver/src/stm32f4xx_can.c ****     /* Disable Debug Freeze */
 502:App/STM32F4-Discovery/Libraries/STM32F4xx_StdPeriph_Driver/src/stm32f4xx_can.c ****     CANx->MCR &= ~MCR_DBF;
 1128              		.loc 1 502 0
 1129 0068 7B68     		ldr	r3, [r7, #4]
 1130 006a 1B68     		ldr	r3, [r3, #0]
 1131 006c 23F48032 		bic	r2, r3, #65536
 1132 0070 7B68     		ldr	r3, [r7, #4]
 1133 0072 1A60     		str	r2, [r3, #0]
 1134              	.L58:
 503:App/STM32F4-Discovery/Libraries/STM32F4xx_StdPeriph_Driver/src/stm32f4xx_can.c ****   }
 504:App/STM32F4-Discovery/Libraries/STM32F4xx_StdPeriph_Driver/src/stm32f4xx_can.c **** }
 1135              		.loc 1 504 0
 1136 0074 07F10807 		add	r7, r7, #8
 1137 0078 BD46     		mov	sp, r7
 1138 007a 80BD     		pop	{r7, pc}
 1139              		.cfi_endproc
 1140              	.LFE115:
 1142              		.section	.text.CAN_TTComModeCmd,"ax",%progbits
 1143              		.align	2
 1144              		.global	CAN_TTComModeCmd
 1145              		.thumb
 1146              		.thumb_func
 1148              	CAN_TTComModeCmd:
 1149              	.LFB116:
 505:App/STM32F4-Discovery/Libraries/STM32F4xx_StdPeriph_Driver/src/stm32f4xx_can.c **** 
 506:App/STM32F4-Discovery/Libraries/STM32F4xx_StdPeriph_Driver/src/stm32f4xx_can.c **** 
 507:App/STM32F4-Discovery/Libraries/STM32F4xx_StdPeriph_Driver/src/stm32f4xx_can.c **** /**
 508:App/STM32F4-Discovery/Libraries/STM32F4xx_StdPeriph_Driver/src/stm32f4xx_can.c ****   * @brief  Enables or disables the CAN Time TriggerOperation communication mode.
 509:App/STM32F4-Discovery/Libraries/STM32F4xx_StdPeriph_Driver/src/stm32f4xx_can.c ****   * @note   DLC must be programmed as 8 in order Time Stamp (2 bytes) to be 
 510:App/STM32F4-Discovery/Libraries/STM32F4xx_StdPeriph_Driver/src/stm32f4xx_can.c ****   *         sent over the CAN bus.  
 511:App/STM32F4-Discovery/Libraries/STM32F4xx_StdPeriph_Driver/src/stm32f4xx_can.c ****   * @param  CANx: where x can be 1 or 2 to to select the CAN peripheral.
 512:App/STM32F4-Discovery/Libraries/STM32F4xx_StdPeriph_Driver/src/stm32f4xx_can.c ****   * @param  NewState: Mode new state. This parameter can be: ENABLE or DISABLE.
 513:App/STM32F4-Discovery/Libraries/STM32F4xx_StdPeriph_Driver/src/stm32f4xx_can.c ****   *         When enabled, Time stamp (TIME[15:0]) value is  sent in the last two
 514:App/STM32F4-Discovery/Libraries/STM32F4xx_StdPeriph_Driver/src/stm32f4xx_can.c ****   *         data bytes of the 8-byte message: TIME[7:0] in data byte 6 and TIME[15:8] 
 515:App/STM32F4-Discovery/Libraries/STM32F4xx_StdPeriph_Driver/src/stm32f4xx_can.c ****   *         in data byte 7. 
 516:App/STM32F4-Discovery/Libraries/STM32F4xx_StdPeriph_Driver/src/stm32f4xx_can.c ****   * @retval None
 517:App/STM32F4-Discovery/Libraries/STM32F4xx_StdPeriph_Driver/src/stm32f4xx_can.c ****   */
 518:App/STM32F4-Discovery/Libraries/STM32F4xx_StdPeriph_Driver/src/stm32f4xx_can.c **** void CAN_TTComModeCmd(CAN_TypeDef* CANx, FunctionalState NewState)
 519:App/STM32F4-Discovery/Libraries/STM32F4xx_StdPeriph_Driver/src/stm32f4xx_can.c **** {
 1150              		.loc 1 519 0
 1151              		.cfi_startproc
 1152              		@ args = 0, pretend = 0, frame = 8
 1153              		@ frame_needed = 1, uses_anonymous_args = 0
 1154 0000 80B5     		push	{r7, lr}
 1155              	.LCFI18:
 1156              		.cfi_def_cfa_offset 8
 1157              		.cfi_offset 7, -8
 1158              		.cfi_offset 14, -4
 1159 0002 82B0     		sub	sp, sp, #8
 1160              	.LCFI19:
 1161              		.cfi_def_cfa_offset 16
 1162 0004 00AF     		add	r7, sp, #0
 1163              	.LCFI20:
 1164              		.cfi_def_cfa_register 7
 1165 0006 7860     		str	r0, [r7, #4]
 1166 0008 0B46     		mov	r3, r1
 1167 000a FB70     		strb	r3, [r7, #3]
 520:App/STM32F4-Discovery/Libraries/STM32F4xx_StdPeriph_Driver/src/stm32f4xx_can.c ****   /* Check the parameters */
 521:App/STM32F4-Discovery/Libraries/STM32F4xx_StdPeriph_Driver/src/stm32f4xx_can.c ****   assert_param(IS_CAN_ALL_PERIPH(CANx));
 1168              		.loc 1 521 0
 1169 000c 7A68     		ldr	r2, [r7, #4]
 1170 000e 4FF4C843 		mov	r3, #25600
 1171 0012 C4F20003 		movt	r3, 16384
 1172 0016 9A42     		cmp	r2, r3
 1173 0018 0ED0     		beq	.L64
 1174              		.loc 1 521 0 is_stmt 0 discriminator 1
 1175 001a 7A68     		ldr	r2, [r7, #4]
 1176 001c 4FF4D043 		mov	r3, #26624
 1177 0020 C4F20003 		movt	r3, 16384
 1178 0024 9A42     		cmp	r2, r3
 1179 0026 07D0     		beq	.L64
 1180              		.loc 1 521 0 discriminator 2
 1181 0028 40F20000 		movw	r0, #:lower16:.LC0
 1182 002c C0F20000 		movt	r0, #:upper16:.LC0
 1183 0030 40F20921 		movw	r1, #521
 1184 0034 FFF7FEFF 		bl	assert_failed
 1185              	.L64:
 522:App/STM32F4-Discovery/Libraries/STM32F4xx_StdPeriph_Driver/src/stm32f4xx_can.c ****   assert_param(IS_FUNCTIONAL_STATE(NewState));
 1186              		.loc 1 522 0 is_stmt 1
 1187 0038 FB78     		ldrb	r3, [r7, #3]	@ zero_extendqisi2
 1188 003a 002B     		cmp	r3, #0
 1189 003c 0AD0     		beq	.L65
 1190              		.loc 1 522 0 is_stmt 0 discriminator 1
 1191 003e FB78     		ldrb	r3, [r7, #3]	@ zero_extendqisi2
 1192 0040 012B     		cmp	r3, #1
 1193 0042 07D0     		beq	.L65
 1194              		.loc 1 522 0 discriminator 2
 1195 0044 40F20000 		movw	r0, #:lower16:.LC0
 1196 0048 C0F20000 		movt	r0, #:upper16:.LC0
 1197 004c 40F20A21 		movw	r1, #522
 1198 0050 FFF7FEFF 		bl	assert_failed
 1199              	.L65:
 523:App/STM32F4-Discovery/Libraries/STM32F4xx_StdPeriph_Driver/src/stm32f4xx_can.c ****   if (NewState != DISABLE)
 1200              		.loc 1 523 0 is_stmt 1
 1201 0054 FB78     		ldrb	r3, [r7, #3]	@ zero_extendqisi2
 1202 0056 002B     		cmp	r3, #0
 1203 0058 1ED0     		beq	.L66
 524:App/STM32F4-Discovery/Libraries/STM32F4xx_StdPeriph_Driver/src/stm32f4xx_can.c ****   {
 525:App/STM32F4-Discovery/Libraries/STM32F4xx_StdPeriph_Driver/src/stm32f4xx_can.c ****     /* Enable the TTCM mode */
 526:App/STM32F4-Discovery/Libraries/STM32F4xx_StdPeriph_Driver/src/stm32f4xx_can.c ****     CANx->MCR |= CAN_MCR_TTCM;
 1204              		.loc 1 526 0
 1205 005a 7B68     		ldr	r3, [r7, #4]
 1206 005c 1B68     		ldr	r3, [r3, #0]
 1207 005e 43F08002 		orr	r2, r3, #128
 1208 0062 7B68     		ldr	r3, [r7, #4]
 1209 0064 1A60     		str	r2, [r3, #0]
 527:App/STM32F4-Discovery/Libraries/STM32F4xx_StdPeriph_Driver/src/stm32f4xx_can.c **** 
 528:App/STM32F4-Discovery/Libraries/STM32F4xx_StdPeriph_Driver/src/stm32f4xx_can.c ****     /* Set TGT bits */
 529:App/STM32F4-Discovery/Libraries/STM32F4xx_StdPeriph_Driver/src/stm32f4xx_can.c ****     CANx->sTxMailBox[0].TDTR |= ((uint32_t)CAN_TDT0R_TGT);
 1210              		.loc 1 529 0
 1211 0066 7B68     		ldr	r3, [r7, #4]
 1212 0068 D3F88431 		ldr	r3, [r3, #388]
 1213 006c 43F48072 		orr	r2, r3, #256
 1214 0070 7B68     		ldr	r3, [r7, #4]
 1215 0072 C3F88421 		str	r2, [r3, #388]
 530:App/STM32F4-Discovery/Libraries/STM32F4xx_StdPeriph_Driver/src/stm32f4xx_can.c ****     CANx->sTxMailBox[1].TDTR |= ((uint32_t)CAN_TDT1R_TGT);
 1216              		.loc 1 530 0
 1217 0076 7B68     		ldr	r3, [r7, #4]
 1218 0078 D3F89431 		ldr	r3, [r3, #404]
 1219 007c 43F48072 		orr	r2, r3, #256
 1220 0080 7B68     		ldr	r3, [r7, #4]
 1221 0082 C3F89421 		str	r2, [r3, #404]
 531:App/STM32F4-Discovery/Libraries/STM32F4xx_StdPeriph_Driver/src/stm32f4xx_can.c ****     CANx->sTxMailBox[2].TDTR |= ((uint32_t)CAN_TDT2R_TGT);
 1222              		.loc 1 531 0
 1223 0086 7B68     		ldr	r3, [r7, #4]
 1224 0088 D3F8A431 		ldr	r3, [r3, #420]
 1225 008c 43F48072 		orr	r2, r3, #256
 1226 0090 7B68     		ldr	r3, [r7, #4]
 1227 0092 C3F8A421 		str	r2, [r3, #420]
 1228 0096 1DE0     		b	.L63
 1229              	.L66:
 532:App/STM32F4-Discovery/Libraries/STM32F4xx_StdPeriph_Driver/src/stm32f4xx_can.c ****   }
 533:App/STM32F4-Discovery/Libraries/STM32F4xx_StdPeriph_Driver/src/stm32f4xx_can.c ****   else
 534:App/STM32F4-Discovery/Libraries/STM32F4xx_StdPeriph_Driver/src/stm32f4xx_can.c ****   {
 535:App/STM32F4-Discovery/Libraries/STM32F4xx_StdPeriph_Driver/src/stm32f4xx_can.c ****     /* Disable the TTCM mode */
 536:App/STM32F4-Discovery/Libraries/STM32F4xx_StdPeriph_Driver/src/stm32f4xx_can.c ****     CANx->MCR &= (uint32_t)(~(uint32_t)CAN_MCR_TTCM);
 1230              		.loc 1 536 0
 1231 0098 7B68     		ldr	r3, [r7, #4]
 1232 009a 1B68     		ldr	r3, [r3, #0]
 1233 009c 23F08002 		bic	r2, r3, #128
 1234 00a0 7B68     		ldr	r3, [r7, #4]
 1235 00a2 1A60     		str	r2, [r3, #0]
 537:App/STM32F4-Discovery/Libraries/STM32F4xx_StdPeriph_Driver/src/stm32f4xx_can.c **** 
 538:App/STM32F4-Discovery/Libraries/STM32F4xx_StdPeriph_Driver/src/stm32f4xx_can.c ****     /* Reset TGT bits */
 539:App/STM32F4-Discovery/Libraries/STM32F4xx_StdPeriph_Driver/src/stm32f4xx_can.c ****     CANx->sTxMailBox[0].TDTR &= ((uint32_t)~CAN_TDT0R_TGT);
 1236              		.loc 1 539 0
 1237 00a4 7B68     		ldr	r3, [r7, #4]
 1238 00a6 D3F88431 		ldr	r3, [r3, #388]
 1239 00aa 23F48072 		bic	r2, r3, #256
 1240 00ae 7B68     		ldr	r3, [r7, #4]
 1241 00b0 C3F88421 		str	r2, [r3, #388]
 540:App/STM32F4-Discovery/Libraries/STM32F4xx_StdPeriph_Driver/src/stm32f4xx_can.c ****     CANx->sTxMailBox[1].TDTR &= ((uint32_t)~CAN_TDT1R_TGT);
 1242              		.loc 1 540 0
 1243 00b4 7B68     		ldr	r3, [r7, #4]
 1244 00b6 D3F89431 		ldr	r3, [r3, #404]
 1245 00ba 23F48072 		bic	r2, r3, #256
 1246 00be 7B68     		ldr	r3, [r7, #4]
 1247 00c0 C3F89421 		str	r2, [r3, #404]
 541:App/STM32F4-Discovery/Libraries/STM32F4xx_StdPeriph_Driver/src/stm32f4xx_can.c ****     CANx->sTxMailBox[2].TDTR &= ((uint32_t)~CAN_TDT2R_TGT);
 1248              		.loc 1 541 0
 1249 00c4 7B68     		ldr	r3, [r7, #4]
 1250 00c6 D3F8A431 		ldr	r3, [r3, #420]
 1251 00ca 23F48072 		bic	r2, r3, #256
 1252 00ce 7B68     		ldr	r3, [r7, #4]
 1253 00d0 C3F8A421 		str	r2, [r3, #420]
 1254              	.L63:
 542:App/STM32F4-Discovery/Libraries/STM32F4xx_StdPeriph_Driver/src/stm32f4xx_can.c ****   }
 543:App/STM32F4-Discovery/Libraries/STM32F4xx_StdPeriph_Driver/src/stm32f4xx_can.c **** }
 1255              		.loc 1 543 0
 1256 00d4 07F10807 		add	r7, r7, #8
 1257 00d8 BD46     		mov	sp, r7
 1258 00da 80BD     		pop	{r7, pc}
 1259              		.cfi_endproc
 1260              	.LFE116:
 1262              		.section	.text.CAN_Transmit,"ax",%progbits
 1263              		.align	2
 1264              		.global	CAN_Transmit
 1265              		.thumb
 1266              		.thumb_func
 1268              	CAN_Transmit:
 1269              	.LFB117:
 544:App/STM32F4-Discovery/Libraries/STM32F4xx_StdPeriph_Driver/src/stm32f4xx_can.c **** /**
 545:App/STM32F4-Discovery/Libraries/STM32F4xx_StdPeriph_Driver/src/stm32f4xx_can.c ****   * @}
 546:App/STM32F4-Discovery/Libraries/STM32F4xx_StdPeriph_Driver/src/stm32f4xx_can.c ****   */
 547:App/STM32F4-Discovery/Libraries/STM32F4xx_StdPeriph_Driver/src/stm32f4xx_can.c **** 
 548:App/STM32F4-Discovery/Libraries/STM32F4xx_StdPeriph_Driver/src/stm32f4xx_can.c **** 
 549:App/STM32F4-Discovery/Libraries/STM32F4xx_StdPeriph_Driver/src/stm32f4xx_can.c **** /** @defgroup CAN_Group2 CAN Frames Transmission functions
 550:App/STM32F4-Discovery/Libraries/STM32F4xx_StdPeriph_Driver/src/stm32f4xx_can.c ****  *  @brief    CAN Frames Transmission functions 
 551:App/STM32F4-Discovery/Libraries/STM32F4xx_StdPeriph_Driver/src/stm32f4xx_can.c ****  *
 552:App/STM32F4-Discovery/Libraries/STM32F4xx_StdPeriph_Driver/src/stm32f4xx_can.c **** @verbatim    
 553:App/STM32F4-Discovery/Libraries/STM32F4xx_StdPeriph_Driver/src/stm32f4xx_can.c ****  ===============================================================================
 554:App/STM32F4-Discovery/Libraries/STM32F4xx_StdPeriph_Driver/src/stm32f4xx_can.c ****                       CAN Frames Transmission functions
 555:App/STM32F4-Discovery/Libraries/STM32F4xx_StdPeriph_Driver/src/stm32f4xx_can.c ****  ===============================================================================  
 556:App/STM32F4-Discovery/Libraries/STM32F4xx_StdPeriph_Driver/src/stm32f4xx_can.c ****   This section provides functions allowing to 
 557:App/STM32F4-Discovery/Libraries/STM32F4xx_StdPeriph_Driver/src/stm32f4xx_can.c ****    - Initiate and transmit a CAN frame message (if there is an empty mailbox).
 558:App/STM32F4-Discovery/Libraries/STM32F4xx_StdPeriph_Driver/src/stm32f4xx_can.c ****    - Check the transmission status of a CAN Frame
 559:App/STM32F4-Discovery/Libraries/STM32F4xx_StdPeriph_Driver/src/stm32f4xx_can.c ****    - Cancel a transmit request
 560:App/STM32F4-Discovery/Libraries/STM32F4xx_StdPeriph_Driver/src/stm32f4xx_can.c ****    
 561:App/STM32F4-Discovery/Libraries/STM32F4xx_StdPeriph_Driver/src/stm32f4xx_can.c **** @endverbatim
 562:App/STM32F4-Discovery/Libraries/STM32F4xx_StdPeriph_Driver/src/stm32f4xx_can.c ****   * @{
 563:App/STM32F4-Discovery/Libraries/STM32F4xx_StdPeriph_Driver/src/stm32f4xx_can.c ****   */
 564:App/STM32F4-Discovery/Libraries/STM32F4xx_StdPeriph_Driver/src/stm32f4xx_can.c **** 
 565:App/STM32F4-Discovery/Libraries/STM32F4xx_StdPeriph_Driver/src/stm32f4xx_can.c **** /**
 566:App/STM32F4-Discovery/Libraries/STM32F4xx_StdPeriph_Driver/src/stm32f4xx_can.c ****   * @brief  Initiates and transmits a CAN frame message.
 567:App/STM32F4-Discovery/Libraries/STM32F4xx_StdPeriph_Driver/src/stm32f4xx_can.c ****   * @param  CANx: where x can be 1 or 2 to to select the CAN peripheral.
 568:App/STM32F4-Discovery/Libraries/STM32F4xx_StdPeriph_Driver/src/stm32f4xx_can.c ****   * @param  TxMessage: pointer to a structure which contains CAN Id, CAN DLC and CAN data.
 569:App/STM32F4-Discovery/Libraries/STM32F4xx_StdPeriph_Driver/src/stm32f4xx_can.c ****   * @retval The number of the mailbox that is used for transmission or
 570:App/STM32F4-Discovery/Libraries/STM32F4xx_StdPeriph_Driver/src/stm32f4xx_can.c ****   *         CAN_TxStatus_NoMailBox if there is no empty mailbox.
 571:App/STM32F4-Discovery/Libraries/STM32F4xx_StdPeriph_Driver/src/stm32f4xx_can.c ****   */
 572:App/STM32F4-Discovery/Libraries/STM32F4xx_StdPeriph_Driver/src/stm32f4xx_can.c **** uint8_t CAN_Transmit(CAN_TypeDef* CANx, CanTxMsg* TxMessage)
 573:App/STM32F4-Discovery/Libraries/STM32F4xx_StdPeriph_Driver/src/stm32f4xx_can.c **** {
 1270              		.loc 1 573 0
 1271              		.cfi_startproc
 1272              		@ args = 0, pretend = 0, frame = 16
 1273              		@ frame_needed = 1, uses_anonymous_args = 0
 1274 0000 80B5     		push	{r7, lr}
 1275              	.LCFI21:
 1276              		.cfi_def_cfa_offset 8
 1277              		.cfi_offset 7, -8
 1278              		.cfi_offset 14, -4
 1279 0002 84B0     		sub	sp, sp, #16
 1280              	.LCFI22:
 1281              		.cfi_def_cfa_offset 24
 1282 0004 00AF     		add	r7, sp, #0
 1283              	.LCFI23:
 1284              		.cfi_def_cfa_register 7
 1285 0006 7860     		str	r0, [r7, #4]
 1286 0008 3960     		str	r1, [r7, #0]
 574:App/STM32F4-Discovery/Libraries/STM32F4xx_StdPeriph_Driver/src/stm32f4xx_can.c ****   uint8_t transmit_mailbox = 0;
 1287              		.loc 1 574 0
 1288 000a 4FF00003 		mov	r3, #0
 1289 000e FB73     		strb	r3, [r7, #15]
 575:App/STM32F4-Discovery/Libraries/STM32F4xx_StdPeriph_Driver/src/stm32f4xx_can.c ****   /* Check the parameters */
 576:App/STM32F4-Discovery/Libraries/STM32F4xx_StdPeriph_Driver/src/stm32f4xx_can.c ****   assert_param(IS_CAN_ALL_PERIPH(CANx));
 1290              		.loc 1 576 0
 1291 0010 7A68     		ldr	r2, [r7, #4]
 1292 0012 4FF4C843 		mov	r3, #25600
 1293 0016 C4F20003 		movt	r3, 16384
 1294 001a 9A42     		cmp	r2, r3
 1295 001c 0ED0     		beq	.L69
 1296              		.loc 1 576 0 is_stmt 0 discriminator 1
 1297 001e 7A68     		ldr	r2, [r7, #4]
 1298 0020 4FF4D043 		mov	r3, #26624
 1299 0024 C4F20003 		movt	r3, 16384
 1300 0028 9A42     		cmp	r2, r3
 1301 002a 07D0     		beq	.L69
 1302              		.loc 1 576 0 discriminator 2
 1303 002c 40F20000 		movw	r0, #:lower16:.LC0
 1304 0030 C0F20000 		movt	r0, #:upper16:.LC0
 1305 0034 4FF41071 		mov	r1, #576
 1306 0038 FFF7FEFF 		bl	assert_failed
 1307              	.L69:
 577:App/STM32F4-Discovery/Libraries/STM32F4xx_StdPeriph_Driver/src/stm32f4xx_can.c ****   assert_param(IS_CAN_IDTYPE(TxMessage->IDE));
 1308              		.loc 1 577 0 is_stmt 1
 1309 003c 3B68     		ldr	r3, [r7, #0]
 1310 003e 1B7A     		ldrb	r3, [r3, #8]	@ zero_extendqisi2
 1311 0040 002B     		cmp	r3, #0
 1312 0042 0BD0     		beq	.L70
 1313              		.loc 1 577 0 is_stmt 0 discriminator 1
 1314 0044 3B68     		ldr	r3, [r7, #0]
 1315 0046 1B7A     		ldrb	r3, [r3, #8]	@ zero_extendqisi2
 1316 0048 042B     		cmp	r3, #4
 1317 004a 07D0     		beq	.L70
 1318              		.loc 1 577 0 discriminator 2
 1319 004c 40F20000 		movw	r0, #:lower16:.LC0
 1320 0050 C0F20000 		movt	r0, #:upper16:.LC0
 1321 0054 40F24121 		movw	r1, #577
 1322 0058 FFF7FEFF 		bl	assert_failed
 1323              	.L70:
 578:App/STM32F4-Discovery/Libraries/STM32F4xx_StdPeriph_Driver/src/stm32f4xx_can.c ****   assert_param(IS_CAN_RTR(TxMessage->RTR));
 1324              		.loc 1 578 0 is_stmt 1
 1325 005c 3B68     		ldr	r3, [r7, #0]
 1326 005e 5B7A     		ldrb	r3, [r3, #9]	@ zero_extendqisi2
 1327 0060 002B     		cmp	r3, #0
 1328 0062 0BD0     		beq	.L71
 1329              		.loc 1 578 0 is_stmt 0 discriminator 1
 1330 0064 3B68     		ldr	r3, [r7, #0]
 1331 0066 5B7A     		ldrb	r3, [r3, #9]	@ zero_extendqisi2
 1332 0068 022B     		cmp	r3, #2
 1333 006a 07D0     		beq	.L71
 1334              		.loc 1 578 0 discriminator 2
 1335 006c 40F20000 		movw	r0, #:lower16:.LC0
 1336 0070 C0F20000 		movt	r0, #:upper16:.LC0
 1337 0074 40F24221 		movw	r1, #578
 1338 0078 FFF7FEFF 		bl	assert_failed
 1339              	.L71:
 579:App/STM32F4-Discovery/Libraries/STM32F4xx_StdPeriph_Driver/src/stm32f4xx_can.c ****   assert_param(IS_CAN_DLC(TxMessage->DLC));
 1340              		.loc 1 579 0 is_stmt 1
 1341 007c 3B68     		ldr	r3, [r7, #0]
 1342 007e 9B7A     		ldrb	r3, [r3, #10]	@ zero_extendqisi2
 1343 0080 082B     		cmp	r3, #8
 1344 0082 07D9     		bls	.L72
 1345              		.loc 1 579 0 is_stmt 0 discriminator 1
 1346 0084 40F20000 		movw	r0, #:lower16:.LC0
 1347 0088 C0F20000 		movt	r0, #:upper16:.LC0
 1348 008c 40F24321 		movw	r1, #579
 1349 0090 FFF7FEFF 		bl	assert_failed
 1350              	.L72:
 580:App/STM32F4-Discovery/Libraries/STM32F4xx_StdPeriph_Driver/src/stm32f4xx_can.c **** 
 581:App/STM32F4-Discovery/Libraries/STM32F4xx_StdPeriph_Driver/src/stm32f4xx_can.c ****   /* Select one empty transmit mailbox */
 582:App/STM32F4-Discovery/Libraries/STM32F4xx_StdPeriph_Driver/src/stm32f4xx_can.c ****   if ((CANx->TSR&CAN_TSR_TME0) == CAN_TSR_TME0)
 1351              		.loc 1 582 0 is_stmt 1
 1352 0094 7B68     		ldr	r3, [r7, #4]
 1353 0096 9B68     		ldr	r3, [r3, #8]
 1354 0098 03F08063 		and	r3, r3, #67108864
 1355 009c 002B     		cmp	r3, #0
 1356 009e 03D0     		beq	.L73
 583:App/STM32F4-Discovery/Libraries/STM32F4xx_StdPeriph_Driver/src/stm32f4xx_can.c ****   {
 584:App/STM32F4-Discovery/Libraries/STM32F4xx_StdPeriph_Driver/src/stm32f4xx_can.c ****     transmit_mailbox = 0;
 1357              		.loc 1 584 0
 1358 00a0 4FF00003 		mov	r3, #0
 1359 00a4 FB73     		strb	r3, [r7, #15]
 1360 00a6 16E0     		b	.L74
 1361              	.L73:
 585:App/STM32F4-Discovery/Libraries/STM32F4xx_StdPeriph_Driver/src/stm32f4xx_can.c ****   }
 586:App/STM32F4-Discovery/Libraries/STM32F4xx_StdPeriph_Driver/src/stm32f4xx_can.c ****   else if ((CANx->TSR&CAN_TSR_TME1) == CAN_TSR_TME1)
 1362              		.loc 1 586 0
 1363 00a8 7B68     		ldr	r3, [r7, #4]
 1364 00aa 9B68     		ldr	r3, [r3, #8]
 1365 00ac 03F00063 		and	r3, r3, #134217728
 1366 00b0 002B     		cmp	r3, #0
 1367 00b2 03D0     		beq	.L75
 587:App/STM32F4-Discovery/Libraries/STM32F4xx_StdPeriph_Driver/src/stm32f4xx_can.c ****   {
 588:App/STM32F4-Discovery/Libraries/STM32F4xx_StdPeriph_Driver/src/stm32f4xx_can.c ****     transmit_mailbox = 1;
 1368              		.loc 1 588 0
 1369 00b4 4FF00103 		mov	r3, #1
 1370 00b8 FB73     		strb	r3, [r7, #15]
 1371 00ba 0CE0     		b	.L74
 1372              	.L75:
 589:App/STM32F4-Discovery/Libraries/STM32F4xx_StdPeriph_Driver/src/stm32f4xx_can.c ****   }
 590:App/STM32F4-Discovery/Libraries/STM32F4xx_StdPeriph_Driver/src/stm32f4xx_can.c ****   else if ((CANx->TSR&CAN_TSR_TME2) == CAN_TSR_TME2)
 1373              		.loc 1 590 0
 1374 00bc 7B68     		ldr	r3, [r7, #4]
 1375 00be 9B68     		ldr	r3, [r3, #8]
 1376 00c0 03F08053 		and	r3, r3, #268435456
 1377 00c4 002B     		cmp	r3, #0
 1378 00c6 03D0     		beq	.L76
 591:App/STM32F4-Discovery/Libraries/STM32F4xx_StdPeriph_Driver/src/stm32f4xx_can.c ****   {
 592:App/STM32F4-Discovery/Libraries/STM32F4xx_StdPeriph_Driver/src/stm32f4xx_can.c ****     transmit_mailbox = 2;
 1379              		.loc 1 592 0
 1380 00c8 4FF00203 		mov	r3, #2
 1381 00cc FB73     		strb	r3, [r7, #15]
 1382 00ce 02E0     		b	.L74
 1383              	.L76:
 593:App/STM32F4-Discovery/Libraries/STM32F4xx_StdPeriph_Driver/src/stm32f4xx_can.c ****   }
 594:App/STM32F4-Discovery/Libraries/STM32F4xx_StdPeriph_Driver/src/stm32f4xx_can.c ****   else
 595:App/STM32F4-Discovery/Libraries/STM32F4xx_StdPeriph_Driver/src/stm32f4xx_can.c ****   {
 596:App/STM32F4-Discovery/Libraries/STM32F4xx_StdPeriph_Driver/src/stm32f4xx_can.c ****     transmit_mailbox = CAN_TxStatus_NoMailBox;
 1384              		.loc 1 596 0
 1385 00d0 4FF00403 		mov	r3, #4
 1386 00d4 FB73     		strb	r3, [r7, #15]
 1387              	.L74:
 597:App/STM32F4-Discovery/Libraries/STM32F4xx_StdPeriph_Driver/src/stm32f4xx_can.c ****   }
 598:App/STM32F4-Discovery/Libraries/STM32F4xx_StdPeriph_Driver/src/stm32f4xx_can.c **** 
 599:App/STM32F4-Discovery/Libraries/STM32F4xx_StdPeriph_Driver/src/stm32f4xx_can.c ****   if (transmit_mailbox != CAN_TxStatus_NoMailBox)
 1388              		.loc 1 599 0
 1389 00d6 FB7B     		ldrb	r3, [r7, #15]	@ zero_extendqisi2
 1390 00d8 042B     		cmp	r3, #4
 1391 00da 00F0D680 		beq	.L77
 600:App/STM32F4-Discovery/Libraries/STM32F4xx_StdPeriph_Driver/src/stm32f4xx_can.c ****   {
 601:App/STM32F4-Discovery/Libraries/STM32F4xx_StdPeriph_Driver/src/stm32f4xx_can.c ****     /* Set up the Id */
 602:App/STM32F4-Discovery/Libraries/STM32F4xx_StdPeriph_Driver/src/stm32f4xx_can.c ****     CANx->sTxMailBox[transmit_mailbox].TIR &= TMIDxR_TXRQ;
 1392              		.loc 1 602 0
 1393 00de FB7B     		ldrb	r3, [r7, #15]	@ zero_extendqisi2
 1394 00e0 FA7B     		ldrb	r2, [r7, #15]	@ zero_extendqisi2
 1395 00e2 7968     		ldr	r1, [r7, #4]
 1396 00e4 02F11802 		add	r2, r2, #24
 1397 00e8 4FEA0212 		lsl	r2, r2, #4
 1398 00ec 8A18     		adds	r2, r1, r2
 1399 00ee 1268     		ldr	r2, [r2, #0]
 1400 00f0 02F00102 		and	r2, r2, #1
 1401 00f4 7968     		ldr	r1, [r7, #4]
 1402 00f6 03F11803 		add	r3, r3, #24
 1403 00fa 4FEA0313 		lsl	r3, r3, #4
 1404 00fe CB18     		adds	r3, r1, r3
 1405 0100 1A60     		str	r2, [r3, #0]
 603:App/STM32F4-Discovery/Libraries/STM32F4xx_StdPeriph_Driver/src/stm32f4xx_can.c ****     if (TxMessage->IDE == CAN_Id_Standard)
 1406              		.loc 1 603 0
 1407 0102 3B68     		ldr	r3, [r7, #0]
 1408 0104 1B7A     		ldrb	r3, [r3, #8]	@ zero_extendqisi2
 1409 0106 002B     		cmp	r3, #0
 1410 0108 26D1     		bne	.L78
 604:App/STM32F4-Discovery/Libraries/STM32F4xx_StdPeriph_Driver/src/stm32f4xx_can.c ****     {
 605:App/STM32F4-Discovery/Libraries/STM32F4xx_StdPeriph_Driver/src/stm32f4xx_can.c ****       assert_param(IS_CAN_STDID(TxMessage->StdId));  
 1411              		.loc 1 605 0
 1412 010a 3B68     		ldr	r3, [r7, #0]
 1413 010c 1A68     		ldr	r2, [r3, #0]
 1414 010e 40F2FF73 		movw	r3, #2047
 1415 0112 9A42     		cmp	r2, r3
 1416 0114 07D9     		bls	.L79
 1417              		.loc 1 605 0 is_stmt 0 discriminator 1
 1418 0116 40F20000 		movw	r0, #:lower16:.LC0
 1419 011a C0F20000 		movt	r0, #:upper16:.LC0
 1420 011e 40F25D21 		movw	r1, #605
 1421 0122 FFF7FEFF 		bl	assert_failed
 1422              	.L79:
 606:App/STM32F4-Discovery/Libraries/STM32F4xx_StdPeriph_Driver/src/stm32f4xx_can.c ****       CANx->sTxMailBox[transmit_mailbox].TIR |= ((TxMessage->StdId << 21) | \
 1423              		.loc 1 606 0 is_stmt 1
 1424 0126 FB7B     		ldrb	r3, [r7, #15]	@ zero_extendqisi2
 1425 0128 FA7B     		ldrb	r2, [r7, #15]	@ zero_extendqisi2
 1426 012a 7968     		ldr	r1, [r7, #4]
 1427 012c 02F11802 		add	r2, r2, #24
 1428 0130 4FEA0212 		lsl	r2, r2, #4
 1429 0134 8A18     		adds	r2, r1, r2
 1430 0136 1168     		ldr	r1, [r2, #0]
 1431 0138 3A68     		ldr	r2, [r7, #0]
 1432 013a 1268     		ldr	r2, [r2, #0]
 1433 013c 4FEA4250 		lsl	r0, r2, #21
 607:App/STM32F4-Discovery/Libraries/STM32F4xx_StdPeriph_Driver/src/stm32f4xx_can.c ****                                                   TxMessage->RTR);
 1434              		.loc 1 607 0
 1435 0140 3A68     		ldr	r2, [r7, #0]
 1436 0142 527A     		ldrb	r2, [r2, #9]	@ zero_extendqisi2
 606:App/STM32F4-Discovery/Libraries/STM32F4xx_StdPeriph_Driver/src/stm32f4xx_can.c ****       CANx->sTxMailBox[transmit_mailbox].TIR |= ((TxMessage->StdId << 21) | \
 1437              		.loc 1 606 0
 1438 0144 0243     		orrs	r2, r2, r0
 1439 0146 0A43     		orrs	r2, r2, r1
 1440 0148 7968     		ldr	r1, [r7, #4]
 1441 014a 03F11803 		add	r3, r3, #24
 1442 014e 4FEA0313 		lsl	r3, r3, #4
 1443 0152 CB18     		adds	r3, r1, r3
 1444 0154 1A60     		str	r2, [r3, #0]
 1445 0156 28E0     		b	.L80
 1446              	.L78:
 608:App/STM32F4-Discovery/Libraries/STM32F4xx_StdPeriph_Driver/src/stm32f4xx_can.c ****     }
 609:App/STM32F4-Discovery/Libraries/STM32F4xx_StdPeriph_Driver/src/stm32f4xx_can.c ****     else
 610:App/STM32F4-Discovery/Libraries/STM32F4xx_StdPeriph_Driver/src/stm32f4xx_can.c ****     {
 611:App/STM32F4-Discovery/Libraries/STM32F4xx_StdPeriph_Driver/src/stm32f4xx_can.c ****       assert_param(IS_CAN_EXTID(TxMessage->ExtId));
 1447              		.loc 1 611 0
 1448 0158 3B68     		ldr	r3, [r7, #0]
 1449 015a 5A68     		ldr	r2, [r3, #4]
 1450 015c 6FF06043 		mvn	r3, #-536870912
 1451 0160 9A42     		cmp	r2, r3
 1452 0162 07D9     		bls	.L81
 1453              		.loc 1 611 0 is_stmt 0 discriminator 1
 1454 0164 40F20000 		movw	r0, #:lower16:.LC0
 1455 0168 C0F20000 		movt	r0, #:upper16:.LC0
 1456 016c 40F26321 		movw	r1, #611
 1457 0170 FFF7FEFF 		bl	assert_failed
 1458              	.L81:
 612:App/STM32F4-Discovery/Libraries/STM32F4xx_StdPeriph_Driver/src/stm32f4xx_can.c ****       CANx->sTxMailBox[transmit_mailbox].TIR |= ((TxMessage->ExtId << 3) | \
 1459              		.loc 1 612 0 is_stmt 1
 1460 0174 FB7B     		ldrb	r3, [r7, #15]	@ zero_extendqisi2
 1461 0176 FA7B     		ldrb	r2, [r7, #15]	@ zero_extendqisi2
 1462 0178 7968     		ldr	r1, [r7, #4]
 1463 017a 02F11802 		add	r2, r2, #24
 1464 017e 4FEA0212 		lsl	r2, r2, #4
 1465 0182 8A18     		adds	r2, r1, r2
 1466 0184 1168     		ldr	r1, [r2, #0]
 1467 0186 3A68     		ldr	r2, [r7, #0]
 1468 0188 5268     		ldr	r2, [r2, #4]
 1469 018a 4FEAC200 		lsl	r0, r2, #3
 613:App/STM32F4-Discovery/Libraries/STM32F4xx_StdPeriph_Driver/src/stm32f4xx_can.c ****                                                   TxMessage->IDE | \
 1470              		.loc 1 613 0
 1471 018e 3A68     		ldr	r2, [r7, #0]
 1472 0190 127A     		ldrb	r2, [r2, #8]	@ zero_extendqisi2
 612:App/STM32F4-Discovery/Libraries/STM32F4xx_StdPeriph_Driver/src/stm32f4xx_can.c ****       CANx->sTxMailBox[transmit_mailbox].TIR |= ((TxMessage->ExtId << 3) | \
 1473              		.loc 1 612 0
 1474 0192 1043     		orrs	r0, r0, r2
 614:App/STM32F4-Discovery/Libraries/STM32F4xx_StdPeriph_Driver/src/stm32f4xx_can.c ****                                                   TxMessage->RTR);
 1475              		.loc 1 614 0
 1476 0194 3A68     		ldr	r2, [r7, #0]
 1477 0196 527A     		ldrb	r2, [r2, #9]	@ zero_extendqisi2
 613:App/STM32F4-Discovery/Libraries/STM32F4xx_StdPeriph_Driver/src/stm32f4xx_can.c ****                                                   TxMessage->IDE | \
 1478              		.loc 1 613 0
 1479 0198 0243     		orrs	r2, r2, r0
 612:App/STM32F4-Discovery/Libraries/STM32F4xx_StdPeriph_Driver/src/stm32f4xx_can.c ****       CANx->sTxMailBox[transmit_mailbox].TIR |= ((TxMessage->ExtId << 3) | \
 1480              		.loc 1 612 0
 1481 019a 0A43     		orrs	r2, r2, r1
 1482 019c 7968     		ldr	r1, [r7, #4]
 1483 019e 03F11803 		add	r3, r3, #24
 1484 01a2 4FEA0313 		lsl	r3, r3, #4
 1485 01a6 CB18     		adds	r3, r1, r3
 1486 01a8 1A60     		str	r2, [r3, #0]
 1487              	.L80:
 615:App/STM32F4-Discovery/Libraries/STM32F4xx_StdPeriph_Driver/src/stm32f4xx_can.c ****     }
 616:App/STM32F4-Discovery/Libraries/STM32F4xx_StdPeriph_Driver/src/stm32f4xx_can.c ****     
 617:App/STM32F4-Discovery/Libraries/STM32F4xx_StdPeriph_Driver/src/stm32f4xx_can.c ****     /* Set up the DLC */
 618:App/STM32F4-Discovery/Libraries/STM32F4xx_StdPeriph_Driver/src/stm32f4xx_can.c ****     TxMessage->DLC &= (uint8_t)0x0000000F;
 1488              		.loc 1 618 0
 1489 01aa 3B68     		ldr	r3, [r7, #0]
 1490 01ac 9B7A     		ldrb	r3, [r3, #10]	@ zero_extendqisi2
 1491 01ae 03F00F03 		and	r3, r3, #15
 1492 01b2 DAB2     		uxtb	r2, r3
 1493 01b4 3B68     		ldr	r3, [r7, #0]
 1494 01b6 9A72     		strb	r2, [r3, #10]
 619:App/STM32F4-Discovery/Libraries/STM32F4xx_StdPeriph_Driver/src/stm32f4xx_can.c ****     CANx->sTxMailBox[transmit_mailbox].TDTR &= (uint32_t)0xFFFFFFF0;
 1495              		.loc 1 619 0
 1496 01b8 FB7B     		ldrb	r3, [r7, #15]	@ zero_extendqisi2
 1497 01ba FA7B     		ldrb	r2, [r7, #15]	@ zero_extendqisi2
 1498 01bc 7968     		ldr	r1, [r7, #4]
 1499 01be 02F11802 		add	r2, r2, #24
 1500 01c2 4FEA0212 		lsl	r2, r2, #4
 1501 01c6 8A18     		adds	r2, r1, r2
 1502 01c8 5268     		ldr	r2, [r2, #4]
 1503 01ca 22F00F02 		bic	r2, r2, #15
 1504 01ce 7968     		ldr	r1, [r7, #4]
 1505 01d0 03F11803 		add	r3, r3, #24
 1506 01d4 4FEA0313 		lsl	r3, r3, #4
 1507 01d8 CB18     		adds	r3, r1, r3
 1508 01da 5A60     		str	r2, [r3, #4]
 620:App/STM32F4-Discovery/Libraries/STM32F4xx_StdPeriph_Driver/src/stm32f4xx_can.c ****     CANx->sTxMailBox[transmit_mailbox].TDTR |= TxMessage->DLC;
 1509              		.loc 1 620 0
 1510 01dc FB7B     		ldrb	r3, [r7, #15]	@ zero_extendqisi2
 1511 01de FA7B     		ldrb	r2, [r7, #15]	@ zero_extendqisi2
 1512 01e0 7968     		ldr	r1, [r7, #4]
 1513 01e2 02F11802 		add	r2, r2, #24
 1514 01e6 4FEA0212 		lsl	r2, r2, #4
 1515 01ea 8A18     		adds	r2, r1, r2
 1516 01ec 5168     		ldr	r1, [r2, #4]
 1517 01ee 3A68     		ldr	r2, [r7, #0]
 1518 01f0 927A     		ldrb	r2, [r2, #10]	@ zero_extendqisi2
 1519 01f2 0A43     		orrs	r2, r2, r1
 1520 01f4 7968     		ldr	r1, [r7, #4]
 1521 01f6 03F11803 		add	r3, r3, #24
 1522 01fa 4FEA0313 		lsl	r3, r3, #4
 1523 01fe CB18     		adds	r3, r1, r3
 1524 0200 5A60     		str	r2, [r3, #4]
 621:App/STM32F4-Discovery/Libraries/STM32F4xx_StdPeriph_Driver/src/stm32f4xx_can.c **** 
 622:App/STM32F4-Discovery/Libraries/STM32F4xx_StdPeriph_Driver/src/stm32f4xx_can.c ****     /* Set up the data field */
 623:App/STM32F4-Discovery/Libraries/STM32F4xx_StdPeriph_Driver/src/stm32f4xx_can.c ****     CANx->sTxMailBox[transmit_mailbox].TDLR = (((uint32_t)TxMessage->Data[3] << 24) | 
 1525              		.loc 1 623 0
 1526 0202 FB7B     		ldrb	r3, [r7, #15]	@ zero_extendqisi2
 1527 0204 3A68     		ldr	r2, [r7, #0]
 1528 0206 927B     		ldrb	r2, [r2, #14]	@ zero_extendqisi2
 1529 0208 4FEA0261 		lsl	r1, r2, #24
 624:App/STM32F4-Discovery/Libraries/STM32F4xx_StdPeriph_Driver/src/stm32f4xx_can.c ****                                              ((uint32_t)TxMessage->Data[2] << 16) |
 1530              		.loc 1 624 0
 1531 020c 3A68     		ldr	r2, [r7, #0]
 1532 020e 527B     		ldrb	r2, [r2, #13]	@ zero_extendqisi2
 1533 0210 4FEA0242 		lsl	r2, r2, #16
 623:App/STM32F4-Discovery/Libraries/STM32F4xx_StdPeriph_Driver/src/stm32f4xx_can.c ****     CANx->sTxMailBox[transmit_mailbox].TDLR = (((uint32_t)TxMessage->Data[3] << 24) | 
 1534              		.loc 1 623 0
 1535 0214 1143     		orrs	r1, r1, r2
 625:App/STM32F4-Discovery/Libraries/STM32F4xx_StdPeriph_Driver/src/stm32f4xx_can.c ****                                              ((uint32_t)TxMessage->Data[1] << 8) | 
 1536              		.loc 1 625 0
 1537 0216 3A68     		ldr	r2, [r7, #0]
 1538 0218 127B     		ldrb	r2, [r2, #12]	@ zero_extendqisi2
 1539 021a 4FEA0222 		lsl	r2, r2, #8
 624:App/STM32F4-Discovery/Libraries/STM32F4xx_StdPeriph_Driver/src/stm32f4xx_can.c ****                                              ((uint32_t)TxMessage->Data[2] << 16) |
 1540              		.loc 1 624 0
 1541 021e 1143     		orrs	r1, r1, r2
 626:App/STM32F4-Discovery/Libraries/STM32F4xx_StdPeriph_Driver/src/stm32f4xx_can.c ****                                              ((uint32_t)TxMessage->Data[0]));
 1542              		.loc 1 626 0
 1543 0220 3A68     		ldr	r2, [r7, #0]
 1544 0222 D27A     		ldrb	r2, [r2, #11]	@ zero_extendqisi2
 625:App/STM32F4-Discovery/Libraries/STM32F4xx_StdPeriph_Driver/src/stm32f4xx_can.c ****                                              ((uint32_t)TxMessage->Data[1] << 8) | 
 1545              		.loc 1 625 0
 1546 0224 0A43     		orrs	r2, r2, r1
 623:App/STM32F4-Discovery/Libraries/STM32F4xx_StdPeriph_Driver/src/stm32f4xx_can.c ****     CANx->sTxMailBox[transmit_mailbox].TDLR = (((uint32_t)TxMessage->Data[3] << 24) | 
 1547              		.loc 1 623 0
 1548 0226 7968     		ldr	r1, [r7, #4]
 1549 0228 4FEA0313 		lsl	r3, r3, #4
 1550 022c CB18     		adds	r3, r1, r3
 1551 022e 03F5C473 		add	r3, r3, #392
 1552 0232 1A60     		str	r2, [r3, #0]
 627:App/STM32F4-Discovery/Libraries/STM32F4xx_StdPeriph_Driver/src/stm32f4xx_can.c ****     CANx->sTxMailBox[transmit_mailbox].TDHR = (((uint32_t)TxMessage->Data[7] << 24) | 
 1553              		.loc 1 627 0
 1554 0234 FB7B     		ldrb	r3, [r7, #15]	@ zero_extendqisi2
 1555 0236 3A68     		ldr	r2, [r7, #0]
 1556 0238 927C     		ldrb	r2, [r2, #18]	@ zero_extendqisi2
 1557 023a 4FEA0261 		lsl	r1, r2, #24
 628:App/STM32F4-Discovery/Libraries/STM32F4xx_StdPeriph_Driver/src/stm32f4xx_can.c ****                                              ((uint32_t)TxMessage->Data[6] << 16) |
 1558              		.loc 1 628 0
 1559 023e 3A68     		ldr	r2, [r7, #0]
 1560 0240 527C     		ldrb	r2, [r2, #17]	@ zero_extendqisi2
 1561 0242 4FEA0242 		lsl	r2, r2, #16
 627:App/STM32F4-Discovery/Libraries/STM32F4xx_StdPeriph_Driver/src/stm32f4xx_can.c ****     CANx->sTxMailBox[transmit_mailbox].TDHR = (((uint32_t)TxMessage->Data[7] << 24) | 
 1562              		.loc 1 627 0
 1563 0246 1143     		orrs	r1, r1, r2
 629:App/STM32F4-Discovery/Libraries/STM32F4xx_StdPeriph_Driver/src/stm32f4xx_can.c ****                                              ((uint32_t)TxMessage->Data[5] << 8) |
 1564              		.loc 1 629 0
 1565 0248 3A68     		ldr	r2, [r7, #0]
 1566 024a 127C     		ldrb	r2, [r2, #16]	@ zero_extendqisi2
 1567 024c 4FEA0222 		lsl	r2, r2, #8
 628:App/STM32F4-Discovery/Libraries/STM32F4xx_StdPeriph_Driver/src/stm32f4xx_can.c ****                                              ((uint32_t)TxMessage->Data[6] << 16) |
 1568              		.loc 1 628 0
 1569 0250 1143     		orrs	r1, r1, r2
 630:App/STM32F4-Discovery/Libraries/STM32F4xx_StdPeriph_Driver/src/stm32f4xx_can.c ****                                              ((uint32_t)TxMessage->Data[4]));
 1570              		.loc 1 630 0
 1571 0252 3A68     		ldr	r2, [r7, #0]
 1572 0254 D27B     		ldrb	r2, [r2, #15]	@ zero_extendqisi2
 629:App/STM32F4-Discovery/Libraries/STM32F4xx_StdPeriph_Driver/src/stm32f4xx_can.c ****                                              ((uint32_t)TxMessage->Data[5] << 8) |
 1573              		.loc 1 629 0
 1574 0256 0A43     		orrs	r2, r2, r1
 627:App/STM32F4-Discovery/Libraries/STM32F4xx_StdPeriph_Driver/src/stm32f4xx_can.c ****     CANx->sTxMailBox[transmit_mailbox].TDHR = (((uint32_t)TxMessage->Data[7] << 24) | 
 1575              		.loc 1 627 0
 1576 0258 7968     		ldr	r1, [r7, #4]
 1577 025a 4FEA0313 		lsl	r3, r3, #4
 1578 025e CB18     		adds	r3, r1, r3
 1579 0260 03F5C473 		add	r3, r3, #392
 1580 0264 5A60     		str	r2, [r3, #4]
 631:App/STM32F4-Discovery/Libraries/STM32F4xx_StdPeriph_Driver/src/stm32f4xx_can.c ****     /* Request transmission */
 632:App/STM32F4-Discovery/Libraries/STM32F4xx_StdPeriph_Driver/src/stm32f4xx_can.c ****     CANx->sTxMailBox[transmit_mailbox].TIR |= TMIDxR_TXRQ;
 1581              		.loc 1 632 0
 1582 0266 FB7B     		ldrb	r3, [r7, #15]	@ zero_extendqisi2
 1583 0268 FA7B     		ldrb	r2, [r7, #15]	@ zero_extendqisi2
 1584 026a 7968     		ldr	r1, [r7, #4]
 1585 026c 02F11802 		add	r2, r2, #24
 1586 0270 4FEA0212 		lsl	r2, r2, #4
 1587 0274 8A18     		adds	r2, r1, r2
 1588 0276 1268     		ldr	r2, [r2, #0]
 1589 0278 42F00102 		orr	r2, r2, #1
 1590 027c 7968     		ldr	r1, [r7, #4]
 1591 027e 03F11803 		add	r3, r3, #24
 1592 0282 4FEA0313 		lsl	r3, r3, #4
 1593 0286 CB18     		adds	r3, r1, r3
 1594 0288 1A60     		str	r2, [r3, #0]
 1595              	.L77:
 633:App/STM32F4-Discovery/Libraries/STM32F4xx_StdPeriph_Driver/src/stm32f4xx_can.c ****   }
 634:App/STM32F4-Discovery/Libraries/STM32F4xx_StdPeriph_Driver/src/stm32f4xx_can.c ****   return transmit_mailbox;
 1596              		.loc 1 634 0
 1597 028a FB7B     		ldrb	r3, [r7, #15]	@ zero_extendqisi2
 635:App/STM32F4-Discovery/Libraries/STM32F4xx_StdPeriph_Driver/src/stm32f4xx_can.c **** }
 1598              		.loc 1 635 0
 1599 028c 1846     		mov	r0, r3
 1600 028e 07F11007 		add	r7, r7, #16
 1601 0292 BD46     		mov	sp, r7
 1602 0294 80BD     		pop	{r7, pc}
 1603              		.cfi_endproc
 1604              	.LFE117:
 1606 0296 00BF     		.section	.text.CAN_TransmitStatus,"ax",%progbits
 1607              		.align	2
 1608              		.global	CAN_TransmitStatus
 1609              		.thumb
 1610              		.thumb_func
 1612              	CAN_TransmitStatus:
 1613              	.LFB118:
 636:App/STM32F4-Discovery/Libraries/STM32F4xx_StdPeriph_Driver/src/stm32f4xx_can.c **** 
 637:App/STM32F4-Discovery/Libraries/STM32F4xx_StdPeriph_Driver/src/stm32f4xx_can.c **** /**
 638:App/STM32F4-Discovery/Libraries/STM32F4xx_StdPeriph_Driver/src/stm32f4xx_can.c ****   * @brief  Checks the transmission status of a CAN Frame.
 639:App/STM32F4-Discovery/Libraries/STM32F4xx_StdPeriph_Driver/src/stm32f4xx_can.c ****   * @param  CANx: where x can be 1 or 2 to select the CAN peripheral.
 640:App/STM32F4-Discovery/Libraries/STM32F4xx_StdPeriph_Driver/src/stm32f4xx_can.c ****   * @param  TransmitMailbox: the number of the mailbox that is used for transmission.
 641:App/STM32F4-Discovery/Libraries/STM32F4xx_StdPeriph_Driver/src/stm32f4xx_can.c ****   * @retval CAN_TxStatus_Ok if the CAN driver transmits the message, 
 642:App/STM32F4-Discovery/Libraries/STM32F4xx_StdPeriph_Driver/src/stm32f4xx_can.c ****   *         CAN_TxStatus_Failed in an other case.
 643:App/STM32F4-Discovery/Libraries/STM32F4xx_StdPeriph_Driver/src/stm32f4xx_can.c ****   */
 644:App/STM32F4-Discovery/Libraries/STM32F4xx_StdPeriph_Driver/src/stm32f4xx_can.c **** uint8_t CAN_TransmitStatus(CAN_TypeDef* CANx, uint8_t TransmitMailbox)
 645:App/STM32F4-Discovery/Libraries/STM32F4xx_StdPeriph_Driver/src/stm32f4xx_can.c **** {
 1614              		.loc 1 645 0
 1615              		.cfi_startproc
 1616              		@ args = 0, pretend = 0, frame = 16
 1617              		@ frame_needed = 1, uses_anonymous_args = 0
 1618 0000 80B5     		push	{r7, lr}
 1619              	.LCFI24:
 1620              		.cfi_def_cfa_offset 8
 1621              		.cfi_offset 7, -8
 1622              		.cfi_offset 14, -4
 1623 0002 84B0     		sub	sp, sp, #16
 1624              	.LCFI25:
 1625              		.cfi_def_cfa_offset 24
 1626 0004 00AF     		add	r7, sp, #0
 1627              	.LCFI26:
 1628              		.cfi_def_cfa_register 7
 1629 0006 7860     		str	r0, [r7, #4]
 1630 0008 0B46     		mov	r3, r1
 1631 000a FB70     		strb	r3, [r7, #3]
 646:App/STM32F4-Discovery/Libraries/STM32F4xx_StdPeriph_Driver/src/stm32f4xx_can.c ****   uint32_t state = 0;
 1632              		.loc 1 646 0
 1633 000c 4FF00003 		mov	r3, #0
 1634 0010 FB60     		str	r3, [r7, #12]
 647:App/STM32F4-Discovery/Libraries/STM32F4xx_StdPeriph_Driver/src/stm32f4xx_can.c **** 
 648:App/STM32F4-Discovery/Libraries/STM32F4xx_StdPeriph_Driver/src/stm32f4xx_can.c ****   /* Check the parameters */
 649:App/STM32F4-Discovery/Libraries/STM32F4xx_StdPeriph_Driver/src/stm32f4xx_can.c ****   assert_param(IS_CAN_ALL_PERIPH(CANx));
 1635              		.loc 1 649 0
 1636 0012 7A68     		ldr	r2, [r7, #4]
 1637 0014 4FF4C843 		mov	r3, #25600
 1638 0018 C4F20003 		movt	r3, 16384
 1639 001c 9A42     		cmp	r2, r3
 1640 001e 0ED0     		beq	.L84
 1641              		.loc 1 649 0 is_stmt 0 discriminator 1
 1642 0020 7A68     		ldr	r2, [r7, #4]
 1643 0022 4FF4D043 		mov	r3, #26624
 1644 0026 C4F20003 		movt	r3, 16384
 1645 002a 9A42     		cmp	r2, r3
 1646 002c 07D0     		beq	.L84
 1647              		.loc 1 649 0 discriminator 2
 1648 002e 40F20000 		movw	r0, #:lower16:.LC0
 1649 0032 C0F20000 		movt	r0, #:upper16:.LC0
 1650 0036 40F28921 		movw	r1, #649
 1651 003a FFF7FEFF 		bl	assert_failed
 1652              	.L84:
 650:App/STM32F4-Discovery/Libraries/STM32F4xx_StdPeriph_Driver/src/stm32f4xx_can.c ****   assert_param(IS_CAN_TRANSMITMAILBOX(TransmitMailbox));
 1653              		.loc 1 650 0 is_stmt 1
 1654 003e FB78     		ldrb	r3, [r7, #3]	@ zero_extendqisi2
 1655 0040 022B     		cmp	r3, #2
 1656 0042 07D9     		bls	.L85
 1657              		.loc 1 650 0 is_stmt 0 discriminator 1
 1658 0044 40F20000 		movw	r0, #:lower16:.LC0
 1659 0048 C0F20000 		movt	r0, #:upper16:.LC0
 1660 004c 40F28A21 		movw	r1, #650
 1661 0050 FFF7FEFF 		bl	assert_failed
 1662              	.L85:
 651:App/STM32F4-Discovery/Libraries/STM32F4xx_StdPeriph_Driver/src/stm32f4xx_can.c ****  
 652:App/STM32F4-Discovery/Libraries/STM32F4xx_StdPeriph_Driver/src/stm32f4xx_can.c ****   switch (TransmitMailbox)
 1663              		.loc 1 652 0 is_stmt 1
 1664 0054 FB78     		ldrb	r3, [r7, #3]	@ zero_extendqisi2
 1665 0056 012B     		cmp	r3, #1
 1666 0058 0CD0     		beq	.L88
 1667 005a 022B     		cmp	r3, #2
 1668 005c 13D0     		beq	.L89
 1669 005e 002B     		cmp	r3, #0
 1670 0060 1AD1     		bne	.L102
 1671              	.L87:
 653:App/STM32F4-Discovery/Libraries/STM32F4xx_StdPeriph_Driver/src/stm32f4xx_can.c ****   {
 654:App/STM32F4-Discovery/Libraries/STM32F4xx_StdPeriph_Driver/src/stm32f4xx_can.c ****     case (CAN_TXMAILBOX_0): 
 655:App/STM32F4-Discovery/Libraries/STM32F4xx_StdPeriph_Driver/src/stm32f4xx_can.c ****       state =   CANx->TSR &  (CAN_TSR_RQCP0 | CAN_TSR_TXOK0 | CAN_TSR_TME0);
 1672              		.loc 1 655 0
 1673 0062 7B68     		ldr	r3, [r7, #4]
 1674 0064 9A68     		ldr	r2, [r3, #8]
 1675 0066 4FF00303 		mov	r3, #3
 1676 006a C0F20043 		movt	r3, 1024
 1677 006e 1340     		ands	r3, r3, r2
 1678 0070 FB60     		str	r3, [r7, #12]
 656:App/STM32F4-Discovery/Libraries/STM32F4xx_StdPeriph_Driver/src/stm32f4xx_can.c ****       break;
 1679              		.loc 1 656 0
 1680 0072 15E0     		b	.L90
 1681              	.L88:
 657:App/STM32F4-Discovery/Libraries/STM32F4xx_StdPeriph_Driver/src/stm32f4xx_can.c ****     case (CAN_TXMAILBOX_1): 
 658:App/STM32F4-Discovery/Libraries/STM32F4xx_StdPeriph_Driver/src/stm32f4xx_can.c ****       state =   CANx->TSR &  (CAN_TSR_RQCP1 | CAN_TSR_TXOK1 | CAN_TSR_TME1);
 1682              		.loc 1 658 0
 1683 0074 7B68     		ldr	r3, [r7, #4]
 1684 0076 9A68     		ldr	r2, [r3, #8]
 1685 0078 4FF44073 		mov	r3, #768
 1686 007c C0F60003 		movt	r3, 2048
 1687 0080 1340     		ands	r3, r3, r2
 1688 0082 FB60     		str	r3, [r7, #12]
 659:App/STM32F4-Discovery/Libraries/STM32F4xx_StdPeriph_Driver/src/stm32f4xx_can.c ****       break;
 1689              		.loc 1 659 0
 1690 0084 0CE0     		b	.L90
 1691              	.L89:
 660:App/STM32F4-Discovery/Libraries/STM32F4xx_StdPeriph_Driver/src/stm32f4xx_can.c ****     case (CAN_TXMAILBOX_2): 
 661:App/STM32F4-Discovery/Libraries/STM32F4xx_StdPeriph_Driver/src/stm32f4xx_can.c ****       state =   CANx->TSR &  (CAN_TSR_RQCP2 | CAN_TSR_TXOK2 | CAN_TSR_TME2);
 1692              		.loc 1 661 0
 1693 0086 7B68     		ldr	r3, [r7, #4]
 1694 0088 9A68     		ldr	r2, [r3, #8]
 1695 008a 4FF00003 		mov	r3, #0
 1696 008e C1F20303 		movt	r3, 4099
 1697 0092 1340     		ands	r3, r3, r2
 1698 0094 FB60     		str	r3, [r7, #12]
 662:App/STM32F4-Discovery/Libraries/STM32F4xx_StdPeriph_Driver/src/stm32f4xx_can.c ****       break;
 1699              		.loc 1 662 0
 1700 0096 03E0     		b	.L90
 1701              	.L102:
 663:App/STM32F4-Discovery/Libraries/STM32F4xx_StdPeriph_Driver/src/stm32f4xx_can.c ****     default:
 664:App/STM32F4-Discovery/Libraries/STM32F4xx_StdPeriph_Driver/src/stm32f4xx_can.c ****       state = CAN_TxStatus_Failed;
 1702              		.loc 1 664 0
 1703 0098 4FF00003 		mov	r3, #0
 1704 009c FB60     		str	r3, [r7, #12]
 665:App/STM32F4-Discovery/Libraries/STM32F4xx_StdPeriph_Driver/src/stm32f4xx_can.c ****       break;
 1705              		.loc 1 665 0
 1706 009e 00BF     		nop
 1707              	.L90:
 666:App/STM32F4-Discovery/Libraries/STM32F4xx_StdPeriph_Driver/src/stm32f4xx_can.c ****   }
 667:App/STM32F4-Discovery/Libraries/STM32F4xx_StdPeriph_Driver/src/stm32f4xx_can.c ****   switch (state)
 1708              		.loc 1 667 0
 1709 00a0 FB68     		ldr	r3, [r7, #12]
 1710 00a2 4FF48072 		mov	r2, #256
 1711 00a6 C0F60002 		movt	r2, 2048
 1712 00aa 9342     		cmp	r3, r2
 1713 00ac 2FD0     		beq	.L95
 1714 00ae 4FF48072 		mov	r2, #256
 1715 00b2 C0F60002 		movt	r2, 2048
 1716 00b6 9342     		cmp	r3, r2
 1717 00b8 0ED8     		bhi	.L99
 1718 00ba 4FF00102 		mov	r2, #1
 1719 00be C0F20042 		movt	r2, 1024
 1720 00c2 9342     		cmp	r3, r2
 1721 00c4 1FD0     		beq	.L93
 1722 00c6 4FF00302 		mov	r2, #3
 1723 00ca C0F20042 		movt	r2, 1024
 1724 00ce 9342     		cmp	r3, r2
 1725 00d0 25D0     		beq	.L94
 1726 00d2 002B     		cmp	r3, #0
 1727 00d4 13D0     		beq	.L92
 1728 00d6 2EE0     		b	.L91
 1729              	.L99:
 1730 00d8 4FF00002 		mov	r2, #0
 1731 00dc C1F20102 		movt	r2, 4097
 1732 00e0 9342     		cmp	r3, r2
 1733 00e2 18D0     		beq	.L97
 1734 00e4 4FF00002 		mov	r2, #0
 1735 00e8 C1F20302 		movt	r2, 4099
 1736 00ec 9342     		cmp	r3, r2
 1737 00ee 1ED0     		beq	.L98
 1738 00f0 4FF44072 		mov	r2, #768
 1739 00f4 C0F60002 		movt	r2, 2048
 1740 00f8 9342     		cmp	r3, r2
 1741 00fa 14D0     		beq	.L96
 1742 00fc 1BE0     		b	.L91
 1743              	.L92:
 668:App/STM32F4-Discovery/Libraries/STM32F4xx_StdPeriph_Driver/src/stm32f4xx_can.c ****   {
 669:App/STM32F4-Discovery/Libraries/STM32F4xx_StdPeriph_Driver/src/stm32f4xx_can.c ****       /* transmit pending  */
 670:App/STM32F4-Discovery/Libraries/STM32F4xx_StdPeriph_Driver/src/stm32f4xx_can.c ****     case (0x0): state = CAN_TxStatus_Pending;
 1744              		.loc 1 670 0
 1745 00fe 4FF00203 		mov	r3, #2
 1746 0102 FB60     		str	r3, [r7, #12]
 671:App/STM32F4-Discovery/Libraries/STM32F4xx_StdPeriph_Driver/src/stm32f4xx_can.c ****       break;
 1747              		.loc 1 671 0
 1748 0104 1BE0     		b	.L100
 1749              	.L93:
 672:App/STM32F4-Discovery/Libraries/STM32F4xx_StdPeriph_Driver/src/stm32f4xx_can.c ****       /* transmit failed  */
 673:App/STM32F4-Discovery/Libraries/STM32F4xx_StdPeriph_Driver/src/stm32f4xx_can.c ****      case (CAN_TSR_RQCP0 | CAN_TSR_TME0): state = CAN_TxStatus_Failed;
 1750              		.loc 1 673 0
 1751 0106 4FF00003 		mov	r3, #0
 1752 010a FB60     		str	r3, [r7, #12]
 674:App/STM32F4-Discovery/Libraries/STM32F4xx_StdPeriph_Driver/src/stm32f4xx_can.c ****       break;
 1753              		.loc 1 674 0
 1754 010c 17E0     		b	.L100
 1755              	.L95:
 675:App/STM32F4-Discovery/Libraries/STM32F4xx_StdPeriph_Driver/src/stm32f4xx_can.c ****      case (CAN_TSR_RQCP1 | CAN_TSR_TME1): state = CAN_TxStatus_Failed;
 1756              		.loc 1 675 0
 1757 010e 4FF00003 		mov	r3, #0
 1758 0112 FB60     		str	r3, [r7, #12]
 676:App/STM32F4-Discovery/Libraries/STM32F4xx_StdPeriph_Driver/src/stm32f4xx_can.c ****       break;
 1759              		.loc 1 676 0
 1760 0114 13E0     		b	.L100
 1761              	.L97:
 677:App/STM32F4-Discovery/Libraries/STM32F4xx_StdPeriph_Driver/src/stm32f4xx_can.c ****      case (CAN_TSR_RQCP2 | CAN_TSR_TME2): state = CAN_TxStatus_Failed;
 1762              		.loc 1 677 0
 1763 0116 4FF00003 		mov	r3, #0
 1764 011a FB60     		str	r3, [r7, #12]
 678:App/STM32F4-Discovery/Libraries/STM32F4xx_StdPeriph_Driver/src/stm32f4xx_can.c ****       break;
 1765              		.loc 1 678 0
 1766 011c 0FE0     		b	.L100
 1767              	.L94:
 679:App/STM32F4-Discovery/Libraries/STM32F4xx_StdPeriph_Driver/src/stm32f4xx_can.c ****       /* transmit succeeded  */
 680:App/STM32F4-Discovery/Libraries/STM32F4xx_StdPeriph_Driver/src/stm32f4xx_can.c ****     case (CAN_TSR_RQCP0 | CAN_TSR_TXOK0 | CAN_TSR_TME0):state = CAN_TxStatus_Ok;
 1768              		.loc 1 680 0
 1769 011e 4FF00103 		mov	r3, #1
 1770 0122 FB60     		str	r3, [r7, #12]
 681:App/STM32F4-Discovery/Libraries/STM32F4xx_StdPeriph_Driver/src/stm32f4xx_can.c ****       break;
 1771              		.loc 1 681 0
 1772 0124 0BE0     		b	.L100
 1773              	.L96:
 682:App/STM32F4-Discovery/Libraries/STM32F4xx_StdPeriph_Driver/src/stm32f4xx_can.c ****     case (CAN_TSR_RQCP1 | CAN_TSR_TXOK1 | CAN_TSR_TME1):state = CAN_TxStatus_Ok;
 1774              		.loc 1 682 0
 1775 0126 4FF00103 		mov	r3, #1
 1776 012a FB60     		str	r3, [r7, #12]
 683:App/STM32F4-Discovery/Libraries/STM32F4xx_StdPeriph_Driver/src/stm32f4xx_can.c ****       break;
 1777              		.loc 1 683 0
 1778 012c 07E0     		b	.L100
 1779              	.L98:
 684:App/STM32F4-Discovery/Libraries/STM32F4xx_StdPeriph_Driver/src/stm32f4xx_can.c ****     case (CAN_TSR_RQCP2 | CAN_TSR_TXOK2 | CAN_TSR_TME2):state = CAN_TxStatus_Ok;
 1780              		.loc 1 684 0
 1781 012e 4FF00103 		mov	r3, #1
 1782 0132 FB60     		str	r3, [r7, #12]
 685:App/STM32F4-Discovery/Libraries/STM32F4xx_StdPeriph_Driver/src/stm32f4xx_can.c ****       break;
 1783              		.loc 1 685 0
 1784 0134 03E0     		b	.L100
 1785              	.L91:
 686:App/STM32F4-Discovery/Libraries/STM32F4xx_StdPeriph_Driver/src/stm32f4xx_can.c ****     default: state = CAN_TxStatus_Failed;
 1786              		.loc 1 686 0
 1787 0136 4FF00003 		mov	r3, #0
 1788 013a FB60     		str	r3, [r7, #12]
 687:App/STM32F4-Discovery/Libraries/STM32F4xx_StdPeriph_Driver/src/stm32f4xx_can.c ****       break;
 1789              		.loc 1 687 0
 1790 013c 00BF     		nop
 1791              	.L100:
 688:App/STM32F4-Discovery/Libraries/STM32F4xx_StdPeriph_Driver/src/stm32f4xx_can.c ****   }
 689:App/STM32F4-Discovery/Libraries/STM32F4xx_StdPeriph_Driver/src/stm32f4xx_can.c ****   return (uint8_t) state;
 1792              		.loc 1 689 0
 1793 013e FB68     		ldr	r3, [r7, #12]
 1794 0140 DBB2     		uxtb	r3, r3
 690:App/STM32F4-Discovery/Libraries/STM32F4xx_StdPeriph_Driver/src/stm32f4xx_can.c **** }
 1795              		.loc 1 690 0
 1796 0142 1846     		mov	r0, r3
 1797 0144 07F11007 		add	r7, r7, #16
 1798 0148 BD46     		mov	sp, r7
 1799 014a 80BD     		pop	{r7, pc}
 1800              		.cfi_endproc
 1801              	.LFE118:
 1803              		.section	.text.CAN_CancelTransmit,"ax",%progbits
 1804              		.align	2
 1805              		.global	CAN_CancelTransmit
 1806              		.thumb
 1807              		.thumb_func
 1809              	CAN_CancelTransmit:
 1810              	.LFB119:
 691:App/STM32F4-Discovery/Libraries/STM32F4xx_StdPeriph_Driver/src/stm32f4xx_can.c **** 
 692:App/STM32F4-Discovery/Libraries/STM32F4xx_StdPeriph_Driver/src/stm32f4xx_can.c **** /**
 693:App/STM32F4-Discovery/Libraries/STM32F4xx_StdPeriph_Driver/src/stm32f4xx_can.c ****   * @brief  Cancels a transmit request.
 694:App/STM32F4-Discovery/Libraries/STM32F4xx_StdPeriph_Driver/src/stm32f4xx_can.c ****   * @param  CANx: where x can be 1 or 2 to select the CAN peripheral.
 695:App/STM32F4-Discovery/Libraries/STM32F4xx_StdPeriph_Driver/src/stm32f4xx_can.c ****   * @param  Mailbox: Mailbox number.
 696:App/STM32F4-Discovery/Libraries/STM32F4xx_StdPeriph_Driver/src/stm32f4xx_can.c ****   * @retval None
 697:App/STM32F4-Discovery/Libraries/STM32F4xx_StdPeriph_Driver/src/stm32f4xx_can.c ****   */
 698:App/STM32F4-Discovery/Libraries/STM32F4xx_StdPeriph_Driver/src/stm32f4xx_can.c **** void CAN_CancelTransmit(CAN_TypeDef* CANx, uint8_t Mailbox)
 699:App/STM32F4-Discovery/Libraries/STM32F4xx_StdPeriph_Driver/src/stm32f4xx_can.c **** {
 1811              		.loc 1 699 0
 1812              		.cfi_startproc
 1813              		@ args = 0, pretend = 0, frame = 8
 1814              		@ frame_needed = 1, uses_anonymous_args = 0
 1815 0000 80B5     		push	{r7, lr}
 1816              	.LCFI27:
 1817              		.cfi_def_cfa_offset 8
 1818              		.cfi_offset 7, -8
 1819              		.cfi_offset 14, -4
 1820 0002 82B0     		sub	sp, sp, #8
 1821              	.LCFI28:
 1822              		.cfi_def_cfa_offset 16
 1823 0004 00AF     		add	r7, sp, #0
 1824              	.LCFI29:
 1825              		.cfi_def_cfa_register 7
 1826 0006 7860     		str	r0, [r7, #4]
 1827 0008 0B46     		mov	r3, r1
 1828 000a FB70     		strb	r3, [r7, #3]
 700:App/STM32F4-Discovery/Libraries/STM32F4xx_StdPeriph_Driver/src/stm32f4xx_can.c ****   /* Check the parameters */
 701:App/STM32F4-Discovery/Libraries/STM32F4xx_StdPeriph_Driver/src/stm32f4xx_can.c ****   assert_param(IS_CAN_ALL_PERIPH(CANx));
 1829              		.loc 1 701 0
 1830 000c 7A68     		ldr	r2, [r7, #4]
 1831 000e 4FF4C843 		mov	r3, #25600
 1832 0012 C4F20003 		movt	r3, 16384
 1833 0016 9A42     		cmp	r2, r3
 1834 0018 0ED0     		beq	.L104
 1835              		.loc 1 701 0 is_stmt 0 discriminator 1
 1836 001a 7A68     		ldr	r2, [r7, #4]
 1837 001c 4FF4D043 		mov	r3, #26624
 1838 0020 C4F20003 		movt	r3, 16384
 1839 0024 9A42     		cmp	r2, r3
 1840 0026 07D0     		beq	.L104
 1841              		.loc 1 701 0 discriminator 2
 1842 0028 40F20000 		movw	r0, #:lower16:.LC0
 1843 002c C0F20000 		movt	r0, #:upper16:.LC0
 1844 0030 40F2BD21 		movw	r1, #701
 1845 0034 FFF7FEFF 		bl	assert_failed
 1846              	.L104:
 702:App/STM32F4-Discovery/Libraries/STM32F4xx_StdPeriph_Driver/src/stm32f4xx_can.c ****   assert_param(IS_CAN_TRANSMITMAILBOX(Mailbox));
 1847              		.loc 1 702 0 is_stmt 1
 1848 0038 FB78     		ldrb	r3, [r7, #3]	@ zero_extendqisi2
 1849 003a 022B     		cmp	r3, #2
 1850 003c 07D9     		bls	.L105
 1851              		.loc 1 702 0 is_stmt 0 discriminator 1
 1852 003e 40F20000 		movw	r0, #:lower16:.LC0
 1853 0042 C0F20000 		movt	r0, #:upper16:.LC0
 1854 0046 40F2BE21 		movw	r1, #702
 1855 004a FFF7FEFF 		bl	assert_failed
 1856              	.L105:
 703:App/STM32F4-Discovery/Libraries/STM32F4xx_StdPeriph_Driver/src/stm32f4xx_can.c ****   /* abort transmission */
 704:App/STM32F4-Discovery/Libraries/STM32F4xx_StdPeriph_Driver/src/stm32f4xx_can.c ****   switch (Mailbox)
 1857              		.loc 1 704 0 is_stmt 1
 1858 004e FB78     		ldrb	r3, [r7, #3]	@ zero_extendqisi2
 1859 0050 012B     		cmp	r3, #1
 1860 0052 0AD0     		beq	.L108
 1861 0054 022B     		cmp	r3, #2
 1862 0056 0FD0     		beq	.L109
 1863 0058 002B     		cmp	r3, #0
 1864 005a 14D1     		bne	.L111
 1865              	.L107:
 705:App/STM32F4-Discovery/Libraries/STM32F4xx_StdPeriph_Driver/src/stm32f4xx_can.c ****   {
 706:App/STM32F4-Discovery/Libraries/STM32F4xx_StdPeriph_Driver/src/stm32f4xx_can.c ****     case (CAN_TXMAILBOX_0): CANx->TSR |= CAN_TSR_ABRQ0;
 1866              		.loc 1 706 0
 1867 005c 7B68     		ldr	r3, [r7, #4]
 1868 005e 9B68     		ldr	r3, [r3, #8]
 1869 0060 43F08002 		orr	r2, r3, #128
 1870 0064 7B68     		ldr	r3, [r7, #4]
 1871 0066 9A60     		str	r2, [r3, #8]
 707:App/STM32F4-Discovery/Libraries/STM32F4xx_StdPeriph_Driver/src/stm32f4xx_can.c ****       break;
 1872              		.loc 1 707 0
 1873 0068 0EE0     		b	.L103
 1874              	.L108:
 708:App/STM32F4-Discovery/Libraries/STM32F4xx_StdPeriph_Driver/src/stm32f4xx_can.c ****     case (CAN_TXMAILBOX_1): CANx->TSR |= CAN_TSR_ABRQ1;
 1875              		.loc 1 708 0
 1876 006a 7B68     		ldr	r3, [r7, #4]
 1877 006c 9B68     		ldr	r3, [r3, #8]
 1878 006e 43F40042 		orr	r2, r3, #32768
 1879 0072 7B68     		ldr	r3, [r7, #4]
 1880 0074 9A60     		str	r2, [r3, #8]
 709:App/STM32F4-Discovery/Libraries/STM32F4xx_StdPeriph_Driver/src/stm32f4xx_can.c ****       break;
 1881              		.loc 1 709 0
 1882 0076 07E0     		b	.L103
 1883              	.L109:
 710:App/STM32F4-Discovery/Libraries/STM32F4xx_StdPeriph_Driver/src/stm32f4xx_can.c ****     case (CAN_TXMAILBOX_2): CANx->TSR |= CAN_TSR_ABRQ2;
 1884              		.loc 1 710 0
 1885 0078 7B68     		ldr	r3, [r7, #4]
 1886 007a 9B68     		ldr	r3, [r3, #8]
 1887 007c 43F40002 		orr	r2, r3, #8388608
 1888 0080 7B68     		ldr	r3, [r7, #4]
 1889 0082 9A60     		str	r2, [r3, #8]
 711:App/STM32F4-Discovery/Libraries/STM32F4xx_StdPeriph_Driver/src/stm32f4xx_can.c ****       break;
 1890              		.loc 1 711 0
 1891 0084 00E0     		b	.L103
 1892              	.L111:
 712:App/STM32F4-Discovery/Libraries/STM32F4xx_StdPeriph_Driver/src/stm32f4xx_can.c ****     default:
 713:App/STM32F4-Discovery/Libraries/STM32F4xx_StdPeriph_Driver/src/stm32f4xx_can.c ****       break;
 1893              		.loc 1 713 0
 1894 0086 00BF     		nop
 1895              	.L103:
 714:App/STM32F4-Discovery/Libraries/STM32F4xx_StdPeriph_Driver/src/stm32f4xx_can.c ****   }
 715:App/STM32F4-Discovery/Libraries/STM32F4xx_StdPeriph_Driver/src/stm32f4xx_can.c **** }
 1896              		.loc 1 715 0
 1897 0088 07F10807 		add	r7, r7, #8
 1898 008c BD46     		mov	sp, r7
 1899 008e 80BD     		pop	{r7, pc}
 1900              		.cfi_endproc
 1901              	.LFE119:
 1903              		.section	.text.CAN_Receive,"ax",%progbits
 1904              		.align	2
 1905              		.global	CAN_Receive
 1906              		.thumb
 1907              		.thumb_func
 1909              	CAN_Receive:
 1910              	.LFB120:
 716:App/STM32F4-Discovery/Libraries/STM32F4xx_StdPeriph_Driver/src/stm32f4xx_can.c **** /**
 717:App/STM32F4-Discovery/Libraries/STM32F4xx_StdPeriph_Driver/src/stm32f4xx_can.c ****   * @}
 718:App/STM32F4-Discovery/Libraries/STM32F4xx_StdPeriph_Driver/src/stm32f4xx_can.c ****   */
 719:App/STM32F4-Discovery/Libraries/STM32F4xx_StdPeriph_Driver/src/stm32f4xx_can.c **** 
 720:App/STM32F4-Discovery/Libraries/STM32F4xx_StdPeriph_Driver/src/stm32f4xx_can.c **** 
 721:App/STM32F4-Discovery/Libraries/STM32F4xx_StdPeriph_Driver/src/stm32f4xx_can.c **** /** @defgroup CAN_Group3 CAN Frames Reception functions
 722:App/STM32F4-Discovery/Libraries/STM32F4xx_StdPeriph_Driver/src/stm32f4xx_can.c ****  *  @brief    CAN Frames Reception functions 
 723:App/STM32F4-Discovery/Libraries/STM32F4xx_StdPeriph_Driver/src/stm32f4xx_can.c ****  *
 724:App/STM32F4-Discovery/Libraries/STM32F4xx_StdPeriph_Driver/src/stm32f4xx_can.c **** @verbatim    
 725:App/STM32F4-Discovery/Libraries/STM32F4xx_StdPeriph_Driver/src/stm32f4xx_can.c ****  ===============================================================================
 726:App/STM32F4-Discovery/Libraries/STM32F4xx_StdPeriph_Driver/src/stm32f4xx_can.c ****                       CAN Frames Reception functions
 727:App/STM32F4-Discovery/Libraries/STM32F4xx_StdPeriph_Driver/src/stm32f4xx_can.c ****  ===============================================================================  
 728:App/STM32F4-Discovery/Libraries/STM32F4xx_StdPeriph_Driver/src/stm32f4xx_can.c ****   This section provides functions allowing to 
 729:App/STM32F4-Discovery/Libraries/STM32F4xx_StdPeriph_Driver/src/stm32f4xx_can.c ****    -  Receive a correct CAN frame
 730:App/STM32F4-Discovery/Libraries/STM32F4xx_StdPeriph_Driver/src/stm32f4xx_can.c ****    -  Release a specified receive FIFO (2 FIFOs are available)
 731:App/STM32F4-Discovery/Libraries/STM32F4xx_StdPeriph_Driver/src/stm32f4xx_can.c ****    -  Return the number of the pending received CAN frames
 732:App/STM32F4-Discovery/Libraries/STM32F4xx_StdPeriph_Driver/src/stm32f4xx_can.c ****    
 733:App/STM32F4-Discovery/Libraries/STM32F4xx_StdPeriph_Driver/src/stm32f4xx_can.c **** @endverbatim
 734:App/STM32F4-Discovery/Libraries/STM32F4xx_StdPeriph_Driver/src/stm32f4xx_can.c ****   * @{
 735:App/STM32F4-Discovery/Libraries/STM32F4xx_StdPeriph_Driver/src/stm32f4xx_can.c ****   */
 736:App/STM32F4-Discovery/Libraries/STM32F4xx_StdPeriph_Driver/src/stm32f4xx_can.c **** 
 737:App/STM32F4-Discovery/Libraries/STM32F4xx_StdPeriph_Driver/src/stm32f4xx_can.c **** /**
 738:App/STM32F4-Discovery/Libraries/STM32F4xx_StdPeriph_Driver/src/stm32f4xx_can.c ****   * @brief  Receives a correct CAN frame.
 739:App/STM32F4-Discovery/Libraries/STM32F4xx_StdPeriph_Driver/src/stm32f4xx_can.c ****   * @param  CANx: where x can be 1 or 2 to select the CAN peripheral.
 740:App/STM32F4-Discovery/Libraries/STM32F4xx_StdPeriph_Driver/src/stm32f4xx_can.c ****   * @param  FIFONumber: Receive FIFO number, CAN_FIFO0 or CAN_FIFO1.
 741:App/STM32F4-Discovery/Libraries/STM32F4xx_StdPeriph_Driver/src/stm32f4xx_can.c ****   * @param  RxMessage: pointer to a structure receive frame which contains CAN Id,
 742:App/STM32F4-Discovery/Libraries/STM32F4xx_StdPeriph_Driver/src/stm32f4xx_can.c ****   *         CAN DLC, CAN data and FMI number.
 743:App/STM32F4-Discovery/Libraries/STM32F4xx_StdPeriph_Driver/src/stm32f4xx_can.c ****   * @retval None
 744:App/STM32F4-Discovery/Libraries/STM32F4xx_StdPeriph_Driver/src/stm32f4xx_can.c ****   */
 745:App/STM32F4-Discovery/Libraries/STM32F4xx_StdPeriph_Driver/src/stm32f4xx_can.c **** void CAN_Receive(CAN_TypeDef* CANx, uint8_t FIFONumber, CanRxMsg* RxMessage)
 746:App/STM32F4-Discovery/Libraries/STM32F4xx_StdPeriph_Driver/src/stm32f4xx_can.c **** {
 1911              		.loc 1 746 0
 1912              		.cfi_startproc
 1913              		@ args = 0, pretend = 0, frame = 16
 1914              		@ frame_needed = 1, uses_anonymous_args = 0
 1915 0000 80B5     		push	{r7, lr}
 1916              	.LCFI30:
 1917              		.cfi_def_cfa_offset 8
 1918              		.cfi_offset 7, -8
 1919              		.cfi_offset 14, -4
 1920 0002 84B0     		sub	sp, sp, #16
 1921              	.LCFI31:
 1922              		.cfi_def_cfa_offset 24
 1923 0004 00AF     		add	r7, sp, #0
 1924              	.LCFI32:
 1925              		.cfi_def_cfa_register 7
 1926 0006 F860     		str	r0, [r7, #12]
 1927 0008 0B46     		mov	r3, r1
 1928 000a 7A60     		str	r2, [r7, #4]
 1929 000c FB72     		strb	r3, [r7, #11]
 747:App/STM32F4-Discovery/Libraries/STM32F4xx_StdPeriph_Driver/src/stm32f4xx_can.c ****   /* Check the parameters */
 748:App/STM32F4-Discovery/Libraries/STM32F4xx_StdPeriph_Driver/src/stm32f4xx_can.c ****   assert_param(IS_CAN_ALL_PERIPH(CANx));
 1930              		.loc 1 748 0
 1931 000e FA68     		ldr	r2, [r7, #12]
 1932 0010 4FF4C843 		mov	r3, #25600
 1933 0014 C4F20003 		movt	r3, 16384
 1934 0018 9A42     		cmp	r2, r3
 1935 001a 0ED0     		beq	.L113
 1936              		.loc 1 748 0 is_stmt 0 discriminator 1
 1937 001c FA68     		ldr	r2, [r7, #12]
 1938 001e 4FF4D043 		mov	r3, #26624
 1939 0022 C4F20003 		movt	r3, 16384
 1940 0026 9A42     		cmp	r2, r3
 1941 0028 07D0     		beq	.L113
 1942              		.loc 1 748 0 discriminator 2
 1943 002a 40F20000 		movw	r0, #:lower16:.LC0
 1944 002e C0F20000 		movt	r0, #:upper16:.LC0
 1945 0032 4FF43B71 		mov	r1, #748
 1946 0036 FFF7FEFF 		bl	assert_failed
 1947              	.L113:
 749:App/STM32F4-Discovery/Libraries/STM32F4xx_StdPeriph_Driver/src/stm32f4xx_can.c ****   assert_param(IS_CAN_FIFO(FIFONumber));
 1948              		.loc 1 749 0 is_stmt 1
 1949 003a FB7A     		ldrb	r3, [r7, #11]	@ zero_extendqisi2
 1950 003c 002B     		cmp	r3, #0
 1951 003e 0AD0     		beq	.L114
 1952              		.loc 1 749 0 is_stmt 0 discriminator 1
 1953 0040 FB7A     		ldrb	r3, [r7, #11]	@ zero_extendqisi2
 1954 0042 012B     		cmp	r3, #1
 1955 0044 07D0     		beq	.L114
 1956              		.loc 1 749 0 discriminator 2
 1957 0046 40F20000 		movw	r0, #:lower16:.LC0
 1958 004a C0F20000 		movt	r0, #:upper16:.LC0
 1959 004e 40F2ED21 		movw	r1, #749
 1960 0052 FFF7FEFF 		bl	assert_failed
 1961              	.L114:
 750:App/STM32F4-Discovery/Libraries/STM32F4xx_StdPeriph_Driver/src/stm32f4xx_can.c ****   /* Get the Id */
 751:App/STM32F4-Discovery/Libraries/STM32F4xx_StdPeriph_Driver/src/stm32f4xx_can.c ****   RxMessage->IDE = (uint8_t)0x04 & CANx->sFIFOMailBox[FIFONumber].RIR;
 1962              		.loc 1 751 0 is_stmt 1
 1963 0056 FB7A     		ldrb	r3, [r7, #11]	@ zero_extendqisi2
 1964 0058 FA68     		ldr	r2, [r7, #12]
 1965 005a 03F11B03 		add	r3, r3, #27
 1966 005e 4FEA0313 		lsl	r3, r3, #4
 1967 0062 D318     		adds	r3, r2, r3
 1968 0064 1B68     		ldr	r3, [r3, #0]
 1969 0066 DBB2     		uxtb	r3, r3
 1970 0068 03F00403 		and	r3, r3, #4
 1971 006c DAB2     		uxtb	r2, r3
 1972 006e 7B68     		ldr	r3, [r7, #4]
 1973 0070 1A72     		strb	r2, [r3, #8]
 752:App/STM32F4-Discovery/Libraries/STM32F4xx_StdPeriph_Driver/src/stm32f4xx_can.c ****   if (RxMessage->IDE == CAN_Id_Standard)
 1974              		.loc 1 752 0
 1975 0072 7B68     		ldr	r3, [r7, #4]
 1976 0074 1B7A     		ldrb	r3, [r3, #8]	@ zero_extendqisi2
 1977 0076 002B     		cmp	r3, #0
 1978 0078 0CD1     		bne	.L115
 753:App/STM32F4-Discovery/Libraries/STM32F4xx_StdPeriph_Driver/src/stm32f4xx_can.c ****   {
 754:App/STM32F4-Discovery/Libraries/STM32F4xx_StdPeriph_Driver/src/stm32f4xx_can.c ****     RxMessage->StdId = (uint32_t)0x000007FF & (CANx->sFIFOMailBox[FIFONumber].RIR >> 21);
 1979              		.loc 1 754 0
 1980 007a FB7A     		ldrb	r3, [r7, #11]	@ zero_extendqisi2
 1981 007c FA68     		ldr	r2, [r7, #12]
 1982 007e 03F11B03 		add	r3, r3, #27
 1983 0082 4FEA0313 		lsl	r3, r3, #4
 1984 0086 D318     		adds	r3, r2, r3
 1985 0088 1B68     		ldr	r3, [r3, #0]
 1986 008a 4FEA5352 		lsr	r2, r3, #21
 1987 008e 7B68     		ldr	r3, [r7, #4]
 1988 0090 1A60     		str	r2, [r3, #0]
 1989 0092 0BE0     		b	.L116
 1990              	.L115:
 755:App/STM32F4-Discovery/Libraries/STM32F4xx_StdPeriph_Driver/src/stm32f4xx_can.c ****   }
 756:App/STM32F4-Discovery/Libraries/STM32F4xx_StdPeriph_Driver/src/stm32f4xx_can.c ****   else
 757:App/STM32F4-Discovery/Libraries/STM32F4xx_StdPeriph_Driver/src/stm32f4xx_can.c ****   {
 758:App/STM32F4-Discovery/Libraries/STM32F4xx_StdPeriph_Driver/src/stm32f4xx_can.c ****     RxMessage->ExtId = (uint32_t)0x1FFFFFFF & (CANx->sFIFOMailBox[FIFONumber].RIR >> 3);
 1991              		.loc 1 758 0
 1992 0094 FB7A     		ldrb	r3, [r7, #11]	@ zero_extendqisi2
 1993 0096 FA68     		ldr	r2, [r7, #12]
 1994 0098 03F11B03 		add	r3, r3, #27
 1995 009c 4FEA0313 		lsl	r3, r3, #4
 1996 00a0 D318     		adds	r3, r2, r3
 1997 00a2 1B68     		ldr	r3, [r3, #0]
 1998 00a4 4FEAD302 		lsr	r2, r3, #3
 1999 00a8 7B68     		ldr	r3, [r7, #4]
 2000 00aa 5A60     		str	r2, [r3, #4]
 2001              	.L116:
 759:App/STM32F4-Discovery/Libraries/STM32F4xx_StdPeriph_Driver/src/stm32f4xx_can.c ****   }
 760:App/STM32F4-Discovery/Libraries/STM32F4xx_StdPeriph_Driver/src/stm32f4xx_can.c ****   
 761:App/STM32F4-Discovery/Libraries/STM32F4xx_StdPeriph_Driver/src/stm32f4xx_can.c ****   RxMessage->RTR = (uint8_t)0x02 & CANx->sFIFOMailBox[FIFONumber].RIR;
 2002              		.loc 1 761 0
 2003 00ac FB7A     		ldrb	r3, [r7, #11]	@ zero_extendqisi2
 2004 00ae FA68     		ldr	r2, [r7, #12]
 2005 00b0 03F11B03 		add	r3, r3, #27
 2006 00b4 4FEA0313 		lsl	r3, r3, #4
 2007 00b8 D318     		adds	r3, r2, r3
 2008 00ba 1B68     		ldr	r3, [r3, #0]
 2009 00bc DBB2     		uxtb	r3, r3
 2010 00be 03F00203 		and	r3, r3, #2
 2011 00c2 DAB2     		uxtb	r2, r3
 2012 00c4 7B68     		ldr	r3, [r7, #4]
 2013 00c6 5A72     		strb	r2, [r3, #9]
 762:App/STM32F4-Discovery/Libraries/STM32F4xx_StdPeriph_Driver/src/stm32f4xx_can.c ****   /* Get the DLC */
 763:App/STM32F4-Discovery/Libraries/STM32F4xx_StdPeriph_Driver/src/stm32f4xx_can.c ****   RxMessage->DLC = (uint8_t)0x0F & CANx->sFIFOMailBox[FIFONumber].RDTR;
 2014              		.loc 1 763 0
 2015 00c8 FB7A     		ldrb	r3, [r7, #11]	@ zero_extendqisi2
 2016 00ca FA68     		ldr	r2, [r7, #12]
 2017 00cc 03F11B03 		add	r3, r3, #27
 2018 00d0 4FEA0313 		lsl	r3, r3, #4
 2019 00d4 D318     		adds	r3, r2, r3
 2020 00d6 5B68     		ldr	r3, [r3, #4]
 2021 00d8 DBB2     		uxtb	r3, r3
 2022 00da 03F00F03 		and	r3, r3, #15
 2023 00de DAB2     		uxtb	r2, r3
 2024 00e0 7B68     		ldr	r3, [r7, #4]
 2025 00e2 9A72     		strb	r2, [r3, #10]
 764:App/STM32F4-Discovery/Libraries/STM32F4xx_StdPeriph_Driver/src/stm32f4xx_can.c ****   /* Get the FMI */
 765:App/STM32F4-Discovery/Libraries/STM32F4xx_StdPeriph_Driver/src/stm32f4xx_can.c ****   RxMessage->FMI = (uint8_t)0xFF & (CANx->sFIFOMailBox[FIFONumber].RDTR >> 8);
 2026              		.loc 1 765 0
 2027 00e4 FB7A     		ldrb	r3, [r7, #11]	@ zero_extendqisi2
 2028 00e6 FA68     		ldr	r2, [r7, #12]
 2029 00e8 03F11B03 		add	r3, r3, #27
 2030 00ec 4FEA0313 		lsl	r3, r3, #4
 2031 00f0 D318     		adds	r3, r2, r3
 2032 00f2 5B68     		ldr	r3, [r3, #4]
 2033 00f4 4FEA1323 		lsr	r3, r3, #8
 2034 00f8 DAB2     		uxtb	r2, r3
 2035 00fa 7B68     		ldr	r3, [r7, #4]
 2036 00fc DA74     		strb	r2, [r3, #19]
 766:App/STM32F4-Discovery/Libraries/STM32F4xx_StdPeriph_Driver/src/stm32f4xx_can.c ****   /* Get the data field */
 767:App/STM32F4-Discovery/Libraries/STM32F4xx_StdPeriph_Driver/src/stm32f4xx_can.c ****   RxMessage->Data[0] = (uint8_t)0xFF & CANx->sFIFOMailBox[FIFONumber].RDLR;
 2037              		.loc 1 767 0
 2038 00fe FB7A     		ldrb	r3, [r7, #11]	@ zero_extendqisi2
 2039 0100 FA68     		ldr	r2, [r7, #12]
 2040 0102 4FEA0313 		lsl	r3, r3, #4
 2041 0106 D318     		adds	r3, r2, r3
 2042 0108 03F5DC73 		add	r3, r3, #440
 2043 010c 1B68     		ldr	r3, [r3, #0]
 2044 010e DAB2     		uxtb	r2, r3
 2045 0110 7B68     		ldr	r3, [r7, #4]
 2046 0112 DA72     		strb	r2, [r3, #11]
 768:App/STM32F4-Discovery/Libraries/STM32F4xx_StdPeriph_Driver/src/stm32f4xx_can.c ****   RxMessage->Data[1] = (uint8_t)0xFF & (CANx->sFIFOMailBox[FIFONumber].RDLR >> 8);
 2047              		.loc 1 768 0
 2048 0114 FB7A     		ldrb	r3, [r7, #11]	@ zero_extendqisi2
 2049 0116 FA68     		ldr	r2, [r7, #12]
 2050 0118 4FEA0313 		lsl	r3, r3, #4
 2051 011c D318     		adds	r3, r2, r3
 2052 011e 03F5DC73 		add	r3, r3, #440
 2053 0122 1B68     		ldr	r3, [r3, #0]
 2054 0124 4FEA1323 		lsr	r3, r3, #8
 2055 0128 DAB2     		uxtb	r2, r3
 2056 012a 7B68     		ldr	r3, [r7, #4]
 2057 012c 1A73     		strb	r2, [r3, #12]
 769:App/STM32F4-Discovery/Libraries/STM32F4xx_StdPeriph_Driver/src/stm32f4xx_can.c ****   RxMessage->Data[2] = (uint8_t)0xFF & (CANx->sFIFOMailBox[FIFONumber].RDLR >> 16);
 2058              		.loc 1 769 0
 2059 012e FB7A     		ldrb	r3, [r7, #11]	@ zero_extendqisi2
 2060 0130 FA68     		ldr	r2, [r7, #12]
 2061 0132 4FEA0313 		lsl	r3, r3, #4
 2062 0136 D318     		adds	r3, r2, r3
 2063 0138 03F5DC73 		add	r3, r3, #440
 2064 013c 1B68     		ldr	r3, [r3, #0]
 2065 013e 4FEA1343 		lsr	r3, r3, #16
 2066 0142 DAB2     		uxtb	r2, r3
 2067 0144 7B68     		ldr	r3, [r7, #4]
 2068 0146 5A73     		strb	r2, [r3, #13]
 770:App/STM32F4-Discovery/Libraries/STM32F4xx_StdPeriph_Driver/src/stm32f4xx_can.c ****   RxMessage->Data[3] = (uint8_t)0xFF & (CANx->sFIFOMailBox[FIFONumber].RDLR >> 24);
 2069              		.loc 1 770 0
 2070 0148 FB7A     		ldrb	r3, [r7, #11]	@ zero_extendqisi2
 2071 014a FA68     		ldr	r2, [r7, #12]
 2072 014c 4FEA0313 		lsl	r3, r3, #4
 2073 0150 D318     		adds	r3, r2, r3
 2074 0152 03F5DC73 		add	r3, r3, #440
 2075 0156 1B68     		ldr	r3, [r3, #0]
 2076 0158 4FEA1363 		lsr	r3, r3, #24
 2077 015c DAB2     		uxtb	r2, r3
 2078 015e 7B68     		ldr	r3, [r7, #4]
 2079 0160 9A73     		strb	r2, [r3, #14]
 771:App/STM32F4-Discovery/Libraries/STM32F4xx_StdPeriph_Driver/src/stm32f4xx_can.c ****   RxMessage->Data[4] = (uint8_t)0xFF & CANx->sFIFOMailBox[FIFONumber].RDHR;
 2080              		.loc 1 771 0
 2081 0162 FB7A     		ldrb	r3, [r7, #11]	@ zero_extendqisi2
 2082 0164 FA68     		ldr	r2, [r7, #12]
 2083 0166 4FEA0313 		lsl	r3, r3, #4
 2084 016a D318     		adds	r3, r2, r3
 2085 016c 03F5DC73 		add	r3, r3, #440
 2086 0170 5B68     		ldr	r3, [r3, #4]
 2087 0172 DAB2     		uxtb	r2, r3
 2088 0174 7B68     		ldr	r3, [r7, #4]
 2089 0176 DA73     		strb	r2, [r3, #15]
 772:App/STM32F4-Discovery/Libraries/STM32F4xx_StdPeriph_Driver/src/stm32f4xx_can.c ****   RxMessage->Data[5] = (uint8_t)0xFF & (CANx->sFIFOMailBox[FIFONumber].RDHR >> 8);
 2090              		.loc 1 772 0
 2091 0178 FB7A     		ldrb	r3, [r7, #11]	@ zero_extendqisi2
 2092 017a FA68     		ldr	r2, [r7, #12]
 2093 017c 4FEA0313 		lsl	r3, r3, #4
 2094 0180 D318     		adds	r3, r2, r3
 2095 0182 03F5DC73 		add	r3, r3, #440
 2096 0186 5B68     		ldr	r3, [r3, #4]
 2097 0188 4FEA1323 		lsr	r3, r3, #8
 2098 018c DAB2     		uxtb	r2, r3
 2099 018e 7B68     		ldr	r3, [r7, #4]
 2100 0190 1A74     		strb	r2, [r3, #16]
 773:App/STM32F4-Discovery/Libraries/STM32F4xx_StdPeriph_Driver/src/stm32f4xx_can.c ****   RxMessage->Data[6] = (uint8_t)0xFF & (CANx->sFIFOMailBox[FIFONumber].RDHR >> 16);
 2101              		.loc 1 773 0
 2102 0192 FB7A     		ldrb	r3, [r7, #11]	@ zero_extendqisi2
 2103 0194 FA68     		ldr	r2, [r7, #12]
 2104 0196 4FEA0313 		lsl	r3, r3, #4
 2105 019a D318     		adds	r3, r2, r3
 2106 019c 03F5DC73 		add	r3, r3, #440
 2107 01a0 5B68     		ldr	r3, [r3, #4]
 2108 01a2 4FEA1343 		lsr	r3, r3, #16
 2109 01a6 DAB2     		uxtb	r2, r3
 2110 01a8 7B68     		ldr	r3, [r7, #4]
 2111 01aa 5A74     		strb	r2, [r3, #17]
 774:App/STM32F4-Discovery/Libraries/STM32F4xx_StdPeriph_Driver/src/stm32f4xx_can.c ****   RxMessage->Data[7] = (uint8_t)0xFF & (CANx->sFIFOMailBox[FIFONumber].RDHR >> 24);
 2112              		.loc 1 774 0
 2113 01ac FB7A     		ldrb	r3, [r7, #11]	@ zero_extendqisi2
 2114 01ae FA68     		ldr	r2, [r7, #12]
 2115 01b0 4FEA0313 		lsl	r3, r3, #4
 2116 01b4 D318     		adds	r3, r2, r3
 2117 01b6 03F5DC73 		add	r3, r3, #440
 2118 01ba 5B68     		ldr	r3, [r3, #4]
 2119 01bc 4FEA1363 		lsr	r3, r3, #24
 2120 01c0 DAB2     		uxtb	r2, r3
 2121 01c2 7B68     		ldr	r3, [r7, #4]
 2122 01c4 9A74     		strb	r2, [r3, #18]
 775:App/STM32F4-Discovery/Libraries/STM32F4xx_StdPeriph_Driver/src/stm32f4xx_can.c ****   /* Release the FIFO */
 776:App/STM32F4-Discovery/Libraries/STM32F4xx_StdPeriph_Driver/src/stm32f4xx_can.c ****   /* Release FIFO0 */
 777:App/STM32F4-Discovery/Libraries/STM32F4xx_StdPeriph_Driver/src/stm32f4xx_can.c ****   if (FIFONumber == CAN_FIFO0)
 2123              		.loc 1 777 0
 2124 01c6 FB7A     		ldrb	r3, [r7, #11]	@ zero_extendqisi2
 2125 01c8 002B     		cmp	r3, #0
 2126 01ca 06D1     		bne	.L117
 778:App/STM32F4-Discovery/Libraries/STM32F4xx_StdPeriph_Driver/src/stm32f4xx_can.c ****   {
 779:App/STM32F4-Discovery/Libraries/STM32F4xx_StdPeriph_Driver/src/stm32f4xx_can.c ****     CANx->RF0R |= CAN_RF0R_RFOM0;
 2127              		.loc 1 779 0
 2128 01cc FB68     		ldr	r3, [r7, #12]
 2129 01ce DB68     		ldr	r3, [r3, #12]
 2130 01d0 43F02002 		orr	r2, r3, #32
 2131 01d4 FB68     		ldr	r3, [r7, #12]
 2132 01d6 DA60     		str	r2, [r3, #12]
 2133 01d8 05E0     		b	.L112
 2134              	.L117:
 780:App/STM32F4-Discovery/Libraries/STM32F4xx_StdPeriph_Driver/src/stm32f4xx_can.c ****   }
 781:App/STM32F4-Discovery/Libraries/STM32F4xx_StdPeriph_Driver/src/stm32f4xx_can.c ****   /* Release FIFO1 */
 782:App/STM32F4-Discovery/Libraries/STM32F4xx_StdPeriph_Driver/src/stm32f4xx_can.c ****   else /* FIFONumber == CAN_FIFO1 */
 783:App/STM32F4-Discovery/Libraries/STM32F4xx_StdPeriph_Driver/src/stm32f4xx_can.c ****   {
 784:App/STM32F4-Discovery/Libraries/STM32F4xx_StdPeriph_Driver/src/stm32f4xx_can.c ****     CANx->RF1R |= CAN_RF1R_RFOM1;
 2135              		.loc 1 784 0
 2136 01da FB68     		ldr	r3, [r7, #12]
 2137 01dc 1B69     		ldr	r3, [r3, #16]
 2138 01de 43F02002 		orr	r2, r3, #32
 2139 01e2 FB68     		ldr	r3, [r7, #12]
 2140 01e4 1A61     		str	r2, [r3, #16]
 2141              	.L112:
 785:App/STM32F4-Discovery/Libraries/STM32F4xx_StdPeriph_Driver/src/stm32f4xx_can.c ****   }
 786:App/STM32F4-Discovery/Libraries/STM32F4xx_StdPeriph_Driver/src/stm32f4xx_can.c **** }
 2142              		.loc 1 786 0
 2143 01e6 07F11007 		add	r7, r7, #16
 2144 01ea BD46     		mov	sp, r7
 2145 01ec 80BD     		pop	{r7, pc}
 2146              		.cfi_endproc
 2147              	.LFE120:
 2149 01ee 00BF     		.section	.text.CAN_FIFORelease,"ax",%progbits
 2150              		.align	2
 2151              		.global	CAN_FIFORelease
 2152              		.thumb
 2153              		.thumb_func
 2155              	CAN_FIFORelease:
 2156              	.LFB121:
 787:App/STM32F4-Discovery/Libraries/STM32F4xx_StdPeriph_Driver/src/stm32f4xx_can.c **** 
 788:App/STM32F4-Discovery/Libraries/STM32F4xx_StdPeriph_Driver/src/stm32f4xx_can.c **** /**
 789:App/STM32F4-Discovery/Libraries/STM32F4xx_StdPeriph_Driver/src/stm32f4xx_can.c ****   * @brief  Releases the specified receive FIFO.
 790:App/STM32F4-Discovery/Libraries/STM32F4xx_StdPeriph_Driver/src/stm32f4xx_can.c ****   * @param  CANx: where x can be 1 or 2 to select the CAN peripheral.
 791:App/STM32F4-Discovery/Libraries/STM32F4xx_StdPeriph_Driver/src/stm32f4xx_can.c ****   * @param  FIFONumber: FIFO to release, CAN_FIFO0 or CAN_FIFO1.
 792:App/STM32F4-Discovery/Libraries/STM32F4xx_StdPeriph_Driver/src/stm32f4xx_can.c ****   * @retval None
 793:App/STM32F4-Discovery/Libraries/STM32F4xx_StdPeriph_Driver/src/stm32f4xx_can.c ****   */
 794:App/STM32F4-Discovery/Libraries/STM32F4xx_StdPeriph_Driver/src/stm32f4xx_can.c **** void CAN_FIFORelease(CAN_TypeDef* CANx, uint8_t FIFONumber)
 795:App/STM32F4-Discovery/Libraries/STM32F4xx_StdPeriph_Driver/src/stm32f4xx_can.c **** {
 2157              		.loc 1 795 0
 2158              		.cfi_startproc
 2159              		@ args = 0, pretend = 0, frame = 8
 2160              		@ frame_needed = 1, uses_anonymous_args = 0
 2161 0000 80B5     		push	{r7, lr}
 2162              	.LCFI33:
 2163              		.cfi_def_cfa_offset 8
 2164              		.cfi_offset 7, -8
 2165              		.cfi_offset 14, -4
 2166 0002 82B0     		sub	sp, sp, #8
 2167              	.LCFI34:
 2168              		.cfi_def_cfa_offset 16
 2169 0004 00AF     		add	r7, sp, #0
 2170              	.LCFI35:
 2171              		.cfi_def_cfa_register 7
 2172 0006 7860     		str	r0, [r7, #4]
 2173 0008 0B46     		mov	r3, r1
 2174 000a FB70     		strb	r3, [r7, #3]
 796:App/STM32F4-Discovery/Libraries/STM32F4xx_StdPeriph_Driver/src/stm32f4xx_can.c ****   /* Check the parameters */
 797:App/STM32F4-Discovery/Libraries/STM32F4xx_StdPeriph_Driver/src/stm32f4xx_can.c ****   assert_param(IS_CAN_ALL_PERIPH(CANx));
 2175              		.loc 1 797 0
 2176 000c 7A68     		ldr	r2, [r7, #4]
 2177 000e 4FF4C843 		mov	r3, #25600
 2178 0012 C4F20003 		movt	r3, 16384
 2179 0016 9A42     		cmp	r2, r3
 2180 0018 0ED0     		beq	.L120
 2181              		.loc 1 797 0 is_stmt 0 discriminator 1
 2182 001a 7A68     		ldr	r2, [r7, #4]
 2183 001c 4FF4D043 		mov	r3, #26624
 2184 0020 C4F20003 		movt	r3, 16384
 2185 0024 9A42     		cmp	r2, r3
 2186 0026 07D0     		beq	.L120
 2187              		.loc 1 797 0 discriminator 2
 2188 0028 40F20000 		movw	r0, #:lower16:.LC0
 2189 002c C0F20000 		movt	r0, #:upper16:.LC0
 2190 0030 40F21D31 		movw	r1, #797
 2191 0034 FFF7FEFF 		bl	assert_failed
 2192              	.L120:
 798:App/STM32F4-Discovery/Libraries/STM32F4xx_StdPeriph_Driver/src/stm32f4xx_can.c ****   assert_param(IS_CAN_FIFO(FIFONumber));
 2193              		.loc 1 798 0 is_stmt 1
 2194 0038 FB78     		ldrb	r3, [r7, #3]	@ zero_extendqisi2
 2195 003a 002B     		cmp	r3, #0
 2196 003c 0AD0     		beq	.L121
 2197              		.loc 1 798 0 is_stmt 0 discriminator 1
 2198 003e FB78     		ldrb	r3, [r7, #3]	@ zero_extendqisi2
 2199 0040 012B     		cmp	r3, #1
 2200 0042 07D0     		beq	.L121
 2201              		.loc 1 798 0 discriminator 2
 2202 0044 40F20000 		movw	r0, #:lower16:.LC0
 2203 0048 C0F20000 		movt	r0, #:upper16:.LC0
 2204 004c 40F21E31 		movw	r1, #798
 2205 0050 FFF7FEFF 		bl	assert_failed
 2206              	.L121:
 799:App/STM32F4-Discovery/Libraries/STM32F4xx_StdPeriph_Driver/src/stm32f4xx_can.c ****   /* Release FIFO0 */
 800:App/STM32F4-Discovery/Libraries/STM32F4xx_StdPeriph_Driver/src/stm32f4xx_can.c ****   if (FIFONumber == CAN_FIFO0)
 2207              		.loc 1 800 0 is_stmt 1
 2208 0054 FB78     		ldrb	r3, [r7, #3]	@ zero_extendqisi2
 2209 0056 002B     		cmp	r3, #0
 2210 0058 06D1     		bne	.L122
 801:App/STM32F4-Discovery/Libraries/STM32F4xx_StdPeriph_Driver/src/stm32f4xx_can.c ****   {
 802:App/STM32F4-Discovery/Libraries/STM32F4xx_StdPeriph_Driver/src/stm32f4xx_can.c ****     CANx->RF0R |= CAN_RF0R_RFOM0;
 2211              		.loc 1 802 0
 2212 005a 7B68     		ldr	r3, [r7, #4]
 2213 005c DB68     		ldr	r3, [r3, #12]
 2214 005e 43F02002 		orr	r2, r3, #32
 2215 0062 7B68     		ldr	r3, [r7, #4]
 2216 0064 DA60     		str	r2, [r3, #12]
 2217 0066 05E0     		b	.L119
 2218              	.L122:
 803:App/STM32F4-Discovery/Libraries/STM32F4xx_StdPeriph_Driver/src/stm32f4xx_can.c ****   }
 804:App/STM32F4-Discovery/Libraries/STM32F4xx_StdPeriph_Driver/src/stm32f4xx_can.c ****   /* Release FIFO1 */
 805:App/STM32F4-Discovery/Libraries/STM32F4xx_StdPeriph_Driver/src/stm32f4xx_can.c ****   else /* FIFONumber == CAN_FIFO1 */
 806:App/STM32F4-Discovery/Libraries/STM32F4xx_StdPeriph_Driver/src/stm32f4xx_can.c ****   {
 807:App/STM32F4-Discovery/Libraries/STM32F4xx_StdPeriph_Driver/src/stm32f4xx_can.c ****     CANx->RF1R |= CAN_RF1R_RFOM1;
 2219              		.loc 1 807 0
 2220 0068 7B68     		ldr	r3, [r7, #4]
 2221 006a 1B69     		ldr	r3, [r3, #16]
 2222 006c 43F02002 		orr	r2, r3, #32
 2223 0070 7B68     		ldr	r3, [r7, #4]
 2224 0072 1A61     		str	r2, [r3, #16]
 2225              	.L119:
 808:App/STM32F4-Discovery/Libraries/STM32F4xx_StdPeriph_Driver/src/stm32f4xx_can.c ****   }
 809:App/STM32F4-Discovery/Libraries/STM32F4xx_StdPeriph_Driver/src/stm32f4xx_can.c **** }
 2226              		.loc 1 809 0
 2227 0074 07F10807 		add	r7, r7, #8
 2228 0078 BD46     		mov	sp, r7
 2229 007a 80BD     		pop	{r7, pc}
 2230              		.cfi_endproc
 2231              	.LFE121:
 2233              		.section	.text.CAN_MessagePending,"ax",%progbits
 2234              		.align	2
 2235              		.global	CAN_MessagePending
 2236              		.thumb
 2237              		.thumb_func
 2239              	CAN_MessagePending:
 2240              	.LFB122:
 810:App/STM32F4-Discovery/Libraries/STM32F4xx_StdPeriph_Driver/src/stm32f4xx_can.c **** 
 811:App/STM32F4-Discovery/Libraries/STM32F4xx_StdPeriph_Driver/src/stm32f4xx_can.c **** /**
 812:App/STM32F4-Discovery/Libraries/STM32F4xx_StdPeriph_Driver/src/stm32f4xx_can.c ****   * @brief  Returns the number of pending received messages.
 813:App/STM32F4-Discovery/Libraries/STM32F4xx_StdPeriph_Driver/src/stm32f4xx_can.c ****   * @param  CANx: where x can be 1 or 2 to select the CAN peripheral.
 814:App/STM32F4-Discovery/Libraries/STM32F4xx_StdPeriph_Driver/src/stm32f4xx_can.c ****   * @param  FIFONumber: Receive FIFO number, CAN_FIFO0 or CAN_FIFO1.
 815:App/STM32F4-Discovery/Libraries/STM32F4xx_StdPeriph_Driver/src/stm32f4xx_can.c ****   * @retval NbMessage : which is the number of pending message.
 816:App/STM32F4-Discovery/Libraries/STM32F4xx_StdPeriph_Driver/src/stm32f4xx_can.c ****   */
 817:App/STM32F4-Discovery/Libraries/STM32F4xx_StdPeriph_Driver/src/stm32f4xx_can.c **** uint8_t CAN_MessagePending(CAN_TypeDef* CANx, uint8_t FIFONumber)
 818:App/STM32F4-Discovery/Libraries/STM32F4xx_StdPeriph_Driver/src/stm32f4xx_can.c **** {
 2241              		.loc 1 818 0
 2242              		.cfi_startproc
 2243              		@ args = 0, pretend = 0, frame = 16
 2244              		@ frame_needed = 1, uses_anonymous_args = 0
 2245 0000 80B5     		push	{r7, lr}
 2246              	.LCFI36:
 2247              		.cfi_def_cfa_offset 8
 2248              		.cfi_offset 7, -8
 2249              		.cfi_offset 14, -4
 2250 0002 84B0     		sub	sp, sp, #16
 2251              	.LCFI37:
 2252              		.cfi_def_cfa_offset 24
 2253 0004 00AF     		add	r7, sp, #0
 2254              	.LCFI38:
 2255              		.cfi_def_cfa_register 7
 2256 0006 7860     		str	r0, [r7, #4]
 2257 0008 0B46     		mov	r3, r1
 2258 000a FB70     		strb	r3, [r7, #3]
 819:App/STM32F4-Discovery/Libraries/STM32F4xx_StdPeriph_Driver/src/stm32f4xx_can.c ****   uint8_t message_pending=0;
 2259              		.loc 1 819 0
 2260 000c 4FF00003 		mov	r3, #0
 2261 0010 FB73     		strb	r3, [r7, #15]
 820:App/STM32F4-Discovery/Libraries/STM32F4xx_StdPeriph_Driver/src/stm32f4xx_can.c ****   /* Check the parameters */
 821:App/STM32F4-Discovery/Libraries/STM32F4xx_StdPeriph_Driver/src/stm32f4xx_can.c ****   assert_param(IS_CAN_ALL_PERIPH(CANx));
 2262              		.loc 1 821 0
 2263 0012 7A68     		ldr	r2, [r7, #4]
 2264 0014 4FF4C843 		mov	r3, #25600
 2265 0018 C4F20003 		movt	r3, 16384
 2266 001c 9A42     		cmp	r2, r3
 2267 001e 0ED0     		beq	.L125
 2268              		.loc 1 821 0 is_stmt 0 discriminator 1
 2269 0020 7A68     		ldr	r2, [r7, #4]
 2270 0022 4FF4D043 		mov	r3, #26624
 2271 0026 C4F20003 		movt	r3, 16384
 2272 002a 9A42     		cmp	r2, r3
 2273 002c 07D0     		beq	.L125
 2274              		.loc 1 821 0 discriminator 2
 2275 002e 40F20000 		movw	r0, #:lower16:.LC0
 2276 0032 C0F20000 		movt	r0, #:upper16:.LC0
 2277 0036 40F23531 		movw	r1, #821
 2278 003a FFF7FEFF 		bl	assert_failed
 2279              	.L125:
 822:App/STM32F4-Discovery/Libraries/STM32F4xx_StdPeriph_Driver/src/stm32f4xx_can.c ****   assert_param(IS_CAN_FIFO(FIFONumber));
 2280              		.loc 1 822 0 is_stmt 1
 2281 003e FB78     		ldrb	r3, [r7, #3]	@ zero_extendqisi2
 2282 0040 002B     		cmp	r3, #0
 2283 0042 0AD0     		beq	.L126
 2284              		.loc 1 822 0 is_stmt 0 discriminator 1
 2285 0044 FB78     		ldrb	r3, [r7, #3]	@ zero_extendqisi2
 2286 0046 012B     		cmp	r3, #1
 2287 0048 07D0     		beq	.L126
 2288              		.loc 1 822 0 discriminator 2
 2289 004a 40F20000 		movw	r0, #:lower16:.LC0
 2290 004e C0F20000 		movt	r0, #:upper16:.LC0
 2291 0052 40F23631 		movw	r1, #822
 2292 0056 FFF7FEFF 		bl	assert_failed
 2293              	.L126:
 823:App/STM32F4-Discovery/Libraries/STM32F4xx_StdPeriph_Driver/src/stm32f4xx_can.c ****   if (FIFONumber == CAN_FIFO0)
 2294              		.loc 1 823 0 is_stmt 1
 2295 005a FB78     		ldrb	r3, [r7, #3]	@ zero_extendqisi2
 2296 005c 002B     		cmp	r3, #0
 2297 005e 06D1     		bne	.L127
 824:App/STM32F4-Discovery/Libraries/STM32F4xx_StdPeriph_Driver/src/stm32f4xx_can.c ****   {
 825:App/STM32F4-Discovery/Libraries/STM32F4xx_StdPeriph_Driver/src/stm32f4xx_can.c ****     message_pending = (uint8_t)(CANx->RF0R&(uint32_t)0x03);
 2298              		.loc 1 825 0
 2299 0060 7B68     		ldr	r3, [r7, #4]
 2300 0062 DB68     		ldr	r3, [r3, #12]
 2301 0064 DBB2     		uxtb	r3, r3
 2302 0066 03F00303 		and	r3, r3, #3
 2303 006a FB73     		strb	r3, [r7, #15]
 2304 006c 0CE0     		b	.L128
 2305              	.L127:
 826:App/STM32F4-Discovery/Libraries/STM32F4xx_StdPeriph_Driver/src/stm32f4xx_can.c ****   }
 827:App/STM32F4-Discovery/Libraries/STM32F4xx_StdPeriph_Driver/src/stm32f4xx_can.c ****   else if (FIFONumber == CAN_FIFO1)
 2306              		.loc 1 827 0
 2307 006e FB78     		ldrb	r3, [r7, #3]	@ zero_extendqisi2
 2308 0070 012B     		cmp	r3, #1
 2309 0072 06D1     		bne	.L129
 828:App/STM32F4-Discovery/Libraries/STM32F4xx_StdPeriph_Driver/src/stm32f4xx_can.c ****   {
 829:App/STM32F4-Discovery/Libraries/STM32F4xx_StdPeriph_Driver/src/stm32f4xx_can.c ****     message_pending = (uint8_t)(CANx->RF1R&(uint32_t)0x03);
 2310              		.loc 1 829 0
 2311 0074 7B68     		ldr	r3, [r7, #4]
 2312 0076 1B69     		ldr	r3, [r3, #16]
 2313 0078 DBB2     		uxtb	r3, r3
 2314 007a 03F00303 		and	r3, r3, #3
 2315 007e FB73     		strb	r3, [r7, #15]
 2316 0080 02E0     		b	.L128
 2317              	.L129:
 830:App/STM32F4-Discovery/Libraries/STM32F4xx_StdPeriph_Driver/src/stm32f4xx_can.c ****   }
 831:App/STM32F4-Discovery/Libraries/STM32F4xx_StdPeriph_Driver/src/stm32f4xx_can.c ****   else
 832:App/STM32F4-Discovery/Libraries/STM32F4xx_StdPeriph_Driver/src/stm32f4xx_can.c ****   {
 833:App/STM32F4-Discovery/Libraries/STM32F4xx_StdPeriph_Driver/src/stm32f4xx_can.c ****     message_pending = 0;
 2318              		.loc 1 833 0
 2319 0082 4FF00003 		mov	r3, #0
 2320 0086 FB73     		strb	r3, [r7, #15]
 2321              	.L128:
 834:App/STM32F4-Discovery/Libraries/STM32F4xx_StdPeriph_Driver/src/stm32f4xx_can.c ****   }
 835:App/STM32F4-Discovery/Libraries/STM32F4xx_StdPeriph_Driver/src/stm32f4xx_can.c ****   return message_pending;
 2322              		.loc 1 835 0
 2323 0088 FB7B     		ldrb	r3, [r7, #15]	@ zero_extendqisi2
 836:App/STM32F4-Discovery/Libraries/STM32F4xx_StdPeriph_Driver/src/stm32f4xx_can.c **** }
 2324              		.loc 1 836 0
 2325 008a 1846     		mov	r0, r3
 2326 008c 07F11007 		add	r7, r7, #16
 2327 0090 BD46     		mov	sp, r7
 2328 0092 80BD     		pop	{r7, pc}
 2329              		.cfi_endproc
 2330              	.LFE122:
 2332              		.section	.text.CAN_OperatingModeRequest,"ax",%progbits
 2333              		.align	2
 2334              		.global	CAN_OperatingModeRequest
 2335              		.thumb
 2336              		.thumb_func
 2338              	CAN_OperatingModeRequest:
 2339              	.LFB123:
 837:App/STM32F4-Discovery/Libraries/STM32F4xx_StdPeriph_Driver/src/stm32f4xx_can.c **** /**
 838:App/STM32F4-Discovery/Libraries/STM32F4xx_StdPeriph_Driver/src/stm32f4xx_can.c ****   * @}
 839:App/STM32F4-Discovery/Libraries/STM32F4xx_StdPeriph_Driver/src/stm32f4xx_can.c ****   */
 840:App/STM32F4-Discovery/Libraries/STM32F4xx_StdPeriph_Driver/src/stm32f4xx_can.c **** 
 841:App/STM32F4-Discovery/Libraries/STM32F4xx_StdPeriph_Driver/src/stm32f4xx_can.c **** 
 842:App/STM32F4-Discovery/Libraries/STM32F4xx_StdPeriph_Driver/src/stm32f4xx_can.c **** /** @defgroup CAN_Group4 CAN Operation modes functions
 843:App/STM32F4-Discovery/Libraries/STM32F4xx_StdPeriph_Driver/src/stm32f4xx_can.c ****  *  @brief    CAN Operation modes functions 
 844:App/STM32F4-Discovery/Libraries/STM32F4xx_StdPeriph_Driver/src/stm32f4xx_can.c ****  *
 845:App/STM32F4-Discovery/Libraries/STM32F4xx_StdPeriph_Driver/src/stm32f4xx_can.c **** @verbatim    
 846:App/STM32F4-Discovery/Libraries/STM32F4xx_StdPeriph_Driver/src/stm32f4xx_can.c ****  ===============================================================================
 847:App/STM32F4-Discovery/Libraries/STM32F4xx_StdPeriph_Driver/src/stm32f4xx_can.c ****                       CAN Operation modes functions
 848:App/STM32F4-Discovery/Libraries/STM32F4xx_StdPeriph_Driver/src/stm32f4xx_can.c ****  ===============================================================================  
 849:App/STM32F4-Discovery/Libraries/STM32F4xx_StdPeriph_Driver/src/stm32f4xx_can.c ****   This section provides functions allowing to select the CAN Operation modes
 850:App/STM32F4-Discovery/Libraries/STM32F4xx_StdPeriph_Driver/src/stm32f4xx_can.c ****   - sleep mode
 851:App/STM32F4-Discovery/Libraries/STM32F4xx_StdPeriph_Driver/src/stm32f4xx_can.c ****   - normal mode 
 852:App/STM32F4-Discovery/Libraries/STM32F4xx_StdPeriph_Driver/src/stm32f4xx_can.c ****   - initialization mode
 853:App/STM32F4-Discovery/Libraries/STM32F4xx_StdPeriph_Driver/src/stm32f4xx_can.c ****    
 854:App/STM32F4-Discovery/Libraries/STM32F4xx_StdPeriph_Driver/src/stm32f4xx_can.c **** @endverbatim
 855:App/STM32F4-Discovery/Libraries/STM32F4xx_StdPeriph_Driver/src/stm32f4xx_can.c ****   * @{
 856:App/STM32F4-Discovery/Libraries/STM32F4xx_StdPeriph_Driver/src/stm32f4xx_can.c ****   */
 857:App/STM32F4-Discovery/Libraries/STM32F4xx_StdPeriph_Driver/src/stm32f4xx_can.c ****   
 858:App/STM32F4-Discovery/Libraries/STM32F4xx_StdPeriph_Driver/src/stm32f4xx_can.c ****   
 859:App/STM32F4-Discovery/Libraries/STM32F4xx_StdPeriph_Driver/src/stm32f4xx_can.c **** /**
 860:App/STM32F4-Discovery/Libraries/STM32F4xx_StdPeriph_Driver/src/stm32f4xx_can.c ****   * @brief  Selects the CAN Operation mode.
 861:App/STM32F4-Discovery/Libraries/STM32F4xx_StdPeriph_Driver/src/stm32f4xx_can.c ****   * @param  CAN_OperatingMode: CAN Operating Mode.
 862:App/STM32F4-Discovery/Libraries/STM32F4xx_StdPeriph_Driver/src/stm32f4xx_can.c ****   *         This parameter can be one of @ref CAN_OperatingMode_TypeDef enumeration.
 863:App/STM32F4-Discovery/Libraries/STM32F4xx_StdPeriph_Driver/src/stm32f4xx_can.c ****   * @retval status of the requested mode which can be 
 864:App/STM32F4-Discovery/Libraries/STM32F4xx_StdPeriph_Driver/src/stm32f4xx_can.c ****   *         - CAN_ModeStatus_Failed:  CAN failed entering the specific mode 
 865:App/STM32F4-Discovery/Libraries/STM32F4xx_StdPeriph_Driver/src/stm32f4xx_can.c ****   *         - CAN_ModeStatus_Success: CAN Succeed entering the specific mode 
 866:App/STM32F4-Discovery/Libraries/STM32F4xx_StdPeriph_Driver/src/stm32f4xx_can.c ****   */
 867:App/STM32F4-Discovery/Libraries/STM32F4xx_StdPeriph_Driver/src/stm32f4xx_can.c **** uint8_t CAN_OperatingModeRequest(CAN_TypeDef* CANx, uint8_t CAN_OperatingMode)
 868:App/STM32F4-Discovery/Libraries/STM32F4xx_StdPeriph_Driver/src/stm32f4xx_can.c **** {
 2340              		.loc 1 868 0
 2341              		.cfi_startproc
 2342              		@ args = 0, pretend = 0, frame = 16
 2343              		@ frame_needed = 1, uses_anonymous_args = 0
 2344 0000 80B5     		push	{r7, lr}
 2345              	.LCFI39:
 2346              		.cfi_def_cfa_offset 8
 2347              		.cfi_offset 7, -8
 2348              		.cfi_offset 14, -4
 2349 0002 84B0     		sub	sp, sp, #16
 2350              	.LCFI40:
 2351              		.cfi_def_cfa_offset 24
 2352 0004 00AF     		add	r7, sp, #0
 2353              	.LCFI41:
 2354              		.cfi_def_cfa_register 7
 2355 0006 7860     		str	r0, [r7, #4]
 2356 0008 0B46     		mov	r3, r1
 2357 000a FB70     		strb	r3, [r7, #3]
 869:App/STM32F4-Discovery/Libraries/STM32F4xx_StdPeriph_Driver/src/stm32f4xx_can.c ****   uint8_t status = CAN_ModeStatus_Failed;
 2358              		.loc 1 869 0
 2359 000c 4FF00003 		mov	r3, #0
 2360 0010 FB73     		strb	r3, [r7, #15]
 870:App/STM32F4-Discovery/Libraries/STM32F4xx_StdPeriph_Driver/src/stm32f4xx_can.c ****   
 871:App/STM32F4-Discovery/Libraries/STM32F4xx_StdPeriph_Driver/src/stm32f4xx_can.c ****   /* Timeout for INAK or also for SLAK bits*/
 872:App/STM32F4-Discovery/Libraries/STM32F4xx_StdPeriph_Driver/src/stm32f4xx_can.c ****   uint32_t timeout = INAK_TIMEOUT; 
 2361              		.loc 1 872 0
 2362 0012 4FF6FF73 		movw	r3, #65535
 2363 0016 BB60     		str	r3, [r7, #8]
 873:App/STM32F4-Discovery/Libraries/STM32F4xx_StdPeriph_Driver/src/stm32f4xx_can.c **** 
 874:App/STM32F4-Discovery/Libraries/STM32F4xx_StdPeriph_Driver/src/stm32f4xx_can.c ****   /* Check the parameters */
 875:App/STM32F4-Discovery/Libraries/STM32F4xx_StdPeriph_Driver/src/stm32f4xx_can.c ****   assert_param(IS_CAN_ALL_PERIPH(CANx));
 2364              		.loc 1 875 0
 2365 0018 7A68     		ldr	r2, [r7, #4]
 2366 001a 4FF4C843 		mov	r3, #25600
 2367 001e C4F20003 		movt	r3, 16384
 2368 0022 9A42     		cmp	r2, r3
 2369 0024 0ED0     		beq	.L132
 2370              		.loc 1 875 0 is_stmt 0 discriminator 1
 2371 0026 7A68     		ldr	r2, [r7, #4]
 2372 0028 4FF4D043 		mov	r3, #26624
 2373 002c C4F20003 		movt	r3, 16384
 2374 0030 9A42     		cmp	r2, r3
 2375 0032 07D0     		beq	.L132
 2376              		.loc 1 875 0 discriminator 2
 2377 0034 40F20000 		movw	r0, #:lower16:.LC0
 2378 0038 C0F20000 		movt	r0, #:upper16:.LC0
 2379 003c 40F26B31 		movw	r1, #875
 2380 0040 FFF7FEFF 		bl	assert_failed
 2381              	.L132:
 876:App/STM32F4-Discovery/Libraries/STM32F4xx_StdPeriph_Driver/src/stm32f4xx_can.c ****   assert_param(IS_CAN_OPERATING_MODE(CAN_OperatingMode));
 2382              		.loc 1 876 0 is_stmt 1
 2383 0044 FB78     		ldrb	r3, [r7, #3]	@ zero_extendqisi2
 2384 0046 002B     		cmp	r3, #0
 2385 0048 0DD0     		beq	.L133
 2386              		.loc 1 876 0 is_stmt 0 discriminator 1
 2387 004a FB78     		ldrb	r3, [r7, #3]	@ zero_extendqisi2
 2388 004c 012B     		cmp	r3, #1
 2389 004e 0AD0     		beq	.L133
 2390              		.loc 1 876 0 discriminator 2
 2391 0050 FB78     		ldrb	r3, [r7, #3]	@ zero_extendqisi2
 2392 0052 022B     		cmp	r3, #2
 2393 0054 07D0     		beq	.L133
 2394              		.loc 1 876 0 discriminator 3
 2395 0056 40F20000 		movw	r0, #:lower16:.LC0
 2396 005a C0F20000 		movt	r0, #:upper16:.LC0
 2397 005e 4FF45B71 		mov	r1, #876
 2398 0062 FFF7FEFF 		bl	assert_failed
 2399              	.L133:
 877:App/STM32F4-Discovery/Libraries/STM32F4xx_StdPeriph_Driver/src/stm32f4xx_can.c **** 
 878:App/STM32F4-Discovery/Libraries/STM32F4xx_StdPeriph_Driver/src/stm32f4xx_can.c ****   if (CAN_OperatingMode == CAN_OperatingMode_Initialization)
 2400              		.loc 1 878 0 is_stmt 1
 2401 0066 FB78     		ldrb	r3, [r7, #3]	@ zero_extendqisi2
 2402 0068 002B     		cmp	r3, #0
 2403 006a 23D1     		bne	.L134
 879:App/STM32F4-Discovery/Libraries/STM32F4xx_StdPeriph_Driver/src/stm32f4xx_can.c ****   {
 880:App/STM32F4-Discovery/Libraries/STM32F4xx_StdPeriph_Driver/src/stm32f4xx_can.c ****     /* Request initialisation */
 881:App/STM32F4-Discovery/Libraries/STM32F4xx_StdPeriph_Driver/src/stm32f4xx_can.c ****     CANx->MCR = (uint32_t)((CANx->MCR & (uint32_t)(~(uint32_t)CAN_MCR_SLEEP)) | CAN_MCR_INRQ);
 2404              		.loc 1 881 0
 2405 006c 7B68     		ldr	r3, [r7, #4]
 2406 006e 1B68     		ldr	r3, [r3, #0]
 2407 0070 23F00303 		bic	r3, r3, #3
 2408 0074 43F00102 		orr	r2, r3, #1
 2409 0078 7B68     		ldr	r3, [r7, #4]
 2410 007a 1A60     		str	r2, [r3, #0]
 882:App/STM32F4-Discovery/Libraries/STM32F4xx_StdPeriph_Driver/src/stm32f4xx_can.c **** 
 883:App/STM32F4-Discovery/Libraries/STM32F4xx_StdPeriph_Driver/src/stm32f4xx_can.c ****     /* Wait the acknowledge */
 884:App/STM32F4-Discovery/Libraries/STM32F4xx_StdPeriph_Driver/src/stm32f4xx_can.c ****     while (((CANx->MSR & CAN_MODE_MASK) != CAN_MSR_INAK) && (timeout != 0))
 2411              		.loc 1 884 0
 2412 007c 03E0     		b	.L135
 2413              	.L137:
 885:App/STM32F4-Discovery/Libraries/STM32F4xx_StdPeriph_Driver/src/stm32f4xx_can.c ****     {
 886:App/STM32F4-Discovery/Libraries/STM32F4xx_StdPeriph_Driver/src/stm32f4xx_can.c ****       timeout--;
 2414              		.loc 1 886 0
 2415 007e BB68     		ldr	r3, [r7, #8]
 2416 0080 03F1FF33 		add	r3, r3, #-1
 2417 0084 BB60     		str	r3, [r7, #8]
 2418              	.L135:
 884:App/STM32F4-Discovery/Libraries/STM32F4xx_StdPeriph_Driver/src/stm32f4xx_can.c ****     while (((CANx->MSR & CAN_MODE_MASK) != CAN_MSR_INAK) && (timeout != 0))
 2419              		.loc 1 884 0 discriminator 1
 2420 0086 7B68     		ldr	r3, [r7, #4]
 2421 0088 5B68     		ldr	r3, [r3, #4]
 2422 008a 03F00303 		and	r3, r3, #3
 2423 008e 012B     		cmp	r3, #1
 2424 0090 02D0     		beq	.L136
 884:App/STM32F4-Discovery/Libraries/STM32F4xx_StdPeriph_Driver/src/stm32f4xx_can.c ****     while (((CANx->MSR & CAN_MODE_MASK) != CAN_MSR_INAK) && (timeout != 0))
 2425              		.loc 1 884 0 is_stmt 0 discriminator 2
 2426 0092 BB68     		ldr	r3, [r7, #8]
 2427 0094 002B     		cmp	r3, #0
 2428 0096 F2D1     		bne	.L137
 2429              	.L136:
 887:App/STM32F4-Discovery/Libraries/STM32F4xx_StdPeriph_Driver/src/stm32f4xx_can.c ****     }
 888:App/STM32F4-Discovery/Libraries/STM32F4xx_StdPeriph_Driver/src/stm32f4xx_can.c ****     if ((CANx->MSR & CAN_MODE_MASK) != CAN_MSR_INAK)
 2430              		.loc 1 888 0 is_stmt 1
 2431 0098 7B68     		ldr	r3, [r7, #4]
 2432 009a 5B68     		ldr	r3, [r3, #4]
 2433 009c 03F00303 		and	r3, r3, #3
 2434 00a0 012B     		cmp	r3, #1
 2435 00a2 03D0     		beq	.L138
 889:App/STM32F4-Discovery/Libraries/STM32F4xx_StdPeriph_Driver/src/stm32f4xx_can.c ****     {
 890:App/STM32F4-Discovery/Libraries/STM32F4xx_StdPeriph_Driver/src/stm32f4xx_can.c ****       status = CAN_ModeStatus_Failed;
 2436              		.loc 1 890 0
 2437 00a4 4FF00003 		mov	r3, #0
 2438 00a8 FB73     		strb	r3, [r7, #15]
 2439 00aa 52E0     		b	.L139
 2440              	.L138:
 891:App/STM32F4-Discovery/Libraries/STM32F4xx_StdPeriph_Driver/src/stm32f4xx_can.c ****     }
 892:App/STM32F4-Discovery/Libraries/STM32F4xx_StdPeriph_Driver/src/stm32f4xx_can.c ****     else
 893:App/STM32F4-Discovery/Libraries/STM32F4xx_StdPeriph_Driver/src/stm32f4xx_can.c ****     {
 894:App/STM32F4-Discovery/Libraries/STM32F4xx_StdPeriph_Driver/src/stm32f4xx_can.c ****       status = CAN_ModeStatus_Success;
 2441              		.loc 1 894 0
 2442 00ac 4FF00103 		mov	r3, #1
 2443 00b0 FB73     		strb	r3, [r7, #15]
 2444 00b2 4EE0     		b	.L139
 2445              	.L134:
 895:App/STM32F4-Discovery/Libraries/STM32F4xx_StdPeriph_Driver/src/stm32f4xx_can.c ****     }
 896:App/STM32F4-Discovery/Libraries/STM32F4xx_StdPeriph_Driver/src/stm32f4xx_can.c ****   }
 897:App/STM32F4-Discovery/Libraries/STM32F4xx_StdPeriph_Driver/src/stm32f4xx_can.c ****   else  if (CAN_OperatingMode == CAN_OperatingMode_Normal)
 2446              		.loc 1 897 0
 2447 00b4 FB78     		ldrb	r3, [r7, #3]	@ zero_extendqisi2
 2448 00b6 012B     		cmp	r3, #1
 2449 00b8 21D1     		bne	.L140
 898:App/STM32F4-Discovery/Libraries/STM32F4xx_StdPeriph_Driver/src/stm32f4xx_can.c ****   {
 899:App/STM32F4-Discovery/Libraries/STM32F4xx_StdPeriph_Driver/src/stm32f4xx_can.c ****     /* Request leave initialisation and sleep mode  and enter Normal mode */
 900:App/STM32F4-Discovery/Libraries/STM32F4xx_StdPeriph_Driver/src/stm32f4xx_can.c ****     CANx->MCR &= (uint32_t)(~(CAN_MCR_SLEEP|CAN_MCR_INRQ));
 2450              		.loc 1 900 0
 2451 00ba 7B68     		ldr	r3, [r7, #4]
 2452 00bc 1B68     		ldr	r3, [r3, #0]
 2453 00be 23F00302 		bic	r2, r3, #3
 2454 00c2 7B68     		ldr	r3, [r7, #4]
 2455 00c4 1A60     		str	r2, [r3, #0]
 901:App/STM32F4-Discovery/Libraries/STM32F4xx_StdPeriph_Driver/src/stm32f4xx_can.c **** 
 902:App/STM32F4-Discovery/Libraries/STM32F4xx_StdPeriph_Driver/src/stm32f4xx_can.c ****     /* Wait the acknowledge */
 903:App/STM32F4-Discovery/Libraries/STM32F4xx_StdPeriph_Driver/src/stm32f4xx_can.c ****     while (((CANx->MSR & CAN_MODE_MASK) != 0) && (timeout!=0))
 2456              		.loc 1 903 0
 2457 00c6 03E0     		b	.L141
 2458              	.L143:
 904:App/STM32F4-Discovery/Libraries/STM32F4xx_StdPeriph_Driver/src/stm32f4xx_can.c ****     {
 905:App/STM32F4-Discovery/Libraries/STM32F4xx_StdPeriph_Driver/src/stm32f4xx_can.c ****       timeout--;
 2459              		.loc 1 905 0
 2460 00c8 BB68     		ldr	r3, [r7, #8]
 2461 00ca 03F1FF33 		add	r3, r3, #-1
 2462 00ce BB60     		str	r3, [r7, #8]
 2463              	.L141:
 903:App/STM32F4-Discovery/Libraries/STM32F4xx_StdPeriph_Driver/src/stm32f4xx_can.c ****     while (((CANx->MSR & CAN_MODE_MASK) != 0) && (timeout!=0))
 2464              		.loc 1 903 0 discriminator 1
 2465 00d0 7B68     		ldr	r3, [r7, #4]
 2466 00d2 5B68     		ldr	r3, [r3, #4]
 2467 00d4 03F00303 		and	r3, r3, #3
 2468 00d8 002B     		cmp	r3, #0
 2469 00da 02D0     		beq	.L142
 903:App/STM32F4-Discovery/Libraries/STM32F4xx_StdPeriph_Driver/src/stm32f4xx_can.c ****     while (((CANx->MSR & CAN_MODE_MASK) != 0) && (timeout!=0))
 2470              		.loc 1 903 0 is_stmt 0 discriminator 2
 2471 00dc BB68     		ldr	r3, [r7, #8]
 2472 00de 002B     		cmp	r3, #0
 2473 00e0 F2D1     		bne	.L143
 2474              	.L142:
 906:App/STM32F4-Discovery/Libraries/STM32F4xx_StdPeriph_Driver/src/stm32f4xx_can.c ****     }
 907:App/STM32F4-Discovery/Libraries/STM32F4xx_StdPeriph_Driver/src/stm32f4xx_can.c ****     if ((CANx->MSR & CAN_MODE_MASK) != 0)
 2475              		.loc 1 907 0 is_stmt 1
 2476 00e2 7B68     		ldr	r3, [r7, #4]
 2477 00e4 5B68     		ldr	r3, [r3, #4]
 2478 00e6 03F00303 		and	r3, r3, #3
 2479 00ea 002B     		cmp	r3, #0
 2480 00ec 03D0     		beq	.L144
 908:App/STM32F4-Discovery/Libraries/STM32F4xx_StdPeriph_Driver/src/stm32f4xx_can.c ****     {
 909:App/STM32F4-Discovery/Libraries/STM32F4xx_StdPeriph_Driver/src/stm32f4xx_can.c ****       status = CAN_ModeStatus_Failed;
 2481              		.loc 1 909 0
 2482 00ee 4FF00003 		mov	r3, #0
 2483 00f2 FB73     		strb	r3, [r7, #15]
 2484 00f4 2DE0     		b	.L139
 2485              	.L144:
 910:App/STM32F4-Discovery/Libraries/STM32F4xx_StdPeriph_Driver/src/stm32f4xx_can.c ****     }
 911:App/STM32F4-Discovery/Libraries/STM32F4xx_StdPeriph_Driver/src/stm32f4xx_can.c ****     else
 912:App/STM32F4-Discovery/Libraries/STM32F4xx_StdPeriph_Driver/src/stm32f4xx_can.c ****     {
 913:App/STM32F4-Discovery/Libraries/STM32F4xx_StdPeriph_Driver/src/stm32f4xx_can.c ****       status = CAN_ModeStatus_Success;
 2486              		.loc 1 913 0
 2487 00f6 4FF00103 		mov	r3, #1
 2488 00fa FB73     		strb	r3, [r7, #15]
 2489 00fc 29E0     		b	.L139
 2490              	.L140:
 914:App/STM32F4-Discovery/Libraries/STM32F4xx_StdPeriph_Driver/src/stm32f4xx_can.c ****     }
 915:App/STM32F4-Discovery/Libraries/STM32F4xx_StdPeriph_Driver/src/stm32f4xx_can.c ****   }
 916:App/STM32F4-Discovery/Libraries/STM32F4xx_StdPeriph_Driver/src/stm32f4xx_can.c ****   else  if (CAN_OperatingMode == CAN_OperatingMode_Sleep)
 2491              		.loc 1 916 0
 2492 00fe FB78     		ldrb	r3, [r7, #3]	@ zero_extendqisi2
 2493 0100 022B     		cmp	r3, #2
 2494 0102 23D1     		bne	.L145
 917:App/STM32F4-Discovery/Libraries/STM32F4xx_StdPeriph_Driver/src/stm32f4xx_can.c ****   {
 918:App/STM32F4-Discovery/Libraries/STM32F4xx_StdPeriph_Driver/src/stm32f4xx_can.c ****     /* Request Sleep mode */
 919:App/STM32F4-Discovery/Libraries/STM32F4xx_StdPeriph_Driver/src/stm32f4xx_can.c ****     CANx->MCR = (uint32_t)((CANx->MCR & (uint32_t)(~(uint32_t)CAN_MCR_INRQ)) | CAN_MCR_SLEEP);
 2495              		.loc 1 919 0
 2496 0104 7B68     		ldr	r3, [r7, #4]
 2497 0106 1B68     		ldr	r3, [r3, #0]
 2498 0108 23F00303 		bic	r3, r3, #3
 2499 010c 43F00202 		orr	r2, r3, #2
 2500 0110 7B68     		ldr	r3, [r7, #4]
 2501 0112 1A60     		str	r2, [r3, #0]
 920:App/STM32F4-Discovery/Libraries/STM32F4xx_StdPeriph_Driver/src/stm32f4xx_can.c **** 
 921:App/STM32F4-Discovery/Libraries/STM32F4xx_StdPeriph_Driver/src/stm32f4xx_can.c ****     /* Wait the acknowledge */
 922:App/STM32F4-Discovery/Libraries/STM32F4xx_StdPeriph_Driver/src/stm32f4xx_can.c ****     while (((CANx->MSR & CAN_MODE_MASK) != CAN_MSR_SLAK) && (timeout!=0))
 2502              		.loc 1 922 0
 2503 0114 03E0     		b	.L146
 2504              	.L148:
 923:App/STM32F4-Discovery/Libraries/STM32F4xx_StdPeriph_Driver/src/stm32f4xx_can.c ****     {
 924:App/STM32F4-Discovery/Libraries/STM32F4xx_StdPeriph_Driver/src/stm32f4xx_can.c ****       timeout--;
 2505              		.loc 1 924 0
 2506 0116 BB68     		ldr	r3, [r7, #8]
 2507 0118 03F1FF33 		add	r3, r3, #-1
 2508 011c BB60     		str	r3, [r7, #8]
 2509              	.L146:
 922:App/STM32F4-Discovery/Libraries/STM32F4xx_StdPeriph_Driver/src/stm32f4xx_can.c ****     while (((CANx->MSR & CAN_MODE_MASK) != CAN_MSR_SLAK) && (timeout!=0))
 2510              		.loc 1 922 0 discriminator 1
 2511 011e 7B68     		ldr	r3, [r7, #4]
 2512 0120 5B68     		ldr	r3, [r3, #4]
 2513 0122 03F00303 		and	r3, r3, #3
 2514 0126 022B     		cmp	r3, #2
 2515 0128 02D0     		beq	.L147
 922:App/STM32F4-Discovery/Libraries/STM32F4xx_StdPeriph_Driver/src/stm32f4xx_can.c ****     while (((CANx->MSR & CAN_MODE_MASK) != CAN_MSR_SLAK) && (timeout!=0))
 2516              		.loc 1 922 0 is_stmt 0 discriminator 2
 2517 012a BB68     		ldr	r3, [r7, #8]
 2518 012c 002B     		cmp	r3, #0
 2519 012e F2D1     		bne	.L148
 2520              	.L147:
 925:App/STM32F4-Discovery/Libraries/STM32F4xx_StdPeriph_Driver/src/stm32f4xx_can.c ****     }
 926:App/STM32F4-Discovery/Libraries/STM32F4xx_StdPeriph_Driver/src/stm32f4xx_can.c ****     if ((CANx->MSR & CAN_MODE_MASK) != CAN_MSR_SLAK)
 2521              		.loc 1 926 0 is_stmt 1
 2522 0130 7B68     		ldr	r3, [r7, #4]
 2523 0132 5B68     		ldr	r3, [r3, #4]
 2524 0134 03F00303 		and	r3, r3, #3
 2525 0138 022B     		cmp	r3, #2
 2526 013a 03D0     		beq	.L149
 927:App/STM32F4-Discovery/Libraries/STM32F4xx_StdPeriph_Driver/src/stm32f4xx_can.c ****     {
 928:App/STM32F4-Discovery/Libraries/STM32F4xx_StdPeriph_Driver/src/stm32f4xx_can.c ****       status = CAN_ModeStatus_Failed;
 2527              		.loc 1 928 0
 2528 013c 4FF00003 		mov	r3, #0
 2529 0140 FB73     		strb	r3, [r7, #15]
 2530 0142 06E0     		b	.L139
 2531              	.L149:
 929:App/STM32F4-Discovery/Libraries/STM32F4xx_StdPeriph_Driver/src/stm32f4xx_can.c ****     }
 930:App/STM32F4-Discovery/Libraries/STM32F4xx_StdPeriph_Driver/src/stm32f4xx_can.c ****     else
 931:App/STM32F4-Discovery/Libraries/STM32F4xx_StdPeriph_Driver/src/stm32f4xx_can.c ****     {
 932:App/STM32F4-Discovery/Libraries/STM32F4xx_StdPeriph_Driver/src/stm32f4xx_can.c ****       status = CAN_ModeStatus_Success;
 2532              		.loc 1 932 0
 2533 0144 4FF00103 		mov	r3, #1
 2534 0148 FB73     		strb	r3, [r7, #15]
 2535 014a 02E0     		b	.L139
 2536              	.L145:
 933:App/STM32F4-Discovery/Libraries/STM32F4xx_StdPeriph_Driver/src/stm32f4xx_can.c ****     }
 934:App/STM32F4-Discovery/Libraries/STM32F4xx_StdPeriph_Driver/src/stm32f4xx_can.c ****   }
 935:App/STM32F4-Discovery/Libraries/STM32F4xx_StdPeriph_Driver/src/stm32f4xx_can.c ****   else
 936:App/STM32F4-Discovery/Libraries/STM32F4xx_StdPeriph_Driver/src/stm32f4xx_can.c ****   {
 937:App/STM32F4-Discovery/Libraries/STM32F4xx_StdPeriph_Driver/src/stm32f4xx_can.c ****     status = CAN_ModeStatus_Failed;
 2537              		.loc 1 937 0
 2538 014c 4FF00003 		mov	r3, #0
 2539 0150 FB73     		strb	r3, [r7, #15]
 2540              	.L139:
 938:App/STM32F4-Discovery/Libraries/STM32F4xx_StdPeriph_Driver/src/stm32f4xx_can.c ****   }
 939:App/STM32F4-Discovery/Libraries/STM32F4xx_StdPeriph_Driver/src/stm32f4xx_can.c **** 
 940:App/STM32F4-Discovery/Libraries/STM32F4xx_StdPeriph_Driver/src/stm32f4xx_can.c ****   return  (uint8_t) status;
 2541              		.loc 1 940 0
 2542 0152 FB7B     		ldrb	r3, [r7, #15]	@ zero_extendqisi2
 941:App/STM32F4-Discovery/Libraries/STM32F4xx_StdPeriph_Driver/src/stm32f4xx_can.c **** }
 2543              		.loc 1 941 0
 2544 0154 1846     		mov	r0, r3
 2545 0156 07F11007 		add	r7, r7, #16
 2546 015a BD46     		mov	sp, r7
 2547 015c 80BD     		pop	{r7, pc}
 2548              		.cfi_endproc
 2549              	.LFE123:
 2551 015e 00BF     		.section	.text.CAN_Sleep,"ax",%progbits
 2552              		.align	2
 2553              		.global	CAN_Sleep
 2554              		.thumb
 2555              		.thumb_func
 2557              	CAN_Sleep:
 2558              	.LFB124:
 942:App/STM32F4-Discovery/Libraries/STM32F4xx_StdPeriph_Driver/src/stm32f4xx_can.c **** 
 943:App/STM32F4-Discovery/Libraries/STM32F4xx_StdPeriph_Driver/src/stm32f4xx_can.c **** /**
 944:App/STM32F4-Discovery/Libraries/STM32F4xx_StdPeriph_Driver/src/stm32f4xx_can.c ****   * @brief  Enters the Sleep (low power) mode.
 945:App/STM32F4-Discovery/Libraries/STM32F4xx_StdPeriph_Driver/src/stm32f4xx_can.c ****   * @param  CANx: where x can be 1 or 2 to select the CAN peripheral.
 946:App/STM32F4-Discovery/Libraries/STM32F4xx_StdPeriph_Driver/src/stm32f4xx_can.c ****   * @retval CAN_Sleep_Ok if sleep entered, CAN_Sleep_Failed otherwise.
 947:App/STM32F4-Discovery/Libraries/STM32F4xx_StdPeriph_Driver/src/stm32f4xx_can.c ****   */
 948:App/STM32F4-Discovery/Libraries/STM32F4xx_StdPeriph_Driver/src/stm32f4xx_can.c **** uint8_t CAN_Sleep(CAN_TypeDef* CANx)
 949:App/STM32F4-Discovery/Libraries/STM32F4xx_StdPeriph_Driver/src/stm32f4xx_can.c **** {
 2559              		.loc 1 949 0
 2560              		.cfi_startproc
 2561              		@ args = 0, pretend = 0, frame = 16
 2562              		@ frame_needed = 1, uses_anonymous_args = 0
 2563 0000 80B5     		push	{r7, lr}
 2564              	.LCFI42:
 2565              		.cfi_def_cfa_offset 8
 2566              		.cfi_offset 7, -8
 2567              		.cfi_offset 14, -4
 2568 0002 84B0     		sub	sp, sp, #16
 2569              	.LCFI43:
 2570              		.cfi_def_cfa_offset 24
 2571 0004 00AF     		add	r7, sp, #0
 2572              	.LCFI44:
 2573              		.cfi_def_cfa_register 7
 2574 0006 7860     		str	r0, [r7, #4]
 950:App/STM32F4-Discovery/Libraries/STM32F4xx_StdPeriph_Driver/src/stm32f4xx_can.c ****   uint8_t sleepstatus = CAN_Sleep_Failed;
 2575              		.loc 1 950 0
 2576 0008 4FF00003 		mov	r3, #0
 2577 000c FB73     		strb	r3, [r7, #15]
 951:App/STM32F4-Discovery/Libraries/STM32F4xx_StdPeriph_Driver/src/stm32f4xx_can.c ****   
 952:App/STM32F4-Discovery/Libraries/STM32F4xx_StdPeriph_Driver/src/stm32f4xx_can.c ****   /* Check the parameters */
 953:App/STM32F4-Discovery/Libraries/STM32F4xx_StdPeriph_Driver/src/stm32f4xx_can.c ****   assert_param(IS_CAN_ALL_PERIPH(CANx));
 2578              		.loc 1 953 0
 2579 000e 7A68     		ldr	r2, [r7, #4]
 2580 0010 4FF4C843 		mov	r3, #25600
 2581 0014 C4F20003 		movt	r3, 16384
 2582 0018 9A42     		cmp	r2, r3
 2583 001a 0ED0     		beq	.L152
 2584              		.loc 1 953 0 is_stmt 0 discriminator 1
 2585 001c 7A68     		ldr	r2, [r7, #4]
 2586 001e 4FF4D043 		mov	r3, #26624
 2587 0022 C4F20003 		movt	r3, 16384
 2588 0026 9A42     		cmp	r2, r3
 2589 0028 07D0     		beq	.L152
 2590              		.loc 1 953 0 discriminator 2
 2591 002a 40F20000 		movw	r0, #:lower16:.LC0
 2592 002e C0F20000 		movt	r0, #:upper16:.LC0
 2593 0032 40F2B931 		movw	r1, #953
 2594 0036 FFF7FEFF 		bl	assert_failed
 2595              	.L152:
 954:App/STM32F4-Discovery/Libraries/STM32F4xx_StdPeriph_Driver/src/stm32f4xx_can.c ****     
 955:App/STM32F4-Discovery/Libraries/STM32F4xx_StdPeriph_Driver/src/stm32f4xx_can.c ****   /* Request Sleep mode */
 956:App/STM32F4-Discovery/Libraries/STM32F4xx_StdPeriph_Driver/src/stm32f4xx_can.c ****    CANx->MCR = (((CANx->MCR) & (uint32_t)(~(uint32_t)CAN_MCR_INRQ)) | CAN_MCR_SLEEP);
 2596              		.loc 1 956 0 is_stmt 1
 2597 003a 7B68     		ldr	r3, [r7, #4]
 2598 003c 1B68     		ldr	r3, [r3, #0]
 2599 003e 23F00303 		bic	r3, r3, #3
 2600 0042 43F00202 		orr	r2, r3, #2
 2601 0046 7B68     		ldr	r3, [r7, #4]
 2602 0048 1A60     		str	r2, [r3, #0]
 957:App/STM32F4-Discovery/Libraries/STM32F4xx_StdPeriph_Driver/src/stm32f4xx_can.c ****    
 958:App/STM32F4-Discovery/Libraries/STM32F4xx_StdPeriph_Driver/src/stm32f4xx_can.c ****   /* Sleep mode status */
 959:App/STM32F4-Discovery/Libraries/STM32F4xx_StdPeriph_Driver/src/stm32f4xx_can.c ****   if ((CANx->MSR & (CAN_MSR_SLAK|CAN_MSR_INAK)) == CAN_MSR_SLAK)
 2603              		.loc 1 959 0
 2604 004a 7B68     		ldr	r3, [r7, #4]
 2605 004c 5B68     		ldr	r3, [r3, #4]
 2606 004e 03F00303 		and	r3, r3, #3
 2607 0052 022B     		cmp	r3, #2
 2608 0054 02D1     		bne	.L153
 960:App/STM32F4-Discovery/Libraries/STM32F4xx_StdPeriph_Driver/src/stm32f4xx_can.c ****   {
 961:App/STM32F4-Discovery/Libraries/STM32F4xx_StdPeriph_Driver/src/stm32f4xx_can.c ****     /* Sleep mode not entered */
 962:App/STM32F4-Discovery/Libraries/STM32F4xx_StdPeriph_Driver/src/stm32f4xx_can.c ****     sleepstatus =  CAN_Sleep_Ok;
 2609              		.loc 1 962 0
 2610 0056 4FF00103 		mov	r3, #1
 2611 005a FB73     		strb	r3, [r7, #15]
 2612              	.L153:
 963:App/STM32F4-Discovery/Libraries/STM32F4xx_StdPeriph_Driver/src/stm32f4xx_can.c ****   }
 964:App/STM32F4-Discovery/Libraries/STM32F4xx_StdPeriph_Driver/src/stm32f4xx_can.c ****   /* return sleep mode status */
 965:App/STM32F4-Discovery/Libraries/STM32F4xx_StdPeriph_Driver/src/stm32f4xx_can.c ****    return (uint8_t)sleepstatus;
 2613              		.loc 1 965 0
 2614 005c FB7B     		ldrb	r3, [r7, #15]	@ zero_extendqisi2
 966:App/STM32F4-Discovery/Libraries/STM32F4xx_StdPeriph_Driver/src/stm32f4xx_can.c **** }
 2615              		.loc 1 966 0
 2616 005e 1846     		mov	r0, r3
 2617 0060 07F11007 		add	r7, r7, #16
 2618 0064 BD46     		mov	sp, r7
 2619 0066 80BD     		pop	{r7, pc}
 2620              		.cfi_endproc
 2621              	.LFE124:
 2623              		.section	.text.CAN_WakeUp,"ax",%progbits
 2624              		.align	2
 2625              		.global	CAN_WakeUp
 2626              		.thumb
 2627              		.thumb_func
 2629              	CAN_WakeUp:
 2630              	.LFB125:
 967:App/STM32F4-Discovery/Libraries/STM32F4xx_StdPeriph_Driver/src/stm32f4xx_can.c **** 
 968:App/STM32F4-Discovery/Libraries/STM32F4xx_StdPeriph_Driver/src/stm32f4xx_can.c **** /**
 969:App/STM32F4-Discovery/Libraries/STM32F4xx_StdPeriph_Driver/src/stm32f4xx_can.c ****   * @brief  Wakes up the CAN peripheral from sleep mode .
 970:App/STM32F4-Discovery/Libraries/STM32F4xx_StdPeriph_Driver/src/stm32f4xx_can.c ****   * @param  CANx: where x can be 1 or 2 to select the CAN peripheral.
 971:App/STM32F4-Discovery/Libraries/STM32F4xx_StdPeriph_Driver/src/stm32f4xx_can.c ****   * @retval CAN_WakeUp_Ok if sleep mode left, CAN_WakeUp_Failed otherwise.
 972:App/STM32F4-Discovery/Libraries/STM32F4xx_StdPeriph_Driver/src/stm32f4xx_can.c ****   */
 973:App/STM32F4-Discovery/Libraries/STM32F4xx_StdPeriph_Driver/src/stm32f4xx_can.c **** uint8_t CAN_WakeUp(CAN_TypeDef* CANx)
 974:App/STM32F4-Discovery/Libraries/STM32F4xx_StdPeriph_Driver/src/stm32f4xx_can.c **** {
 2631              		.loc 1 974 0
 2632              		.cfi_startproc
 2633              		@ args = 0, pretend = 0, frame = 16
 2634              		@ frame_needed = 1, uses_anonymous_args = 0
 2635 0000 80B5     		push	{r7, lr}
 2636              	.LCFI45:
 2637              		.cfi_def_cfa_offset 8
 2638              		.cfi_offset 7, -8
 2639              		.cfi_offset 14, -4
 2640 0002 84B0     		sub	sp, sp, #16
 2641              	.LCFI46:
 2642              		.cfi_def_cfa_offset 24
 2643 0004 00AF     		add	r7, sp, #0
 2644              	.LCFI47:
 2645              		.cfi_def_cfa_register 7
 2646 0006 7860     		str	r0, [r7, #4]
 975:App/STM32F4-Discovery/Libraries/STM32F4xx_StdPeriph_Driver/src/stm32f4xx_can.c ****   uint32_t wait_slak = SLAK_TIMEOUT;
 2647              		.loc 1 975 0
 2648 0008 4FF6FF73 		movw	r3, #65535
 2649 000c FB60     		str	r3, [r7, #12]
 976:App/STM32F4-Discovery/Libraries/STM32F4xx_StdPeriph_Driver/src/stm32f4xx_can.c ****   uint8_t wakeupstatus = CAN_WakeUp_Failed;
 2650              		.loc 1 976 0
 2651 000e 4FF00003 		mov	r3, #0
 2652 0012 FB72     		strb	r3, [r7, #11]
 977:App/STM32F4-Discovery/Libraries/STM32F4xx_StdPeriph_Driver/src/stm32f4xx_can.c ****   
 978:App/STM32F4-Discovery/Libraries/STM32F4xx_StdPeriph_Driver/src/stm32f4xx_can.c ****   /* Check the parameters */
 979:App/STM32F4-Discovery/Libraries/STM32F4xx_StdPeriph_Driver/src/stm32f4xx_can.c ****   assert_param(IS_CAN_ALL_PERIPH(CANx));
 2653              		.loc 1 979 0
 2654 0014 7A68     		ldr	r2, [r7, #4]
 2655 0016 4FF4C843 		mov	r3, #25600
 2656 001a C4F20003 		movt	r3, 16384
 2657 001e 9A42     		cmp	r2, r3
 2658 0020 0ED0     		beq	.L156
 2659              		.loc 1 979 0 is_stmt 0 discriminator 1
 2660 0022 7A68     		ldr	r2, [r7, #4]
 2661 0024 4FF4D043 		mov	r3, #26624
 2662 0028 C4F20003 		movt	r3, 16384
 2663 002c 9A42     		cmp	r2, r3
 2664 002e 07D0     		beq	.L156
 2665              		.loc 1 979 0 discriminator 2
 2666 0030 40F20000 		movw	r0, #:lower16:.LC0
 2667 0034 C0F20000 		movt	r0, #:upper16:.LC0
 2668 0038 40F2D331 		movw	r1, #979
 2669 003c FFF7FEFF 		bl	assert_failed
 2670              	.L156:
 980:App/STM32F4-Discovery/Libraries/STM32F4xx_StdPeriph_Driver/src/stm32f4xx_can.c ****     
 981:App/STM32F4-Discovery/Libraries/STM32F4xx_StdPeriph_Driver/src/stm32f4xx_can.c ****   /* Wake up request */
 982:App/STM32F4-Discovery/Libraries/STM32F4xx_StdPeriph_Driver/src/stm32f4xx_can.c ****   CANx->MCR &= ~(uint32_t)CAN_MCR_SLEEP;
 2671              		.loc 1 982 0 is_stmt 1
 2672 0040 7B68     		ldr	r3, [r7, #4]
 2673 0042 1B68     		ldr	r3, [r3, #0]
 2674 0044 23F00202 		bic	r2, r3, #2
 2675 0048 7B68     		ldr	r3, [r7, #4]
 2676 004a 1A60     		str	r2, [r3, #0]
 983:App/STM32F4-Discovery/Libraries/STM32F4xx_StdPeriph_Driver/src/stm32f4xx_can.c ****     
 984:App/STM32F4-Discovery/Libraries/STM32F4xx_StdPeriph_Driver/src/stm32f4xx_can.c ****   /* Sleep mode status */
 985:App/STM32F4-Discovery/Libraries/STM32F4xx_StdPeriph_Driver/src/stm32f4xx_can.c ****   while(((CANx->MSR & CAN_MSR_SLAK) == CAN_MSR_SLAK)&&(wait_slak!=0x00))
 2677              		.loc 1 985 0
 2678 004c 03E0     		b	.L157
 2679              	.L159:
 986:App/STM32F4-Discovery/Libraries/STM32F4xx_StdPeriph_Driver/src/stm32f4xx_can.c ****   {
 987:App/STM32F4-Discovery/Libraries/STM32F4xx_StdPeriph_Driver/src/stm32f4xx_can.c ****    wait_slak--;
 2680              		.loc 1 987 0
 2681 004e FB68     		ldr	r3, [r7, #12]
 2682 0050 03F1FF33 		add	r3, r3, #-1
 2683 0054 FB60     		str	r3, [r7, #12]
 2684              	.L157:
 985:App/STM32F4-Discovery/Libraries/STM32F4xx_StdPeriph_Driver/src/stm32f4xx_can.c ****   while(((CANx->MSR & CAN_MSR_SLAK) == CAN_MSR_SLAK)&&(wait_slak!=0x00))
 2685              		.loc 1 985 0 discriminator 1
 2686 0056 7B68     		ldr	r3, [r7, #4]
 2687 0058 5B68     		ldr	r3, [r3, #4]
 2688 005a 03F00203 		and	r3, r3, #2
 2689 005e 002B     		cmp	r3, #0
 2690 0060 02D0     		beq	.L158
 985:App/STM32F4-Discovery/Libraries/STM32F4xx_StdPeriph_Driver/src/stm32f4xx_can.c ****   while(((CANx->MSR & CAN_MSR_SLAK) == CAN_MSR_SLAK)&&(wait_slak!=0x00))
 2691              		.loc 1 985 0 is_stmt 0 discriminator 2
 2692 0062 FB68     		ldr	r3, [r7, #12]
 2693 0064 002B     		cmp	r3, #0
 2694 0066 F2D1     		bne	.L159
 2695              	.L158:
 988:App/STM32F4-Discovery/Libraries/STM32F4xx_StdPeriph_Driver/src/stm32f4xx_can.c ****   }
 989:App/STM32F4-Discovery/Libraries/STM32F4xx_StdPeriph_Driver/src/stm32f4xx_can.c ****   if((CANx->MSR & CAN_MSR_SLAK) != CAN_MSR_SLAK)
 2696              		.loc 1 989 0 is_stmt 1
 2697 0068 7B68     		ldr	r3, [r7, #4]
 2698 006a 5B68     		ldr	r3, [r3, #4]
 2699 006c 03F00203 		and	r3, r3, #2
 2700 0070 002B     		cmp	r3, #0
 2701 0072 02D1     		bne	.L160
 990:App/STM32F4-Discovery/Libraries/STM32F4xx_StdPeriph_Driver/src/stm32f4xx_can.c ****   {
 991:App/STM32F4-Discovery/Libraries/STM32F4xx_StdPeriph_Driver/src/stm32f4xx_can.c ****    /* wake up done : Sleep mode exited */
 992:App/STM32F4-Discovery/Libraries/STM32F4xx_StdPeriph_Driver/src/stm32f4xx_can.c ****     wakeupstatus = CAN_WakeUp_Ok;
 2702              		.loc 1 992 0
 2703 0074 4FF00103 		mov	r3, #1
 2704 0078 FB72     		strb	r3, [r7, #11]
 2705              	.L160:
 993:App/STM32F4-Discovery/Libraries/STM32F4xx_StdPeriph_Driver/src/stm32f4xx_can.c ****   }
 994:App/STM32F4-Discovery/Libraries/STM32F4xx_StdPeriph_Driver/src/stm32f4xx_can.c ****   /* return wakeup status */
 995:App/STM32F4-Discovery/Libraries/STM32F4xx_StdPeriph_Driver/src/stm32f4xx_can.c ****   return (uint8_t)wakeupstatus;
 2706              		.loc 1 995 0
 2707 007a FB7A     		ldrb	r3, [r7, #11]	@ zero_extendqisi2
 996:App/STM32F4-Discovery/Libraries/STM32F4xx_StdPeriph_Driver/src/stm32f4xx_can.c **** }
 2708              		.loc 1 996 0
 2709 007c 1846     		mov	r0, r3
 2710 007e 07F11007 		add	r7, r7, #16
 2711 0082 BD46     		mov	sp, r7
 2712 0084 80BD     		pop	{r7, pc}
 2713              		.cfi_endproc
 2714              	.LFE125:
 2716 0086 00BF     		.section	.text.CAN_GetLastErrorCode,"ax",%progbits
 2717              		.align	2
 2718              		.global	CAN_GetLastErrorCode
 2719              		.thumb
 2720              		.thumb_func
 2722              	CAN_GetLastErrorCode:
 2723              	.LFB126:
 997:App/STM32F4-Discovery/Libraries/STM32F4xx_StdPeriph_Driver/src/stm32f4xx_can.c **** /**
 998:App/STM32F4-Discovery/Libraries/STM32F4xx_StdPeriph_Driver/src/stm32f4xx_can.c ****   * @}
 999:App/STM32F4-Discovery/Libraries/STM32F4xx_StdPeriph_Driver/src/stm32f4xx_can.c ****   */
1000:App/STM32F4-Discovery/Libraries/STM32F4xx_StdPeriph_Driver/src/stm32f4xx_can.c **** 
1001:App/STM32F4-Discovery/Libraries/STM32F4xx_StdPeriph_Driver/src/stm32f4xx_can.c **** 
1002:App/STM32F4-Discovery/Libraries/STM32F4xx_StdPeriph_Driver/src/stm32f4xx_can.c **** /** @defgroup CAN_Group5 CAN Bus Error management functions
1003:App/STM32F4-Discovery/Libraries/STM32F4xx_StdPeriph_Driver/src/stm32f4xx_can.c ****  *  @brief    CAN Bus Error management functions 
1004:App/STM32F4-Discovery/Libraries/STM32F4xx_StdPeriph_Driver/src/stm32f4xx_can.c ****  *
1005:App/STM32F4-Discovery/Libraries/STM32F4xx_StdPeriph_Driver/src/stm32f4xx_can.c **** @verbatim    
1006:App/STM32F4-Discovery/Libraries/STM32F4xx_StdPeriph_Driver/src/stm32f4xx_can.c ****  ===============================================================================
1007:App/STM32F4-Discovery/Libraries/STM32F4xx_StdPeriph_Driver/src/stm32f4xx_can.c ****                       CAN Bus Error management functions
1008:App/STM32F4-Discovery/Libraries/STM32F4xx_StdPeriph_Driver/src/stm32f4xx_can.c ****  ===============================================================================  
1009:App/STM32F4-Discovery/Libraries/STM32F4xx_StdPeriph_Driver/src/stm32f4xx_can.c ****   This section provides functions allowing to 
1010:App/STM32F4-Discovery/Libraries/STM32F4xx_StdPeriph_Driver/src/stm32f4xx_can.c ****    -  Return the CANx's last error code (LEC)
1011:App/STM32F4-Discovery/Libraries/STM32F4xx_StdPeriph_Driver/src/stm32f4xx_can.c ****    -  Return the CANx Receive Error Counter (REC)
1012:App/STM32F4-Discovery/Libraries/STM32F4xx_StdPeriph_Driver/src/stm32f4xx_can.c ****    -  Return the LSB of the 9-bit CANx Transmit Error Counter(TEC).
1013:App/STM32F4-Discovery/Libraries/STM32F4xx_StdPeriph_Driver/src/stm32f4xx_can.c ****    
1014:App/STM32F4-Discovery/Libraries/STM32F4xx_StdPeriph_Driver/src/stm32f4xx_can.c ****    @note If TEC is greater than 255, The CAN is in bus-off state.
1015:App/STM32F4-Discovery/Libraries/STM32F4xx_StdPeriph_Driver/src/stm32f4xx_can.c ****    @note if REC or TEC are greater than 96, an Error warning flag occurs.
1016:App/STM32F4-Discovery/Libraries/STM32F4xx_StdPeriph_Driver/src/stm32f4xx_can.c ****    @note if REC or TEC are greater than 127, an Error Passive Flag occurs.
1017:App/STM32F4-Discovery/Libraries/STM32F4xx_StdPeriph_Driver/src/stm32f4xx_can.c ****                         
1018:App/STM32F4-Discovery/Libraries/STM32F4xx_StdPeriph_Driver/src/stm32f4xx_can.c **** @endverbatim
1019:App/STM32F4-Discovery/Libraries/STM32F4xx_StdPeriph_Driver/src/stm32f4xx_can.c ****   * @{
1020:App/STM32F4-Discovery/Libraries/STM32F4xx_StdPeriph_Driver/src/stm32f4xx_can.c ****   */
1021:App/STM32F4-Discovery/Libraries/STM32F4xx_StdPeriph_Driver/src/stm32f4xx_can.c ****   
1022:App/STM32F4-Discovery/Libraries/STM32F4xx_StdPeriph_Driver/src/stm32f4xx_can.c **** /**
1023:App/STM32F4-Discovery/Libraries/STM32F4xx_StdPeriph_Driver/src/stm32f4xx_can.c ****   * @brief  Returns the CANx's last error code (LEC).
1024:App/STM32F4-Discovery/Libraries/STM32F4xx_StdPeriph_Driver/src/stm32f4xx_can.c ****   * @param  CANx: where x can be 1 or 2 to select the CAN peripheral.
1025:App/STM32F4-Discovery/Libraries/STM32F4xx_StdPeriph_Driver/src/stm32f4xx_can.c ****   * @retval Error code: 
1026:App/STM32F4-Discovery/Libraries/STM32F4xx_StdPeriph_Driver/src/stm32f4xx_can.c ****   *          - CAN_ERRORCODE_NoErr: No Error  
1027:App/STM32F4-Discovery/Libraries/STM32F4xx_StdPeriph_Driver/src/stm32f4xx_can.c ****   *          - CAN_ERRORCODE_StuffErr: Stuff Error
1028:App/STM32F4-Discovery/Libraries/STM32F4xx_StdPeriph_Driver/src/stm32f4xx_can.c ****   *          - CAN_ERRORCODE_FormErr: Form Error
1029:App/STM32F4-Discovery/Libraries/STM32F4xx_StdPeriph_Driver/src/stm32f4xx_can.c ****   *          - CAN_ERRORCODE_ACKErr : Acknowledgment Error
1030:App/STM32F4-Discovery/Libraries/STM32F4xx_StdPeriph_Driver/src/stm32f4xx_can.c ****   *          - CAN_ERRORCODE_BitRecessiveErr: Bit Recessive Error
1031:App/STM32F4-Discovery/Libraries/STM32F4xx_StdPeriph_Driver/src/stm32f4xx_can.c ****   *          - CAN_ERRORCODE_BitDominantErr: Bit Dominant Error
1032:App/STM32F4-Discovery/Libraries/STM32F4xx_StdPeriph_Driver/src/stm32f4xx_can.c ****   *          - CAN_ERRORCODE_CRCErr: CRC Error
1033:App/STM32F4-Discovery/Libraries/STM32F4xx_StdPeriph_Driver/src/stm32f4xx_can.c ****   *          - CAN_ERRORCODE_SoftwareSetErr: Software Set Error  
1034:App/STM32F4-Discovery/Libraries/STM32F4xx_StdPeriph_Driver/src/stm32f4xx_can.c ****   */
1035:App/STM32F4-Discovery/Libraries/STM32F4xx_StdPeriph_Driver/src/stm32f4xx_can.c **** uint8_t CAN_GetLastErrorCode(CAN_TypeDef* CANx)
1036:App/STM32F4-Discovery/Libraries/STM32F4xx_StdPeriph_Driver/src/stm32f4xx_can.c **** {
 2724              		.loc 1 1036 0
 2725              		.cfi_startproc
 2726              		@ args = 0, pretend = 0, frame = 16
 2727              		@ frame_needed = 1, uses_anonymous_args = 0
 2728 0000 80B5     		push	{r7, lr}
 2729              	.LCFI48:
 2730              		.cfi_def_cfa_offset 8
 2731              		.cfi_offset 7, -8
 2732              		.cfi_offset 14, -4
 2733 0002 84B0     		sub	sp, sp, #16
 2734              	.LCFI49:
 2735              		.cfi_def_cfa_offset 24
 2736 0004 00AF     		add	r7, sp, #0
 2737              	.LCFI50:
 2738              		.cfi_def_cfa_register 7
 2739 0006 7860     		str	r0, [r7, #4]
1037:App/STM32F4-Discovery/Libraries/STM32F4xx_StdPeriph_Driver/src/stm32f4xx_can.c ****   uint8_t errorcode=0;
 2740              		.loc 1 1037 0
 2741 0008 4FF00003 		mov	r3, #0
 2742 000c FB73     		strb	r3, [r7, #15]
1038:App/STM32F4-Discovery/Libraries/STM32F4xx_StdPeriph_Driver/src/stm32f4xx_can.c ****   
1039:App/STM32F4-Discovery/Libraries/STM32F4xx_StdPeriph_Driver/src/stm32f4xx_can.c ****   /* Check the parameters */
1040:App/STM32F4-Discovery/Libraries/STM32F4xx_StdPeriph_Driver/src/stm32f4xx_can.c ****   assert_param(IS_CAN_ALL_PERIPH(CANx));
 2743              		.loc 1 1040 0
 2744 000e 7A68     		ldr	r2, [r7, #4]
 2745 0010 4FF4C843 		mov	r3, #25600
 2746 0014 C4F20003 		movt	r3, 16384
 2747 0018 9A42     		cmp	r2, r3
 2748 001a 0ED0     		beq	.L163
 2749              		.loc 1 1040 0 is_stmt 0 discriminator 1
 2750 001c 7A68     		ldr	r2, [r7, #4]
 2751 001e 4FF4D043 		mov	r3, #26624
 2752 0022 C4F20003 		movt	r3, 16384
 2753 0026 9A42     		cmp	r2, r3
 2754 0028 07D0     		beq	.L163
 2755              		.loc 1 1040 0 discriminator 2
 2756 002a 40F20000 		movw	r0, #:lower16:.LC0
 2757 002e C0F20000 		movt	r0, #:upper16:.LC0
 2758 0032 4FF48261 		mov	r1, #1040
 2759 0036 FFF7FEFF 		bl	assert_failed
 2760              	.L163:
1041:App/STM32F4-Discovery/Libraries/STM32F4xx_StdPeriph_Driver/src/stm32f4xx_can.c ****   
1042:App/STM32F4-Discovery/Libraries/STM32F4xx_StdPeriph_Driver/src/stm32f4xx_can.c ****   /* Get the error code*/
1043:App/STM32F4-Discovery/Libraries/STM32F4xx_StdPeriph_Driver/src/stm32f4xx_can.c ****   errorcode = (((uint8_t)CANx->ESR) & (uint8_t)CAN_ESR_LEC);
 2761              		.loc 1 1043 0 is_stmt 1
 2762 003a 7B68     		ldr	r3, [r7, #4]
 2763 003c 9B69     		ldr	r3, [r3, #24]
 2764 003e DBB2     		uxtb	r3, r3
 2765 0040 03F07003 		and	r3, r3, #112
 2766 0044 FB73     		strb	r3, [r7, #15]
1044:App/STM32F4-Discovery/Libraries/STM32F4xx_StdPeriph_Driver/src/stm32f4xx_can.c ****   
1045:App/STM32F4-Discovery/Libraries/STM32F4xx_StdPeriph_Driver/src/stm32f4xx_can.c ****   /* Return the error code*/
1046:App/STM32F4-Discovery/Libraries/STM32F4xx_StdPeriph_Driver/src/stm32f4xx_can.c ****   return errorcode;
 2767              		.loc 1 1046 0
 2768 0046 FB7B     		ldrb	r3, [r7, #15]	@ zero_extendqisi2
1047:App/STM32F4-Discovery/Libraries/STM32F4xx_StdPeriph_Driver/src/stm32f4xx_can.c **** }
 2769              		.loc 1 1047 0
 2770 0048 1846     		mov	r0, r3
 2771 004a 07F11007 		add	r7, r7, #16
 2772 004e BD46     		mov	sp, r7
 2773 0050 80BD     		pop	{r7, pc}
 2774              		.cfi_endproc
 2775              	.LFE126:
 2777 0052 00BF     		.section	.text.CAN_GetReceiveErrorCounter,"ax",%progbits
 2778              		.align	2
 2779              		.global	CAN_GetReceiveErrorCounter
 2780              		.thumb
 2781              		.thumb_func
 2783              	CAN_GetReceiveErrorCounter:
 2784              	.LFB127:
1048:App/STM32F4-Discovery/Libraries/STM32F4xx_StdPeriph_Driver/src/stm32f4xx_can.c **** 
1049:App/STM32F4-Discovery/Libraries/STM32F4xx_StdPeriph_Driver/src/stm32f4xx_can.c **** /**
1050:App/STM32F4-Discovery/Libraries/STM32F4xx_StdPeriph_Driver/src/stm32f4xx_can.c ****   * @brief  Returns the CANx Receive Error Counter (REC).
1051:App/STM32F4-Discovery/Libraries/STM32F4xx_StdPeriph_Driver/src/stm32f4xx_can.c ****   * @note   In case of an error during reception, this counter is incremented 
1052:App/STM32F4-Discovery/Libraries/STM32F4xx_StdPeriph_Driver/src/stm32f4xx_can.c ****   *         by 1 or by 8 depending on the error condition as defined by the CAN 
1053:App/STM32F4-Discovery/Libraries/STM32F4xx_StdPeriph_Driver/src/stm32f4xx_can.c ****   *         standard. After every successful reception, the counter is 
1054:App/STM32F4-Discovery/Libraries/STM32F4xx_StdPeriph_Driver/src/stm32f4xx_can.c ****   *         decremented by 1 or reset to 120 if its value was higher than 128. 
1055:App/STM32F4-Discovery/Libraries/STM32F4xx_StdPeriph_Driver/src/stm32f4xx_can.c ****   *         When the counter value exceeds 127, the CAN controller enters the 
1056:App/STM32F4-Discovery/Libraries/STM32F4xx_StdPeriph_Driver/src/stm32f4xx_can.c ****   *         error passive state.  
1057:App/STM32F4-Discovery/Libraries/STM32F4xx_StdPeriph_Driver/src/stm32f4xx_can.c ****   * @param  CANx: where x can be 1 or 2 to to select the CAN peripheral.  
1058:App/STM32F4-Discovery/Libraries/STM32F4xx_StdPeriph_Driver/src/stm32f4xx_can.c ****   * @retval CAN Receive Error Counter. 
1059:App/STM32F4-Discovery/Libraries/STM32F4xx_StdPeriph_Driver/src/stm32f4xx_can.c ****   */
1060:App/STM32F4-Discovery/Libraries/STM32F4xx_StdPeriph_Driver/src/stm32f4xx_can.c **** uint8_t CAN_GetReceiveErrorCounter(CAN_TypeDef* CANx)
1061:App/STM32F4-Discovery/Libraries/STM32F4xx_StdPeriph_Driver/src/stm32f4xx_can.c **** {
 2785              		.loc 1 1061 0
 2786              		.cfi_startproc
 2787              		@ args = 0, pretend = 0, frame = 16
 2788              		@ frame_needed = 1, uses_anonymous_args = 0
 2789 0000 80B5     		push	{r7, lr}
 2790              	.LCFI51:
 2791              		.cfi_def_cfa_offset 8
 2792              		.cfi_offset 7, -8
 2793              		.cfi_offset 14, -4
 2794 0002 84B0     		sub	sp, sp, #16
 2795              	.LCFI52:
 2796              		.cfi_def_cfa_offset 24
 2797 0004 00AF     		add	r7, sp, #0
 2798              	.LCFI53:
 2799              		.cfi_def_cfa_register 7
 2800 0006 7860     		str	r0, [r7, #4]
1062:App/STM32F4-Discovery/Libraries/STM32F4xx_StdPeriph_Driver/src/stm32f4xx_can.c ****   uint8_t counter=0;
 2801              		.loc 1 1062 0
 2802 0008 4FF00003 		mov	r3, #0
 2803 000c FB73     		strb	r3, [r7, #15]
1063:App/STM32F4-Discovery/Libraries/STM32F4xx_StdPeriph_Driver/src/stm32f4xx_can.c ****   
1064:App/STM32F4-Discovery/Libraries/STM32F4xx_StdPeriph_Driver/src/stm32f4xx_can.c ****   /* Check the parameters */
1065:App/STM32F4-Discovery/Libraries/STM32F4xx_StdPeriph_Driver/src/stm32f4xx_can.c ****   assert_param(IS_CAN_ALL_PERIPH(CANx));
 2804              		.loc 1 1065 0
 2805 000e 7A68     		ldr	r2, [r7, #4]
 2806 0010 4FF4C843 		mov	r3, #25600
 2807 0014 C4F20003 		movt	r3, 16384
 2808 0018 9A42     		cmp	r2, r3
 2809 001a 0ED0     		beq	.L166
 2810              		.loc 1 1065 0 is_stmt 0 discriminator 1
 2811 001c 7A68     		ldr	r2, [r7, #4]
 2812 001e 4FF4D043 		mov	r3, #26624
 2813 0022 C4F20003 		movt	r3, 16384
 2814 0026 9A42     		cmp	r2, r3
 2815 0028 07D0     		beq	.L166
 2816              		.loc 1 1065 0 discriminator 2
 2817 002a 40F20000 		movw	r0, #:lower16:.LC0
 2818 002e C0F20000 		movt	r0, #:upper16:.LC0
 2819 0032 40F22941 		movw	r1, #1065
 2820 0036 FFF7FEFF 		bl	assert_failed
 2821              	.L166:
1066:App/STM32F4-Discovery/Libraries/STM32F4xx_StdPeriph_Driver/src/stm32f4xx_can.c ****   
1067:App/STM32F4-Discovery/Libraries/STM32F4xx_StdPeriph_Driver/src/stm32f4xx_can.c ****   /* Get the Receive Error Counter*/
1068:App/STM32F4-Discovery/Libraries/STM32F4xx_StdPeriph_Driver/src/stm32f4xx_can.c ****   counter = (uint8_t)((CANx->ESR & CAN_ESR_REC)>> 24);
 2822              		.loc 1 1068 0 is_stmt 1
 2823 003a 7B68     		ldr	r3, [r7, #4]
 2824 003c 9B69     		ldr	r3, [r3, #24]
 2825 003e 4FEA1363 		lsr	r3, r3, #24
 2826 0042 FB73     		strb	r3, [r7, #15]
1069:App/STM32F4-Discovery/Libraries/STM32F4xx_StdPeriph_Driver/src/stm32f4xx_can.c ****   
1070:App/STM32F4-Discovery/Libraries/STM32F4xx_StdPeriph_Driver/src/stm32f4xx_can.c ****   /* Return the Receive Error Counter*/
1071:App/STM32F4-Discovery/Libraries/STM32F4xx_StdPeriph_Driver/src/stm32f4xx_can.c ****   return counter;
 2827              		.loc 1 1071 0
 2828 0044 FB7B     		ldrb	r3, [r7, #15]	@ zero_extendqisi2
1072:App/STM32F4-Discovery/Libraries/STM32F4xx_StdPeriph_Driver/src/stm32f4xx_can.c **** }
 2829              		.loc 1 1072 0
 2830 0046 1846     		mov	r0, r3
 2831 0048 07F11007 		add	r7, r7, #16
 2832 004c BD46     		mov	sp, r7
 2833 004e 80BD     		pop	{r7, pc}
 2834              		.cfi_endproc
 2835              	.LFE127:
 2837              		.section	.text.CAN_GetLSBTransmitErrorCounter,"ax",%progbits
 2838              		.align	2
 2839              		.global	CAN_GetLSBTransmitErrorCounter
 2840              		.thumb
 2841              		.thumb_func
 2843              	CAN_GetLSBTransmitErrorCounter:
 2844              	.LFB128:
1073:App/STM32F4-Discovery/Libraries/STM32F4xx_StdPeriph_Driver/src/stm32f4xx_can.c **** 
1074:App/STM32F4-Discovery/Libraries/STM32F4xx_StdPeriph_Driver/src/stm32f4xx_can.c **** 
1075:App/STM32F4-Discovery/Libraries/STM32F4xx_StdPeriph_Driver/src/stm32f4xx_can.c **** /**
1076:App/STM32F4-Discovery/Libraries/STM32F4xx_StdPeriph_Driver/src/stm32f4xx_can.c ****   * @brief  Returns the LSB of the 9-bit CANx Transmit Error Counter(TEC).
1077:App/STM32F4-Discovery/Libraries/STM32F4xx_StdPeriph_Driver/src/stm32f4xx_can.c ****   * @param  CANx: where x can be 1 or 2 to to select the CAN peripheral.
1078:App/STM32F4-Discovery/Libraries/STM32F4xx_StdPeriph_Driver/src/stm32f4xx_can.c ****   * @retval LSB of the 9-bit CAN Transmit Error Counter. 
1079:App/STM32F4-Discovery/Libraries/STM32F4xx_StdPeriph_Driver/src/stm32f4xx_can.c ****   */
1080:App/STM32F4-Discovery/Libraries/STM32F4xx_StdPeriph_Driver/src/stm32f4xx_can.c **** uint8_t CAN_GetLSBTransmitErrorCounter(CAN_TypeDef* CANx)
1081:App/STM32F4-Discovery/Libraries/STM32F4xx_StdPeriph_Driver/src/stm32f4xx_can.c **** {
 2845              		.loc 1 1081 0
 2846              		.cfi_startproc
 2847              		@ args = 0, pretend = 0, frame = 16
 2848              		@ frame_needed = 1, uses_anonymous_args = 0
 2849 0000 80B5     		push	{r7, lr}
 2850              	.LCFI54:
 2851              		.cfi_def_cfa_offset 8
 2852              		.cfi_offset 7, -8
 2853              		.cfi_offset 14, -4
 2854 0002 84B0     		sub	sp, sp, #16
 2855              	.LCFI55:
 2856              		.cfi_def_cfa_offset 24
 2857 0004 00AF     		add	r7, sp, #0
 2858              	.LCFI56:
 2859              		.cfi_def_cfa_register 7
 2860 0006 7860     		str	r0, [r7, #4]
1082:App/STM32F4-Discovery/Libraries/STM32F4xx_StdPeriph_Driver/src/stm32f4xx_can.c ****   uint8_t counter=0;
 2861              		.loc 1 1082 0
 2862 0008 4FF00003 		mov	r3, #0
 2863 000c FB73     		strb	r3, [r7, #15]
1083:App/STM32F4-Discovery/Libraries/STM32F4xx_StdPeriph_Driver/src/stm32f4xx_can.c ****   
1084:App/STM32F4-Discovery/Libraries/STM32F4xx_StdPeriph_Driver/src/stm32f4xx_can.c ****   /* Check the parameters */
1085:App/STM32F4-Discovery/Libraries/STM32F4xx_StdPeriph_Driver/src/stm32f4xx_can.c ****   assert_param(IS_CAN_ALL_PERIPH(CANx));
 2864              		.loc 1 1085 0
 2865 000e 7A68     		ldr	r2, [r7, #4]
 2866 0010 4FF4C843 		mov	r3, #25600
 2867 0014 C4F20003 		movt	r3, 16384
 2868 0018 9A42     		cmp	r2, r3
 2869 001a 0ED0     		beq	.L169
 2870              		.loc 1 1085 0 is_stmt 0 discriminator 1
 2871 001c 7A68     		ldr	r2, [r7, #4]
 2872 001e 4FF4D043 		mov	r3, #26624
 2873 0022 C4F20003 		movt	r3, 16384
 2874 0026 9A42     		cmp	r2, r3
 2875 0028 07D0     		beq	.L169
 2876              		.loc 1 1085 0 discriminator 2
 2877 002a 40F20000 		movw	r0, #:lower16:.LC0
 2878 002e C0F20000 		movt	r0, #:upper16:.LC0
 2879 0032 40F23D41 		movw	r1, #1085
 2880 0036 FFF7FEFF 		bl	assert_failed
 2881              	.L169:
1086:App/STM32F4-Discovery/Libraries/STM32F4xx_StdPeriph_Driver/src/stm32f4xx_can.c ****   
1087:App/STM32F4-Discovery/Libraries/STM32F4xx_StdPeriph_Driver/src/stm32f4xx_can.c ****   /* Get the LSB of the 9-bit CANx Transmit Error Counter(TEC) */
1088:App/STM32F4-Discovery/Libraries/STM32F4xx_StdPeriph_Driver/src/stm32f4xx_can.c ****   counter = (uint8_t)((CANx->ESR & CAN_ESR_TEC)>> 16);
 2882              		.loc 1 1088 0 is_stmt 1
 2883 003a 7B68     		ldr	r3, [r7, #4]
 2884 003c 9B69     		ldr	r3, [r3, #24]
 2885 003e 03F47F03 		and	r3, r3, #16711680
 2886 0042 4FEA1343 		lsr	r3, r3, #16
 2887 0046 FB73     		strb	r3, [r7, #15]
1089:App/STM32F4-Discovery/Libraries/STM32F4xx_StdPeriph_Driver/src/stm32f4xx_can.c ****   
1090:App/STM32F4-Discovery/Libraries/STM32F4xx_StdPeriph_Driver/src/stm32f4xx_can.c ****   /* Return the LSB of the 9-bit CANx Transmit Error Counter(TEC) */
1091:App/STM32F4-Discovery/Libraries/STM32F4xx_StdPeriph_Driver/src/stm32f4xx_can.c ****   return counter;
 2888              		.loc 1 1091 0
 2889 0048 FB7B     		ldrb	r3, [r7, #15]	@ zero_extendqisi2
1092:App/STM32F4-Discovery/Libraries/STM32F4xx_StdPeriph_Driver/src/stm32f4xx_can.c **** }
 2890              		.loc 1 1092 0
 2891 004a 1846     		mov	r0, r3
 2892 004c 07F11007 		add	r7, r7, #16
 2893 0050 BD46     		mov	sp, r7
 2894 0052 80BD     		pop	{r7, pc}
 2895              		.cfi_endproc
 2896              	.LFE128:
 2898              		.section	.text.CAN_ITConfig,"ax",%progbits
 2899              		.align	2
 2900              		.global	CAN_ITConfig
 2901              		.thumb
 2902              		.thumb_func
 2904              	CAN_ITConfig:
 2905              	.LFB129:
1093:App/STM32F4-Discovery/Libraries/STM32F4xx_StdPeriph_Driver/src/stm32f4xx_can.c **** /**
1094:App/STM32F4-Discovery/Libraries/STM32F4xx_StdPeriph_Driver/src/stm32f4xx_can.c ****   * @}
1095:App/STM32F4-Discovery/Libraries/STM32F4xx_StdPeriph_Driver/src/stm32f4xx_can.c ****   */
1096:App/STM32F4-Discovery/Libraries/STM32F4xx_StdPeriph_Driver/src/stm32f4xx_can.c **** 
1097:App/STM32F4-Discovery/Libraries/STM32F4xx_StdPeriph_Driver/src/stm32f4xx_can.c **** /** @defgroup CAN_Group6 Interrupts and flags management functions
1098:App/STM32F4-Discovery/Libraries/STM32F4xx_StdPeriph_Driver/src/stm32f4xx_can.c ****  *  @brief   Interrupts and flags management functions
