   1              		.syntax unified
   2              		.cpu cortex-m4
   3              		.eabi_attribute 27, 3
   4              		.fpu fpv4-sp-d16
   5              		.eabi_attribute 20, 1
   6              		.eabi_attribute 21, 1
   7              		.eabi_attribute 23, 3
   8              		.eabi_attribute 24, 1
   9              		.eabi_attribute 25, 1
  10              		.eabi_attribute 26, 1
  11              		.eabi_attribute 30, 6
  12              		.eabi_attribute 34, 1
  13              		.eabi_attribute 18, 4
  14              		.thumb
  15              		.file	"stm32f4xx_hash.c"
  16              		.text
  17              	.Ltext0:
  18              		.cfi_sections	.debug_frame
  19              		.section	.text.HASH_DeInit,"ax",%progbits
  20              		.align	2
  21              		.global	HASH_DeInit
  22              		.thumb
  23              		.thumb_func
  25              	HASH_DeInit:
  26              	.LFB110:
  27              		.file 1 "App/STM32F4-Discovery/Libraries/STM32F4xx_StdPeriph_Driver/src/stm32f4xx_hash.c"
   1:App/STM32F4-Discovery/Libraries/STM32F4xx_StdPeriph_Driver/src/stm32f4xx_hash.c **** /**
   2:App/STM32F4-Discovery/Libraries/STM32F4xx_StdPeriph_Driver/src/stm32f4xx_hash.c ****   ******************************************************************************
   3:App/STM32F4-Discovery/Libraries/STM32F4xx_StdPeriph_Driver/src/stm32f4xx_hash.c ****   * @file    stm32f4xx_hash.c
   4:App/STM32F4-Discovery/Libraries/STM32F4xx_StdPeriph_Driver/src/stm32f4xx_hash.c ****   * @author  MCD Application Team
   5:App/STM32F4-Discovery/Libraries/STM32F4xx_StdPeriph_Driver/src/stm32f4xx_hash.c ****   * @version V1.0.0
   6:App/STM32F4-Discovery/Libraries/STM32F4xx_StdPeriph_Driver/src/stm32f4xx_hash.c ****   * @date    30-September-2011
   7:App/STM32F4-Discovery/Libraries/STM32F4xx_StdPeriph_Driver/src/stm32f4xx_hash.c ****   * @brief   This file provides firmware functions to manage the following 
   8:App/STM32F4-Discovery/Libraries/STM32F4xx_StdPeriph_Driver/src/stm32f4xx_hash.c ****   *          functionalities of the HASH / HMAC Processor (HASH) peripheral:           
   9:App/STM32F4-Discovery/Libraries/STM32F4xx_StdPeriph_Driver/src/stm32f4xx_hash.c ****   *           - Initialization and Configuration functions
  10:App/STM32F4-Discovery/Libraries/STM32F4xx_StdPeriph_Driver/src/stm32f4xx_hash.c ****   *           - Message Digest generation functions
  11:App/STM32F4-Discovery/Libraries/STM32F4xx_StdPeriph_Driver/src/stm32f4xx_hash.c ****   *           - context swapping functions   
  12:App/STM32F4-Discovery/Libraries/STM32F4xx_StdPeriph_Driver/src/stm32f4xx_hash.c ****   *           - DMA interface function       
  13:App/STM32F4-Discovery/Libraries/STM32F4xx_StdPeriph_Driver/src/stm32f4xx_hash.c ****   *           - Interrupts and flags management       
  14:App/STM32F4-Discovery/Libraries/STM32F4xx_StdPeriph_Driver/src/stm32f4xx_hash.c ****   *         
  15:App/STM32F4-Discovery/Libraries/STM32F4xx_StdPeriph_Driver/src/stm32f4xx_hash.c ****   *  @verbatim
  16:App/STM32F4-Discovery/Libraries/STM32F4xx_StdPeriph_Driver/src/stm32f4xx_hash.c ****   *                               
  17:App/STM32F4-Discovery/Libraries/STM32F4xx_StdPeriph_Driver/src/stm32f4xx_hash.c ****   *          ===================================================================      
  18:App/STM32F4-Discovery/Libraries/STM32F4xx_StdPeriph_Driver/src/stm32f4xx_hash.c ****   *                                   How to use this driver
  19:App/STM32F4-Discovery/Libraries/STM32F4xx_StdPeriph_Driver/src/stm32f4xx_hash.c ****   *          ===================================================================
  20:App/STM32F4-Discovery/Libraries/STM32F4xx_StdPeriph_Driver/src/stm32f4xx_hash.c ****   *          HASH operation : 
  21:App/STM32F4-Discovery/Libraries/STM32F4xx_StdPeriph_Driver/src/stm32f4xx_hash.c ****   *          ----------------                   
  22:App/STM32F4-Discovery/Libraries/STM32F4xx_StdPeriph_Driver/src/stm32f4xx_hash.c ****   *         1. Enable the HASH controller clock using 
  23:App/STM32F4-Discovery/Libraries/STM32F4xx_StdPeriph_Driver/src/stm32f4xx_hash.c ****   *            RCC_AHB2PeriphClockCmd(RCC_AHB2Periph_HASH, ENABLE) function.
  24:App/STM32F4-Discovery/Libraries/STM32F4xx_StdPeriph_Driver/src/stm32f4xx_hash.c ****   *           
  25:App/STM32F4-Discovery/Libraries/STM32F4xx_StdPeriph_Driver/src/stm32f4xx_hash.c ****   *         2. Initialise the HASH using HASH_Init() function. 
  26:App/STM32F4-Discovery/Libraries/STM32F4xx_StdPeriph_Driver/src/stm32f4xx_hash.c ****   *               
  27:App/STM32F4-Discovery/Libraries/STM32F4xx_StdPeriph_Driver/src/stm32f4xx_hash.c ****   *         3 . Reset the HASH processor core, so that the HASH will be ready 
  28:App/STM32F4-Discovery/Libraries/STM32F4xx_StdPeriph_Driver/src/stm32f4xx_hash.c ****   *             to compute he message digest of a new message by using 
  29:App/STM32F4-Discovery/Libraries/STM32F4xx_StdPeriph_Driver/src/stm32f4xx_hash.c ****   *             HASH_Reset() function.
  30:App/STM32F4-Discovery/Libraries/STM32F4xx_StdPeriph_Driver/src/stm32f4xx_hash.c ****   *
  31:App/STM32F4-Discovery/Libraries/STM32F4xx_StdPeriph_Driver/src/stm32f4xx_hash.c ****   *         4. Enable the HASH controller using the HASH_Cmd() function. 
  32:App/STM32F4-Discovery/Libraries/STM32F4xx_StdPeriph_Driver/src/stm32f4xx_hash.c ****   *                
  33:App/STM32F4-Discovery/Libraries/STM32F4xx_StdPeriph_Driver/src/stm32f4xx_hash.c ****   *         5. if using DMA for Data input transfer, Activate the DMA Request 
  34:App/STM32F4-Discovery/Libraries/STM32F4xx_StdPeriph_Driver/src/stm32f4xx_hash.c ****   *            using HASH_DMACmd() function 
  35:App/STM32F4-Discovery/Libraries/STM32F4xx_StdPeriph_Driver/src/stm32f4xx_hash.c ****   *                    
  36:App/STM32F4-Discovery/Libraries/STM32F4xx_StdPeriph_Driver/src/stm32f4xx_hash.c ****   *         6. if DMA is not used for data transfer, use HASH_DataIn() function 
  37:App/STM32F4-Discovery/Libraries/STM32F4xx_StdPeriph_Driver/src/stm32f4xx_hash.c ****   *            to enter data to IN FIFO.
  38:App/STM32F4-Discovery/Libraries/STM32F4xx_StdPeriph_Driver/src/stm32f4xx_hash.c ****   *             
  39:App/STM32F4-Discovery/Libraries/STM32F4xx_StdPeriph_Driver/src/stm32f4xx_hash.c ****   *          
  40:App/STM32F4-Discovery/Libraries/STM32F4xx_StdPeriph_Driver/src/stm32f4xx_hash.c ****   *         7. Configure the Number of valid bits in last word of the message 
  41:App/STM32F4-Discovery/Libraries/STM32F4xx_StdPeriph_Driver/src/stm32f4xx_hash.c ****   *            using HASH_SetLastWordValidBitsNbr() function.
  42:App/STM32F4-Discovery/Libraries/STM32F4xx_StdPeriph_Driver/src/stm32f4xx_hash.c ****   *             
  43:App/STM32F4-Discovery/Libraries/STM32F4xx_StdPeriph_Driver/src/stm32f4xx_hash.c ****   *         8. if the message length is not an exact multiple of 512 bits, 
  44:App/STM32F4-Discovery/Libraries/STM32F4xx_StdPeriph_Driver/src/stm32f4xx_hash.c ****   *            then the function HASH_StartDigest() must be called to 
  45:App/STM32F4-Discovery/Libraries/STM32F4xx_StdPeriph_Driver/src/stm32f4xx_hash.c ****   *            launch the computation of the final digest.     
  46:App/STM32F4-Discovery/Libraries/STM32F4xx_StdPeriph_Driver/src/stm32f4xx_hash.c ****   *             
  47:App/STM32F4-Discovery/Libraries/STM32F4xx_StdPeriph_Driver/src/stm32f4xx_hash.c ****   *         9. Once computed, the digest can be read using HASH_GetDigest() 
  48:App/STM32F4-Discovery/Libraries/STM32F4xx_StdPeriph_Driver/src/stm32f4xx_hash.c ****   *            function.         
  49:App/STM32F4-Discovery/Libraries/STM32F4xx_StdPeriph_Driver/src/stm32f4xx_hash.c ****   *                   
  50:App/STM32F4-Discovery/Libraries/STM32F4xx_StdPeriph_Driver/src/stm32f4xx_hash.c ****   *        10. To control HASH events you can use one of the following 
  51:App/STM32F4-Discovery/Libraries/STM32F4xx_StdPeriph_Driver/src/stm32f4xx_hash.c ****   *              two methods:
  52:App/STM32F4-Discovery/Libraries/STM32F4xx_StdPeriph_Driver/src/stm32f4xx_hash.c ****   *               a- Check on HASH flags using the HASH_GetFlagStatus() function.  
  53:App/STM32F4-Discovery/Libraries/STM32F4xx_StdPeriph_Driver/src/stm32f4xx_hash.c ****   *               b- Use HASH interrupts through the function HASH_ITConfig() at 
  54:App/STM32F4-Discovery/Libraries/STM32F4xx_StdPeriph_Driver/src/stm32f4xx_hash.c ****   *                  initialization phase and HASH_GetITStatus() function into 
  55:App/STM32F4-Discovery/Libraries/STM32F4xx_StdPeriph_Driver/src/stm32f4xx_hash.c ****   *                  interrupt routines in hashing phase.
  56:App/STM32F4-Discovery/Libraries/STM32F4xx_StdPeriph_Driver/src/stm32f4xx_hash.c ****   *          After checking on a flag you should clear it using HASH_ClearFlag()
  57:App/STM32F4-Discovery/Libraries/STM32F4xx_StdPeriph_Driver/src/stm32f4xx_hash.c ****   *          function. And after checking on an interrupt event you should 
  58:App/STM32F4-Discovery/Libraries/STM32F4xx_StdPeriph_Driver/src/stm32f4xx_hash.c ****   *          clear it using HASH_ClearITPendingBit() function.     
  59:App/STM32F4-Discovery/Libraries/STM32F4xx_StdPeriph_Driver/src/stm32f4xx_hash.c ****   *                     
  60:App/STM32F4-Discovery/Libraries/STM32F4xx_StdPeriph_Driver/src/stm32f4xx_hash.c ****   *        11. Save and restore hash processor context using 
  61:App/STM32F4-Discovery/Libraries/STM32F4xx_StdPeriph_Driver/src/stm32f4xx_hash.c ****   *            HASH_SaveContext() and HASH_RestoreContext() functions.     
  62:App/STM32F4-Discovery/Libraries/STM32F4xx_StdPeriph_Driver/src/stm32f4xx_hash.c ****   *              
  63:App/STM32F4-Discovery/Libraries/STM32F4xx_StdPeriph_Driver/src/stm32f4xx_hash.c ****   *
  64:App/STM32F4-Discovery/Libraries/STM32F4xx_StdPeriph_Driver/src/stm32f4xx_hash.c ****   *            
  65:App/STM32F4-Discovery/Libraries/STM32F4xx_StdPeriph_Driver/src/stm32f4xx_hash.c ****   *          HMAC operation : 
  66:App/STM32F4-Discovery/Libraries/STM32F4xx_StdPeriph_Driver/src/stm32f4xx_hash.c ****   *          ----------------  
  67:App/STM32F4-Discovery/Libraries/STM32F4xx_StdPeriph_Driver/src/stm32f4xx_hash.c ****   *          The HMAC algorithm is used for message authentication, by 
  68:App/STM32F4-Discovery/Libraries/STM32F4xx_StdPeriph_Driver/src/stm32f4xx_hash.c ****   *          irreversibly binding the message being processed to a key chosen 
  69:App/STM32F4-Discovery/Libraries/STM32F4xx_StdPeriph_Driver/src/stm32f4xx_hash.c ****   *          by the user. 
  70:App/STM32F4-Discovery/Libraries/STM32F4xx_StdPeriph_Driver/src/stm32f4xx_hash.c ****   *          For HMAC specifications, refer to "HMAC: keyed-hashing for message 
  71:App/STM32F4-Discovery/Libraries/STM32F4xx_StdPeriph_Driver/src/stm32f4xx_hash.c ****   *          authentication, H. Krawczyk, M. Bellare, R. Canetti, February 1997"
  72:App/STM32F4-Discovery/Libraries/STM32F4xx_StdPeriph_Driver/src/stm32f4xx_hash.c ****   *          
  73:App/STM32F4-Discovery/Libraries/STM32F4xx_StdPeriph_Driver/src/stm32f4xx_hash.c ****   *          Basically, the HMAC algorithm consists of two nested hash operations:
  74:App/STM32F4-Discovery/Libraries/STM32F4xx_StdPeriph_Driver/src/stm32f4xx_hash.c ****   *          HMAC(message) = Hash[((key | pad) XOR 0x5C) | Hash(((key | pad) XOR 0x36) | message)]
  75:App/STM32F4-Discovery/Libraries/STM32F4xx_StdPeriph_Driver/src/stm32f4xx_hash.c ****   *          where:
  76:App/STM32F4-Discovery/Libraries/STM32F4xx_StdPeriph_Driver/src/stm32f4xx_hash.c ****   *          - "pad" is a sequence of zeroes needed to extend the key to the 
  77:App/STM32F4-Discovery/Libraries/STM32F4xx_StdPeriph_Driver/src/stm32f4xx_hash.c ****   *                  length of the underlying hash function data block (that is 
  78:App/STM32F4-Discovery/Libraries/STM32F4xx_StdPeriph_Driver/src/stm32f4xx_hash.c ****   *                  512 bits for both the SHA-1 and MD5 hash algorithms)
  79:App/STM32F4-Discovery/Libraries/STM32F4xx_StdPeriph_Driver/src/stm32f4xx_hash.c ****   *          - "|"   represents the concatenation operator 
  80:App/STM32F4-Discovery/Libraries/STM32F4xx_StdPeriph_Driver/src/stm32f4xx_hash.c ****   *          
  81:App/STM32F4-Discovery/Libraries/STM32F4xx_StdPeriph_Driver/src/stm32f4xx_hash.c ****   *         
  82:App/STM32F4-Discovery/Libraries/STM32F4xx_StdPeriph_Driver/src/stm32f4xx_hash.c ****   *         To compute the HMAC, four different phases are required:
  83:App/STM32F4-Discovery/Libraries/STM32F4xx_StdPeriph_Driver/src/stm32f4xx_hash.c ****   *                    
  84:App/STM32F4-Discovery/Libraries/STM32F4xx_StdPeriph_Driver/src/stm32f4xx_hash.c ****   *         1.  Initialise the HASH using HASH_Init() function to do HMAC 
  85:App/STM32F4-Discovery/Libraries/STM32F4xx_StdPeriph_Driver/src/stm32f4xx_hash.c ****   *             operation. 
  86:App/STM32F4-Discovery/Libraries/STM32F4xx_StdPeriph_Driver/src/stm32f4xx_hash.c ****   *                
  87:App/STM32F4-Discovery/Libraries/STM32F4xx_StdPeriph_Driver/src/stm32f4xx_hash.c ****   *         2.  The key (to be used for the inner hash function) is then given 
  88:App/STM32F4-Discovery/Libraries/STM32F4xx_StdPeriph_Driver/src/stm32f4xx_hash.c ****   *             to the core. This operation follows the same mechanism as the 
  89:App/STM32F4-Discovery/Libraries/STM32F4xx_StdPeriph_Driver/src/stm32f4xx_hash.c ****   *             one used to send the message in the hash operation (that is, 
  90:App/STM32F4-Discovery/Libraries/STM32F4xx_StdPeriph_Driver/src/stm32f4xx_hash.c ****   *             by HASH_DataIn() function and, finally, 
  91:App/STM32F4-Discovery/Libraries/STM32F4xx_StdPeriph_Driver/src/stm32f4xx_hash.c ****   *             HASH_StartDigest() function.
  92:App/STM32F4-Discovery/Libraries/STM32F4xx_StdPeriph_Driver/src/stm32f4xx_hash.c ****   *          
  93:App/STM32F4-Discovery/Libraries/STM32F4xx_StdPeriph_Driver/src/stm32f4xx_hash.c ****   *         3.  Once the last word has been entered and computation has started, 
  94:App/STM32F4-Discovery/Libraries/STM32F4xx_StdPeriph_Driver/src/stm32f4xx_hash.c ****   *             the hash processor elaborates the key. It is then ready to 
  95:App/STM32F4-Discovery/Libraries/STM32F4xx_StdPeriph_Driver/src/stm32f4xx_hash.c ****   *             accept the message text using the same mechanism as the one 
  96:App/STM32F4-Discovery/Libraries/STM32F4xx_StdPeriph_Driver/src/stm32f4xx_hash.c ****   *             used to send the message in the hash operation.
  97:App/STM32F4-Discovery/Libraries/STM32F4xx_StdPeriph_Driver/src/stm32f4xx_hash.c ****   *       
  98:App/STM32F4-Discovery/Libraries/STM32F4xx_StdPeriph_Driver/src/stm32f4xx_hash.c ****   *         4.  After the first hash round, the hash processor returns "ready" 
  99:App/STM32F4-Discovery/Libraries/STM32F4xx_StdPeriph_Driver/src/stm32f4xx_hash.c ****   *             to indicate that it is ready to receive the key to be used for 
 100:App/STM32F4-Discovery/Libraries/STM32F4xx_StdPeriph_Driver/src/stm32f4xx_hash.c ****   *             the outer hash function (normally, this key is the same as the 
 101:App/STM32F4-Discovery/Libraries/STM32F4xx_StdPeriph_Driver/src/stm32f4xx_hash.c ****   *             one used for the inner hash function). When the last word of 
 102:App/STM32F4-Discovery/Libraries/STM32F4xx_StdPeriph_Driver/src/stm32f4xx_hash.c ****   *             the key is entered and computation starts, the HMAC result is 
 103:App/STM32F4-Discovery/Libraries/STM32F4xx_StdPeriph_Driver/src/stm32f4xx_hash.c ****   *             made available using HASH_GetDigest() function.
 104:App/STM32F4-Discovery/Libraries/STM32F4xx_StdPeriph_Driver/src/stm32f4xx_hash.c ****   *               
 105:App/STM32F4-Discovery/Libraries/STM32F4xx_StdPeriph_Driver/src/stm32f4xx_hash.c ****   *              
 106:App/STM32F4-Discovery/Libraries/STM32F4xx_StdPeriph_Driver/src/stm32f4xx_hash.c ****   *  @endverbatim
 107:App/STM32F4-Discovery/Libraries/STM32F4xx_StdPeriph_Driver/src/stm32f4xx_hash.c ****   *         
 108:App/STM32F4-Discovery/Libraries/STM32F4xx_StdPeriph_Driver/src/stm32f4xx_hash.c ****   ******************************************************************************
 109:App/STM32F4-Discovery/Libraries/STM32F4xx_StdPeriph_Driver/src/stm32f4xx_hash.c ****   * @attention
 110:App/STM32F4-Discovery/Libraries/STM32F4xx_StdPeriph_Driver/src/stm32f4xx_hash.c ****   *
 111:App/STM32F4-Discovery/Libraries/STM32F4xx_StdPeriph_Driver/src/stm32f4xx_hash.c ****   * THE PRESENT FIRMWARE WHICH IS FOR GUIDANCE ONLY AIMS AT PROVIDING CUSTOMERS
 112:App/STM32F4-Discovery/Libraries/STM32F4xx_StdPeriph_Driver/src/stm32f4xx_hash.c ****   * WITH CODING INFORMATION REGARDING THEIR PRODUCTS IN ORDER FOR THEM TO SAVE
 113:App/STM32F4-Discovery/Libraries/STM32F4xx_StdPeriph_Driver/src/stm32f4xx_hash.c ****   * TIME. AS A RESULT, STMICROELECTRONICS SHALL NOT BE HELD LIABLE FOR ANY
 114:App/STM32F4-Discovery/Libraries/STM32F4xx_StdPeriph_Driver/src/stm32f4xx_hash.c ****   * DIRECT, INDIRECT OR CONSEQUENTIAL DAMAGES WITH RESPECT TO ANY CLAIMS ARISING
 115:App/STM32F4-Discovery/Libraries/STM32F4xx_StdPeriph_Driver/src/stm32f4xx_hash.c ****   * FROM THE CONTENT OF SUCH FIRMWARE AND/OR THE USE MADE BY CUSTOMERS OF THE
 116:App/STM32F4-Discovery/Libraries/STM32F4xx_StdPeriph_Driver/src/stm32f4xx_hash.c ****   * CODING INFORMATION CONTAINED HEREIN IN CONNECTION WITH THEIR PRODUCTS.
 117:App/STM32F4-Discovery/Libraries/STM32F4xx_StdPeriph_Driver/src/stm32f4xx_hash.c ****   *
 118:App/STM32F4-Discovery/Libraries/STM32F4xx_StdPeriph_Driver/src/stm32f4xx_hash.c ****   * <h2><center>&copy; COPYRIGHT 2011 STMicroelectronics</center></h2>
 119:App/STM32F4-Discovery/Libraries/STM32F4xx_StdPeriph_Driver/src/stm32f4xx_hash.c ****   ******************************************************************************  
 120:App/STM32F4-Discovery/Libraries/STM32F4xx_StdPeriph_Driver/src/stm32f4xx_hash.c ****   */
 121:App/STM32F4-Discovery/Libraries/STM32F4xx_StdPeriph_Driver/src/stm32f4xx_hash.c **** 
 122:App/STM32F4-Discovery/Libraries/STM32F4xx_StdPeriph_Driver/src/stm32f4xx_hash.c **** /* Includes ------------------------------------------------------------------*/
 123:App/STM32F4-Discovery/Libraries/STM32F4xx_StdPeriph_Driver/src/stm32f4xx_hash.c **** #include "stm32f4xx_hash.h"
 124:App/STM32F4-Discovery/Libraries/STM32F4xx_StdPeriph_Driver/src/stm32f4xx_hash.c **** #include "stm32f4xx_rcc.h"
 125:App/STM32F4-Discovery/Libraries/STM32F4xx_StdPeriph_Driver/src/stm32f4xx_hash.c **** 
 126:App/STM32F4-Discovery/Libraries/STM32F4xx_StdPeriph_Driver/src/stm32f4xx_hash.c **** /** @addtogroup STM32F4xx_StdPeriph_Driver
 127:App/STM32F4-Discovery/Libraries/STM32F4xx_StdPeriph_Driver/src/stm32f4xx_hash.c ****   * @{
 128:App/STM32F4-Discovery/Libraries/STM32F4xx_StdPeriph_Driver/src/stm32f4xx_hash.c ****   */
 129:App/STM32F4-Discovery/Libraries/STM32F4xx_StdPeriph_Driver/src/stm32f4xx_hash.c **** 
 130:App/STM32F4-Discovery/Libraries/STM32F4xx_StdPeriph_Driver/src/stm32f4xx_hash.c **** /** @defgroup HASH 
 131:App/STM32F4-Discovery/Libraries/STM32F4xx_StdPeriph_Driver/src/stm32f4xx_hash.c ****   * @brief HASH driver modules
 132:App/STM32F4-Discovery/Libraries/STM32F4xx_StdPeriph_Driver/src/stm32f4xx_hash.c ****   * @{
 133:App/STM32F4-Discovery/Libraries/STM32F4xx_StdPeriph_Driver/src/stm32f4xx_hash.c ****   */ 
 134:App/STM32F4-Discovery/Libraries/STM32F4xx_StdPeriph_Driver/src/stm32f4xx_hash.c **** 
 135:App/STM32F4-Discovery/Libraries/STM32F4xx_StdPeriph_Driver/src/stm32f4xx_hash.c **** /* Private typedef -----------------------------------------------------------*/
 136:App/STM32F4-Discovery/Libraries/STM32F4xx_StdPeriph_Driver/src/stm32f4xx_hash.c **** /* Private define ------------------------------------------------------------*/
 137:App/STM32F4-Discovery/Libraries/STM32F4xx_StdPeriph_Driver/src/stm32f4xx_hash.c **** /* Private macro -------------------------------------------------------------*/
 138:App/STM32F4-Discovery/Libraries/STM32F4xx_StdPeriph_Driver/src/stm32f4xx_hash.c **** /* Private variables ---------------------------------------------------------*/
 139:App/STM32F4-Discovery/Libraries/STM32F4xx_StdPeriph_Driver/src/stm32f4xx_hash.c **** /* Private function prototypes -----------------------------------------------*/
 140:App/STM32F4-Discovery/Libraries/STM32F4xx_StdPeriph_Driver/src/stm32f4xx_hash.c **** /* Private functions ---------------------------------------------------------*/ 
 141:App/STM32F4-Discovery/Libraries/STM32F4xx_StdPeriph_Driver/src/stm32f4xx_hash.c **** 
 142:App/STM32F4-Discovery/Libraries/STM32F4xx_StdPeriph_Driver/src/stm32f4xx_hash.c **** /** @defgroup HASH_Private_Functions
 143:App/STM32F4-Discovery/Libraries/STM32F4xx_StdPeriph_Driver/src/stm32f4xx_hash.c ****   * @{
 144:App/STM32F4-Discovery/Libraries/STM32F4xx_StdPeriph_Driver/src/stm32f4xx_hash.c ****   */ 
 145:App/STM32F4-Discovery/Libraries/STM32F4xx_StdPeriph_Driver/src/stm32f4xx_hash.c **** 
 146:App/STM32F4-Discovery/Libraries/STM32F4xx_StdPeriph_Driver/src/stm32f4xx_hash.c **** /** @defgroup HASH_Group1 Initialization and Configuration functions
 147:App/STM32F4-Discovery/Libraries/STM32F4xx_StdPeriph_Driver/src/stm32f4xx_hash.c ****  *  @brief    Initialization and Configuration functions 
 148:App/STM32F4-Discovery/Libraries/STM32F4xx_StdPeriph_Driver/src/stm32f4xx_hash.c ****  *
 149:App/STM32F4-Discovery/Libraries/STM32F4xx_StdPeriph_Driver/src/stm32f4xx_hash.c **** @verbatim    
 150:App/STM32F4-Discovery/Libraries/STM32F4xx_StdPeriph_Driver/src/stm32f4xx_hash.c ****  ===============================================================================
 151:App/STM32F4-Discovery/Libraries/STM32F4xx_StdPeriph_Driver/src/stm32f4xx_hash.c ****                       Initialization and Configuration functions
 152:App/STM32F4-Discovery/Libraries/STM32F4xx_StdPeriph_Driver/src/stm32f4xx_hash.c ****  ===============================================================================  
 153:App/STM32F4-Discovery/Libraries/STM32F4xx_StdPeriph_Driver/src/stm32f4xx_hash.c ****   This section provides functions allowing to 
 154:App/STM32F4-Discovery/Libraries/STM32F4xx_StdPeriph_Driver/src/stm32f4xx_hash.c ****    - Initialize the HASH peripheral
 155:App/STM32F4-Discovery/Libraries/STM32F4xx_StdPeriph_Driver/src/stm32f4xx_hash.c ****    - Configure the HASH Processor 
 156:App/STM32F4-Discovery/Libraries/STM32F4xx_StdPeriph_Driver/src/stm32f4xx_hash.c ****       - MD5/SHA1, 
 157:App/STM32F4-Discovery/Libraries/STM32F4xx_StdPeriph_Driver/src/stm32f4xx_hash.c ****       - HASH/HMAC, 
 158:App/STM32F4-Discovery/Libraries/STM32F4xx_StdPeriph_Driver/src/stm32f4xx_hash.c ****       - datatype 
 159:App/STM32F4-Discovery/Libraries/STM32F4xx_StdPeriph_Driver/src/stm32f4xx_hash.c ****       - HMAC Key (if mode = HMAC)
 160:App/STM32F4-Discovery/Libraries/STM32F4xx_StdPeriph_Driver/src/stm32f4xx_hash.c ****    - Reset the HASH Processor 
 161:App/STM32F4-Discovery/Libraries/STM32F4xx_StdPeriph_Driver/src/stm32f4xx_hash.c ****    
 162:App/STM32F4-Discovery/Libraries/STM32F4xx_StdPeriph_Driver/src/stm32f4xx_hash.c **** @endverbatim
 163:App/STM32F4-Discovery/Libraries/STM32F4xx_StdPeriph_Driver/src/stm32f4xx_hash.c ****   * @{
 164:App/STM32F4-Discovery/Libraries/STM32F4xx_StdPeriph_Driver/src/stm32f4xx_hash.c ****   */
 165:App/STM32F4-Discovery/Libraries/STM32F4xx_StdPeriph_Driver/src/stm32f4xx_hash.c ****   
 166:App/STM32F4-Discovery/Libraries/STM32F4xx_StdPeriph_Driver/src/stm32f4xx_hash.c **** /**
 167:App/STM32F4-Discovery/Libraries/STM32F4xx_StdPeriph_Driver/src/stm32f4xx_hash.c ****   * @brief  Deinitializes the HASH peripheral registers to their default reset values
 168:App/STM32F4-Discovery/Libraries/STM32F4xx_StdPeriph_Driver/src/stm32f4xx_hash.c ****   * @param  None
 169:App/STM32F4-Discovery/Libraries/STM32F4xx_StdPeriph_Driver/src/stm32f4xx_hash.c ****   * @retval None
 170:App/STM32F4-Discovery/Libraries/STM32F4xx_StdPeriph_Driver/src/stm32f4xx_hash.c ****   */
 171:App/STM32F4-Discovery/Libraries/STM32F4xx_StdPeriph_Driver/src/stm32f4xx_hash.c **** void HASH_DeInit(void)
 172:App/STM32F4-Discovery/Libraries/STM32F4xx_StdPeriph_Driver/src/stm32f4xx_hash.c **** {
  28              		.loc 1 172 0
  29              		.cfi_startproc
  30              		@ args = 0, pretend = 0, frame = 0
  31              		@ frame_needed = 1, uses_anonymous_args = 0
  32 0000 80B5     		push	{r7, lr}
  33              	.LCFI0:
  34              		.cfi_def_cfa_offset 8
  35              		.cfi_offset 7, -8
  36              		.cfi_offset 14, -4
  37 0002 00AF     		add	r7, sp, #0
  38              	.LCFI1:
  39              		.cfi_def_cfa_register 7
 173:App/STM32F4-Discovery/Libraries/STM32F4xx_StdPeriph_Driver/src/stm32f4xx_hash.c ****   /* Enable HASH reset state */
 174:App/STM32F4-Discovery/Libraries/STM32F4xx_StdPeriph_Driver/src/stm32f4xx_hash.c ****   RCC_AHB2PeriphResetCmd(RCC_AHB2Periph_HASH, ENABLE);
  40              		.loc 1 174 0
  41 0004 4FF02000 		mov	r0, #32
  42 0008 4FF00101 		mov	r1, #1
  43 000c FFF7FEFF 		bl	RCC_AHB2PeriphResetCmd
 175:App/STM32F4-Discovery/Libraries/STM32F4xx_StdPeriph_Driver/src/stm32f4xx_hash.c ****   /* Release HASH from reset state */
 176:App/STM32F4-Discovery/Libraries/STM32F4xx_StdPeriph_Driver/src/stm32f4xx_hash.c ****   RCC_AHB2PeriphResetCmd(RCC_AHB2Periph_HASH, DISABLE);
  44              		.loc 1 176 0
  45 0010 4FF02000 		mov	r0, #32
  46 0014 4FF00001 		mov	r1, #0
  47 0018 FFF7FEFF 		bl	RCC_AHB2PeriphResetCmd
 177:App/STM32F4-Discovery/Libraries/STM32F4xx_StdPeriph_Driver/src/stm32f4xx_hash.c **** }
  48              		.loc 1 177 0
  49 001c 80BD     		pop	{r7, pc}
  50              		.cfi_endproc
  51              	.LFE110:
  53 001e 00BF     		.section	.rodata
  54              		.align	2
  55              	.LC0:
  56 0000 4170702F 		.ascii	"App/STM32F4-Discovery/Libraries/STM32F4xx_StdPeriph"
  56      53544D33 
  56      3246342D 
  56      44697363 
  56      6F766572 
  57 0033 5F447269 		.ascii	"_Driver/src/stm32f4xx_hash.c\000"
  57      7665722F 
  57      7372632F 
  57      73746D33 
  57      32663478 
  58              		.section	.text.HASH_Init,"ax",%progbits
  59              		.align	2
  60              		.global	HASH_Init
  61              		.thumb
  62              		.thumb_func
  64              	HASH_Init:
  65              	.LFB111:
 178:App/STM32F4-Discovery/Libraries/STM32F4xx_StdPeriph_Driver/src/stm32f4xx_hash.c **** 
 179:App/STM32F4-Discovery/Libraries/STM32F4xx_StdPeriph_Driver/src/stm32f4xx_hash.c **** /**
 180:App/STM32F4-Discovery/Libraries/STM32F4xx_StdPeriph_Driver/src/stm32f4xx_hash.c ****   * @brief  Initializes the HASH peripheral according to the specified parameters
 181:App/STM32F4-Discovery/Libraries/STM32F4xx_StdPeriph_Driver/src/stm32f4xx_hash.c ****   *         in the HASH_InitStruct structure.
 182:App/STM32F4-Discovery/Libraries/STM32F4xx_StdPeriph_Driver/src/stm32f4xx_hash.c ****   * @note   the hash processor is reset when calling this function so that the
 183:App/STM32F4-Discovery/Libraries/STM32F4xx_StdPeriph_Driver/src/stm32f4xx_hash.c ****   *         HASH will be ready to compute the message digest of a new message.
 184:App/STM32F4-Discovery/Libraries/STM32F4xx_StdPeriph_Driver/src/stm32f4xx_hash.c ****   *         There is no need to call HASH_Reset() function.           
 185:App/STM32F4-Discovery/Libraries/STM32F4xx_StdPeriph_Driver/src/stm32f4xx_hash.c ****   * @param  HASH_InitStruct: pointer to a HASH_InitTypeDef structure that contains
 186:App/STM32F4-Discovery/Libraries/STM32F4xx_StdPeriph_Driver/src/stm32f4xx_hash.c ****   *         the configuration information for the HASH peripheral.
 187:App/STM32F4-Discovery/Libraries/STM32F4xx_StdPeriph_Driver/src/stm32f4xx_hash.c ****   * @note   The field HASH_HMACKeyType in HASH_InitTypeDef must be filled only 
 188:App/STM32F4-Discovery/Libraries/STM32F4xx_StdPeriph_Driver/src/stm32f4xx_hash.c ****   *          if the algorithm mode is HMAC.       
 189:App/STM32F4-Discovery/Libraries/STM32F4xx_StdPeriph_Driver/src/stm32f4xx_hash.c ****   * @retval None
 190:App/STM32F4-Discovery/Libraries/STM32F4xx_StdPeriph_Driver/src/stm32f4xx_hash.c ****   */
 191:App/STM32F4-Discovery/Libraries/STM32F4xx_StdPeriph_Driver/src/stm32f4xx_hash.c **** void HASH_Init(HASH_InitTypeDef* HASH_InitStruct)
 192:App/STM32F4-Discovery/Libraries/STM32F4xx_StdPeriph_Driver/src/stm32f4xx_hash.c **** {
  66              		.loc 1 192 0
  67              		.cfi_startproc
  68              		@ args = 0, pretend = 0, frame = 8
  69              		@ frame_needed = 1, uses_anonymous_args = 0
  70 0000 80B5     		push	{r7, lr}
  71              	.LCFI2:
  72              		.cfi_def_cfa_offset 8
  73              		.cfi_offset 7, -8
  74              		.cfi_offset 14, -4
  75 0002 82B0     		sub	sp, sp, #8
  76              	.LCFI3:
  77              		.cfi_def_cfa_offset 16
  78 0004 00AF     		add	r7, sp, #0
  79              	.LCFI4:
  80              		.cfi_def_cfa_register 7
  81 0006 7860     		str	r0, [r7, #4]
 193:App/STM32F4-Discovery/Libraries/STM32F4xx_StdPeriph_Driver/src/stm32f4xx_hash.c ****   /* Check the parameters */
 194:App/STM32F4-Discovery/Libraries/STM32F4xx_StdPeriph_Driver/src/stm32f4xx_hash.c ****   assert_param(IS_HASH_ALGOSELECTION(HASH_InitStruct->HASH_AlgoSelection));
  82              		.loc 1 194 0
  83 0008 7B68     		ldr	r3, [r7, #4]
  84 000a 1B68     		ldr	r3, [r3, #0]
  85 000c 002B     		cmp	r3, #0
  86 000e 0BD0     		beq	.L3
  87              		.loc 1 194 0 is_stmt 0 discriminator 1
  88 0010 7B68     		ldr	r3, [r7, #4]
  89 0012 1B68     		ldr	r3, [r3, #0]
  90 0014 802B     		cmp	r3, #128
  91 0016 07D0     		beq	.L3
  92              		.loc 1 194 0 discriminator 2
  93 0018 40F20000 		movw	r0, #:lower16:.LC0
  94 001c C0F20000 		movt	r0, #:upper16:.LC0
  95 0020 4FF0C201 		mov	r1, #194
  96 0024 FFF7FEFF 		bl	assert_failed
  97              	.L3:
 195:App/STM32F4-Discovery/Libraries/STM32F4xx_StdPeriph_Driver/src/stm32f4xx_hash.c ****   assert_param(IS_HASH_DATATYPE(HASH_InitStruct->HASH_DataType));
  98              		.loc 1 195 0 is_stmt 1
  99 0028 7B68     		ldr	r3, [r7, #4]
 100 002a 9B68     		ldr	r3, [r3, #8]
 101 002c 002B     		cmp	r3, #0
 102 002e 13D0     		beq	.L4
 103              		.loc 1 195 0 is_stmt 0 discriminator 1
 104 0030 7B68     		ldr	r3, [r7, #4]
 105 0032 9B68     		ldr	r3, [r3, #8]
 106 0034 102B     		cmp	r3, #16
 107 0036 0FD0     		beq	.L4
 108              		.loc 1 195 0 discriminator 2
 109 0038 7B68     		ldr	r3, [r7, #4]
 110 003a 9B68     		ldr	r3, [r3, #8]
 111 003c 202B     		cmp	r3, #32
 112 003e 0BD0     		beq	.L4
 113              		.loc 1 195 0 discriminator 3
 114 0040 7B68     		ldr	r3, [r7, #4]
 115 0042 9B68     		ldr	r3, [r3, #8]
 116 0044 302B     		cmp	r3, #48
 117 0046 07D0     		beq	.L4
 118              		.loc 1 195 0 discriminator 4
 119 0048 40F20000 		movw	r0, #:lower16:.LC0
 120 004c C0F20000 		movt	r0, #:upper16:.LC0
 121 0050 4FF0C301 		mov	r1, #195
 122 0054 FFF7FEFF 		bl	assert_failed
 123              	.L4:
 196:App/STM32F4-Discovery/Libraries/STM32F4xx_StdPeriph_Driver/src/stm32f4xx_hash.c ****   assert_param(IS_HASH_ALGOMODE(HASH_InitStruct->HASH_AlgoMode));
 124              		.loc 1 196 0 is_stmt 1
 125 0058 7B68     		ldr	r3, [r7, #4]
 126 005a 5B68     		ldr	r3, [r3, #4]
 127 005c 002B     		cmp	r3, #0
 128 005e 0BD0     		beq	.L5
 129              		.loc 1 196 0 is_stmt 0 discriminator 1
 130 0060 7B68     		ldr	r3, [r7, #4]
 131 0062 5B68     		ldr	r3, [r3, #4]
 132 0064 402B     		cmp	r3, #64
 133 0066 07D0     		beq	.L5
 134              		.loc 1 196 0 discriminator 2
 135 0068 40F20000 		movw	r0, #:lower16:.LC0
 136 006c C0F20000 		movt	r0, #:upper16:.LC0
 137 0070 4FF0C401 		mov	r1, #196
 138 0074 FFF7FEFF 		bl	assert_failed
 139              	.L5:
 197:App/STM32F4-Discovery/Libraries/STM32F4xx_StdPeriph_Driver/src/stm32f4xx_hash.c ****   
 198:App/STM32F4-Discovery/Libraries/STM32F4xx_StdPeriph_Driver/src/stm32f4xx_hash.c ****   /* Configure the Algorithm used, algorithm mode and the datatype */
 199:App/STM32F4-Discovery/Libraries/STM32F4xx_StdPeriph_Driver/src/stm32f4xx_hash.c ****   HASH->CR &= ~ (HASH_CR_ALGO | HASH_CR_DATATYPE | HASH_CR_MODE);
 140              		.loc 1 199 0 is_stmt 1
 141 0078 4FF48063 		mov	r3, #1024
 142 007c C5F20603 		movt	r3, 20486
 143 0080 4FF48062 		mov	r2, #1024
 144 0084 C5F20602 		movt	r2, 20486
 145 0088 1268     		ldr	r2, [r2, #0]
 146 008a 22F0F002 		bic	r2, r2, #240
 147 008e 1A60     		str	r2, [r3, #0]
 200:App/STM32F4-Discovery/Libraries/STM32F4xx_StdPeriph_Driver/src/stm32f4xx_hash.c ****   HASH->CR |= (HASH_InitStruct->HASH_AlgoSelection | \
 148              		.loc 1 200 0
 149 0090 4FF48063 		mov	r3, #1024
 150 0094 C5F20603 		movt	r3, 20486
 151 0098 4FF48062 		mov	r2, #1024
 152 009c C5F20602 		movt	r2, 20486
 153 00a0 1168     		ldr	r1, [r2, #0]
 154 00a2 7A68     		ldr	r2, [r7, #4]
 155 00a4 1068     		ldr	r0, [r2, #0]
 201:App/STM32F4-Discovery/Libraries/STM32F4xx_StdPeriph_Driver/src/stm32f4xx_hash.c ****                HASH_InitStruct->HASH_DataType | \
 156              		.loc 1 201 0
 157 00a6 7A68     		ldr	r2, [r7, #4]
 158 00a8 9268     		ldr	r2, [r2, #8]
 200:App/STM32F4-Discovery/Libraries/STM32F4xx_StdPeriph_Driver/src/stm32f4xx_hash.c ****   HASH->CR |= (HASH_InitStruct->HASH_AlgoSelection | \
 159              		.loc 1 200 0
 160 00aa 1043     		orrs	r0, r0, r2
 202:App/STM32F4-Discovery/Libraries/STM32F4xx_StdPeriph_Driver/src/stm32f4xx_hash.c ****                HASH_InitStruct->HASH_AlgoMode);
 161              		.loc 1 202 0
 162 00ac 7A68     		ldr	r2, [r7, #4]
 163 00ae 5268     		ldr	r2, [r2, #4]
 201:App/STM32F4-Discovery/Libraries/STM32F4xx_StdPeriph_Driver/src/stm32f4xx_hash.c ****                HASH_InitStruct->HASH_DataType | \
 164              		.loc 1 201 0
 165 00b0 0243     		orrs	r2, r2, r0
 200:App/STM32F4-Discovery/Libraries/STM32F4xx_StdPeriph_Driver/src/stm32f4xx_hash.c ****   HASH->CR |= (HASH_InitStruct->HASH_AlgoSelection | \
 166              		.loc 1 200 0
 167 00b2 0A43     		orrs	r2, r2, r1
 168 00b4 1A60     		str	r2, [r3, #0]
 203:App/STM32F4-Discovery/Libraries/STM32F4xx_StdPeriph_Driver/src/stm32f4xx_hash.c ****   
 204:App/STM32F4-Discovery/Libraries/STM32F4xx_StdPeriph_Driver/src/stm32f4xx_hash.c ****   /* if algorithm mode is HMAC, set the Key */  
 205:App/STM32F4-Discovery/Libraries/STM32F4xx_StdPeriph_Driver/src/stm32f4xx_hash.c ****   if(HASH_InitStruct->HASH_AlgoMode == HASH_AlgoMode_HMAC) 
 169              		.loc 1 205 0
 170 00b6 7B68     		ldr	r3, [r7, #4]
 171 00b8 5B68     		ldr	r3, [r3, #4]
 172 00ba 402B     		cmp	r3, #64
 173 00bc 29D1     		bne	.L6
 206:App/STM32F4-Discovery/Libraries/STM32F4xx_StdPeriph_Driver/src/stm32f4xx_hash.c ****   {
 207:App/STM32F4-Discovery/Libraries/STM32F4xx_StdPeriph_Driver/src/stm32f4xx_hash.c ****     assert_param(IS_HASH_HMAC_KEYTYPE(HASH_InitStruct->HASH_HMACKeyType));
 174              		.loc 1 207 0
 175 00be 7B68     		ldr	r3, [r7, #4]
 176 00c0 DB68     		ldr	r3, [r3, #12]
 177 00c2 002B     		cmp	r3, #0
 178 00c4 0CD0     		beq	.L7
 179              		.loc 1 207 0 is_stmt 0 discriminator 1
 180 00c6 7B68     		ldr	r3, [r7, #4]
 181 00c8 DB68     		ldr	r3, [r3, #12]
 182 00ca B3F5803F 		cmp	r3, #65536
 183 00ce 07D0     		beq	.L7
 184              		.loc 1 207 0 discriminator 2
 185 00d0 40F20000 		movw	r0, #:lower16:.LC0
 186 00d4 C0F20000 		movt	r0, #:upper16:.LC0
 187 00d8 4FF0CF01 		mov	r1, #207
 188 00dc FFF7FEFF 		bl	assert_failed
 189              	.L7:
 208:App/STM32F4-Discovery/Libraries/STM32F4xx_StdPeriph_Driver/src/stm32f4xx_hash.c ****     HASH->CR &= ~HASH_CR_LKEY;
 190              		.loc 1 208 0 is_stmt 1
 191 00e0 4FF48063 		mov	r3, #1024
 192 00e4 C5F20603 		movt	r3, 20486
 193 00e8 4FF48062 		mov	r2, #1024
 194 00ec C5F20602 		movt	r2, 20486
 195 00f0 1268     		ldr	r2, [r2, #0]
 196 00f2 22F48032 		bic	r2, r2, #65536
 197 00f6 1A60     		str	r2, [r3, #0]
 209:App/STM32F4-Discovery/Libraries/STM32F4xx_StdPeriph_Driver/src/stm32f4xx_hash.c ****     HASH->CR |= HASH_InitStruct->HASH_HMACKeyType;
 198              		.loc 1 209 0
 199 00f8 4FF48063 		mov	r3, #1024
 200 00fc C5F20603 		movt	r3, 20486
 201 0100 4FF48062 		mov	r2, #1024
 202 0104 C5F20602 		movt	r2, 20486
 203 0108 1168     		ldr	r1, [r2, #0]
 204 010a 7A68     		ldr	r2, [r7, #4]
 205 010c D268     		ldr	r2, [r2, #12]
 206 010e 0A43     		orrs	r2, r2, r1
 207 0110 1A60     		str	r2, [r3, #0]
 208              	.L6:
 210:App/STM32F4-Discovery/Libraries/STM32F4xx_StdPeriph_Driver/src/stm32f4xx_hash.c ****   }
 211:App/STM32F4-Discovery/Libraries/STM32F4xx_StdPeriph_Driver/src/stm32f4xx_hash.c **** 
 212:App/STM32F4-Discovery/Libraries/STM32F4xx_StdPeriph_Driver/src/stm32f4xx_hash.c ****   /* Reset the HASH processor core, so that the HASH will be ready to compute 
 213:App/STM32F4-Discovery/Libraries/STM32F4xx_StdPeriph_Driver/src/stm32f4xx_hash.c ****      the message digest of a new message */
 214:App/STM32F4-Discovery/Libraries/STM32F4xx_StdPeriph_Driver/src/stm32f4xx_hash.c ****   HASH->CR |= HASH_CR_INIT;  
 209              		.loc 1 214 0
 210 0112 4FF48063 		mov	r3, #1024
 211 0116 C5F20603 		movt	r3, 20486
 212 011a 4FF48062 		mov	r2, #1024
 213 011e C5F20602 		movt	r2, 20486
 214 0122 1268     		ldr	r2, [r2, #0]
 215 0124 42F00402 		orr	r2, r2, #4
 216 0128 1A60     		str	r2, [r3, #0]
 215:App/STM32F4-Discovery/Libraries/STM32F4xx_StdPeriph_Driver/src/stm32f4xx_hash.c **** }
 217              		.loc 1 215 0
 218 012a 07F10807 		add	r7, r7, #8
 219 012e BD46     		mov	sp, r7
 220 0130 80BD     		pop	{r7, pc}
 221              		.cfi_endproc
 222              	.LFE111:
 224 0132 00BF     		.section	.text.HASH_StructInit,"ax",%progbits
 225              		.align	2
 226              		.global	HASH_StructInit
 227              		.thumb
 228              		.thumb_func
 230              	HASH_StructInit:
 231              	.LFB112:
 216:App/STM32F4-Discovery/Libraries/STM32F4xx_StdPeriph_Driver/src/stm32f4xx_hash.c **** 
 217:App/STM32F4-Discovery/Libraries/STM32F4xx_StdPeriph_Driver/src/stm32f4xx_hash.c **** /**
 218:App/STM32F4-Discovery/Libraries/STM32F4xx_StdPeriph_Driver/src/stm32f4xx_hash.c ****   * @brief  Fills each HASH_InitStruct member with its default value.
 219:App/STM32F4-Discovery/Libraries/STM32F4xx_StdPeriph_Driver/src/stm32f4xx_hash.c ****   * @param  HASH_InitStruct : pointer to a HASH_InitTypeDef structure which will
 220:App/STM32F4-Discovery/Libraries/STM32F4xx_StdPeriph_Driver/src/stm32f4xx_hash.c ****   *          be initialized.  
 221:App/STM32F4-Discovery/Libraries/STM32F4xx_StdPeriph_Driver/src/stm32f4xx_hash.c ****   *  @note  The default values set are : Processor mode is HASH, Algorithm selected is SHA1,
 222:App/STM32F4-Discovery/Libraries/STM32F4xx_StdPeriph_Driver/src/stm32f4xx_hash.c ****   *          Data type selected is 32b and HMAC Key Type is short key.  
 223:App/STM32F4-Discovery/Libraries/STM32F4xx_StdPeriph_Driver/src/stm32f4xx_hash.c ****   * @retval None
 224:App/STM32F4-Discovery/Libraries/STM32F4xx_StdPeriph_Driver/src/stm32f4xx_hash.c ****   */
 225:App/STM32F4-Discovery/Libraries/STM32F4xx_StdPeriph_Driver/src/stm32f4xx_hash.c **** void HASH_StructInit(HASH_InitTypeDef* HASH_InitStruct)
 226:App/STM32F4-Discovery/Libraries/STM32F4xx_StdPeriph_Driver/src/stm32f4xx_hash.c **** {
 232              		.loc 1 226 0
 233              		.cfi_startproc
 234              		@ args = 0, pretend = 0, frame = 8
 235              		@ frame_needed = 1, uses_anonymous_args = 0
 236              		@ link register save eliminated.
 237 0000 80B4     		push	{r7}
 238              	.LCFI5:
 239              		.cfi_def_cfa_offset 4
 240              		.cfi_offset 7, -4
 241 0002 83B0     		sub	sp, sp, #12
 242              	.LCFI6:
 243              		.cfi_def_cfa_offset 16
 244 0004 00AF     		add	r7, sp, #0
 245              	.LCFI7:
 246              		.cfi_def_cfa_register 7
 247 0006 7860     		str	r0, [r7, #4]
 227:App/STM32F4-Discovery/Libraries/STM32F4xx_StdPeriph_Driver/src/stm32f4xx_hash.c ****   /* Initialize the HASH_AlgoSelection member */
 228:App/STM32F4-Discovery/Libraries/STM32F4xx_StdPeriph_Driver/src/stm32f4xx_hash.c ****   HASH_InitStruct->HASH_AlgoSelection = HASH_AlgoSelection_SHA1;
 248              		.loc 1 228 0
 249 0008 7B68     		ldr	r3, [r7, #4]
 250 000a 4FF00002 		mov	r2, #0
 251 000e 1A60     		str	r2, [r3, #0]
 229:App/STM32F4-Discovery/Libraries/STM32F4xx_StdPeriph_Driver/src/stm32f4xx_hash.c **** 
 230:App/STM32F4-Discovery/Libraries/STM32F4xx_StdPeriph_Driver/src/stm32f4xx_hash.c ****   /* Initialize the HASH_AlgoMode member */
 231:App/STM32F4-Discovery/Libraries/STM32F4xx_StdPeriph_Driver/src/stm32f4xx_hash.c ****   HASH_InitStruct->HASH_AlgoMode = HASH_AlgoMode_HASH;
 252              		.loc 1 231 0
 253 0010 7B68     		ldr	r3, [r7, #4]
 254 0012 4FF00002 		mov	r2, #0
 255 0016 5A60     		str	r2, [r3, #4]
 232:App/STM32F4-Discovery/Libraries/STM32F4xx_StdPeriph_Driver/src/stm32f4xx_hash.c **** 
 233:App/STM32F4-Discovery/Libraries/STM32F4xx_StdPeriph_Driver/src/stm32f4xx_hash.c ****   /* Initialize the HASH_DataType member */
 234:App/STM32F4-Discovery/Libraries/STM32F4xx_StdPeriph_Driver/src/stm32f4xx_hash.c ****   HASH_InitStruct->HASH_DataType = HASH_DataType_32b;
 256              		.loc 1 234 0
 257 0018 7B68     		ldr	r3, [r7, #4]
 258 001a 4FF00002 		mov	r2, #0
 259 001e 9A60     		str	r2, [r3, #8]
 235:App/STM32F4-Discovery/Libraries/STM32F4xx_StdPeriph_Driver/src/stm32f4xx_hash.c **** 
 236:App/STM32F4-Discovery/Libraries/STM32F4xx_StdPeriph_Driver/src/stm32f4xx_hash.c ****   /* Initialize the HASH_HMACKeyType member */
 237:App/STM32F4-Discovery/Libraries/STM32F4xx_StdPeriph_Driver/src/stm32f4xx_hash.c ****   HASH_InitStruct->HASH_HMACKeyType = HASH_HMACKeyType_ShortKey;
 260              		.loc 1 237 0
 261 0020 7B68     		ldr	r3, [r7, #4]
 262 0022 4FF00002 		mov	r2, #0
 263 0026 DA60     		str	r2, [r3, #12]
 238:App/STM32F4-Discovery/Libraries/STM32F4xx_StdPeriph_Driver/src/stm32f4xx_hash.c **** }
 264              		.loc 1 238 0
 265 0028 07F10C07 		add	r7, r7, #12
 266 002c BD46     		mov	sp, r7
 267 002e 80BC     		pop	{r7}
 268 0030 7047     		bx	lr
 269              		.cfi_endproc
 270              	.LFE112:
 272 0032 00BF     		.section	.text.HASH_Reset,"ax",%progbits
 273              		.align	2
 274              		.global	HASH_Reset
 275              		.thumb
 276              		.thumb_func
 278              	HASH_Reset:
 279              	.LFB113:
 239:App/STM32F4-Discovery/Libraries/STM32F4xx_StdPeriph_Driver/src/stm32f4xx_hash.c **** 
 240:App/STM32F4-Discovery/Libraries/STM32F4xx_StdPeriph_Driver/src/stm32f4xx_hash.c **** /**
 241:App/STM32F4-Discovery/Libraries/STM32F4xx_StdPeriph_Driver/src/stm32f4xx_hash.c ****   * @brief  Resets the HASH processor core, so that the HASH will be ready
 242:App/STM32F4-Discovery/Libraries/STM32F4xx_StdPeriph_Driver/src/stm32f4xx_hash.c ****   *         to compute the message digest of a new message.
 243:App/STM32F4-Discovery/Libraries/STM32F4xx_StdPeriph_Driver/src/stm32f4xx_hash.c ****   * @note   Calling this function will clear the HASH_SR_DCIS (Digest calculation 
 244:App/STM32F4-Discovery/Libraries/STM32F4xx_StdPeriph_Driver/src/stm32f4xx_hash.c ****   *         completion interrupt status) bit corresponding to HASH_IT_DCI 
 245:App/STM32F4-Discovery/Libraries/STM32F4xx_StdPeriph_Driver/src/stm32f4xx_hash.c ****   *         interrupt and HASH_FLAG_DCIS flag. 
 246:App/STM32F4-Discovery/Libraries/STM32F4xx_StdPeriph_Driver/src/stm32f4xx_hash.c ****   * @param  None
 247:App/STM32F4-Discovery/Libraries/STM32F4xx_StdPeriph_Driver/src/stm32f4xx_hash.c ****   * @retval None
 248:App/STM32F4-Discovery/Libraries/STM32F4xx_StdPeriph_Driver/src/stm32f4xx_hash.c ****   */
 249:App/STM32F4-Discovery/Libraries/STM32F4xx_StdPeriph_Driver/src/stm32f4xx_hash.c **** void HASH_Reset(void)
 250:App/STM32F4-Discovery/Libraries/STM32F4xx_StdPeriph_Driver/src/stm32f4xx_hash.c **** {
 280              		.loc 1 250 0
 281              		.cfi_startproc
 282              		@ args = 0, pretend = 0, frame = 0
 283              		@ frame_needed = 1, uses_anonymous_args = 0
 284              		@ link register save eliminated.
 285 0000 80B4     		push	{r7}
 286              	.LCFI8:
 287              		.cfi_def_cfa_offset 4
 288              		.cfi_offset 7, -4
 289 0002 00AF     		add	r7, sp, #0
 290              	.LCFI9:
 291              		.cfi_def_cfa_register 7
 251:App/STM32F4-Discovery/Libraries/STM32F4xx_StdPeriph_Driver/src/stm32f4xx_hash.c ****   /* Reset the HASH processor core */
 252:App/STM32F4-Discovery/Libraries/STM32F4xx_StdPeriph_Driver/src/stm32f4xx_hash.c ****   HASH->CR |= HASH_CR_INIT;
 292              		.loc 1 252 0
 293 0004 4FF48063 		mov	r3, #1024
 294 0008 C5F20603 		movt	r3, 20486
 295 000c 4FF48062 		mov	r2, #1024
 296 0010 C5F20602 		movt	r2, 20486
 297 0014 1268     		ldr	r2, [r2, #0]
 298 0016 42F00402 		orr	r2, r2, #4
 299 001a 1A60     		str	r2, [r3, #0]
 253:App/STM32F4-Discovery/Libraries/STM32F4xx_StdPeriph_Driver/src/stm32f4xx_hash.c **** }
 300              		.loc 1 253 0
 301 001c BD46     		mov	sp, r7
 302 001e 80BC     		pop	{r7}
 303 0020 7047     		bx	lr
 304              		.cfi_endproc
 305              	.LFE113:
 307 0022 00BF     		.section	.text.HASH_SetLastWordValidBitsNbr,"ax",%progbits
 308              		.align	2
 309              		.global	HASH_SetLastWordValidBitsNbr
 310              		.thumb
 311              		.thumb_func
 313              	HASH_SetLastWordValidBitsNbr:
 314              	.LFB114:
 254:App/STM32F4-Discovery/Libraries/STM32F4xx_StdPeriph_Driver/src/stm32f4xx_hash.c **** /**
 255:App/STM32F4-Discovery/Libraries/STM32F4xx_StdPeriph_Driver/src/stm32f4xx_hash.c ****   * @}
 256:App/STM32F4-Discovery/Libraries/STM32F4xx_StdPeriph_Driver/src/stm32f4xx_hash.c ****   */
 257:App/STM32F4-Discovery/Libraries/STM32F4xx_StdPeriph_Driver/src/stm32f4xx_hash.c ****  
 258:App/STM32F4-Discovery/Libraries/STM32F4xx_StdPeriph_Driver/src/stm32f4xx_hash.c **** /** @defgroup HASH_Group2 Message Digest generation functions
 259:App/STM32F4-Discovery/Libraries/STM32F4xx_StdPeriph_Driver/src/stm32f4xx_hash.c ****  *  @brief    Message Digest generation functions
 260:App/STM32F4-Discovery/Libraries/STM32F4xx_StdPeriph_Driver/src/stm32f4xx_hash.c ****  *
 261:App/STM32F4-Discovery/Libraries/STM32F4xx_StdPeriph_Driver/src/stm32f4xx_hash.c **** @verbatim    
 262:App/STM32F4-Discovery/Libraries/STM32F4xx_StdPeriph_Driver/src/stm32f4xx_hash.c ****  ===============================================================================
 263:App/STM32F4-Discovery/Libraries/STM32F4xx_StdPeriph_Driver/src/stm32f4xx_hash.c ****                       Message Digest generation functions
 264:App/STM32F4-Discovery/Libraries/STM32F4xx_StdPeriph_Driver/src/stm32f4xx_hash.c ****  ===============================================================================  
 265:App/STM32F4-Discovery/Libraries/STM32F4xx_StdPeriph_Driver/src/stm32f4xx_hash.c ****   This section provides functions allowing the generation of message digest: 
 266:App/STM32F4-Discovery/Libraries/STM32F4xx_StdPeriph_Driver/src/stm32f4xx_hash.c ****   - Push data in the IN FIFO : using HASH_DataIn()
 267:App/STM32F4-Discovery/Libraries/STM32F4xx_StdPeriph_Driver/src/stm32f4xx_hash.c ****   - Get the number of words set in IN FIFO, use HASH_GetInFIFOWordsNbr()  
 268:App/STM32F4-Discovery/Libraries/STM32F4xx_StdPeriph_Driver/src/stm32f4xx_hash.c ****   - set the last word valid bits number using HASH_SetLastWordValidBitsNbr() 
 269:App/STM32F4-Discovery/Libraries/STM32F4xx_StdPeriph_Driver/src/stm32f4xx_hash.c ****   - start digest calculation : using HASH_StartDigest()
 270:App/STM32F4-Discovery/Libraries/STM32F4xx_StdPeriph_Driver/src/stm32f4xx_hash.c ****   - Get the Digest message : using HASH_GetDigest()
 271:App/STM32F4-Discovery/Libraries/STM32F4xx_StdPeriph_Driver/src/stm32f4xx_hash.c ****  
 272:App/STM32F4-Discovery/Libraries/STM32F4xx_StdPeriph_Driver/src/stm32f4xx_hash.c **** @endverbatim
 273:App/STM32F4-Discovery/Libraries/STM32F4xx_StdPeriph_Driver/src/stm32f4xx_hash.c ****   * @{
 274:App/STM32F4-Discovery/Libraries/STM32F4xx_StdPeriph_Driver/src/stm32f4xx_hash.c ****   */
 275:App/STM32F4-Discovery/Libraries/STM32F4xx_StdPeriph_Driver/src/stm32f4xx_hash.c **** 
 276:App/STM32F4-Discovery/Libraries/STM32F4xx_StdPeriph_Driver/src/stm32f4xx_hash.c **** 
 277:App/STM32F4-Discovery/Libraries/STM32F4xx_StdPeriph_Driver/src/stm32f4xx_hash.c **** /**
 278:App/STM32F4-Discovery/Libraries/STM32F4xx_StdPeriph_Driver/src/stm32f4xx_hash.c ****   * @brief  Configure the Number of valid bits in last word of the message
 279:App/STM32F4-Discovery/Libraries/STM32F4xx_StdPeriph_Driver/src/stm32f4xx_hash.c ****   * @param  ValidNumber: Number of valid bits in last word of the message.
 280:App/STM32F4-Discovery/Libraries/STM32F4xx_StdPeriph_Driver/src/stm32f4xx_hash.c ****   *           This parameter must be a number between 0 and 0x1F.
 281:App/STM32F4-Discovery/Libraries/STM32F4xx_StdPeriph_Driver/src/stm32f4xx_hash.c ****   *             - 0x00: All 32 bits of the last data written are valid
 282:App/STM32F4-Discovery/Libraries/STM32F4xx_StdPeriph_Driver/src/stm32f4xx_hash.c ****   *             - 0x01: Only bit [0] of the last data written is valid
 283:App/STM32F4-Discovery/Libraries/STM32F4xx_StdPeriph_Driver/src/stm32f4xx_hash.c ****   *             - 0x02: Only bits[1:0] of the last data written are valid
 284:App/STM32F4-Discovery/Libraries/STM32F4xx_StdPeriph_Driver/src/stm32f4xx_hash.c ****   *             - 0x03: Only bits[2:0] of the last data written are valid
 285:App/STM32F4-Discovery/Libraries/STM32F4xx_StdPeriph_Driver/src/stm32f4xx_hash.c ****   *             - ...
 286:App/STM32F4-Discovery/Libraries/STM32F4xx_StdPeriph_Driver/src/stm32f4xx_hash.c ****   *             - 0x1F: Only bits[30:0] of the last data written are valid    
 287:App/STM32F4-Discovery/Libraries/STM32F4xx_StdPeriph_Driver/src/stm32f4xx_hash.c ****   * @note   The Number of valid bits must be set before to start the message 
 288:App/STM32F4-Discovery/Libraries/STM32F4xx_StdPeriph_Driver/src/stm32f4xx_hash.c ****   *         digest competition (in Hash and HMAC) and key treatment(in HMAC).    
 289:App/STM32F4-Discovery/Libraries/STM32F4xx_StdPeriph_Driver/src/stm32f4xx_hash.c ****   * @retval None
 290:App/STM32F4-Discovery/Libraries/STM32F4xx_StdPeriph_Driver/src/stm32f4xx_hash.c ****   */
 291:App/STM32F4-Discovery/Libraries/STM32F4xx_StdPeriph_Driver/src/stm32f4xx_hash.c **** void HASH_SetLastWordValidBitsNbr(uint16_t ValidNumber)
 292:App/STM32F4-Discovery/Libraries/STM32F4xx_StdPeriph_Driver/src/stm32f4xx_hash.c **** {
 315              		.loc 1 292 0
 316              		.cfi_startproc
 317              		@ args = 0, pretend = 0, frame = 8
 318              		@ frame_needed = 1, uses_anonymous_args = 0
 319 0000 80B5     		push	{r7, lr}
 320              	.LCFI10:
 321              		.cfi_def_cfa_offset 8
 322              		.cfi_offset 7, -8
 323              		.cfi_offset 14, -4
 324 0002 82B0     		sub	sp, sp, #8
 325              	.LCFI11:
 326              		.cfi_def_cfa_offset 16
 327 0004 00AF     		add	r7, sp, #0
 328              	.LCFI12:
 329              		.cfi_def_cfa_register 7
 330 0006 0346     		mov	r3, r0
 331 0008 FB80     		strh	r3, [r7, #6]	@ movhi
 293:App/STM32F4-Discovery/Libraries/STM32F4xx_StdPeriph_Driver/src/stm32f4xx_hash.c ****   /* Check the parameters */
 294:App/STM32F4-Discovery/Libraries/STM32F4xx_StdPeriph_Driver/src/stm32f4xx_hash.c ****   assert_param(IS_HASH_VALIDBITSNUMBER(ValidNumber));
 332              		.loc 1 294 0
 333 000a FB88     		ldrh	r3, [r7, #6]
 334 000c 1F2B     		cmp	r3, #31
 335 000e 07D9     		bls	.L11
 336              		.loc 1 294 0 is_stmt 0 discriminator 1
 337 0010 40F20000 		movw	r0, #:lower16:.LC0
 338 0014 C0F20000 		movt	r0, #:upper16:.LC0
 339 0018 4FF49371 		mov	r1, #294
 340 001c FFF7FEFF 		bl	assert_failed
 341              	.L11:
 295:App/STM32F4-Discovery/Libraries/STM32F4xx_StdPeriph_Driver/src/stm32f4xx_hash.c ****   
 296:App/STM32F4-Discovery/Libraries/STM32F4xx_StdPeriph_Driver/src/stm32f4xx_hash.c ****   /* Configure the Number of valid bits in last word of the message */
 297:App/STM32F4-Discovery/Libraries/STM32F4xx_StdPeriph_Driver/src/stm32f4xx_hash.c ****   HASH->STR &= ~(HASH_STR_NBW);
 342              		.loc 1 297 0 is_stmt 1
 343 0020 4FF48063 		mov	r3, #1024
 344 0024 C5F20603 		movt	r3, 20486
 345 0028 4FF48062 		mov	r2, #1024
 346 002c C5F20602 		movt	r2, 20486
 347 0030 9268     		ldr	r2, [r2, #8]
 348 0032 22F01F02 		bic	r2, r2, #31
 349 0036 9A60     		str	r2, [r3, #8]
 298:App/STM32F4-Discovery/Libraries/STM32F4xx_StdPeriph_Driver/src/stm32f4xx_hash.c ****   HASH->STR |= ValidNumber;
 350              		.loc 1 298 0
 351 0038 4FF48063 		mov	r3, #1024
 352 003c C5F20603 		movt	r3, 20486
 353 0040 4FF48062 		mov	r2, #1024
 354 0044 C5F20602 		movt	r2, 20486
 355 0048 9168     		ldr	r1, [r2, #8]
 356 004a FA88     		ldrh	r2, [r7, #6]
 357 004c 0A43     		orrs	r2, r2, r1
 358 004e 9A60     		str	r2, [r3, #8]
 299:App/STM32F4-Discovery/Libraries/STM32F4xx_StdPeriph_Driver/src/stm32f4xx_hash.c **** }
 359              		.loc 1 299 0
 360 0050 07F10807 		add	r7, r7, #8
 361 0054 BD46     		mov	sp, r7
 362 0056 80BD     		pop	{r7, pc}
 363              		.cfi_endproc
 364              	.LFE114:
 366              		.section	.text.HASH_DataIn,"ax",%progbits
 367              		.align	2
 368              		.global	HASH_DataIn
 369              		.thumb
 370              		.thumb_func
 372              	HASH_DataIn:
 373              	.LFB115:
 300:App/STM32F4-Discovery/Libraries/STM32F4xx_StdPeriph_Driver/src/stm32f4xx_hash.c **** 
 301:App/STM32F4-Discovery/Libraries/STM32F4xx_StdPeriph_Driver/src/stm32f4xx_hash.c **** /**
 302:App/STM32F4-Discovery/Libraries/STM32F4xx_StdPeriph_Driver/src/stm32f4xx_hash.c ****   * @brief  Writes data in the Data Input FIFO
 303:App/STM32F4-Discovery/Libraries/STM32F4xx_StdPeriph_Driver/src/stm32f4xx_hash.c ****   * @param  Data: new data of the message to be processed.
 304:App/STM32F4-Discovery/Libraries/STM32F4xx_StdPeriph_Driver/src/stm32f4xx_hash.c ****   * @retval None
 305:App/STM32F4-Discovery/Libraries/STM32F4xx_StdPeriph_Driver/src/stm32f4xx_hash.c ****   */
 306:App/STM32F4-Discovery/Libraries/STM32F4xx_StdPeriph_Driver/src/stm32f4xx_hash.c **** void HASH_DataIn(uint32_t Data)
 307:App/STM32F4-Discovery/Libraries/STM32F4xx_StdPeriph_Driver/src/stm32f4xx_hash.c **** {
 374              		.loc 1 307 0
 375              		.cfi_startproc
 376              		@ args = 0, pretend = 0, frame = 8
 377              		@ frame_needed = 1, uses_anonymous_args = 0
 378              		@ link register save eliminated.
 379 0000 80B4     		push	{r7}
 380              	.LCFI13:
 381              		.cfi_def_cfa_offset 4
 382              		.cfi_offset 7, -4
 383 0002 83B0     		sub	sp, sp, #12
 384              	.LCFI14:
 385              		.cfi_def_cfa_offset 16
 386 0004 00AF     		add	r7, sp, #0
 387              	.LCFI15:
 388              		.cfi_def_cfa_register 7
 389 0006 7860     		str	r0, [r7, #4]
 308:App/STM32F4-Discovery/Libraries/STM32F4xx_StdPeriph_Driver/src/stm32f4xx_hash.c ****   /* Write in the DIN register a new data */
 309:App/STM32F4-Discovery/Libraries/STM32F4xx_StdPeriph_Driver/src/stm32f4xx_hash.c ****   HASH->DIN = Data;
 390              		.loc 1 309 0
 391 0008 4FF48063 		mov	r3, #1024
 392 000c C5F20603 		movt	r3, 20486
 393 0010 7A68     		ldr	r2, [r7, #4]
 394 0012 5A60     		str	r2, [r3, #4]
 310:App/STM32F4-Discovery/Libraries/STM32F4xx_StdPeriph_Driver/src/stm32f4xx_hash.c **** }
 395              		.loc 1 310 0
 396 0014 07F10C07 		add	r7, r7, #12
 397 0018 BD46     		mov	sp, r7
 398 001a 80BC     		pop	{r7}
 399 001c 7047     		bx	lr
 400              		.cfi_endproc
 401              	.LFE115:
 403 001e 00BF     		.section	.text.HASH_GetInFIFOWordsNbr,"ax",%progbits
 404              		.align	2
 405              		.global	HASH_GetInFIFOWordsNbr
 406              		.thumb
 407              		.thumb_func
 409              	HASH_GetInFIFOWordsNbr:
 410              	.LFB116:
 311:App/STM32F4-Discovery/Libraries/STM32F4xx_StdPeriph_Driver/src/stm32f4xx_hash.c **** 
 312:App/STM32F4-Discovery/Libraries/STM32F4xx_StdPeriph_Driver/src/stm32f4xx_hash.c **** /**
 313:App/STM32F4-Discovery/Libraries/STM32F4xx_StdPeriph_Driver/src/stm32f4xx_hash.c ****   * @brief  Returns the number of words already pushed into the IN FIFO.
 314:App/STM32F4-Discovery/Libraries/STM32F4xx_StdPeriph_Driver/src/stm32f4xx_hash.c ****   * @param  None
 315:App/STM32F4-Discovery/Libraries/STM32F4xx_StdPeriph_Driver/src/stm32f4xx_hash.c ****   * @retval The value of words already pushed into the IN FIFO.
 316:App/STM32F4-Discovery/Libraries/STM32F4xx_StdPeriph_Driver/src/stm32f4xx_hash.c ****   */
 317:App/STM32F4-Discovery/Libraries/STM32F4xx_StdPeriph_Driver/src/stm32f4xx_hash.c **** uint8_t HASH_GetInFIFOWordsNbr(void)
 318:App/STM32F4-Discovery/Libraries/STM32F4xx_StdPeriph_Driver/src/stm32f4xx_hash.c **** {
 411              		.loc 1 318 0
 412              		.cfi_startproc
 413              		@ args = 0, pretend = 0, frame = 0
 414              		@ frame_needed = 1, uses_anonymous_args = 0
 415              		@ link register save eliminated.
 416 0000 80B4     		push	{r7}
 417              	.LCFI16:
 418              		.cfi_def_cfa_offset 4
 419              		.cfi_offset 7, -4
 420 0002 00AF     		add	r7, sp, #0
 421              	.LCFI17:
 422              		.cfi_def_cfa_register 7
 319:App/STM32F4-Discovery/Libraries/STM32F4xx_StdPeriph_Driver/src/stm32f4xx_hash.c ****   /* Return the value of NBW bits */
 320:App/STM32F4-Discovery/Libraries/STM32F4xx_StdPeriph_Driver/src/stm32f4xx_hash.c ****   return ((HASH->CR & HASH_CR_NBW) >> 8);
 423              		.loc 1 320 0
 424 0004 4FF48063 		mov	r3, #1024
 425 0008 C5F20603 		movt	r3, 20486
 426 000c 1B68     		ldr	r3, [r3, #0]
 427 000e 03F47063 		and	r3, r3, #3840
 428 0012 4FEA1323 		lsr	r3, r3, #8
 429 0016 DBB2     		uxtb	r3, r3
 321:App/STM32F4-Discovery/Libraries/STM32F4xx_StdPeriph_Driver/src/stm32f4xx_hash.c **** }
 430              		.loc 1 321 0
 431 0018 1846     		mov	r0, r3
 432 001a BD46     		mov	sp, r7
 433 001c 80BC     		pop	{r7}
 434 001e 7047     		bx	lr
 435              		.cfi_endproc
 436              	.LFE116:
 438              		.section	.text.HASH_GetDigest,"ax",%progbits
 439              		.align	2
 440              		.global	HASH_GetDigest
 441              		.thumb
 442              		.thumb_func
 444              	HASH_GetDigest:
 445              	.LFB117:
 322:App/STM32F4-Discovery/Libraries/STM32F4xx_StdPeriph_Driver/src/stm32f4xx_hash.c **** 
 323:App/STM32F4-Discovery/Libraries/STM32F4xx_StdPeriph_Driver/src/stm32f4xx_hash.c **** /**
 324:App/STM32F4-Discovery/Libraries/STM32F4xx_StdPeriph_Driver/src/stm32f4xx_hash.c ****   * @brief  Provides the message digest result.
 325:App/STM32F4-Discovery/Libraries/STM32F4xx_StdPeriph_Driver/src/stm32f4xx_hash.c ****   * @note   In MD5 mode, Data[4] filed of HASH_MsgDigest structure is not used
 326:App/STM32F4-Discovery/Libraries/STM32F4xx_StdPeriph_Driver/src/stm32f4xx_hash.c ****   *         and is read as zero.  
 327:App/STM32F4-Discovery/Libraries/STM32F4xx_StdPeriph_Driver/src/stm32f4xx_hash.c ****   * @param  HASH_MessageDigest: pointer to a HASH_MsgDigest structure which will 
 328:App/STM32F4-Discovery/Libraries/STM32F4xx_StdPeriph_Driver/src/stm32f4xx_hash.c ****   *         hold the message digest result 
 329:App/STM32F4-Discovery/Libraries/STM32F4xx_StdPeriph_Driver/src/stm32f4xx_hash.c ****   * @retval None
 330:App/STM32F4-Discovery/Libraries/STM32F4xx_StdPeriph_Driver/src/stm32f4xx_hash.c ****   */
 331:App/STM32F4-Discovery/Libraries/STM32F4xx_StdPeriph_Driver/src/stm32f4xx_hash.c **** void HASH_GetDigest(HASH_MsgDigest* HASH_MessageDigest)
 332:App/STM32F4-Discovery/Libraries/STM32F4xx_StdPeriph_Driver/src/stm32f4xx_hash.c **** {
 446              		.loc 1 332 0
 447              		.cfi_startproc
 448              		@ args = 0, pretend = 0, frame = 8
 449              		@ frame_needed = 1, uses_anonymous_args = 0
 450              		@ link register save eliminated.
 451 0000 80B4     		push	{r7}
 452              	.LCFI18:
 453              		.cfi_def_cfa_offset 4
 454              		.cfi_offset 7, -4
 455 0002 83B0     		sub	sp, sp, #12
 456              	.LCFI19:
 457              		.cfi_def_cfa_offset 16
 458 0004 00AF     		add	r7, sp, #0
 459              	.LCFI20:
 460              		.cfi_def_cfa_register 7
 461 0006 7860     		str	r0, [r7, #4]
 333:App/STM32F4-Discovery/Libraries/STM32F4xx_StdPeriph_Driver/src/stm32f4xx_hash.c ****   /* Get the data field */
 334:App/STM32F4-Discovery/Libraries/STM32F4xx_StdPeriph_Driver/src/stm32f4xx_hash.c ****   HASH_MessageDigest->Data[0] = HASH->HR[0];
 462              		.loc 1 334 0
 463 0008 4FF48063 		mov	r3, #1024
 464 000c C5F20603 		movt	r3, 20486
 465 0010 DA68     		ldr	r2, [r3, #12]
 466 0012 7B68     		ldr	r3, [r7, #4]
 467 0014 1A60     		str	r2, [r3, #0]
 335:App/STM32F4-Discovery/Libraries/STM32F4xx_StdPeriph_Driver/src/stm32f4xx_hash.c ****   HASH_MessageDigest->Data[1] = HASH->HR[1];
 468              		.loc 1 335 0
 469 0016 4FF48063 		mov	r3, #1024
 470 001a C5F20603 		movt	r3, 20486
 471 001e 1A69     		ldr	r2, [r3, #16]
 472 0020 7B68     		ldr	r3, [r7, #4]
 473 0022 5A60     		str	r2, [r3, #4]
 336:App/STM32F4-Discovery/Libraries/STM32F4xx_StdPeriph_Driver/src/stm32f4xx_hash.c ****   HASH_MessageDigest->Data[2] = HASH->HR[2];
 474              		.loc 1 336 0
 475 0024 4FF48063 		mov	r3, #1024
 476 0028 C5F20603 		movt	r3, 20486
 477 002c 5A69     		ldr	r2, [r3, #20]
 478 002e 7B68     		ldr	r3, [r7, #4]
 479 0030 9A60     		str	r2, [r3, #8]
 337:App/STM32F4-Discovery/Libraries/STM32F4xx_StdPeriph_Driver/src/stm32f4xx_hash.c ****   HASH_MessageDigest->Data[3] = HASH->HR[3];
 480              		.loc 1 337 0
 481 0032 4FF48063 		mov	r3, #1024
 482 0036 C5F20603 		movt	r3, 20486
 483 003a 9A69     		ldr	r2, [r3, #24]
 484 003c 7B68     		ldr	r3, [r7, #4]
 485 003e DA60     		str	r2, [r3, #12]
 338:App/STM32F4-Discovery/Libraries/STM32F4xx_StdPeriph_Driver/src/stm32f4xx_hash.c ****   HASH_MessageDigest->Data[4] = HASH->HR[4];
 486              		.loc 1 338 0
 487 0040 4FF48063 		mov	r3, #1024
 488 0044 C5F20603 		movt	r3, 20486
 489 0048 DA69     		ldr	r2, [r3, #28]
 490 004a 7B68     		ldr	r3, [r7, #4]
 491 004c 1A61     		str	r2, [r3, #16]
 339:App/STM32F4-Discovery/Libraries/STM32F4xx_StdPeriph_Driver/src/stm32f4xx_hash.c **** }
 492              		.loc 1 339 0
 493 004e 07F10C07 		add	r7, r7, #12
 494 0052 BD46     		mov	sp, r7
 495 0054 80BC     		pop	{r7}
 496 0056 7047     		bx	lr
 497              		.cfi_endproc
 498              	.LFE117:
 500              		.section	.text.HASH_StartDigest,"ax",%progbits
 501              		.align	2
 502              		.global	HASH_StartDigest
 503              		.thumb
 504              		.thumb_func
 506              	HASH_StartDigest:
 507              	.LFB118:
 340:App/STM32F4-Discovery/Libraries/STM32F4xx_StdPeriph_Driver/src/stm32f4xx_hash.c **** 
 341:App/STM32F4-Discovery/Libraries/STM32F4xx_StdPeriph_Driver/src/stm32f4xx_hash.c **** /**
 342:App/STM32F4-Discovery/Libraries/STM32F4xx_StdPeriph_Driver/src/stm32f4xx_hash.c ****   * @brief  Starts the message padding and calculation of the final message     
 343:App/STM32F4-Discovery/Libraries/STM32F4xx_StdPeriph_Driver/src/stm32f4xx_hash.c ****   * @param  None
 344:App/STM32F4-Discovery/Libraries/STM32F4xx_StdPeriph_Driver/src/stm32f4xx_hash.c ****   * @retval None
 345:App/STM32F4-Discovery/Libraries/STM32F4xx_StdPeriph_Driver/src/stm32f4xx_hash.c ****   */
 346:App/STM32F4-Discovery/Libraries/STM32F4xx_StdPeriph_Driver/src/stm32f4xx_hash.c **** void HASH_StartDigest(void)
 347:App/STM32F4-Discovery/Libraries/STM32F4xx_StdPeriph_Driver/src/stm32f4xx_hash.c **** {
 508              		.loc 1 347 0
 509              		.cfi_startproc
 510              		@ args = 0, pretend = 0, frame = 0
 511              		@ frame_needed = 1, uses_anonymous_args = 0
 512              		@ link register save eliminated.
 513 0000 80B4     		push	{r7}
 514              	.LCFI21:
 515              		.cfi_def_cfa_offset 4
 516              		.cfi_offset 7, -4
 517 0002 00AF     		add	r7, sp, #0
 518              	.LCFI22:
 519              		.cfi_def_cfa_register 7
 348:App/STM32F4-Discovery/Libraries/STM32F4xx_StdPeriph_Driver/src/stm32f4xx_hash.c ****   /* Start the Digest calculation */
 349:App/STM32F4-Discovery/Libraries/STM32F4xx_StdPeriph_Driver/src/stm32f4xx_hash.c ****   HASH->STR |= HASH_STR_DCAL;
 520              		.loc 1 349 0
 521 0004 4FF48063 		mov	r3, #1024
 522 0008 C5F20603 		movt	r3, 20486
 523 000c 4FF48062 		mov	r2, #1024
 524 0010 C5F20602 		movt	r2, 20486
 525 0014 9268     		ldr	r2, [r2, #8]
 526 0016 42F48072 		orr	r2, r2, #256
 527 001a 9A60     		str	r2, [r3, #8]
 350:App/STM32F4-Discovery/Libraries/STM32F4xx_StdPeriph_Driver/src/stm32f4xx_hash.c **** }
 528              		.loc 1 350 0
 529 001c BD46     		mov	sp, r7
 530 001e 80BC     		pop	{r7}
 531 0020 7047     		bx	lr
 532              		.cfi_endproc
 533              	.LFE118:
 535 0022 00BF     		.section	.text.HASH_SaveContext,"ax",%progbits
 536              		.align	2
 537              		.global	HASH_SaveContext
 538              		.thumb
 539              		.thumb_func
 541              	HASH_SaveContext:
 542              	.LFB119:
 351:App/STM32F4-Discovery/Libraries/STM32F4xx_StdPeriph_Driver/src/stm32f4xx_hash.c **** /**
 352:App/STM32F4-Discovery/Libraries/STM32F4xx_StdPeriph_Driver/src/stm32f4xx_hash.c ****   * @}
 353:App/STM32F4-Discovery/Libraries/STM32F4xx_StdPeriph_Driver/src/stm32f4xx_hash.c ****   */
 354:App/STM32F4-Discovery/Libraries/STM32F4xx_StdPeriph_Driver/src/stm32f4xx_hash.c **** 
 355:App/STM32F4-Discovery/Libraries/STM32F4xx_StdPeriph_Driver/src/stm32f4xx_hash.c **** /** @defgroup HASH_Group3 Context swapping functions
 356:App/STM32F4-Discovery/Libraries/STM32F4xx_StdPeriph_Driver/src/stm32f4xx_hash.c ****  *  @brief   Context swapping functions
 357:App/STM32F4-Discovery/Libraries/STM32F4xx_StdPeriph_Driver/src/stm32f4xx_hash.c ****  *
 358:App/STM32F4-Discovery/Libraries/STM32F4xx_StdPeriph_Driver/src/stm32f4xx_hash.c **** @verbatim   
 359:App/STM32F4-Discovery/Libraries/STM32F4xx_StdPeriph_Driver/src/stm32f4xx_hash.c ****  ===============================================================================
 360:App/STM32F4-Discovery/Libraries/STM32F4xx_StdPeriph_Driver/src/stm32f4xx_hash.c ****                              Context swapping functions
 361:App/STM32F4-Discovery/Libraries/STM32F4xx_StdPeriph_Driver/src/stm32f4xx_hash.c ****  ===============================================================================  
 362:App/STM32F4-Discovery/Libraries/STM32F4xx_StdPeriph_Driver/src/stm32f4xx_hash.c **** 
 363:App/STM32F4-Discovery/Libraries/STM32F4xx_StdPeriph_Driver/src/stm32f4xx_hash.c ****   This section provides functions allowing to save and store HASH Context
 364:App/STM32F4-Discovery/Libraries/STM32F4xx_StdPeriph_Driver/src/stm32f4xx_hash.c ****   
 365:App/STM32F4-Discovery/Libraries/STM32F4xx_StdPeriph_Driver/src/stm32f4xx_hash.c ****   It is possible to interrupt a HASH/HMAC process to perform another processing 
 366:App/STM32F4-Discovery/Libraries/STM32F4xx_StdPeriph_Driver/src/stm32f4xx_hash.c ****   with a higher priority, and to complete the interrupted process later on, when 
 367:App/STM32F4-Discovery/Libraries/STM32F4xx_StdPeriph_Driver/src/stm32f4xx_hash.c ****   the higher priority task is complete. To do so, the context of the interrupted 
 368:App/STM32F4-Discovery/Libraries/STM32F4xx_StdPeriph_Driver/src/stm32f4xx_hash.c ****   task must be saved from the HASH registers to memory, and then be restored 
 369:App/STM32F4-Discovery/Libraries/STM32F4xx_StdPeriph_Driver/src/stm32f4xx_hash.c ****   from memory to the HASH registers.
 370:App/STM32F4-Discovery/Libraries/STM32F4xx_StdPeriph_Driver/src/stm32f4xx_hash.c ****   
 371:App/STM32F4-Discovery/Libraries/STM32F4xx_StdPeriph_Driver/src/stm32f4xx_hash.c ****   1. To save the current context, use HASH_SaveContext() function
 372:App/STM32F4-Discovery/Libraries/STM32F4xx_StdPeriph_Driver/src/stm32f4xx_hash.c ****   2. To restore the saved context, use HASH_RestoreContext() function 
 373:App/STM32F4-Discovery/Libraries/STM32F4xx_StdPeriph_Driver/src/stm32f4xx_hash.c ****   
 374:App/STM32F4-Discovery/Libraries/STM32F4xx_StdPeriph_Driver/src/stm32f4xx_hash.c **** 
 375:App/STM32F4-Discovery/Libraries/STM32F4xx_StdPeriph_Driver/src/stm32f4xx_hash.c **** @endverbatim
 376:App/STM32F4-Discovery/Libraries/STM32F4xx_StdPeriph_Driver/src/stm32f4xx_hash.c ****   * @{
 377:App/STM32F4-Discovery/Libraries/STM32F4xx_StdPeriph_Driver/src/stm32f4xx_hash.c ****   */
 378:App/STM32F4-Discovery/Libraries/STM32F4xx_StdPeriph_Driver/src/stm32f4xx_hash.c ****   
 379:App/STM32F4-Discovery/Libraries/STM32F4xx_StdPeriph_Driver/src/stm32f4xx_hash.c **** /**
 380:App/STM32F4-Discovery/Libraries/STM32F4xx_StdPeriph_Driver/src/stm32f4xx_hash.c ****   * @brief  Save the Hash peripheral Context. 
 381:App/STM32F4-Discovery/Libraries/STM32F4xx_StdPeriph_Driver/src/stm32f4xx_hash.c ****   * @note   The context can be saved only when no block is currently being 
 382:App/STM32F4-Discovery/Libraries/STM32F4xx_StdPeriph_Driver/src/stm32f4xx_hash.c ****   *         processed. So user must wait for DINIS = 1 (the last block has been 
 383:App/STM32F4-Discovery/Libraries/STM32F4xx_StdPeriph_Driver/src/stm32f4xx_hash.c ****   *         processed and the input FIFO is empty) or NBW != 0 (the FIFO is not 
 384:App/STM32F4-Discovery/Libraries/STM32F4xx_StdPeriph_Driver/src/stm32f4xx_hash.c ****   *         full and no processing is ongoing).   
 385:App/STM32F4-Discovery/Libraries/STM32F4xx_StdPeriph_Driver/src/stm32f4xx_hash.c ****   * @param  HASH_ContextSave: pointer to a HASH_Context structure that contains
 386:App/STM32F4-Discovery/Libraries/STM32F4xx_StdPeriph_Driver/src/stm32f4xx_hash.c ****   *         the repository for current context.
 387:App/STM32F4-Discovery/Libraries/STM32F4xx_StdPeriph_Driver/src/stm32f4xx_hash.c ****   * @retval None
 388:App/STM32F4-Discovery/Libraries/STM32F4xx_StdPeriph_Driver/src/stm32f4xx_hash.c ****   */
 389:App/STM32F4-Discovery/Libraries/STM32F4xx_StdPeriph_Driver/src/stm32f4xx_hash.c **** void HASH_SaveContext(HASH_Context* HASH_ContextSave)
 390:App/STM32F4-Discovery/Libraries/STM32F4xx_StdPeriph_Driver/src/stm32f4xx_hash.c **** {
 543              		.loc 1 390 0
 544              		.cfi_startproc
 545              		@ args = 0, pretend = 0, frame = 16
 546              		@ frame_needed = 1, uses_anonymous_args = 0
 547              		@ link register save eliminated.
 548 0000 80B4     		push	{r7}
 549              	.LCFI23:
 550              		.cfi_def_cfa_offset 4
 551              		.cfi_offset 7, -4
 552 0002 85B0     		sub	sp, sp, #20
 553              	.LCFI24:
 554              		.cfi_def_cfa_offset 24
 555 0004 00AF     		add	r7, sp, #0
 556              	.LCFI25:
 557              		.cfi_def_cfa_register 7
 558 0006 7860     		str	r0, [r7, #4]
 391:App/STM32F4-Discovery/Libraries/STM32F4xx_StdPeriph_Driver/src/stm32f4xx_hash.c ****   uint8_t i = 0;
 559              		.loc 1 391 0
 560 0008 4FF00003 		mov	r3, #0
 561 000c FB73     		strb	r3, [r7, #15]
 392:App/STM32F4-Discovery/Libraries/STM32F4xx_StdPeriph_Driver/src/stm32f4xx_hash.c ****   
 393:App/STM32F4-Discovery/Libraries/STM32F4xx_StdPeriph_Driver/src/stm32f4xx_hash.c ****   /* save context registers */
 394:App/STM32F4-Discovery/Libraries/STM32F4xx_StdPeriph_Driver/src/stm32f4xx_hash.c ****   HASH_ContextSave->HASH_IMR = HASH->IMR;  
 562              		.loc 1 394 0
 563 000e 4FF48063 		mov	r3, #1024
 564 0012 C5F20603 		movt	r3, 20486
 565 0016 1A6A     		ldr	r2, [r3, #32]
 566 0018 7B68     		ldr	r3, [r7, #4]
 567 001a 1A60     		str	r2, [r3, #0]
 395:App/STM32F4-Discovery/Libraries/STM32F4xx_StdPeriph_Driver/src/stm32f4xx_hash.c ****   HASH_ContextSave->HASH_STR = HASH->STR;      
 568              		.loc 1 395 0
 569 001c 4FF48063 		mov	r3, #1024
 570 0020 C5F20603 		movt	r3, 20486
 571 0024 9A68     		ldr	r2, [r3, #8]
 572 0026 7B68     		ldr	r3, [r7, #4]
 573 0028 5A60     		str	r2, [r3, #4]
 396:App/STM32F4-Discovery/Libraries/STM32F4xx_StdPeriph_Driver/src/stm32f4xx_hash.c ****   HASH_ContextSave->HASH_CR  = HASH->CR;     
 574              		.loc 1 396 0
 575 002a 4FF48063 		mov	r3, #1024
 576 002e C5F20603 		movt	r3, 20486
 577 0032 1A68     		ldr	r2, [r3, #0]
 578 0034 7B68     		ldr	r3, [r7, #4]
 579 0036 9A60     		str	r2, [r3, #8]
 397:App/STM32F4-Discovery/Libraries/STM32F4xx_StdPeriph_Driver/src/stm32f4xx_hash.c ****   for(i=0; i<=50;i++)
 580              		.loc 1 397 0
 581 0038 4FF00003 		mov	r3, #0
 582 003c FB73     		strb	r3, [r7, #15]
 583 003e 14E0     		b	.L18
 584              	.L19:
 398:App/STM32F4-Discovery/Libraries/STM32F4xx_StdPeriph_Driver/src/stm32f4xx_hash.c ****   {
 399:App/STM32F4-Discovery/Libraries/STM32F4xx_StdPeriph_Driver/src/stm32f4xx_hash.c ****      HASH_ContextSave->HASH_CSR[i] = HASH->CSR[i];
 585              		.loc 1 399 0 discriminator 2
 586 0040 F87B     		ldrb	r0, [r7, #15]	@ zero_extendqisi2
 587 0042 4FF48063 		mov	r3, #1024
 588 0046 C5F20603 		movt	r3, 20486
 589 004a FA7B     		ldrb	r2, [r7, #15]	@ zero_extendqisi2
 590 004c 02F13E02 		add	r2, r2, #62
 591 0050 53F82220 		ldr	r2, [r3, r2, lsl #2]
 592 0054 7968     		ldr	r1, [r7, #4]
 593 0056 00F10203 		add	r3, r0, #2
 594 005a 4FEA8303 		lsl	r3, r3, #2
 595 005e CB18     		adds	r3, r1, r3
 596 0060 5A60     		str	r2, [r3, #4]
 397:App/STM32F4-Discovery/Libraries/STM32F4xx_StdPeriph_Driver/src/stm32f4xx_hash.c ****   for(i=0; i<=50;i++)
 597              		.loc 1 397 0 discriminator 2
 598 0062 FB7B     		ldrb	r3, [r7, #15]
 599 0064 03F10103 		add	r3, r3, #1
 600 0068 FB73     		strb	r3, [r7, #15]
 601              	.L18:
 397:App/STM32F4-Discovery/Libraries/STM32F4xx_StdPeriph_Driver/src/stm32f4xx_hash.c ****   for(i=0; i<=50;i++)
 602              		.loc 1 397 0 is_stmt 0 discriminator 1
 603 006a FB7B     		ldrb	r3, [r7, #15]	@ zero_extendqisi2
 604 006c 322B     		cmp	r3, #50
 605 006e E7D9     		bls	.L19
 400:App/STM32F4-Discovery/Libraries/STM32F4xx_StdPeriph_Driver/src/stm32f4xx_hash.c ****   }   
 401:App/STM32F4-Discovery/Libraries/STM32F4xx_StdPeriph_Driver/src/stm32f4xx_hash.c **** }
 606              		.loc 1 401 0 is_stmt 1
 607 0070 07F11407 		add	r7, r7, #20
 608 0074 BD46     		mov	sp, r7
 609 0076 80BC     		pop	{r7}
 610 0078 7047     		bx	lr
 611              		.cfi_endproc
 612              	.LFE119:
 614 007a 00BF     		.section	.text.HASH_RestoreContext,"ax",%progbits
 615              		.align	2
 616              		.global	HASH_RestoreContext
 617              		.thumb
 618              		.thumb_func
 620              	HASH_RestoreContext:
 621              	.LFB120:
 402:App/STM32F4-Discovery/Libraries/STM32F4xx_StdPeriph_Driver/src/stm32f4xx_hash.c **** 
 403:App/STM32F4-Discovery/Libraries/STM32F4xx_StdPeriph_Driver/src/stm32f4xx_hash.c **** /**
 404:App/STM32F4-Discovery/Libraries/STM32F4xx_StdPeriph_Driver/src/stm32f4xx_hash.c ****   * @brief  Restore the Hash peripheral Context.  
 405:App/STM32F4-Discovery/Libraries/STM32F4xx_StdPeriph_Driver/src/stm32f4xx_hash.c ****   * @note   After calling this function, user can restart the processing from the
 406:App/STM32F4-Discovery/Libraries/STM32F4xx_StdPeriph_Driver/src/stm32f4xx_hash.c ****   *         point where it has been interrupted.  
 407:App/STM32F4-Discovery/Libraries/STM32F4xx_StdPeriph_Driver/src/stm32f4xx_hash.c ****   * @param  HASH_ContextRestore: pointer to a HASH_Context structure that contains
 408:App/STM32F4-Discovery/Libraries/STM32F4xx_StdPeriph_Driver/src/stm32f4xx_hash.c ****   *         the repository for saved context.
 409:App/STM32F4-Discovery/Libraries/STM32F4xx_StdPeriph_Driver/src/stm32f4xx_hash.c ****   * @retval None
 410:App/STM32F4-Discovery/Libraries/STM32F4xx_StdPeriph_Driver/src/stm32f4xx_hash.c ****   */
 411:App/STM32F4-Discovery/Libraries/STM32F4xx_StdPeriph_Driver/src/stm32f4xx_hash.c **** void HASH_RestoreContext(HASH_Context* HASH_ContextRestore)  
 412:App/STM32F4-Discovery/Libraries/STM32F4xx_StdPeriph_Driver/src/stm32f4xx_hash.c **** {
 622              		.loc 1 412 0
 623              		.cfi_startproc
 624              		@ args = 0, pretend = 0, frame = 16
 625              		@ frame_needed = 1, uses_anonymous_args = 0
 626              		@ link register save eliminated.
 627 0000 80B4     		push	{r7}
 628              	.LCFI26:
 629              		.cfi_def_cfa_offset 4
 630              		.cfi_offset 7, -4
 631 0002 85B0     		sub	sp, sp, #20
 632              	.LCFI27:
 633              		.cfi_def_cfa_offset 24
 634 0004 00AF     		add	r7, sp, #0
 635              	.LCFI28:
 636              		.cfi_def_cfa_register 7
 637 0006 7860     		str	r0, [r7, #4]
 413:App/STM32F4-Discovery/Libraries/STM32F4xx_StdPeriph_Driver/src/stm32f4xx_hash.c ****   uint8_t i = 0;
 638              		.loc 1 413 0
 639 0008 4FF00003 		mov	r3, #0
 640 000c FB73     		strb	r3, [r7, #15]
 414:App/STM32F4-Discovery/Libraries/STM32F4xx_StdPeriph_Driver/src/stm32f4xx_hash.c ****   
 415:App/STM32F4-Discovery/Libraries/STM32F4xx_StdPeriph_Driver/src/stm32f4xx_hash.c ****   /* restore context registers */
 416:App/STM32F4-Discovery/Libraries/STM32F4xx_StdPeriph_Driver/src/stm32f4xx_hash.c ****   HASH->IMR = HASH_ContextRestore->HASH_IMR;   
 641              		.loc 1 416 0
 642 000e 4FF48063 		mov	r3, #1024
 643 0012 C5F20603 		movt	r3, 20486
 644 0016 7A68     		ldr	r2, [r7, #4]
 645 0018 1268     		ldr	r2, [r2, #0]
 646 001a 1A62     		str	r2, [r3, #32]
 417:App/STM32F4-Discovery/Libraries/STM32F4xx_StdPeriph_Driver/src/stm32f4xx_hash.c ****   HASH->STR = HASH_ContextRestore->HASH_STR;     
 647              		.loc 1 417 0
 648 001c 4FF48063 		mov	r3, #1024
 649 0020 C5F20603 		movt	r3, 20486
 650 0024 7A68     		ldr	r2, [r7, #4]
 651 0026 5268     		ldr	r2, [r2, #4]
 652 0028 9A60     		str	r2, [r3, #8]
 418:App/STM32F4-Discovery/Libraries/STM32F4xx_StdPeriph_Driver/src/stm32f4xx_hash.c ****   HASH->CR = HASH_ContextRestore->HASH_CR;
 653              		.loc 1 418 0
 654 002a 4FF48063 		mov	r3, #1024
 655 002e C5F20603 		movt	r3, 20486
 656 0032 7A68     		ldr	r2, [r7, #4]
 657 0034 9268     		ldr	r2, [r2, #8]
 658 0036 1A60     		str	r2, [r3, #0]
 419:App/STM32F4-Discovery/Libraries/STM32F4xx_StdPeriph_Driver/src/stm32f4xx_hash.c ****   
 420:App/STM32F4-Discovery/Libraries/STM32F4xx_StdPeriph_Driver/src/stm32f4xx_hash.c ****   /* Initialize the hash processor */
 421:App/STM32F4-Discovery/Libraries/STM32F4xx_StdPeriph_Driver/src/stm32f4xx_hash.c ****   HASH->CR |= HASH_CR_INIT; 
 659              		.loc 1 421 0
 660 0038 4FF48063 		mov	r3, #1024
 661 003c C5F20603 		movt	r3, 20486
 662 0040 4FF48062 		mov	r2, #1024
 663 0044 C5F20602 		movt	r2, 20486
 664 0048 1268     		ldr	r2, [r2, #0]
 665 004a 42F00402 		orr	r2, r2, #4
 666 004e 1A60     		str	r2, [r3, #0]
 422:App/STM32F4-Discovery/Libraries/STM32F4xx_StdPeriph_Driver/src/stm32f4xx_hash.c ****   
 423:App/STM32F4-Discovery/Libraries/STM32F4xx_StdPeriph_Driver/src/stm32f4xx_hash.c ****    /* continue restoring context registers */     
 424:App/STM32F4-Discovery/Libraries/STM32F4xx_StdPeriph_Driver/src/stm32f4xx_hash.c ****   for(i=0; i<=50;i++)
 667              		.loc 1 424 0
 668 0050 4FF00003 		mov	r3, #0
 669 0054 FB73     		strb	r3, [r7, #15]
 670 0056 14E0     		b	.L21
 671              	.L22:
 425:App/STM32F4-Discovery/Libraries/STM32F4xx_StdPeriph_Driver/src/stm32f4xx_hash.c ****   {
 426:App/STM32F4-Discovery/Libraries/STM32F4xx_StdPeriph_Driver/src/stm32f4xx_hash.c ****      HASH->CSR[i] = HASH_ContextRestore->HASH_CSR[i];
 672              		.loc 1 426 0 discriminator 2
 673 0058 4FF48063 		mov	r3, #1024
 674 005c C5F20603 		movt	r3, 20486
 675 0060 F87B     		ldrb	r0, [r7, #15]	@ zero_extendqisi2
 676 0062 FA7B     		ldrb	r2, [r7, #15]	@ zero_extendqisi2
 677 0064 7968     		ldr	r1, [r7, #4]
 678 0066 02F10202 		add	r2, r2, #2
 679 006a 4FEA8202 		lsl	r2, r2, #2
 680 006e 8A18     		adds	r2, r1, r2
 681 0070 5168     		ldr	r1, [r2, #4]
 682 0072 00F13E02 		add	r2, r0, #62
 683 0076 43F82210 		str	r1, [r3, r2, lsl #2]
 424:App/STM32F4-Discovery/Libraries/STM32F4xx_StdPeriph_Driver/src/stm32f4xx_hash.c ****   for(i=0; i<=50;i++)
 684              		.loc 1 424 0 discriminator 2
 685 007a FB7B     		ldrb	r3, [r7, #15]
 686 007c 03F10103 		add	r3, r3, #1
 687 0080 FB73     		strb	r3, [r7, #15]
 688              	.L21:
 424:App/STM32F4-Discovery/Libraries/STM32F4xx_StdPeriph_Driver/src/stm32f4xx_hash.c ****   for(i=0; i<=50;i++)
 689              		.loc 1 424 0 is_stmt 0 discriminator 1
 690 0082 FB7B     		ldrb	r3, [r7, #15]	@ zero_extendqisi2
 691 0084 322B     		cmp	r3, #50
 692 0086 E7D9     		bls	.L22
 427:App/STM32F4-Discovery/Libraries/STM32F4xx_StdPeriph_Driver/src/stm32f4xx_hash.c ****   }   
 428:App/STM32F4-Discovery/Libraries/STM32F4xx_StdPeriph_Driver/src/stm32f4xx_hash.c **** }
 693              		.loc 1 428 0 is_stmt 1
 694 0088 07F11407 		add	r7, r7, #20
 695 008c BD46     		mov	sp, r7
 696 008e 80BC     		pop	{r7}
 697 0090 7047     		bx	lr
 698              		.cfi_endproc
 699              	.LFE120:
 701 0092 00BF     		.section	.text.HASH_DMACmd,"ax",%progbits
 702              		.align	2
 703              		.global	HASH_DMACmd
 704              		.thumb
 705              		.thumb_func
 707              	HASH_DMACmd:
 708              	.LFB121:
 429:App/STM32F4-Discovery/Libraries/STM32F4xx_StdPeriph_Driver/src/stm32f4xx_hash.c **** /**
 430:App/STM32F4-Discovery/Libraries/STM32F4xx_StdPeriph_Driver/src/stm32f4xx_hash.c ****   * @}
 431:App/STM32F4-Discovery/Libraries/STM32F4xx_StdPeriph_Driver/src/stm32f4xx_hash.c ****   */
 432:App/STM32F4-Discovery/Libraries/STM32F4xx_StdPeriph_Driver/src/stm32f4xx_hash.c **** 
 433:App/STM32F4-Discovery/Libraries/STM32F4xx_StdPeriph_Driver/src/stm32f4xx_hash.c **** /** @defgroup HASH_Group4 HASH's DMA interface Configuration function
 434:App/STM32F4-Discovery/Libraries/STM32F4xx_StdPeriph_Driver/src/stm32f4xx_hash.c ****  *  @brief   HASH's DMA interface Configuration function 
 435:App/STM32F4-Discovery/Libraries/STM32F4xx_StdPeriph_Driver/src/stm32f4xx_hash.c ****  *
 436:App/STM32F4-Discovery/Libraries/STM32F4xx_StdPeriph_Driver/src/stm32f4xx_hash.c **** @verbatim   
 437:App/STM32F4-Discovery/Libraries/STM32F4xx_StdPeriph_Driver/src/stm32f4xx_hash.c ****  ===============================================================================
 438:App/STM32F4-Discovery/Libraries/STM32F4xx_StdPeriph_Driver/src/stm32f4xx_hash.c ****                    HASH's DMA interface Configuration function
 439:App/STM32F4-Discovery/Libraries/STM32F4xx_StdPeriph_Driver/src/stm32f4xx_hash.c ****  ===============================================================================  
 440:App/STM32F4-Discovery/Libraries/STM32F4xx_StdPeriph_Driver/src/stm32f4xx_hash.c **** 
 441:App/STM32F4-Discovery/Libraries/STM32F4xx_StdPeriph_Driver/src/stm32f4xx_hash.c ****   This section provides functions allowing to configure the DMA interface for 
 442:App/STM32F4-Discovery/Libraries/STM32F4xx_StdPeriph_Driver/src/stm32f4xx_hash.c ****   HASH/ HMAC data input transfer.
 443:App/STM32F4-Discovery/Libraries/STM32F4xx_StdPeriph_Driver/src/stm32f4xx_hash.c ****    
 444:App/STM32F4-Discovery/Libraries/STM32F4xx_StdPeriph_Driver/src/stm32f4xx_hash.c ****   When the DMA mode is enabled (using the HASH_DMACmd() function), data can be 
 445:App/STM32F4-Discovery/Libraries/STM32F4xx_StdPeriph_Driver/src/stm32f4xx_hash.c ****   sent to the IN FIFO using the DMA peripheral.
 446:App/STM32F4-Discovery/Libraries/STM32F4xx_StdPeriph_Driver/src/stm32f4xx_hash.c **** 
 447:App/STM32F4-Discovery/Libraries/STM32F4xx_StdPeriph_Driver/src/stm32f4xx_hash.c **** 
 448:App/STM32F4-Discovery/Libraries/STM32F4xx_StdPeriph_Driver/src/stm32f4xx_hash.c **** 
 449:App/STM32F4-Discovery/Libraries/STM32F4xx_StdPeriph_Driver/src/stm32f4xx_hash.c **** @endverbatim
 450:App/STM32F4-Discovery/Libraries/STM32F4xx_StdPeriph_Driver/src/stm32f4xx_hash.c ****   * @{
 451:App/STM32F4-Discovery/Libraries/STM32F4xx_StdPeriph_Driver/src/stm32f4xx_hash.c ****   */
 452:App/STM32F4-Discovery/Libraries/STM32F4xx_StdPeriph_Driver/src/stm32f4xx_hash.c ****   
 453:App/STM32F4-Discovery/Libraries/STM32F4xx_StdPeriph_Driver/src/stm32f4xx_hash.c **** /**
 454:App/STM32F4-Discovery/Libraries/STM32F4xx_StdPeriph_Driver/src/stm32f4xx_hash.c ****   * @brief  Enables or disables the HASH DMA interface.
 455:App/STM32F4-Discovery/Libraries/STM32F4xx_StdPeriph_Driver/src/stm32f4xx_hash.c ****   * @note   The DMA is disabled by hardware after the end of transfer.
 456:App/STM32F4-Discovery/Libraries/STM32F4xx_StdPeriph_Driver/src/stm32f4xx_hash.c ****   * @param  NewState: new state of the selected HASH DMA transfer request.
 457:App/STM32F4-Discovery/Libraries/STM32F4xx_StdPeriph_Driver/src/stm32f4xx_hash.c ****   *          This parameter can be: ENABLE or DISABLE.
 458:App/STM32F4-Discovery/Libraries/STM32F4xx_StdPeriph_Driver/src/stm32f4xx_hash.c ****   * @retval None
 459:App/STM32F4-Discovery/Libraries/STM32F4xx_StdPeriph_Driver/src/stm32f4xx_hash.c ****   */
 460:App/STM32F4-Discovery/Libraries/STM32F4xx_StdPeriph_Driver/src/stm32f4xx_hash.c **** void HASH_DMACmd(FunctionalState NewState)
 461:App/STM32F4-Discovery/Libraries/STM32F4xx_StdPeriph_Driver/src/stm32f4xx_hash.c **** {
 709              		.loc 1 461 0
 710              		.cfi_startproc
 711              		@ args = 0, pretend = 0, frame = 8
 712              		@ frame_needed = 1, uses_anonymous_args = 0
 713 0000 80B5     		push	{r7, lr}
 714              	.LCFI29:
 715              		.cfi_def_cfa_offset 8
 716              		.cfi_offset 7, -8
 717              		.cfi_offset 14, -4
 718 0002 82B0     		sub	sp, sp, #8
 719              	.LCFI30:
 720              		.cfi_def_cfa_offset 16
 721 0004 00AF     		add	r7, sp, #0
 722              	.LCFI31:
 723              		.cfi_def_cfa_register 7
 724 0006 0346     		mov	r3, r0
 725 0008 FB71     		strb	r3, [r7, #7]
 462:App/STM32F4-Discovery/Libraries/STM32F4xx_StdPeriph_Driver/src/stm32f4xx_hash.c ****   /* Check the parameters */
 463:App/STM32F4-Discovery/Libraries/STM32F4xx_StdPeriph_Driver/src/stm32f4xx_hash.c ****   assert_param(IS_FUNCTIONAL_STATE(NewState));
 726              		.loc 1 463 0
 727 000a FB79     		ldrb	r3, [r7, #7]	@ zero_extendqisi2
 728 000c 002B     		cmp	r3, #0
 729 000e 0AD0     		beq	.L24
 730              		.loc 1 463 0 is_stmt 0 discriminator 1
 731 0010 FB79     		ldrb	r3, [r7, #7]	@ zero_extendqisi2
 732 0012 012B     		cmp	r3, #1
 733 0014 07D0     		beq	.L24
 734              		.loc 1 463 0 discriminator 2
 735 0016 40F20000 		movw	r0, #:lower16:.LC0
 736 001a C0F20000 		movt	r0, #:upper16:.LC0
 737 001e 40F2CF11 		movw	r1, #463
 738 0022 FFF7FEFF 		bl	assert_failed
 739              	.L24:
 464:App/STM32F4-Discovery/Libraries/STM32F4xx_StdPeriph_Driver/src/stm32f4xx_hash.c **** 
 465:App/STM32F4-Discovery/Libraries/STM32F4xx_StdPeriph_Driver/src/stm32f4xx_hash.c ****   if (NewState != DISABLE)
 740              		.loc 1 465 0 is_stmt 1
 741 0026 FB79     		ldrb	r3, [r7, #7]	@ zero_extendqisi2
 742 0028 002B     		cmp	r3, #0
 743 002a 0CD0     		beq	.L25
 466:App/STM32F4-Discovery/Libraries/STM32F4xx_StdPeriph_Driver/src/stm32f4xx_hash.c ****   {
 467:App/STM32F4-Discovery/Libraries/STM32F4xx_StdPeriph_Driver/src/stm32f4xx_hash.c ****     /* Enable the HASH DMA request */
 468:App/STM32F4-Discovery/Libraries/STM32F4xx_StdPeriph_Driver/src/stm32f4xx_hash.c ****     HASH->CR |= HASH_CR_DMAE;
 744              		.loc 1 468 0
 745 002c 4FF48063 		mov	r3, #1024
 746 0030 C5F20603 		movt	r3, 20486
 747 0034 4FF48062 		mov	r2, #1024
 748 0038 C5F20602 		movt	r2, 20486
 749 003c 1268     		ldr	r2, [r2, #0]
 750 003e 42F00802 		orr	r2, r2, #8
 751 0042 1A60     		str	r2, [r3, #0]
 752 0044 0BE0     		b	.L23
 753              	.L25:
 469:App/STM32F4-Discovery/Libraries/STM32F4xx_StdPeriph_Driver/src/stm32f4xx_hash.c ****   }
 470:App/STM32F4-Discovery/Libraries/STM32F4xx_StdPeriph_Driver/src/stm32f4xx_hash.c ****   else
 471:App/STM32F4-Discovery/Libraries/STM32F4xx_StdPeriph_Driver/src/stm32f4xx_hash.c ****   {
 472:App/STM32F4-Discovery/Libraries/STM32F4xx_StdPeriph_Driver/src/stm32f4xx_hash.c ****     /* Disable the HASH DMA request */
 473:App/STM32F4-Discovery/Libraries/STM32F4xx_StdPeriph_Driver/src/stm32f4xx_hash.c ****     HASH->CR &= ~HASH_CR_DMAE;
 754              		.loc 1 473 0
 755 0046 4FF48063 		mov	r3, #1024
 756 004a C5F20603 		movt	r3, 20486
 757 004e 4FF48062 		mov	r2, #1024
 758 0052 C5F20602 		movt	r2, 20486
 759 0056 1268     		ldr	r2, [r2, #0]
 760 0058 22F00802 		bic	r2, r2, #8
 761 005c 1A60     		str	r2, [r3, #0]
 762              	.L23:
 474:App/STM32F4-Discovery/Libraries/STM32F4xx_StdPeriph_Driver/src/stm32f4xx_hash.c ****   }
 475:App/STM32F4-Discovery/Libraries/STM32F4xx_StdPeriph_Driver/src/stm32f4xx_hash.c **** }
 763              		.loc 1 475 0
 764 005e 07F10807 		add	r7, r7, #8
 765 0062 BD46     		mov	sp, r7
 766 0064 80BD     		pop	{r7, pc}
 767              		.cfi_endproc
 768              	.LFE121:
 770 0066 00BF     		.section	.text.HASH_ITConfig,"ax",%progbits
 771              		.align	2
 772              		.global	HASH_ITConfig
 773              		.thumb
 774              		.thumb_func
 776              	HASH_ITConfig:
 777              	.LFB122:
 476:App/STM32F4-Discovery/Libraries/STM32F4xx_StdPeriph_Driver/src/stm32f4xx_hash.c **** /**
 477:App/STM32F4-Discovery/Libraries/STM32F4xx_StdPeriph_Driver/src/stm32f4xx_hash.c ****   * @}
 478:App/STM32F4-Discovery/Libraries/STM32F4xx_StdPeriph_Driver/src/stm32f4xx_hash.c ****   */
 479:App/STM32F4-Discovery/Libraries/STM32F4xx_StdPeriph_Driver/src/stm32f4xx_hash.c **** 
 480:App/STM32F4-Discovery/Libraries/STM32F4xx_StdPeriph_Driver/src/stm32f4xx_hash.c **** /** @defgroup HASH_Group5 Interrupts and flags management functions
 481:App/STM32F4-Discovery/Libraries/STM32F4xx_StdPeriph_Driver/src/stm32f4xx_hash.c ****  *  @brief   Interrupts and flags management functions
 482:App/STM32F4-Discovery/Libraries/STM32F4xx_StdPeriph_Driver/src/stm32f4xx_hash.c ****  *
 483:App/STM32F4-Discovery/Libraries/STM32F4xx_StdPeriph_Driver/src/stm32f4xx_hash.c **** @verbatim   
 484:App/STM32F4-Discovery/Libraries/STM32F4xx_StdPeriph_Driver/src/stm32f4xx_hash.c ****  ===============================================================================
 485:App/STM32F4-Discovery/Libraries/STM32F4xx_StdPeriph_Driver/src/stm32f4xx_hash.c ****                    Interrupts and flags management functions
 486:App/STM32F4-Discovery/Libraries/STM32F4xx_StdPeriph_Driver/src/stm32f4xx_hash.c ****  ===============================================================================  
 487:App/STM32F4-Discovery/Libraries/STM32F4xx_StdPeriph_Driver/src/stm32f4xx_hash.c **** 
 488:App/STM32F4-Discovery/Libraries/STM32F4xx_StdPeriph_Driver/src/stm32f4xx_hash.c ****   This section provides functions allowing to configure the HASH Interrupts and 
 489:App/STM32F4-Discovery/Libraries/STM32F4xx_StdPeriph_Driver/src/stm32f4xx_hash.c ****   to get the status and clear flags and Interrupts pending bits.
 490:App/STM32F4-Discovery/Libraries/STM32F4xx_StdPeriph_Driver/src/stm32f4xx_hash.c ****   
 491:App/STM32F4-Discovery/Libraries/STM32F4xx_StdPeriph_Driver/src/stm32f4xx_hash.c ****   The HASH provides 2 Interrupts sources and 5 Flags:
 492:App/STM32F4-Discovery/Libraries/STM32F4xx_StdPeriph_Driver/src/stm32f4xx_hash.c ****   
 493:App/STM32F4-Discovery/Libraries/STM32F4xx_StdPeriph_Driver/src/stm32f4xx_hash.c ****   Flags :
 494:App/STM32F4-Discovery/Libraries/STM32F4xx_StdPeriph_Driver/src/stm32f4xx_hash.c ****   ---------- 
 495:App/STM32F4-Discovery/Libraries/STM32F4xx_StdPeriph_Driver/src/stm32f4xx_hash.c ****      1. HASH_FLAG_DINIS : set when 16 locations are free in the Data IN FIFO 
 496:App/STM32F4-Discovery/Libraries/STM32F4xx_StdPeriph_Driver/src/stm32f4xx_hash.c ****                           which means that a  new block (512 bit) can be entered 
 497:App/STM32F4-Discovery/Libraries/STM32F4xx_StdPeriph_Driver/src/stm32f4xx_hash.c ****                           into the input buffer.
 498:App/STM32F4-Discovery/Libraries/STM32F4xx_StdPeriph_Driver/src/stm32f4xx_hash.c ****                           
 499:App/STM32F4-Discovery/Libraries/STM32F4xx_StdPeriph_Driver/src/stm32f4xx_hash.c ****      2. HASH_FLAG_DCIS :  set when Digest calculation is complete
 500:App/STM32F4-Discovery/Libraries/STM32F4xx_StdPeriph_Driver/src/stm32f4xx_hash.c ****       
 501:App/STM32F4-Discovery/Libraries/STM32F4xx_StdPeriph_Driver/src/stm32f4xx_hash.c ****      3. HASH_FLAG_DMAS :  set when HASH's DMA interface is enabled (DMAE=1) or 
 502:App/STM32F4-Discovery/Libraries/STM32F4xx_StdPeriph_Driver/src/stm32f4xx_hash.c ****                           a transfer is ongoing.
 503:App/STM32F4-Discovery/Libraries/STM32F4xx_StdPeriph_Driver/src/stm32f4xx_hash.c ****                           This Flag is cleared only by hardware.
 504:App/STM32F4-Discovery/Libraries/STM32F4xx_StdPeriph_Driver/src/stm32f4xx_hash.c ****                            
 505:App/STM32F4-Discovery/Libraries/STM32F4xx_StdPeriph_Driver/src/stm32f4xx_hash.c ****      4. HASH_FLAG_BUSY :  set when The hash core is processing a block of data
 506:App/STM32F4-Discovery/Libraries/STM32F4xx_StdPeriph_Driver/src/stm32f4xx_hash.c ****                           This Flag is cleared only by hardware. 
 507:App/STM32F4-Discovery/Libraries/STM32F4xx_StdPeriph_Driver/src/stm32f4xx_hash.c ****                            
 508:App/STM32F4-Discovery/Libraries/STM32F4xx_StdPeriph_Driver/src/stm32f4xx_hash.c ****      5. HASH_FLAG_DINNE : set when Data IN FIFO is not empty which means that 
 509:App/STM32F4-Discovery/Libraries/STM32F4xx_StdPeriph_Driver/src/stm32f4xx_hash.c ****                           the Data IN FIFO contains at least one word of data.
 510:App/STM32F4-Discovery/Libraries/STM32F4xx_StdPeriph_Driver/src/stm32f4xx_hash.c ****                           This Flag is cleared only by hardware.
 511:App/STM32F4-Discovery/Libraries/STM32F4xx_StdPeriph_Driver/src/stm32f4xx_hash.c ****      
 512:App/STM32F4-Discovery/Libraries/STM32F4xx_StdPeriph_Driver/src/stm32f4xx_hash.c ****   Interrupts :
 513:App/STM32F4-Discovery/Libraries/STM32F4xx_StdPeriph_Driver/src/stm32f4xx_hash.c ****   ------------
 514:App/STM32F4-Discovery/Libraries/STM32F4xx_StdPeriph_Driver/src/stm32f4xx_hash.c ****     
 515:App/STM32F4-Discovery/Libraries/STM32F4xx_StdPeriph_Driver/src/stm32f4xx_hash.c ****    1. HASH_IT_DINI  : if enabled, this interrupt source is pending when 16 
 516:App/STM32F4-Discovery/Libraries/STM32F4xx_StdPeriph_Driver/src/stm32f4xx_hash.c ****                       locations are free in the Data IN FIFO  which means that 
 517:App/STM32F4-Discovery/Libraries/STM32F4xx_StdPeriph_Driver/src/stm32f4xx_hash.c ****                       a new block (512 bit) can be entered into the input buffer.
 518:App/STM32F4-Discovery/Libraries/STM32F4xx_StdPeriph_Driver/src/stm32f4xx_hash.c ****                       This interrupt source is cleared using 
 519:App/STM32F4-Discovery/Libraries/STM32F4xx_StdPeriph_Driver/src/stm32f4xx_hash.c ****                       HASH_ClearITPendingBit(HASH_IT_DINI) function.
 520:App/STM32F4-Discovery/Libraries/STM32F4xx_StdPeriph_Driver/src/stm32f4xx_hash.c ****    
 521:App/STM32F4-Discovery/Libraries/STM32F4xx_StdPeriph_Driver/src/stm32f4xx_hash.c ****    2. HASH_IT_DCI   : if enabled, this interrupt source is pending when Digest 
 522:App/STM32F4-Discovery/Libraries/STM32F4xx_StdPeriph_Driver/src/stm32f4xx_hash.c ****                       calculation is complete.
 523:App/STM32F4-Discovery/Libraries/STM32F4xx_StdPeriph_Driver/src/stm32f4xx_hash.c ****                       This interrupt source is cleared using 
 524:App/STM32F4-Discovery/Libraries/STM32F4xx_StdPeriph_Driver/src/stm32f4xx_hash.c ****                       HASH_ClearITPendingBit(HASH_IT_DCI) function.
 525:App/STM32F4-Discovery/Libraries/STM32F4xx_StdPeriph_Driver/src/stm32f4xx_hash.c **** 
 526:App/STM32F4-Discovery/Libraries/STM32F4xx_StdPeriph_Driver/src/stm32f4xx_hash.c ****   Managing the HASH controller events :
 527:App/STM32F4-Discovery/Libraries/STM32F4xx_StdPeriph_Driver/src/stm32f4xx_hash.c ****   ------------------------------------ 
 528:App/STM32F4-Discovery/Libraries/STM32F4xx_StdPeriph_Driver/src/stm32f4xx_hash.c ****   The user should identify which mode will be used in his application to manage 
 529:App/STM32F4-Discovery/Libraries/STM32F4xx_StdPeriph_Driver/src/stm32f4xx_hash.c ****   the HASH controller events: Polling mode or Interrupt mode.
 530:App/STM32F4-Discovery/Libraries/STM32F4xx_StdPeriph_Driver/src/stm32f4xx_hash.c ****   
 531:App/STM32F4-Discovery/Libraries/STM32F4xx_StdPeriph_Driver/src/stm32f4xx_hash.c ****   1.  In the Polling Mode it is advised to use the following functions:
 532:App/STM32F4-Discovery/Libraries/STM32F4xx_StdPeriph_Driver/src/stm32f4xx_hash.c ****       - HASH_GetFlagStatus() : to check if flags events occur. 
 533:App/STM32F4-Discovery/Libraries/STM32F4xx_StdPeriph_Driver/src/stm32f4xx_hash.c ****       - HASH_ClearFlag()     : to clear the flags events.
 534:App/STM32F4-Discovery/Libraries/STM32F4xx_StdPeriph_Driver/src/stm32f4xx_hash.c ****     
 535:App/STM32F4-Discovery/Libraries/STM32F4xx_StdPeriph_Driver/src/stm32f4xx_hash.c ****   2.  In the Interrupt Mode it is advised to use the following functions:
 536:App/STM32F4-Discovery/Libraries/STM32F4xx_StdPeriph_Driver/src/stm32f4xx_hash.c ****       - HASH_ITConfig()       : to enable or disable the interrupt source.
 537:App/STM32F4-Discovery/Libraries/STM32F4xx_StdPeriph_Driver/src/stm32f4xx_hash.c ****       - HASH_GetITStatus()    : to check if Interrupt occurs.
 538:App/STM32F4-Discovery/Libraries/STM32F4xx_StdPeriph_Driver/src/stm32f4xx_hash.c ****       - HASH_ClearITPendingBit() : to clear the Interrupt pending Bit 
 539:App/STM32F4-Discovery/Libraries/STM32F4xx_StdPeriph_Driver/src/stm32f4xx_hash.c ****                                 (corresponding Flag). 
 540:App/STM32F4-Discovery/Libraries/STM32F4xx_StdPeriph_Driver/src/stm32f4xx_hash.c **** 
 541:App/STM32F4-Discovery/Libraries/STM32F4xx_StdPeriph_Driver/src/stm32f4xx_hash.c **** @endverbatim
 542:App/STM32F4-Discovery/Libraries/STM32F4xx_StdPeriph_Driver/src/stm32f4xx_hash.c ****   * @{
 543:App/STM32F4-Discovery/Libraries/STM32F4xx_StdPeriph_Driver/src/stm32f4xx_hash.c ****   */ 
 544:App/STM32F4-Discovery/Libraries/STM32F4xx_StdPeriph_Driver/src/stm32f4xx_hash.c ****   
 545:App/STM32F4-Discovery/Libraries/STM32F4xx_StdPeriph_Driver/src/stm32f4xx_hash.c **** /**
 546:App/STM32F4-Discovery/Libraries/STM32F4xx_StdPeriph_Driver/src/stm32f4xx_hash.c ****   * @brief  Enables or disables the specified HASH interrupts.
 547:App/STM32F4-Discovery/Libraries/STM32F4xx_StdPeriph_Driver/src/stm32f4xx_hash.c ****   * @param  HASH_IT: specifies the HASH interrupt source to be enabled or disabled.
 548:App/STM32F4-Discovery/Libraries/STM32F4xx_StdPeriph_Driver/src/stm32f4xx_hash.c ****   *          This parameter can be any combination of the following values:
 549:App/STM32F4-Discovery/Libraries/STM32F4xx_StdPeriph_Driver/src/stm32f4xx_hash.c ****   *            @arg HASH_IT_DINI: Data Input interrupt
 550:App/STM32F4-Discovery/Libraries/STM32F4xx_StdPeriph_Driver/src/stm32f4xx_hash.c ****   *            @arg HASH_IT_DCI: Digest Calculation Completion Interrupt
 551:App/STM32F4-Discovery/Libraries/STM32F4xx_StdPeriph_Driver/src/stm32f4xx_hash.c ****   * @param  NewState: new state of the specified HASH interrupt.
 552:App/STM32F4-Discovery/Libraries/STM32F4xx_StdPeriph_Driver/src/stm32f4xx_hash.c ****   *           This parameter can be: ENABLE or DISABLE.
 553:App/STM32F4-Discovery/Libraries/STM32F4xx_StdPeriph_Driver/src/stm32f4xx_hash.c ****   * @retval None
 554:App/STM32F4-Discovery/Libraries/STM32F4xx_StdPeriph_Driver/src/stm32f4xx_hash.c ****   */
 555:App/STM32F4-Discovery/Libraries/STM32F4xx_StdPeriph_Driver/src/stm32f4xx_hash.c **** void HASH_ITConfig(uint8_t HASH_IT, FunctionalState NewState)
 556:App/STM32F4-Discovery/Libraries/STM32F4xx_StdPeriph_Driver/src/stm32f4xx_hash.c **** {
 778              		.loc 1 556 0
 779              		.cfi_startproc
 780              		@ args = 0, pretend = 0, frame = 8
 781              		@ frame_needed = 1, uses_anonymous_args = 0
 782 0000 80B5     		push	{r7, lr}
 783              	.LCFI32:
 784              		.cfi_def_cfa_offset 8
 785              		.cfi_offset 7, -8
 786              		.cfi_offset 14, -4
 787 0002 82B0     		sub	sp, sp, #8
 788              	.LCFI33:
 789              		.cfi_def_cfa_offset 16
 790 0004 00AF     		add	r7, sp, #0
 791              	.LCFI34:
 792              		.cfi_def_cfa_register 7
 793 0006 0246     		mov	r2, r0
 794 0008 0B46     		mov	r3, r1
 795 000a FA71     		strb	r2, [r7, #7]
 796 000c BB71     		strb	r3, [r7, #6]
 557:App/STM32F4-Discovery/Libraries/STM32F4xx_StdPeriph_Driver/src/stm32f4xx_hash.c ****   /* Check the parameters */
 558:App/STM32F4-Discovery/Libraries/STM32F4xx_StdPeriph_Driver/src/stm32f4xx_hash.c ****   assert_param(IS_HASH_IT(HASH_IT));
 797              		.loc 1 558 0
 798 000e FB79     		ldrb	r3, [r7, #7]	@ zero_extendqisi2
 799 0010 03F0FC03 		and	r3, r3, #252
 800 0014 002B     		cmp	r3, #0
 801 0016 02D1     		bne	.L28
 802              		.loc 1 558 0 is_stmt 0 discriminator 2
 803 0018 FB79     		ldrb	r3, [r7, #7]	@ zero_extendqisi2
 804 001a 002B     		cmp	r3, #0
 805 001c 07D1     		bne	.L29
 806              	.L28:
 807              		.loc 1 558 0 discriminator 1
 808 001e 40F20000 		movw	r0, #:lower16:.LC0
 809 0022 C0F20000 		movt	r0, #:upper16:.LC0
 810 0026 40F22E21 		movw	r1, #558
 811 002a FFF7FEFF 		bl	assert_failed
 812              	.L29:
 559:App/STM32F4-Discovery/Libraries/STM32F4xx_StdPeriph_Driver/src/stm32f4xx_hash.c ****   assert_param(IS_FUNCTIONAL_STATE(NewState));
 813              		.loc 1 559 0 is_stmt 1
 814 002e BB79     		ldrb	r3, [r7, #6]	@ zero_extendqisi2
 815 0030 002B     		cmp	r3, #0
 816 0032 0AD0     		beq	.L30
 817              		.loc 1 559 0 is_stmt 0 discriminator 1
 818 0034 BB79     		ldrb	r3, [r7, #6]	@ zero_extendqisi2
 819 0036 012B     		cmp	r3, #1
 820 0038 07D0     		beq	.L30
 821              		.loc 1 559 0 discriminator 2
 822 003a 40F20000 		movw	r0, #:lower16:.LC0
 823 003e C0F20000 		movt	r0, #:upper16:.LC0
 824 0042 40F22F21 		movw	r1, #559
 825 0046 FFF7FEFF 		bl	assert_failed
 826              	.L30:
 560:App/STM32F4-Discovery/Libraries/STM32F4xx_StdPeriph_Driver/src/stm32f4xx_hash.c **** 
 561:App/STM32F4-Discovery/Libraries/STM32F4xx_StdPeriph_Driver/src/stm32f4xx_hash.c ****   if (NewState != DISABLE)
 827              		.loc 1 561 0 is_stmt 1
 828 004a BB79     		ldrb	r3, [r7, #6]	@ zero_extendqisi2
 829 004c 002B     		cmp	r3, #0
 830 004e 0CD0     		beq	.L31
 562:App/STM32F4-Discovery/Libraries/STM32F4xx_StdPeriph_Driver/src/stm32f4xx_hash.c ****   {
 563:App/STM32F4-Discovery/Libraries/STM32F4xx_StdPeriph_Driver/src/stm32f4xx_hash.c ****     /* Enable the selected HASH interrupt */
 564:App/STM32F4-Discovery/Libraries/STM32F4xx_StdPeriph_Driver/src/stm32f4xx_hash.c ****     HASH->IMR |= HASH_IT;
 831              		.loc 1 564 0
 832 0050 4FF48063 		mov	r3, #1024
 833 0054 C5F20603 		movt	r3, 20486
 834 0058 4FF48062 		mov	r2, #1024
 835 005c C5F20602 		movt	r2, 20486
 836 0060 116A     		ldr	r1, [r2, #32]
 837 0062 FA79     		ldrb	r2, [r7, #7]	@ zero_extendqisi2
 838 0064 0A43     		orrs	r2, r2, r1
 839 0066 1A62     		str	r2, [r3, #32]
 840 0068 0EE0     		b	.L27
 841              	.L31:
 565:App/STM32F4-Discovery/Libraries/STM32F4xx_StdPeriph_Driver/src/stm32f4xx_hash.c ****   }
 566:App/STM32F4-Discovery/Libraries/STM32F4xx_StdPeriph_Driver/src/stm32f4xx_hash.c ****   else
 567:App/STM32F4-Discovery/Libraries/STM32F4xx_StdPeriph_Driver/src/stm32f4xx_hash.c ****   {
 568:App/STM32F4-Discovery/Libraries/STM32F4xx_StdPeriph_Driver/src/stm32f4xx_hash.c ****     /* Disable the selected HASH interrupt */
 569:App/STM32F4-Discovery/Libraries/STM32F4xx_StdPeriph_Driver/src/stm32f4xx_hash.c ****     HASH->IMR &= (uint8_t) ~HASH_IT;
 842              		.loc 1 569 0
 843 006a 4FF48063 		mov	r3, #1024
 844 006e C5F20603 		movt	r3, 20486
 845 0072 4FF48062 		mov	r2, #1024
 846 0076 C5F20602 		movt	r2, 20486
 847 007a 116A     		ldr	r1, [r2, #32]
 848 007c FA79     		ldrb	r2, [r7, #7]
 849 007e 6FEA0202 		mvn	r2, r2
 850 0082 D2B2     		uxtb	r2, r2
 851 0084 0A40     		ands	r2, r2, r1
 852 0086 1A62     		str	r2, [r3, #32]
 853              	.L27:
 570:App/STM32F4-Discovery/Libraries/STM32F4xx_StdPeriph_Driver/src/stm32f4xx_hash.c ****   }
 571:App/STM32F4-Discovery/Libraries/STM32F4xx_StdPeriph_Driver/src/stm32f4xx_hash.c **** }
 854              		.loc 1 571 0
 855 0088 07F10807 		add	r7, r7, #8
 856 008c BD46     		mov	sp, r7
 857 008e 80BD     		pop	{r7, pc}
 858              		.cfi_endproc
 859              	.LFE122:
 861              		.section	.text.HASH_GetFlagStatus,"ax",%progbits
 862              		.align	2
 863              		.global	HASH_GetFlagStatus
 864              		.thumb
 865              		.thumb_func
 867              	HASH_GetFlagStatus:
 868              	.LFB123:
 572:App/STM32F4-Discovery/Libraries/STM32F4xx_StdPeriph_Driver/src/stm32f4xx_hash.c **** 
 573:App/STM32F4-Discovery/Libraries/STM32F4xx_StdPeriph_Driver/src/stm32f4xx_hash.c **** /**
 574:App/STM32F4-Discovery/Libraries/STM32F4xx_StdPeriph_Driver/src/stm32f4xx_hash.c ****   * @brief  Checks whether the specified HASH flag is set or not.
 575:App/STM32F4-Discovery/Libraries/STM32F4xx_StdPeriph_Driver/src/stm32f4xx_hash.c ****   * @param  HASH_FLAG: specifies the HASH flag to check.
 576:App/STM32F4-Discovery/Libraries/STM32F4xx_StdPeriph_Driver/src/stm32f4xx_hash.c ****   *          This parameter can be one of the following values:
 577:App/STM32F4-Discovery/Libraries/STM32F4xx_StdPeriph_Driver/src/stm32f4xx_hash.c ****   *            @arg HASH_FLAG_DINIS: Data input interrupt status flag
 578:App/STM32F4-Discovery/Libraries/STM32F4xx_StdPeriph_Driver/src/stm32f4xx_hash.c ****   *            @arg HASH_FLAG_DCIS: Digest calculation completion interrupt status flag
 579:App/STM32F4-Discovery/Libraries/STM32F4xx_StdPeriph_Driver/src/stm32f4xx_hash.c ****   *            @arg HASH_FLAG_BUSY: Busy flag
 580:App/STM32F4-Discovery/Libraries/STM32F4xx_StdPeriph_Driver/src/stm32f4xx_hash.c ****   *            @arg HASH_FLAG_DMAS: DMAS Status flag
 581:App/STM32F4-Discovery/Libraries/STM32F4xx_StdPeriph_Driver/src/stm32f4xx_hash.c ****   *            @arg HASH_FLAG_DINNE: Data Input register (DIN) not empty status flag
 582:App/STM32F4-Discovery/Libraries/STM32F4xx_StdPeriph_Driver/src/stm32f4xx_hash.c ****   * @retval The new state of HASH_FLAG (SET or RESET)
 583:App/STM32F4-Discovery/Libraries/STM32F4xx_StdPeriph_Driver/src/stm32f4xx_hash.c ****   */
 584:App/STM32F4-Discovery/Libraries/STM32F4xx_StdPeriph_Driver/src/stm32f4xx_hash.c **** FlagStatus HASH_GetFlagStatus(uint16_t HASH_FLAG)
 585:App/STM32F4-Discovery/Libraries/STM32F4xx_StdPeriph_Driver/src/stm32f4xx_hash.c **** {
 869              		.loc 1 585 0
 870              		.cfi_startproc
 871              		@ args = 0, pretend = 0, frame = 16
 872              		@ frame_needed = 1, uses_anonymous_args = 0
 873 0000 80B5     		push	{r7, lr}
 874              	.LCFI35:
 875              		.cfi_def_cfa_offset 8
 876              		.cfi_offset 7, -8
 877              		.cfi_offset 14, -4
 878 0002 84B0     		sub	sp, sp, #16
 879              	.LCFI36:
 880              		.cfi_def_cfa_offset 24
 881 0004 00AF     		add	r7, sp, #0
 882              	.LCFI37:
 883              		.cfi_def_cfa_register 7
 884 0006 0346     		mov	r3, r0
 885 0008 FB80     		strh	r3, [r7, #6]	@ movhi
 586:App/STM32F4-Discovery/Libraries/STM32F4xx_StdPeriph_Driver/src/stm32f4xx_hash.c ****   FlagStatus bitstatus = RESET;
 886              		.loc 1 586 0
 887 000a 4FF00003 		mov	r3, #0
 888 000e FB73     		strb	r3, [r7, #15]
 587:App/STM32F4-Discovery/Libraries/STM32F4xx_StdPeriph_Driver/src/stm32f4xx_hash.c ****   uint32_t tempreg = 0;
 889              		.loc 1 587 0
 890 0010 4FF00003 		mov	r3, #0
 891 0014 BB60     		str	r3, [r7, #8]
 588:App/STM32F4-Discovery/Libraries/STM32F4xx_StdPeriph_Driver/src/stm32f4xx_hash.c **** 
 589:App/STM32F4-Discovery/Libraries/STM32F4xx_StdPeriph_Driver/src/stm32f4xx_hash.c ****   /* Check the parameters */
 590:App/STM32F4-Discovery/Libraries/STM32F4xx_StdPeriph_Driver/src/stm32f4xx_hash.c ****   assert_param(IS_HASH_GET_FLAG(HASH_FLAG));
 892              		.loc 1 590 0
 893 0016 FB88     		ldrh	r3, [r7, #6]
 894 0018 012B     		cmp	r3, #1
 895 001a 14D0     		beq	.L34
 896              		.loc 1 590 0 is_stmt 0 discriminator 1
 897 001c FB88     		ldrh	r3, [r7, #6]
 898 001e 022B     		cmp	r3, #2
 899 0020 11D0     		beq	.L34
 900              		.loc 1 590 0 discriminator 2
 901 0022 FB88     		ldrh	r3, [r7, #6]
 902 0024 042B     		cmp	r3, #4
 903 0026 0ED0     		beq	.L34
 904              		.loc 1 590 0 discriminator 3
 905 0028 FB88     		ldrh	r3, [r7, #6]
 906 002a 082B     		cmp	r3, #8
 907 002c 0BD0     		beq	.L34
 908              		.loc 1 590 0 discriminator 4
 909 002e FB88     		ldrh	r3, [r7, #6]
 910 0030 B3F5805F 		cmp	r3, #4096
 911 0034 07D0     		beq	.L34
 912              		.loc 1 590 0 discriminator 5
 913 0036 40F20000 		movw	r0, #:lower16:.LC0
 914 003a C0F20000 		movt	r0, #:upper16:.LC0
 915 003e 40F24E21 		movw	r1, #590
 916 0042 FFF7FEFF 		bl	assert_failed
 917              	.L34:
 591:App/STM32F4-Discovery/Libraries/STM32F4xx_StdPeriph_Driver/src/stm32f4xx_hash.c **** 
 592:App/STM32F4-Discovery/Libraries/STM32F4xx_StdPeriph_Driver/src/stm32f4xx_hash.c ****   /* check if the FLAG is in CR register */
 593:App/STM32F4-Discovery/Libraries/STM32F4xx_StdPeriph_Driver/src/stm32f4xx_hash.c ****   if ((HASH_FLAG & HASH_FLAG_DINNE) != (uint16_t)RESET ) 
 918              		.loc 1 593 0 is_stmt 1
 919 0046 FB88     		ldrh	r3, [r7, #6]
 920 0048 03F48053 		and	r3, r3, #4096
 921 004c 002B     		cmp	r3, #0
 922 004e 06D0     		beq	.L35
 594:App/STM32F4-Discovery/Libraries/STM32F4xx_StdPeriph_Driver/src/stm32f4xx_hash.c ****   {
 595:App/STM32F4-Discovery/Libraries/STM32F4xx_StdPeriph_Driver/src/stm32f4xx_hash.c ****     tempreg = HASH->CR;
 923              		.loc 1 595 0
 924 0050 4FF48063 		mov	r3, #1024
 925 0054 C5F20603 		movt	r3, 20486
 926 0058 1B68     		ldr	r3, [r3, #0]
 927 005a BB60     		str	r3, [r7, #8]
 928 005c 05E0     		b	.L36
 929              	.L35:
 596:App/STM32F4-Discovery/Libraries/STM32F4xx_StdPeriph_Driver/src/stm32f4xx_hash.c ****   }
 597:App/STM32F4-Discovery/Libraries/STM32F4xx_StdPeriph_Driver/src/stm32f4xx_hash.c ****   else /* The FLAG is in SR register */
 598:App/STM32F4-Discovery/Libraries/STM32F4xx_StdPeriph_Driver/src/stm32f4xx_hash.c ****   {
 599:App/STM32F4-Discovery/Libraries/STM32F4xx_StdPeriph_Driver/src/stm32f4xx_hash.c ****     tempreg = HASH->SR;
 930              		.loc 1 599 0
 931 005e 4FF48063 		mov	r3, #1024
 932 0062 C5F20603 		movt	r3, 20486
 933 0066 5B6A     		ldr	r3, [r3, #36]
 934 0068 BB60     		str	r3, [r7, #8]
 935              	.L36:
 600:App/STM32F4-Discovery/Libraries/STM32F4xx_StdPeriph_Driver/src/stm32f4xx_hash.c ****   }
 601:App/STM32F4-Discovery/Libraries/STM32F4xx_StdPeriph_Driver/src/stm32f4xx_hash.c **** 
 602:App/STM32F4-Discovery/Libraries/STM32F4xx_StdPeriph_Driver/src/stm32f4xx_hash.c ****   /* Check the status of the specified HASH flag */
 603:App/STM32F4-Discovery/Libraries/STM32F4xx_StdPeriph_Driver/src/stm32f4xx_hash.c ****   if ((tempreg & HASH_FLAG) != (uint16_t)RESET)
 936              		.loc 1 603 0
 937 006a FA88     		ldrh	r2, [r7, #6]
 938 006c BB68     		ldr	r3, [r7, #8]
 939 006e 1340     		ands	r3, r3, r2
 940 0070 002B     		cmp	r3, #0
 941 0072 03D0     		beq	.L37
 604:App/STM32F4-Discovery/Libraries/STM32F4xx_StdPeriph_Driver/src/stm32f4xx_hash.c ****   {
 605:App/STM32F4-Discovery/Libraries/STM32F4xx_StdPeriph_Driver/src/stm32f4xx_hash.c ****     /* HASH is set */
 606:App/STM32F4-Discovery/Libraries/STM32F4xx_StdPeriph_Driver/src/stm32f4xx_hash.c ****     bitstatus = SET;
 942              		.loc 1 606 0
 943 0074 4FF00103 		mov	r3, #1
 944 0078 FB73     		strb	r3, [r7, #15]
 945 007a 02E0     		b	.L38
 946              	.L37:
 607:App/STM32F4-Discovery/Libraries/STM32F4xx_StdPeriph_Driver/src/stm32f4xx_hash.c ****   }
 608:App/STM32F4-Discovery/Libraries/STM32F4xx_StdPeriph_Driver/src/stm32f4xx_hash.c ****   else
 609:App/STM32F4-Discovery/Libraries/STM32F4xx_StdPeriph_Driver/src/stm32f4xx_hash.c ****   {
 610:App/STM32F4-Discovery/Libraries/STM32F4xx_StdPeriph_Driver/src/stm32f4xx_hash.c ****     /* HASH_FLAG is reset */
 611:App/STM32F4-Discovery/Libraries/STM32F4xx_StdPeriph_Driver/src/stm32f4xx_hash.c ****     bitstatus = RESET;
 947              		.loc 1 611 0
 948 007c 4FF00003 		mov	r3, #0
 949 0080 FB73     		strb	r3, [r7, #15]
 950              	.L38:
 612:App/STM32F4-Discovery/Libraries/STM32F4xx_StdPeriph_Driver/src/stm32f4xx_hash.c ****   }
 613:App/STM32F4-Discovery/Libraries/STM32F4xx_StdPeriph_Driver/src/stm32f4xx_hash.c **** 
 614:App/STM32F4-Discovery/Libraries/STM32F4xx_StdPeriph_Driver/src/stm32f4xx_hash.c ****   /* Return the HASH_FLAG status */
 615:App/STM32F4-Discovery/Libraries/STM32F4xx_StdPeriph_Driver/src/stm32f4xx_hash.c ****   return  bitstatus;
 951              		.loc 1 615 0
 952 0082 FB7B     		ldrb	r3, [r7, #15]	@ zero_extendqisi2
 616:App/STM32F4-Discovery/Libraries/STM32F4xx_StdPeriph_Driver/src/stm32f4xx_hash.c **** }
 953              		.loc 1 616 0
 954 0084 1846     		mov	r0, r3
 955 0086 07F11007 		add	r7, r7, #16
 956 008a BD46     		mov	sp, r7
 957 008c 80BD     		pop	{r7, pc}
 958              		.cfi_endproc
 959              	.LFE123:
 961 008e 00BF     		.section	.text.HASH_ClearFlag,"ax",%progbits
 962              		.align	2
 963              		.global	HASH_ClearFlag
 964              		.thumb
 965              		.thumb_func
 967              	HASH_ClearFlag:
 968              	.LFB124:
 617:App/STM32F4-Discovery/Libraries/STM32F4xx_StdPeriph_Driver/src/stm32f4xx_hash.c **** /**
 618:App/STM32F4-Discovery/Libraries/STM32F4xx_StdPeriph_Driver/src/stm32f4xx_hash.c ****   * @brief  Clears the HASH flags.
 619:App/STM32F4-Discovery/Libraries/STM32F4xx_StdPeriph_Driver/src/stm32f4xx_hash.c ****   * @param  HASH_FLAG: specifies the flag to clear. 
 620:App/STM32F4-Discovery/Libraries/STM32F4xx_StdPeriph_Driver/src/stm32f4xx_hash.c ****   *          This parameter can be any combination of the following values:
 621:App/STM32F4-Discovery/Libraries/STM32F4xx_StdPeriph_Driver/src/stm32f4xx_hash.c ****   *            @arg HASH_FLAG_DINIS: Data Input Flag
 622:App/STM32F4-Discovery/Libraries/STM32F4xx_StdPeriph_Driver/src/stm32f4xx_hash.c ****   *            @arg HASH_FLAG_DCIS: Digest Calculation Completion Flag                       
 623:App/STM32F4-Discovery/Libraries/STM32F4xx_StdPeriph_Driver/src/stm32f4xx_hash.c ****   * @retval None
 624:App/STM32F4-Discovery/Libraries/STM32F4xx_StdPeriph_Driver/src/stm32f4xx_hash.c ****   */
 625:App/STM32F4-Discovery/Libraries/STM32F4xx_StdPeriph_Driver/src/stm32f4xx_hash.c **** void HASH_ClearFlag(uint16_t HASH_FLAG)
 626:App/STM32F4-Discovery/Libraries/STM32F4xx_StdPeriph_Driver/src/stm32f4xx_hash.c **** {
 969              		.loc 1 626 0
 970              		.cfi_startproc
 971              		@ args = 0, pretend = 0, frame = 8
 972              		@ frame_needed = 1, uses_anonymous_args = 0
 973 0000 80B5     		push	{r7, lr}
 974              	.LCFI38:
 975              		.cfi_def_cfa_offset 8
 976              		.cfi_offset 7, -8
 977              		.cfi_offset 14, -4
 978 0002 82B0     		sub	sp, sp, #8
 979              	.LCFI39:
 980              		.cfi_def_cfa_offset 16
 981 0004 00AF     		add	r7, sp, #0
 982              	.LCFI40:
 983              		.cfi_def_cfa_register 7
 984 0006 0346     		mov	r3, r0
 985 0008 FB80     		strh	r3, [r7, #6]	@ movhi
 627:App/STM32F4-Discovery/Libraries/STM32F4xx_StdPeriph_Driver/src/stm32f4xx_hash.c ****   /* Check the parameters */
 628:App/STM32F4-Discovery/Libraries/STM32F4xx_StdPeriph_Driver/src/stm32f4xx_hash.c ****   assert_param(IS_HASH_CLEAR_FLAG(HASH_FLAG));
 986              		.loc 1 628 0
 987 000a FB88     		ldrh	r3, [r7, #6]
 988 000c 012B     		cmp	r3, #1
 989 000e 0AD0     		beq	.L41
 990              		.loc 1 628 0 is_stmt 0 discriminator 1
 991 0010 FB88     		ldrh	r3, [r7, #6]
 992 0012 022B     		cmp	r3, #2
 993 0014 07D0     		beq	.L41
 994              		.loc 1 628 0 discriminator 2
 995 0016 40F20000 		movw	r0, #:lower16:.LC0
 996 001a C0F20000 		movt	r0, #:upper16:.LC0
 997 001e 4FF41D71 		mov	r1, #628
 998 0022 FFF7FEFF 		bl	assert_failed
 999              	.L41:
 629:App/STM32F4-Discovery/Libraries/STM32F4xx_StdPeriph_Driver/src/stm32f4xx_hash.c ****   
 630:App/STM32F4-Discovery/Libraries/STM32F4xx_StdPeriph_Driver/src/stm32f4xx_hash.c ****   /* Clear the selected HASH flags */
 631:App/STM32F4-Discovery/Libraries/STM32F4xx_StdPeriph_Driver/src/stm32f4xx_hash.c ****   HASH->SR = ~(uint32_t)HASH_FLAG;
 1000              		.loc 1 631 0 is_stmt 1
 1001 0026 4FF48063 		mov	r3, #1024
 1002 002a C5F20603 		movt	r3, 20486
 1003 002e FA88     		ldrh	r2, [r7, #6]
 1004 0030 6FEA0202 		mvn	r2, r2
 1005 0034 5A62     		str	r2, [r3, #36]
 632:App/STM32F4-Discovery/Libraries/STM32F4xx_StdPeriph_Driver/src/stm32f4xx_hash.c **** }
 1006              		.loc 1 632 0
 1007 0036 07F10807 		add	r7, r7, #8
 1008 003a BD46     		mov	sp, r7
 1009 003c 80BD     		pop	{r7, pc}
 1010              		.cfi_endproc
 1011              	.LFE124:
 1013 003e 00BF     		.section	.text.HASH_GetITStatus,"ax",%progbits
 1014              		.align	2
 1015              		.global	HASH_GetITStatus
 1016              		.thumb
 1017              		.thumb_func
 1019              	HASH_GetITStatus:
 1020              	.LFB125:
 633:App/STM32F4-Discovery/Libraries/STM32F4xx_StdPeriph_Driver/src/stm32f4xx_hash.c **** /**
 634:App/STM32F4-Discovery/Libraries/STM32F4xx_StdPeriph_Driver/src/stm32f4xx_hash.c ****   * @brief  Checks whether the specified HASH interrupt has occurred or not.
 635:App/STM32F4-Discovery/Libraries/STM32F4xx_StdPeriph_Driver/src/stm32f4xx_hash.c ****   * @param  HASH_IT: specifies the HASH interrupt source to check.
 636:App/STM32F4-Discovery/Libraries/STM32F4xx_StdPeriph_Driver/src/stm32f4xx_hash.c ****   *          This parameter can be one of the following values:
 637:App/STM32F4-Discovery/Libraries/STM32F4xx_StdPeriph_Driver/src/stm32f4xx_hash.c ****   *            @arg HASH_IT_DINI: Data Input interrupt
 638:App/STM32F4-Discovery/Libraries/STM32F4xx_StdPeriph_Driver/src/stm32f4xx_hash.c ****   *            @arg HASH_IT_DCI: Digest Calculation Completion Interrupt
 639:App/STM32F4-Discovery/Libraries/STM32F4xx_StdPeriph_Driver/src/stm32f4xx_hash.c ****   * @retval The new state of HASH_IT (SET or RESET).
 640:App/STM32F4-Discovery/Libraries/STM32F4xx_StdPeriph_Driver/src/stm32f4xx_hash.c ****   */
 641:App/STM32F4-Discovery/Libraries/STM32F4xx_StdPeriph_Driver/src/stm32f4xx_hash.c **** ITStatus HASH_GetITStatus(uint8_t HASH_IT)
 642:App/STM32F4-Discovery/Libraries/STM32F4xx_StdPeriph_Driver/src/stm32f4xx_hash.c **** {
 1021              		.loc 1 642 0
 1022              		.cfi_startproc
 1023              		@ args = 0, pretend = 0, frame = 16
 1024              		@ frame_needed = 1, uses_anonymous_args = 0
 1025 0000 80B5     		push	{r7, lr}
 1026              	.LCFI41:
 1027              		.cfi_def_cfa_offset 8
 1028              		.cfi_offset 7, -8
 1029              		.cfi_offset 14, -4
 1030 0002 84B0     		sub	sp, sp, #16
 1031              	.LCFI42:
 1032              		.cfi_def_cfa_offset 24
 1033 0004 00AF     		add	r7, sp, #0
 1034              	.LCFI43:
 1035              		.cfi_def_cfa_register 7
 1036 0006 0346     		mov	r3, r0
 1037 0008 FB71     		strb	r3, [r7, #7]
 643:App/STM32F4-Discovery/Libraries/STM32F4xx_StdPeriph_Driver/src/stm32f4xx_hash.c ****   ITStatus bitstatus = RESET;
 1038              		.loc 1 643 0
 1039 000a 4FF00003 		mov	r3, #0
 1040 000e FB73     		strb	r3, [r7, #15]
 644:App/STM32F4-Discovery/Libraries/STM32F4xx_StdPeriph_Driver/src/stm32f4xx_hash.c ****   uint32_t tmpreg = 0;
 1041              		.loc 1 644 0
 1042 0010 4FF00003 		mov	r3, #0
 1043 0014 BB60     		str	r3, [r7, #8]
 645:App/STM32F4-Discovery/Libraries/STM32F4xx_StdPeriph_Driver/src/stm32f4xx_hash.c **** 
 646:App/STM32F4-Discovery/Libraries/STM32F4xx_StdPeriph_Driver/src/stm32f4xx_hash.c ****   /* Check the parameters */
 647:App/STM32F4-Discovery/Libraries/STM32F4xx_StdPeriph_Driver/src/stm32f4xx_hash.c ****   assert_param(IS_HASH_GET_IT(HASH_IT));  
 1044              		.loc 1 647 0
 1045 0016 FB79     		ldrb	r3, [r7, #7]	@ zero_extendqisi2
 1046 0018 012B     		cmp	r3, #1
 1047 001a 0AD0     		beq	.L43
 1048              		.loc 1 647 0 is_stmt 0 discriminator 1
 1049 001c FB79     		ldrb	r3, [r7, #7]	@ zero_extendqisi2
 1050 001e 022B     		cmp	r3, #2
 1051 0020 07D0     		beq	.L43
 1052              		.loc 1 647 0 discriminator 2
 1053 0022 40F20000 		movw	r0, #:lower16:.LC0
 1054 0026 C0F20000 		movt	r0, #:upper16:.LC0
 1055 002a 40F28721 		movw	r1, #647
 1056 002e FFF7FEFF 		bl	assert_failed
 1057              	.L43:
 648:App/STM32F4-Discovery/Libraries/STM32F4xx_StdPeriph_Driver/src/stm32f4xx_hash.c **** 
 649:App/STM32F4-Discovery/Libraries/STM32F4xx_StdPeriph_Driver/src/stm32f4xx_hash.c **** 
 650:App/STM32F4-Discovery/Libraries/STM32F4xx_StdPeriph_Driver/src/stm32f4xx_hash.c ****   /* Check the status of the specified HASH interrupt */
 651:App/STM32F4-Discovery/Libraries/STM32F4xx_StdPeriph_Driver/src/stm32f4xx_hash.c ****   tmpreg =  HASH->SR;
 1058              		.loc 1 651 0 is_stmt 1
 1059 0032 4FF48063 		mov	r3, #1024
 1060 0036 C5F20603 		movt	r3, 20486
 1061 003a 5B6A     		ldr	r3, [r3, #36]
 1062 003c BB60     		str	r3, [r7, #8]
 652:App/STM32F4-Discovery/Libraries/STM32F4xx_StdPeriph_Driver/src/stm32f4xx_hash.c **** 
 653:App/STM32F4-Discovery/Libraries/STM32F4xx_StdPeriph_Driver/src/stm32f4xx_hash.c ****   if (((HASH->IMR & tmpreg) & HASH_IT) != RESET)
 1063              		.loc 1 653 0
 1064 003e 4FF48063 		mov	r3, #1024
 1065 0042 C5F20603 		movt	r3, 20486
 1066 0046 1A6A     		ldr	r2, [r3, #32]
 1067 0048 BB68     		ldr	r3, [r7, #8]
 1068 004a 1A40     		ands	r2, r2, r3
 1069 004c FB79     		ldrb	r3, [r7, #7]	@ zero_extendqisi2
 1070 004e 1340     		ands	r3, r3, r2
 1071 0050 002B     		cmp	r3, #0
 1072 0052 03D0     		beq	.L44
 654:App/STM32F4-Discovery/Libraries/STM32F4xx_StdPeriph_Driver/src/stm32f4xx_hash.c ****   {
 655:App/STM32F4-Discovery/Libraries/STM32F4xx_StdPeriph_Driver/src/stm32f4xx_hash.c ****     /* HASH_IT is set */
 656:App/STM32F4-Discovery/Libraries/STM32F4xx_StdPeriph_Driver/src/stm32f4xx_hash.c ****     bitstatus = SET;
 1073              		.loc 1 656 0
 1074 0054 4FF00103 		mov	r3, #1
 1075 0058 FB73     		strb	r3, [r7, #15]
 1076 005a 02E0     		b	.L45
 1077              	.L44:
 657:App/STM32F4-Discovery/Libraries/STM32F4xx_StdPeriph_Driver/src/stm32f4xx_hash.c ****   }
 658:App/STM32F4-Discovery/Libraries/STM32F4xx_StdPeriph_Driver/src/stm32f4xx_hash.c ****   else
 659:App/STM32F4-Discovery/Libraries/STM32F4xx_StdPeriph_Driver/src/stm32f4xx_hash.c ****   {
 660:App/STM32F4-Discovery/Libraries/STM32F4xx_StdPeriph_Driver/src/stm32f4xx_hash.c ****     /* HASH_IT is reset */
 661:App/STM32F4-Discovery/Libraries/STM32F4xx_StdPeriph_Driver/src/stm32f4xx_hash.c ****     bitstatus = RESET;
 1078              		.loc 1 661 0
 1079 005c 4FF00003 		mov	r3, #0
 1080 0060 FB73     		strb	r3, [r7, #15]
 1081              	.L45:
 662:App/STM32F4-Discovery/Libraries/STM32F4xx_StdPeriph_Driver/src/stm32f4xx_hash.c ****   }
 663:App/STM32F4-Discovery/Libraries/STM32F4xx_StdPeriph_Driver/src/stm32f4xx_hash.c ****   /* Return the HASH_IT status */
 664:App/STM32F4-Discovery/Libraries/STM32F4xx_StdPeriph_Driver/src/stm32f4xx_hash.c ****   return bitstatus;
 1082              		.loc 1 664 0
 1083 0062 FB7B     		ldrb	r3, [r7, #15]	@ zero_extendqisi2
 665:App/STM32F4-Discovery/Libraries/STM32F4xx_StdPeriph_Driver/src/stm32f4xx_hash.c **** }
 1084              		.loc 1 665 0
 1085 0064 1846     		mov	r0, r3
 1086 0066 07F11007 		add	r7, r7, #16
 1087 006a BD46     		mov	sp, r7
 1088 006c 80BD     		pop	{r7, pc}
 1089              		.cfi_endproc
 1090              	.LFE125:
 1092 006e 00BF     		.section	.text.HASH_ClearITPendingBit,"ax",%progbits
 1093              		.align	2
 1094              		.global	HASH_ClearITPendingBit
 1095              		.thumb
 1096              		.thumb_func
 1098              	HASH_ClearITPendingBit:
 1099              	.LFB126:
 666:App/STM32F4-Discovery/Libraries/STM32F4xx_StdPeriph_Driver/src/stm32f4xx_hash.c **** 
 667:App/STM32F4-Discovery/Libraries/STM32F4xx_StdPeriph_Driver/src/stm32f4xx_hash.c **** /**
 668:App/STM32F4-Discovery/Libraries/STM32F4xx_StdPeriph_Driver/src/stm32f4xx_hash.c ****   * @brief  Clears the HASH interrupt pending bit(s).
 669:App/STM32F4-Discovery/Libraries/STM32F4xx_StdPeriph_Driver/src/stm32f4xx_hash.c ****   * @param  HASH_IT: specifies the HASH interrupt pending bit(s) to clear.
 670:App/STM32F4-Discovery/Libraries/STM32F4xx_StdPeriph_Driver/src/stm32f4xx_hash.c ****   *          This parameter can be any combination of the following values:
 671:App/STM32F4-Discovery/Libraries/STM32F4xx_StdPeriph_Driver/src/stm32f4xx_hash.c ****   *            @arg HASH_IT_DINI: Data Input interrupt
 672:App/STM32F4-Discovery/Libraries/STM32F4xx_StdPeriph_Driver/src/stm32f4xx_hash.c ****   *            @arg HASH_IT_DCI: Digest Calculation Completion Interrupt
 673:App/STM32F4-Discovery/Libraries/STM32F4xx_StdPeriph_Driver/src/stm32f4xx_hash.c ****   * @retval None
 674:App/STM32F4-Discovery/Libraries/STM32F4xx_StdPeriph_Driver/src/stm32f4xx_hash.c ****   */
 675:App/STM32F4-Discovery/Libraries/STM32F4xx_StdPeriph_Driver/src/stm32f4xx_hash.c **** void HASH_ClearITPendingBit(uint8_t HASH_IT)
 676:App/STM32F4-Discovery/Libraries/STM32F4xx_StdPeriph_Driver/src/stm32f4xx_hash.c **** {
 1100              		.loc 1 676 0
 1101              		.cfi_startproc
 1102              		@ args = 0, pretend = 0, frame = 8
 1103              		@ frame_needed = 1, uses_anonymous_args = 0
 1104 0000 80B5     		push	{r7, lr}
 1105              	.LCFI44:
 1106              		.cfi_def_cfa_offset 8
 1107              		.cfi_offset 7, -8
 1108              		.cfi_offset 14, -4
 1109 0002 82B0     		sub	sp, sp, #8
 1110              	.LCFI45:
 1111              		.cfi_def_cfa_offset 16
 1112 0004 00AF     		add	r7, sp, #0
 1113              	.LCFI46:
 1114              		.cfi_def_cfa_register 7
 1115 0006 0346     		mov	r3, r0
 1116 0008 FB71     		strb	r3, [r7, #7]
 677:App/STM32F4-Discovery/Libraries/STM32F4xx_StdPeriph_Driver/src/stm32f4xx_hash.c ****   /* Check the parameters */
 678:App/STM32F4-Discovery/Libraries/STM32F4xx_StdPeriph_Driver/src/stm32f4xx_hash.c ****   assert_param(IS_HASH_IT(HASH_IT));
 1117              		.loc 1 678 0
 1118 000a FB79     		ldrb	r3, [r7, #7]	@ zero_extendqisi2
 1119 000c 03F0FC03 		and	r3, r3, #252
 1120 0010 002B     		cmp	r3, #0
 1121 0012 02D1     		bne	.L48
 1122              		.loc 1 678 0 is_stmt 0 discriminator 2
 1123 0014 FB79     		ldrb	r3, [r7, #7]	@ zero_extendqisi2
 1124 0016 002B     		cmp	r3, #0
 1125 0018 07D1     		bne	.L49
 1126              	.L48:
 1127              		.loc 1 678 0 discriminator 1
 1128 001a 40F20000 		movw	r0, #:lower16:.LC0
 1129 001e C0F20000 		movt	r0, #:upper16:.LC0
 1130 0022 40F2A621 		movw	r1, #678
 1131 0026 FFF7FEFF 		bl	assert_failed
 1132              	.L49:
 679:App/STM32F4-Discovery/Libraries/STM32F4xx_StdPeriph_Driver/src/stm32f4xx_hash.c **** 
 680:App/STM32F4-Discovery/Libraries/STM32F4xx_StdPeriph_Driver/src/stm32f4xx_hash.c ****   /* Clear the selected HASH interrupt pending bit */
 681:App/STM32F4-Discovery/Libraries/STM32F4xx_StdPeriph_Driver/src/stm32f4xx_hash.c ****   HASH->SR = (uint8_t)~HASH_IT;
 1133              		.loc 1 681 0 is_stmt 1
 1134 002a 4FF48063 		mov	r3, #1024
 1135 002e C5F20603 		movt	r3, 20486
 1136 0032 FA79     		ldrb	r2, [r7, #7]
 1137 0034 6FEA0202 		mvn	r2, r2
 1138 0038 D2B2     		uxtb	r2, r2
 1139 003a 5A62     		str	r2, [r3, #36]
 682:App/STM32F4-Discovery/Libraries/STM32F4xx_StdPeriph_Driver/src/stm32f4xx_hash.c **** }
 1140              		.loc 1 682 0
 1141 003c 07F10807 		add	r7, r7, #8
 1142 0040 BD46     		mov	sp, r7
 1143 0042 80BD     		pop	{r7, pc}
 1144              		.cfi_endproc
 1145              	.LFE126:
 1147              		.text
 1148              	.Letext0:
 1149              		.file 2 "/home/thanhtruong/embedded-development/toolchain/gcc-arm-none-eabi-4_7-2013q1/bin/../lib/
 1150              		.file 3 "App/STM32F4-Discovery/Libraries/CMSIS/ST/STM32F4xx/Include/stm32f4xx.h"
 1151              		.file 4 "App/STM32F4-Discovery/Libraries/STM32F4xx_StdPeriph_Driver/inc/stm32f4xx_hash.h"
 1152              		.file 5 "App/STM32F4-Discovery/Libraries/CMSIS/Include/core_cm4.h"