   1              		.syntax unified
   2              		.cpu cortex-m4
   3              		.eabi_attribute 27, 3
   4              		.fpu fpv4-sp-d16
   5              		.eabi_attribute 20, 1
   6              		.eabi_attribute 21, 1
   7              		.eabi_attribute 23, 3
   8              		.eabi_attribute 24, 1
   9              		.eabi_attribute 25, 1
  10              		.eabi_attribute 26, 1
  11              		.eabi_attribute 30, 6
  12              		.eabi_attribute 34, 1
  13              		.eabi_attribute 18, 4
  14              		.thumb
  15              		.file	"stm32f4xx_cryp_aes.c"
  16              		.text
  17              	.Ltext0:
  18              		.cfi_sections	.debug_frame
  19              		.section	.text.CRYP_AES_ECB,"ax",%progbits
  20              		.align	2
  21              		.global	CRYP_AES_ECB
  22              		.thumb
  23              		.thumb_func
  25              	CRYP_AES_ECB:
  26              	.LFB110:
  27              		.file 1 "App/STM32F4-Discovery/Libraries/STM32F4xx_StdPeriph_Driver/src/stm32f4xx_cryp_aes.c"
   1:App/STM32F4-Discovery/Libraries/STM32F4xx_StdPeriph_Driver/src/stm32f4xx_cryp_aes.c **** /**
   2:App/STM32F4-Discovery/Libraries/STM32F4xx_StdPeriph_Driver/src/stm32f4xx_cryp_aes.c ****   ******************************************************************************
   3:App/STM32F4-Discovery/Libraries/STM32F4xx_StdPeriph_Driver/src/stm32f4xx_cryp_aes.c ****   * @file    stm32f4xx_cryp_aes.c
   4:App/STM32F4-Discovery/Libraries/STM32F4xx_StdPeriph_Driver/src/stm32f4xx_cryp_aes.c ****   * @author  MCD Application Team
   5:App/STM32F4-Discovery/Libraries/STM32F4xx_StdPeriph_Driver/src/stm32f4xx_cryp_aes.c ****   * @version V1.0.0
   6:App/STM32F4-Discovery/Libraries/STM32F4xx_StdPeriph_Driver/src/stm32f4xx_cryp_aes.c ****   * @date    30-September-2011
   7:App/STM32F4-Discovery/Libraries/STM32F4xx_StdPeriph_Driver/src/stm32f4xx_cryp_aes.c ****   * @brief   This file provides high level functions to encrypt and decrypt an 
   8:App/STM32F4-Discovery/Libraries/STM32F4xx_StdPeriph_Driver/src/stm32f4xx_cryp_aes.c ****   *          input message using AES in ECB/CBC/CTR modes.
   9:App/STM32F4-Discovery/Libraries/STM32F4xx_StdPeriph_Driver/src/stm32f4xx_cryp_aes.c ****   *          It uses the stm32f4xx_cryp.c/.h drivers to access the STM32F4xx CRYP
  10:App/STM32F4-Discovery/Libraries/STM32F4xx_StdPeriph_Driver/src/stm32f4xx_cryp_aes.c ****   *          peripheral.
  11:App/STM32F4-Discovery/Libraries/STM32F4xx_StdPeriph_Driver/src/stm32f4xx_cryp_aes.c ****   *
  12:App/STM32F4-Discovery/Libraries/STM32F4xx_StdPeriph_Driver/src/stm32f4xx_cryp_aes.c ****   *  @verbatim
  13:App/STM32F4-Discovery/Libraries/STM32F4xx_StdPeriph_Driver/src/stm32f4xx_cryp_aes.c ****   *
  14:App/STM32F4-Discovery/Libraries/STM32F4xx_StdPeriph_Driver/src/stm32f4xx_cryp_aes.c ****   *          ===================================================================
  15:App/STM32F4-Discovery/Libraries/STM32F4xx_StdPeriph_Driver/src/stm32f4xx_cryp_aes.c ****   *                                   How to use this driver
  16:App/STM32F4-Discovery/Libraries/STM32F4xx_StdPeriph_Driver/src/stm32f4xx_cryp_aes.c ****   *          ===================================================================
  17:App/STM32F4-Discovery/Libraries/STM32F4xx_StdPeriph_Driver/src/stm32f4xx_cryp_aes.c ****   *          1. Enable The CRYP controller clock using 
  18:App/STM32F4-Discovery/Libraries/STM32F4xx_StdPeriph_Driver/src/stm32f4xx_cryp_aes.c ****   *            RCC_AHB2PeriphClockCmd(RCC_AHB2Periph_CRYP, ENABLE); function.
  19:App/STM32F4-Discovery/Libraries/STM32F4xx_StdPeriph_Driver/src/stm32f4xx_cryp_aes.c ****   *
  20:App/STM32F4-Discovery/Libraries/STM32F4xx_StdPeriph_Driver/src/stm32f4xx_cryp_aes.c ****   *          2. Encrypt and decrypt using AES in ECB Mode using CRYP_AES_ECB()
  21:App/STM32F4-Discovery/Libraries/STM32F4xx_StdPeriph_Driver/src/stm32f4xx_cryp_aes.c ****   *             function.
  22:App/STM32F4-Discovery/Libraries/STM32F4xx_StdPeriph_Driver/src/stm32f4xx_cryp_aes.c ****   *
  23:App/STM32F4-Discovery/Libraries/STM32F4xx_StdPeriph_Driver/src/stm32f4xx_cryp_aes.c ****   *          3. Encrypt and decrypt using AES in CBC Mode using CRYP_AES_CBC()
  24:App/STM32F4-Discovery/Libraries/STM32F4xx_StdPeriph_Driver/src/stm32f4xx_cryp_aes.c ****   *             function.
  25:App/STM32F4-Discovery/Libraries/STM32F4xx_StdPeriph_Driver/src/stm32f4xx_cryp_aes.c ****   *
  26:App/STM32F4-Discovery/Libraries/STM32F4xx_StdPeriph_Driver/src/stm32f4xx_cryp_aes.c ****   *          4. Encrypt and decrypt using AES in CTR Mode using CRYP_AES_CTR()
  27:App/STM32F4-Discovery/Libraries/STM32F4xx_StdPeriph_Driver/src/stm32f4xx_cryp_aes.c ****   *             function.
  28:App/STM32F4-Discovery/Libraries/STM32F4xx_StdPeriph_Driver/src/stm32f4xx_cryp_aes.c ****   *
  29:App/STM32F4-Discovery/Libraries/STM32F4xx_StdPeriph_Driver/src/stm32f4xx_cryp_aes.c ****   *  @endverbatim
  30:App/STM32F4-Discovery/Libraries/STM32F4xx_StdPeriph_Driver/src/stm32f4xx_cryp_aes.c ****   *
  31:App/STM32F4-Discovery/Libraries/STM32F4xx_StdPeriph_Driver/src/stm32f4xx_cryp_aes.c ****   ******************************************************************************
  32:App/STM32F4-Discovery/Libraries/STM32F4xx_StdPeriph_Driver/src/stm32f4xx_cryp_aes.c ****   * @attention
  33:App/STM32F4-Discovery/Libraries/STM32F4xx_StdPeriph_Driver/src/stm32f4xx_cryp_aes.c ****   *
  34:App/STM32F4-Discovery/Libraries/STM32F4xx_StdPeriph_Driver/src/stm32f4xx_cryp_aes.c ****   * THE PRESENT FIRMWARE WHICH IS FOR GUIDANCE ONLY AIMS AT PROVIDING CUSTOMERS
  35:App/STM32F4-Discovery/Libraries/STM32F4xx_StdPeriph_Driver/src/stm32f4xx_cryp_aes.c ****   * WITH CODING INFORMATION REGARDING THEIR PRODUCTS IN ORDER FOR THEM TO SAVE
  36:App/STM32F4-Discovery/Libraries/STM32F4xx_StdPeriph_Driver/src/stm32f4xx_cryp_aes.c ****   * TIME. AS A RESULT, STMICROELECTRONICS SHALL NOT BE HELD LIABLE FOR ANY
  37:App/STM32F4-Discovery/Libraries/STM32F4xx_StdPeriph_Driver/src/stm32f4xx_cryp_aes.c ****   * DIRECT, INDIRECT OR CONSEQUENTIAL DAMAGES WITH RESPECT TO ANY CLAIMS ARISING
  38:App/STM32F4-Discovery/Libraries/STM32F4xx_StdPeriph_Driver/src/stm32f4xx_cryp_aes.c ****   * FROM THE CONTENT OF SUCH FIRMWARE AND/OR THE USE MADE BY CUSTOMERS OF THE
  39:App/STM32F4-Discovery/Libraries/STM32F4xx_StdPeriph_Driver/src/stm32f4xx_cryp_aes.c ****   * CODING INFORMATION CONTAINED HEREIN IN CONNECTION WITH THEIR PRODUCTS.
  40:App/STM32F4-Discovery/Libraries/STM32F4xx_StdPeriph_Driver/src/stm32f4xx_cryp_aes.c ****   *
  41:App/STM32F4-Discovery/Libraries/STM32F4xx_StdPeriph_Driver/src/stm32f4xx_cryp_aes.c ****   * <h2><center>&copy; COPYRIGHT 2011 STMicroelectronics</center></h2>
  42:App/STM32F4-Discovery/Libraries/STM32F4xx_StdPeriph_Driver/src/stm32f4xx_cryp_aes.c ****   ******************************************************************************  
  43:App/STM32F4-Discovery/Libraries/STM32F4xx_StdPeriph_Driver/src/stm32f4xx_cryp_aes.c ****   */
  44:App/STM32F4-Discovery/Libraries/STM32F4xx_StdPeriph_Driver/src/stm32f4xx_cryp_aes.c **** 
  45:App/STM32F4-Discovery/Libraries/STM32F4xx_StdPeriph_Driver/src/stm32f4xx_cryp_aes.c **** /* Includes ------------------------------------------------------------------*/
  46:App/STM32F4-Discovery/Libraries/STM32F4xx_StdPeriph_Driver/src/stm32f4xx_cryp_aes.c **** #include "stm32f4xx_cryp.h"
  47:App/STM32F4-Discovery/Libraries/STM32F4xx_StdPeriph_Driver/src/stm32f4xx_cryp_aes.c **** 
  48:App/STM32F4-Discovery/Libraries/STM32F4xx_StdPeriph_Driver/src/stm32f4xx_cryp_aes.c **** /** @addtogroup STM32F4xx_StdPeriph_Driver
  49:App/STM32F4-Discovery/Libraries/STM32F4xx_StdPeriph_Driver/src/stm32f4xx_cryp_aes.c ****   * @{
  50:App/STM32F4-Discovery/Libraries/STM32F4xx_StdPeriph_Driver/src/stm32f4xx_cryp_aes.c ****   */
  51:App/STM32F4-Discovery/Libraries/STM32F4xx_StdPeriph_Driver/src/stm32f4xx_cryp_aes.c **** 
  52:App/STM32F4-Discovery/Libraries/STM32F4xx_StdPeriph_Driver/src/stm32f4xx_cryp_aes.c **** /** @defgroup CRYP 
  53:App/STM32F4-Discovery/Libraries/STM32F4xx_StdPeriph_Driver/src/stm32f4xx_cryp_aes.c ****   * @brief CRYP driver modules
  54:App/STM32F4-Discovery/Libraries/STM32F4xx_StdPeriph_Driver/src/stm32f4xx_cryp_aes.c ****   * @{
  55:App/STM32F4-Discovery/Libraries/STM32F4xx_StdPeriph_Driver/src/stm32f4xx_cryp_aes.c ****   */
  56:App/STM32F4-Discovery/Libraries/STM32F4xx_StdPeriph_Driver/src/stm32f4xx_cryp_aes.c **** 
  57:App/STM32F4-Discovery/Libraries/STM32F4xx_StdPeriph_Driver/src/stm32f4xx_cryp_aes.c **** /* Private typedef -----------------------------------------------------------*/
  58:App/STM32F4-Discovery/Libraries/STM32F4xx_StdPeriph_Driver/src/stm32f4xx_cryp_aes.c **** /* Private define ------------------------------------------------------------*/
  59:App/STM32F4-Discovery/Libraries/STM32F4xx_StdPeriph_Driver/src/stm32f4xx_cryp_aes.c **** #define AESBUSY_TIMEOUT    ((uint32_t) 0x00010000)
  60:App/STM32F4-Discovery/Libraries/STM32F4xx_StdPeriph_Driver/src/stm32f4xx_cryp_aes.c **** 
  61:App/STM32F4-Discovery/Libraries/STM32F4xx_StdPeriph_Driver/src/stm32f4xx_cryp_aes.c **** /* Private macro -------------------------------------------------------------*/
  62:App/STM32F4-Discovery/Libraries/STM32F4xx_StdPeriph_Driver/src/stm32f4xx_cryp_aes.c **** /* Private variables ---------------------------------------------------------*/
  63:App/STM32F4-Discovery/Libraries/STM32F4xx_StdPeriph_Driver/src/stm32f4xx_cryp_aes.c **** /* Private function prototypes -----------------------------------------------*/
  64:App/STM32F4-Discovery/Libraries/STM32F4xx_StdPeriph_Driver/src/stm32f4xx_cryp_aes.c **** /* Private functions ---------------------------------------------------------*/
  65:App/STM32F4-Discovery/Libraries/STM32F4xx_StdPeriph_Driver/src/stm32f4xx_cryp_aes.c **** 
  66:App/STM32F4-Discovery/Libraries/STM32F4xx_StdPeriph_Driver/src/stm32f4xx_cryp_aes.c **** /** @defgroup CRYP_Private_Functions
  67:App/STM32F4-Discovery/Libraries/STM32F4xx_StdPeriph_Driver/src/stm32f4xx_cryp_aes.c ****   * @{
  68:App/STM32F4-Discovery/Libraries/STM32F4xx_StdPeriph_Driver/src/stm32f4xx_cryp_aes.c ****   */ 
  69:App/STM32F4-Discovery/Libraries/STM32F4xx_StdPeriph_Driver/src/stm32f4xx_cryp_aes.c **** 
  70:App/STM32F4-Discovery/Libraries/STM32F4xx_StdPeriph_Driver/src/stm32f4xx_cryp_aes.c **** /** @defgroup CRYP_Group6 High Level AES functions
  71:App/STM32F4-Discovery/Libraries/STM32F4xx_StdPeriph_Driver/src/stm32f4xx_cryp_aes.c ****  *  @brief   High Level AES functions 
  72:App/STM32F4-Discovery/Libraries/STM32F4xx_StdPeriph_Driver/src/stm32f4xx_cryp_aes.c ****  *
  73:App/STM32F4-Discovery/Libraries/STM32F4xx_StdPeriph_Driver/src/stm32f4xx_cryp_aes.c **** @verbatim   
  74:App/STM32F4-Discovery/Libraries/STM32F4xx_StdPeriph_Driver/src/stm32f4xx_cryp_aes.c ****  ===============================================================================
  75:App/STM32F4-Discovery/Libraries/STM32F4xx_StdPeriph_Driver/src/stm32f4xx_cryp_aes.c ****                           High Level AES functions
  76:App/STM32F4-Discovery/Libraries/STM32F4xx_StdPeriph_Driver/src/stm32f4xx_cryp_aes.c ****  ===============================================================================
  77:App/STM32F4-Discovery/Libraries/STM32F4xx_StdPeriph_Driver/src/stm32f4xx_cryp_aes.c **** 
  78:App/STM32F4-Discovery/Libraries/STM32F4xx_StdPeriph_Driver/src/stm32f4xx_cryp_aes.c **** 
  79:App/STM32F4-Discovery/Libraries/STM32F4xx_StdPeriph_Driver/src/stm32f4xx_cryp_aes.c **** @endverbatim
  80:App/STM32F4-Discovery/Libraries/STM32F4xx_StdPeriph_Driver/src/stm32f4xx_cryp_aes.c ****   * @{
  81:App/STM32F4-Discovery/Libraries/STM32F4xx_StdPeriph_Driver/src/stm32f4xx_cryp_aes.c ****   */
  82:App/STM32F4-Discovery/Libraries/STM32F4xx_StdPeriph_Driver/src/stm32f4xx_cryp_aes.c **** 
  83:App/STM32F4-Discovery/Libraries/STM32F4xx_StdPeriph_Driver/src/stm32f4xx_cryp_aes.c **** /**
  84:App/STM32F4-Discovery/Libraries/STM32F4xx_StdPeriph_Driver/src/stm32f4xx_cryp_aes.c ****   * @brief  Encrypt and decrypt using AES in ECB Mode
  85:App/STM32F4-Discovery/Libraries/STM32F4xx_StdPeriph_Driver/src/stm32f4xx_cryp_aes.c ****   * @param  Mode: encryption or decryption Mode.
  86:App/STM32F4-Discovery/Libraries/STM32F4xx_StdPeriph_Driver/src/stm32f4xx_cryp_aes.c ****   *          This parameter can be one of the following values:
  87:App/STM32F4-Discovery/Libraries/STM32F4xx_StdPeriph_Driver/src/stm32f4xx_cryp_aes.c ****   *            @arg MODE_ENCRYPT: Encryption
  88:App/STM32F4-Discovery/Libraries/STM32F4xx_StdPeriph_Driver/src/stm32f4xx_cryp_aes.c ****   *            @arg MODE_DECRYPT: Decryption
  89:App/STM32F4-Discovery/Libraries/STM32F4xx_StdPeriph_Driver/src/stm32f4xx_cryp_aes.c ****   * @param  Key: Key used for AES algorithm.
  90:App/STM32F4-Discovery/Libraries/STM32F4xx_StdPeriph_Driver/src/stm32f4xx_cryp_aes.c ****   * @param  Keysize: length of the Key, must be a 128, 192 or 256.
  91:App/STM32F4-Discovery/Libraries/STM32F4xx_StdPeriph_Driver/src/stm32f4xx_cryp_aes.c ****   * @param  Input: pointer to the Input buffer.
  92:App/STM32F4-Discovery/Libraries/STM32F4xx_StdPeriph_Driver/src/stm32f4xx_cryp_aes.c ****   * @param  Ilength: length of the Input buffer, must be a multiple of 16.
  93:App/STM32F4-Discovery/Libraries/STM32F4xx_StdPeriph_Driver/src/stm32f4xx_cryp_aes.c ****   * @param  Output: pointer to the returned buffer.
  94:App/STM32F4-Discovery/Libraries/STM32F4xx_StdPeriph_Driver/src/stm32f4xx_cryp_aes.c ****   * @retval An ErrorStatus enumeration value:
  95:App/STM32F4-Discovery/Libraries/STM32F4xx_StdPeriph_Driver/src/stm32f4xx_cryp_aes.c ****   *          - SUCCESS: Operation done
  96:App/STM32F4-Discovery/Libraries/STM32F4xx_StdPeriph_Driver/src/stm32f4xx_cryp_aes.c ****   *          - ERROR: Operation failed
  97:App/STM32F4-Discovery/Libraries/STM32F4xx_StdPeriph_Driver/src/stm32f4xx_cryp_aes.c ****   */
  98:App/STM32F4-Discovery/Libraries/STM32F4xx_StdPeriph_Driver/src/stm32f4xx_cryp_aes.c **** ErrorStatus CRYP_AES_ECB(uint8_t Mode, uint8_t* Key, uint16_t Keysize,
  99:App/STM32F4-Discovery/Libraries/STM32F4xx_StdPeriph_Driver/src/stm32f4xx_cryp_aes.c ****                          uint8_t* Input, uint32_t Ilength, uint8_t* Output)
 100:App/STM32F4-Discovery/Libraries/STM32F4xx_StdPeriph_Driver/src/stm32f4xx_cryp_aes.c **** {
  28              		.loc 1 100 0
  29              		.cfi_startproc
  30              		@ args = 8, pretend = 0, frame = 232
  31              		@ frame_needed = 1, uses_anonymous_args = 0
  32 0000 90B5     		push	{r4, r7, lr}
  33              	.LCFI0:
  34              		.cfi_def_cfa_offset 12
  35              		.cfi_offset 4, -12
  36              		.cfi_offset 7, -8
  37              		.cfi_offset 14, -4
  38 0002 BBB0     		sub	sp, sp, #236
  39              	.LCFI1:
  40              		.cfi_def_cfa_offset 248
  41 0004 00AF     		add	r7, sp, #0
  42              	.LCFI2:
  43              		.cfi_def_cfa_register 7
  44 0006 B960     		str	r1, [r7, #8]
  45 0008 7B60     		str	r3, [r7, #4]
  46 000a 0346     		mov	r3, r0
  47 000c FB73     		strb	r3, [r7, #15]
  48 000e 1346     		mov	r3, r2	@ movhi
  49 0010 BB81     		strh	r3, [r7, #12]	@ movhi
 101:App/STM32F4-Discovery/Libraries/STM32F4xx_StdPeriph_Driver/src/stm32f4xx_cryp_aes.c ****   CRYP_InitTypeDef AES_CRYP_InitStructure;
 102:App/STM32F4-Discovery/Libraries/STM32F4xx_StdPeriph_Driver/src/stm32f4xx_cryp_aes.c ****   CRYP_KeyInitTypeDef AES_CRYP_KeyInitStructure;
 103:App/STM32F4-Discovery/Libraries/STM32F4xx_StdPeriph_Driver/src/stm32f4xx_cryp_aes.c ****   __IO uint32_t counter = 0;
  50              		.loc 1 103 0
  51 0012 4FF00003 		mov	r3, #0
  52 0016 7B61     		str	r3, [r7, #20]
 104:App/STM32F4-Discovery/Libraries/STM32F4xx_StdPeriph_Driver/src/stm32f4xx_cryp_aes.c ****   uint32_t busystatus = 0;
  53              		.loc 1 104 0
  54 0018 4FF00003 		mov	r3, #0
  55 001c C7F8D430 		str	r3, [r7, #212]
 105:App/STM32F4-Discovery/Libraries/STM32F4xx_StdPeriph_Driver/src/stm32f4xx_cryp_aes.c ****   ErrorStatus status = SUCCESS;
  56              		.loc 1 105 0
  57 0020 4FF00103 		mov	r3, #1
  58 0024 87F8E730 		strb	r3, [r7, #231]
 106:App/STM32F4-Discovery/Libraries/STM32F4xx_StdPeriph_Driver/src/stm32f4xx_cryp_aes.c ****   uint32_t keyaddr    = (uint32_t)Key;
  59              		.loc 1 106 0
  60 0028 BB68     		ldr	r3, [r7, #8]
  61 002a C7F8D030 		str	r3, [r7, #208]
 107:App/STM32F4-Discovery/Libraries/STM32F4xx_StdPeriph_Driver/src/stm32f4xx_cryp_aes.c ****   uint32_t inputaddr  = (uint32_t)Input;
  62              		.loc 1 107 0
  63 002e 7B68     		ldr	r3, [r7, #4]
  64 0030 C7F8E030 		str	r3, [r7, #224]
 108:App/STM32F4-Discovery/Libraries/STM32F4xx_StdPeriph_Driver/src/stm32f4xx_cryp_aes.c ****   uint32_t outputaddr = (uint32_t)Output;
  65              		.loc 1 108 0
  66 0034 D7F8FC30 		ldr	r3, [r7, #252]
  67 0038 C7F8DC30 		str	r3, [r7, #220]
 109:App/STM32F4-Discovery/Libraries/STM32F4xx_StdPeriph_Driver/src/stm32f4xx_cryp_aes.c ****   uint32_t i = 0;
  68              		.loc 1 109 0
  69 003c 4FF00003 		mov	r3, #0
  70 0040 C7F8D830 		str	r3, [r7, #216]
 110:App/STM32F4-Discovery/Libraries/STM32F4xx_StdPeriph_Driver/src/stm32f4xx_cryp_aes.c **** 
 111:App/STM32F4-Discovery/Libraries/STM32F4xx_StdPeriph_Driver/src/stm32f4xx_cryp_aes.c ****   /* Crypto structures initialisation*/
 112:App/STM32F4-Discovery/Libraries/STM32F4xx_StdPeriph_Driver/src/stm32f4xx_cryp_aes.c ****   CRYP_KeyStructInit(&AES_CRYP_KeyInitStructure);
  71              		.loc 1 112 0
  72 0044 07F11803 		add	r3, r7, #24
  73 0048 1846     		mov	r0, r3
  74 004a FFF7FEFF 		bl	CRYP_KeyStructInit
 113:App/STM32F4-Discovery/Libraries/STM32F4xx_StdPeriph_Driver/src/stm32f4xx_cryp_aes.c **** 
 114:App/STM32F4-Discovery/Libraries/STM32F4xx_StdPeriph_Driver/src/stm32f4xx_cryp_aes.c ****   switch(Keysize)
  75              		.loc 1 114 0
  76 004e BB89     		ldrh	r3, [r7, #12]
  77 0050 C02B     		cmp	r3, #192
  78 0052 50D0     		beq	.L4
  79 0054 B3F5807F 		cmp	r3, #256
  80 0058 00F0BD80 		beq	.L5
  81 005c 802B     		cmp	r3, #128
  82 005e 40F03081 		bne	.L38
  83              	.L3:
 115:App/STM32F4-Discovery/Libraries/STM32F4xx_StdPeriph_Driver/src/stm32f4xx_cryp_aes.c ****   {
 116:App/STM32F4-Discovery/Libraries/STM32F4xx_StdPeriph_Driver/src/stm32f4xx_cryp_aes.c ****     case 128:
 117:App/STM32F4-Discovery/Libraries/STM32F4xx_StdPeriph_Driver/src/stm32f4xx_cryp_aes.c ****     AES_CRYP_InitStructure.CRYP_KeySize = CRYP_KeySize_128b;
  84              		.loc 1 117 0
  85 0062 4FF00003 		mov	r3, #0
  86 0066 FB87     		strh	r3, [r7, #62]	@ movhi
 118:App/STM32F4-Discovery/Libraries/STM32F4xx_StdPeriph_Driver/src/stm32f4xx_cryp_aes.c ****     AES_CRYP_KeyInitStructure.CRYP_Key2Left = __REV(*(uint32_t*)(keyaddr));
  87              		.loc 1 118 0
  88 0068 D7F8D030 		ldr	r3, [r7, #208]
  89 006c 1B68     		ldr	r3, [r3, #0]
  90 006e C7F8CC30 		str	r3, [r7, #204]
  91              	.LBB126:
  92              	.LBB127:
  93              		.file 2 "App/STM32F4-Discovery/Libraries/CMSIS/Include/core_cmInstr.h"
   1:App/STM32F4-Discovery/Libraries/CMSIS/Include/core_cmInstr.h **** /**************************************************************************//**
   2:App/STM32F4-Discovery/Libraries/CMSIS/Include/core_cmInstr.h ****  * @file     core_cmInstr.h
   3:App/STM32F4-Discovery/Libraries/CMSIS/Include/core_cmInstr.h ****  * @brief    CMSIS Cortex-M Core Instruction Access Header File
   4:App/STM32F4-Discovery/Libraries/CMSIS/Include/core_cmInstr.h ****  * @version  V2.10
   5:App/STM32F4-Discovery/Libraries/CMSIS/Include/core_cmInstr.h ****  * @date     19. July 2011
   6:App/STM32F4-Discovery/Libraries/CMSIS/Include/core_cmInstr.h ****  *
   7:App/STM32F4-Discovery/Libraries/CMSIS/Include/core_cmInstr.h ****  * @note
   8:App/STM32F4-Discovery/Libraries/CMSIS/Include/core_cmInstr.h ****  * Copyright (C) 2009-2011 ARM Limited. All rights reserved.
   9:App/STM32F4-Discovery/Libraries/CMSIS/Include/core_cmInstr.h ****  *
  10:App/STM32F4-Discovery/Libraries/CMSIS/Include/core_cmInstr.h ****  * @par
  11:App/STM32F4-Discovery/Libraries/CMSIS/Include/core_cmInstr.h ****  * ARM Limited (ARM) is supplying this software for use with Cortex-M 
  12:App/STM32F4-Discovery/Libraries/CMSIS/Include/core_cmInstr.h ****  * processor based microcontrollers.  This file can be freely distributed 
  13:App/STM32F4-Discovery/Libraries/CMSIS/Include/core_cmInstr.h ****  * within development tools that are supporting such ARM based processors. 
  14:App/STM32F4-Discovery/Libraries/CMSIS/Include/core_cmInstr.h ****  *
  15:App/STM32F4-Discovery/Libraries/CMSIS/Include/core_cmInstr.h ****  * @par
  16:App/STM32F4-Discovery/Libraries/CMSIS/Include/core_cmInstr.h ****  * THIS SOFTWARE IS PROVIDED "AS IS".  NO WARRANTIES, WHETHER EXPRESS, IMPLIED
  17:App/STM32F4-Discovery/Libraries/CMSIS/Include/core_cmInstr.h ****  * OR STATUTORY, INCLUDING, BUT NOT LIMITED TO, IMPLIED WARRANTIES OF
  18:App/STM32F4-Discovery/Libraries/CMSIS/Include/core_cmInstr.h ****  * MERCHANTABILITY AND FITNESS FOR A PARTICULAR PURPOSE APPLY TO THIS SOFTWARE.
  19:App/STM32F4-Discovery/Libraries/CMSIS/Include/core_cmInstr.h ****  * ARM SHALL NOT, IN ANY CIRCUMSTANCES, BE LIABLE FOR SPECIAL, INCIDENTAL, OR
  20:App/STM32F4-Discovery/Libraries/CMSIS/Include/core_cmInstr.h ****  * CONSEQUENTIAL DAMAGES, FOR ANY REASON WHATSOEVER.
  21:App/STM32F4-Discovery/Libraries/CMSIS/Include/core_cmInstr.h ****  *
  22:App/STM32F4-Discovery/Libraries/CMSIS/Include/core_cmInstr.h ****  ******************************************************************************/
  23:App/STM32F4-Discovery/Libraries/CMSIS/Include/core_cmInstr.h **** 
  24:App/STM32F4-Discovery/Libraries/CMSIS/Include/core_cmInstr.h **** #ifndef __CORE_CMINSTR_H
  25:App/STM32F4-Discovery/Libraries/CMSIS/Include/core_cmInstr.h **** #define __CORE_CMINSTR_H
  26:App/STM32F4-Discovery/Libraries/CMSIS/Include/core_cmInstr.h **** 
  27:App/STM32F4-Discovery/Libraries/CMSIS/Include/core_cmInstr.h **** 
  28:App/STM32F4-Discovery/Libraries/CMSIS/Include/core_cmInstr.h **** /* ##########################  Core Instruction Access  ######################### */
  29:App/STM32F4-Discovery/Libraries/CMSIS/Include/core_cmInstr.h **** /** \defgroup CMSIS_Core_InstructionInterface CMSIS Core Instruction Interface
  30:App/STM32F4-Discovery/Libraries/CMSIS/Include/core_cmInstr.h ****   Access to dedicated instructions
  31:App/STM32F4-Discovery/Libraries/CMSIS/Include/core_cmInstr.h ****   @{
  32:App/STM32F4-Discovery/Libraries/CMSIS/Include/core_cmInstr.h **** */
  33:App/STM32F4-Discovery/Libraries/CMSIS/Include/core_cmInstr.h **** 
  34:App/STM32F4-Discovery/Libraries/CMSIS/Include/core_cmInstr.h **** #if   defined ( __CC_ARM ) /*------------------RealView Compiler -----------------*/
  35:App/STM32F4-Discovery/Libraries/CMSIS/Include/core_cmInstr.h **** /* ARM armcc specific functions */
  36:App/STM32F4-Discovery/Libraries/CMSIS/Include/core_cmInstr.h **** 
  37:App/STM32F4-Discovery/Libraries/CMSIS/Include/core_cmInstr.h **** #if (__ARMCC_VERSION < 400677)
  38:App/STM32F4-Discovery/Libraries/CMSIS/Include/core_cmInstr.h ****   #error "Please use ARM Compiler Toolchain V4.0.677 or later!"
  39:App/STM32F4-Discovery/Libraries/CMSIS/Include/core_cmInstr.h **** #endif
  40:App/STM32F4-Discovery/Libraries/CMSIS/Include/core_cmInstr.h **** 
  41:App/STM32F4-Discovery/Libraries/CMSIS/Include/core_cmInstr.h **** 
  42:App/STM32F4-Discovery/Libraries/CMSIS/Include/core_cmInstr.h **** /** \brief  No Operation
  43:App/STM32F4-Discovery/Libraries/CMSIS/Include/core_cmInstr.h **** 
  44:App/STM32F4-Discovery/Libraries/CMSIS/Include/core_cmInstr.h ****     No Operation does nothing. This instruction can be used for code alignment purposes.
  45:App/STM32F4-Discovery/Libraries/CMSIS/Include/core_cmInstr.h ****  */
  46:App/STM32F4-Discovery/Libraries/CMSIS/Include/core_cmInstr.h **** #define __NOP                             __nop
  47:App/STM32F4-Discovery/Libraries/CMSIS/Include/core_cmInstr.h **** 
  48:App/STM32F4-Discovery/Libraries/CMSIS/Include/core_cmInstr.h **** 
  49:App/STM32F4-Discovery/Libraries/CMSIS/Include/core_cmInstr.h **** /** \brief  Wait For Interrupt
  50:App/STM32F4-Discovery/Libraries/CMSIS/Include/core_cmInstr.h **** 
  51:App/STM32F4-Discovery/Libraries/CMSIS/Include/core_cmInstr.h ****     Wait For Interrupt is a hint instruction that suspends execution
  52:App/STM32F4-Discovery/Libraries/CMSIS/Include/core_cmInstr.h ****     until one of a number of events occurs.
  53:App/STM32F4-Discovery/Libraries/CMSIS/Include/core_cmInstr.h ****  */
  54:App/STM32F4-Discovery/Libraries/CMSIS/Include/core_cmInstr.h **** #define __WFI                             __wfi
  55:App/STM32F4-Discovery/Libraries/CMSIS/Include/core_cmInstr.h **** 
  56:App/STM32F4-Discovery/Libraries/CMSIS/Include/core_cmInstr.h **** 
  57:App/STM32F4-Discovery/Libraries/CMSIS/Include/core_cmInstr.h **** /** \brief  Wait For Event
  58:App/STM32F4-Discovery/Libraries/CMSIS/Include/core_cmInstr.h **** 
  59:App/STM32F4-Discovery/Libraries/CMSIS/Include/core_cmInstr.h ****     Wait For Event is a hint instruction that permits the processor to enter
  60:App/STM32F4-Discovery/Libraries/CMSIS/Include/core_cmInstr.h ****     a low-power state until one of a number of events occurs.
  61:App/STM32F4-Discovery/Libraries/CMSIS/Include/core_cmInstr.h ****  */
  62:App/STM32F4-Discovery/Libraries/CMSIS/Include/core_cmInstr.h **** #define __WFE                             __wfe
  63:App/STM32F4-Discovery/Libraries/CMSIS/Include/core_cmInstr.h **** 
  64:App/STM32F4-Discovery/Libraries/CMSIS/Include/core_cmInstr.h **** 
  65:App/STM32F4-Discovery/Libraries/CMSIS/Include/core_cmInstr.h **** /** \brief  Send Event
  66:App/STM32F4-Discovery/Libraries/CMSIS/Include/core_cmInstr.h **** 
  67:App/STM32F4-Discovery/Libraries/CMSIS/Include/core_cmInstr.h ****     Send Event is a hint instruction. It causes an event to be signaled to the CPU.
  68:App/STM32F4-Discovery/Libraries/CMSIS/Include/core_cmInstr.h ****  */
  69:App/STM32F4-Discovery/Libraries/CMSIS/Include/core_cmInstr.h **** #define __SEV                             __sev
  70:App/STM32F4-Discovery/Libraries/CMSIS/Include/core_cmInstr.h **** 
  71:App/STM32F4-Discovery/Libraries/CMSIS/Include/core_cmInstr.h **** 
  72:App/STM32F4-Discovery/Libraries/CMSIS/Include/core_cmInstr.h **** /** \brief  Instruction Synchronization Barrier
  73:App/STM32F4-Discovery/Libraries/CMSIS/Include/core_cmInstr.h **** 
  74:App/STM32F4-Discovery/Libraries/CMSIS/Include/core_cmInstr.h ****     Instruction Synchronization Barrier flushes the pipeline in the processor, 
  75:App/STM32F4-Discovery/Libraries/CMSIS/Include/core_cmInstr.h ****     so that all instructions following the ISB are fetched from cache or 
  76:App/STM32F4-Discovery/Libraries/CMSIS/Include/core_cmInstr.h ****     memory, after the instruction has been completed.
  77:App/STM32F4-Discovery/Libraries/CMSIS/Include/core_cmInstr.h ****  */
  78:App/STM32F4-Discovery/Libraries/CMSIS/Include/core_cmInstr.h **** #define __ISB()                           __isb(0xF)
  79:App/STM32F4-Discovery/Libraries/CMSIS/Include/core_cmInstr.h **** 
  80:App/STM32F4-Discovery/Libraries/CMSIS/Include/core_cmInstr.h **** 
  81:App/STM32F4-Discovery/Libraries/CMSIS/Include/core_cmInstr.h **** /** \brief  Data Synchronization Barrier
  82:App/STM32F4-Discovery/Libraries/CMSIS/Include/core_cmInstr.h **** 
  83:App/STM32F4-Discovery/Libraries/CMSIS/Include/core_cmInstr.h ****     This function acts as a special kind of Data Memory Barrier. 
  84:App/STM32F4-Discovery/Libraries/CMSIS/Include/core_cmInstr.h ****     It completes when all explicit memory accesses before this instruction complete.
  85:App/STM32F4-Discovery/Libraries/CMSIS/Include/core_cmInstr.h ****  */
  86:App/STM32F4-Discovery/Libraries/CMSIS/Include/core_cmInstr.h **** #define __DSB()                           __dsb(0xF)
  87:App/STM32F4-Discovery/Libraries/CMSIS/Include/core_cmInstr.h **** 
  88:App/STM32F4-Discovery/Libraries/CMSIS/Include/core_cmInstr.h **** 
  89:App/STM32F4-Discovery/Libraries/CMSIS/Include/core_cmInstr.h **** /** \brief  Data Memory Barrier
  90:App/STM32F4-Discovery/Libraries/CMSIS/Include/core_cmInstr.h **** 
  91:App/STM32F4-Discovery/Libraries/CMSIS/Include/core_cmInstr.h ****     This function ensures the apparent order of the explicit memory operations before 
  92:App/STM32F4-Discovery/Libraries/CMSIS/Include/core_cmInstr.h ****     and after the instruction, without ensuring their completion.
  93:App/STM32F4-Discovery/Libraries/CMSIS/Include/core_cmInstr.h ****  */
  94:App/STM32F4-Discovery/Libraries/CMSIS/Include/core_cmInstr.h **** #define __DMB()                           __dmb(0xF)
  95:App/STM32F4-Discovery/Libraries/CMSIS/Include/core_cmInstr.h **** 
  96:App/STM32F4-Discovery/Libraries/CMSIS/Include/core_cmInstr.h **** 
  97:App/STM32F4-Discovery/Libraries/CMSIS/Include/core_cmInstr.h **** /** \brief  Reverse byte order (32 bit)
  98:App/STM32F4-Discovery/Libraries/CMSIS/Include/core_cmInstr.h **** 
  99:App/STM32F4-Discovery/Libraries/CMSIS/Include/core_cmInstr.h ****     This function reverses the byte order in integer value.
 100:App/STM32F4-Discovery/Libraries/CMSIS/Include/core_cmInstr.h **** 
 101:App/STM32F4-Discovery/Libraries/CMSIS/Include/core_cmInstr.h ****     \param [in]    value  Value to reverse
 102:App/STM32F4-Discovery/Libraries/CMSIS/Include/core_cmInstr.h ****     \return               Reversed value
 103:App/STM32F4-Discovery/Libraries/CMSIS/Include/core_cmInstr.h ****  */
 104:App/STM32F4-Discovery/Libraries/CMSIS/Include/core_cmInstr.h **** #define __REV                             __rev
 105:App/STM32F4-Discovery/Libraries/CMSIS/Include/core_cmInstr.h **** 
 106:App/STM32F4-Discovery/Libraries/CMSIS/Include/core_cmInstr.h **** 
 107:App/STM32F4-Discovery/Libraries/CMSIS/Include/core_cmInstr.h **** /** \brief  Reverse byte order (16 bit)
 108:App/STM32F4-Discovery/Libraries/CMSIS/Include/core_cmInstr.h **** 
 109:App/STM32F4-Discovery/Libraries/CMSIS/Include/core_cmInstr.h ****     This function reverses the byte order in two unsigned short values.
 110:App/STM32F4-Discovery/Libraries/CMSIS/Include/core_cmInstr.h **** 
 111:App/STM32F4-Discovery/Libraries/CMSIS/Include/core_cmInstr.h ****     \param [in]    value  Value to reverse
 112:App/STM32F4-Discovery/Libraries/CMSIS/Include/core_cmInstr.h ****     \return               Reversed value
 113:App/STM32F4-Discovery/Libraries/CMSIS/Include/core_cmInstr.h ****  */
 114:App/STM32F4-Discovery/Libraries/CMSIS/Include/core_cmInstr.h **** static __INLINE __ASM uint32_t __REV16(uint32_t value)
 115:App/STM32F4-Discovery/Libraries/CMSIS/Include/core_cmInstr.h **** {
 116:App/STM32F4-Discovery/Libraries/CMSIS/Include/core_cmInstr.h ****   rev16 r0, r0
 117:App/STM32F4-Discovery/Libraries/CMSIS/Include/core_cmInstr.h ****   bx lr
 118:App/STM32F4-Discovery/Libraries/CMSIS/Include/core_cmInstr.h **** }
 119:App/STM32F4-Discovery/Libraries/CMSIS/Include/core_cmInstr.h **** 
 120:App/STM32F4-Discovery/Libraries/CMSIS/Include/core_cmInstr.h **** 
 121:App/STM32F4-Discovery/Libraries/CMSIS/Include/core_cmInstr.h **** /** \brief  Reverse byte order in signed short value
 122:App/STM32F4-Discovery/Libraries/CMSIS/Include/core_cmInstr.h **** 
 123:App/STM32F4-Discovery/Libraries/CMSIS/Include/core_cmInstr.h ****     This function reverses the byte order in a signed short value with sign extension to integer.
 124:App/STM32F4-Discovery/Libraries/CMSIS/Include/core_cmInstr.h **** 
 125:App/STM32F4-Discovery/Libraries/CMSIS/Include/core_cmInstr.h ****     \param [in]    value  Value to reverse
 126:App/STM32F4-Discovery/Libraries/CMSIS/Include/core_cmInstr.h ****     \return               Reversed value
 127:App/STM32F4-Discovery/Libraries/CMSIS/Include/core_cmInstr.h ****  */
 128:App/STM32F4-Discovery/Libraries/CMSIS/Include/core_cmInstr.h **** static __INLINE __ASM int32_t __REVSH(int32_t value)
 129:App/STM32F4-Discovery/Libraries/CMSIS/Include/core_cmInstr.h **** {
 130:App/STM32F4-Discovery/Libraries/CMSIS/Include/core_cmInstr.h ****   revsh r0, r0
 131:App/STM32F4-Discovery/Libraries/CMSIS/Include/core_cmInstr.h ****   bx lr
 132:App/STM32F4-Discovery/Libraries/CMSIS/Include/core_cmInstr.h **** }
 133:App/STM32F4-Discovery/Libraries/CMSIS/Include/core_cmInstr.h **** 
 134:App/STM32F4-Discovery/Libraries/CMSIS/Include/core_cmInstr.h **** 
 135:App/STM32F4-Discovery/Libraries/CMSIS/Include/core_cmInstr.h **** #if       (__CORTEX_M >= 0x03)
 136:App/STM32F4-Discovery/Libraries/CMSIS/Include/core_cmInstr.h **** 
 137:App/STM32F4-Discovery/Libraries/CMSIS/Include/core_cmInstr.h **** /** \brief  Reverse bit order of value
 138:App/STM32F4-Discovery/Libraries/CMSIS/Include/core_cmInstr.h **** 
 139:App/STM32F4-Discovery/Libraries/CMSIS/Include/core_cmInstr.h ****     This function reverses the bit order of the given value.
 140:App/STM32F4-Discovery/Libraries/CMSIS/Include/core_cmInstr.h **** 
 141:App/STM32F4-Discovery/Libraries/CMSIS/Include/core_cmInstr.h ****     \param [in]    value  Value to reverse
 142:App/STM32F4-Discovery/Libraries/CMSIS/Include/core_cmInstr.h ****     \return               Reversed value
 143:App/STM32F4-Discovery/Libraries/CMSIS/Include/core_cmInstr.h ****  */
 144:App/STM32F4-Discovery/Libraries/CMSIS/Include/core_cmInstr.h **** #define __RBIT                            __rbit
 145:App/STM32F4-Discovery/Libraries/CMSIS/Include/core_cmInstr.h **** 
 146:App/STM32F4-Discovery/Libraries/CMSIS/Include/core_cmInstr.h **** 
 147:App/STM32F4-Discovery/Libraries/CMSIS/Include/core_cmInstr.h **** /** \brief  LDR Exclusive (8 bit)
 148:App/STM32F4-Discovery/Libraries/CMSIS/Include/core_cmInstr.h **** 
 149:App/STM32F4-Discovery/Libraries/CMSIS/Include/core_cmInstr.h ****     This function performs a exclusive LDR command for 8 bit value.
 150:App/STM32F4-Discovery/Libraries/CMSIS/Include/core_cmInstr.h **** 
 151:App/STM32F4-Discovery/Libraries/CMSIS/Include/core_cmInstr.h ****     \param [in]    ptr  Pointer to data
 152:App/STM32F4-Discovery/Libraries/CMSIS/Include/core_cmInstr.h ****     \return             value of type uint8_t at (*ptr)
 153:App/STM32F4-Discovery/Libraries/CMSIS/Include/core_cmInstr.h ****  */
 154:App/STM32F4-Discovery/Libraries/CMSIS/Include/core_cmInstr.h **** #define __LDREXB(ptr)                     ((uint8_t ) __ldrex(ptr))
 155:App/STM32F4-Discovery/Libraries/CMSIS/Include/core_cmInstr.h **** 
 156:App/STM32F4-Discovery/Libraries/CMSIS/Include/core_cmInstr.h **** 
 157:App/STM32F4-Discovery/Libraries/CMSIS/Include/core_cmInstr.h **** /** \brief  LDR Exclusive (16 bit)
 158:App/STM32F4-Discovery/Libraries/CMSIS/Include/core_cmInstr.h **** 
 159:App/STM32F4-Discovery/Libraries/CMSIS/Include/core_cmInstr.h ****     This function performs a exclusive LDR command for 16 bit values.
 160:App/STM32F4-Discovery/Libraries/CMSIS/Include/core_cmInstr.h **** 
 161:App/STM32F4-Discovery/Libraries/CMSIS/Include/core_cmInstr.h ****     \param [in]    ptr  Pointer to data
 162:App/STM32F4-Discovery/Libraries/CMSIS/Include/core_cmInstr.h ****     \return        value of type uint16_t at (*ptr)
 163:App/STM32F4-Discovery/Libraries/CMSIS/Include/core_cmInstr.h ****  */
 164:App/STM32F4-Discovery/Libraries/CMSIS/Include/core_cmInstr.h **** #define __LDREXH(ptr)                     ((uint16_t) __ldrex(ptr))
 165:App/STM32F4-Discovery/Libraries/CMSIS/Include/core_cmInstr.h **** 
 166:App/STM32F4-Discovery/Libraries/CMSIS/Include/core_cmInstr.h **** 
 167:App/STM32F4-Discovery/Libraries/CMSIS/Include/core_cmInstr.h **** /** \brief  LDR Exclusive (32 bit)
 168:App/STM32F4-Discovery/Libraries/CMSIS/Include/core_cmInstr.h **** 
 169:App/STM32F4-Discovery/Libraries/CMSIS/Include/core_cmInstr.h ****     This function performs a exclusive LDR command for 32 bit values.
 170:App/STM32F4-Discovery/Libraries/CMSIS/Include/core_cmInstr.h **** 
 171:App/STM32F4-Discovery/Libraries/CMSIS/Include/core_cmInstr.h ****     \param [in]    ptr  Pointer to data
 172:App/STM32F4-Discovery/Libraries/CMSIS/Include/core_cmInstr.h ****     \return        value of type uint32_t at (*ptr)
 173:App/STM32F4-Discovery/Libraries/CMSIS/Include/core_cmInstr.h ****  */
 174:App/STM32F4-Discovery/Libraries/CMSIS/Include/core_cmInstr.h **** #define __LDREXW(ptr)                     ((uint32_t ) __ldrex(ptr))
 175:App/STM32F4-Discovery/Libraries/CMSIS/Include/core_cmInstr.h **** 
 176:App/STM32F4-Discovery/Libraries/CMSIS/Include/core_cmInstr.h **** 
 177:App/STM32F4-Discovery/Libraries/CMSIS/Include/core_cmInstr.h **** /** \brief  STR Exclusive (8 bit)
 178:App/STM32F4-Discovery/Libraries/CMSIS/Include/core_cmInstr.h **** 
 179:App/STM32F4-Discovery/Libraries/CMSIS/Include/core_cmInstr.h ****     This function performs a exclusive STR command for 8 bit values.
 180:App/STM32F4-Discovery/Libraries/CMSIS/Include/core_cmInstr.h **** 
 181:App/STM32F4-Discovery/Libraries/CMSIS/Include/core_cmInstr.h ****     \param [in]  value  Value to store
 182:App/STM32F4-Discovery/Libraries/CMSIS/Include/core_cmInstr.h ****     \param [in]    ptr  Pointer to location
 183:App/STM32F4-Discovery/Libraries/CMSIS/Include/core_cmInstr.h ****     \return          0  Function succeeded
 184:App/STM32F4-Discovery/Libraries/CMSIS/Include/core_cmInstr.h ****     \return          1  Function failed
 185:App/STM32F4-Discovery/Libraries/CMSIS/Include/core_cmInstr.h ****  */
 186:App/STM32F4-Discovery/Libraries/CMSIS/Include/core_cmInstr.h **** #define __STREXB(value, ptr)              __strex(value, ptr)
 187:App/STM32F4-Discovery/Libraries/CMSIS/Include/core_cmInstr.h **** 
 188:App/STM32F4-Discovery/Libraries/CMSIS/Include/core_cmInstr.h **** 
 189:App/STM32F4-Discovery/Libraries/CMSIS/Include/core_cmInstr.h **** /** \brief  STR Exclusive (16 bit)
 190:App/STM32F4-Discovery/Libraries/CMSIS/Include/core_cmInstr.h **** 
 191:App/STM32F4-Discovery/Libraries/CMSIS/Include/core_cmInstr.h ****     This function performs a exclusive STR command for 16 bit values.
 192:App/STM32F4-Discovery/Libraries/CMSIS/Include/core_cmInstr.h **** 
 193:App/STM32F4-Discovery/Libraries/CMSIS/Include/core_cmInstr.h ****     \param [in]  value  Value to store
 194:App/STM32F4-Discovery/Libraries/CMSIS/Include/core_cmInstr.h ****     \param [in]    ptr  Pointer to location
 195:App/STM32F4-Discovery/Libraries/CMSIS/Include/core_cmInstr.h ****     \return          0  Function succeeded
 196:App/STM32F4-Discovery/Libraries/CMSIS/Include/core_cmInstr.h ****     \return          1  Function failed
 197:App/STM32F4-Discovery/Libraries/CMSIS/Include/core_cmInstr.h ****  */
 198:App/STM32F4-Discovery/Libraries/CMSIS/Include/core_cmInstr.h **** #define __STREXH(value, ptr)              __strex(value, ptr)
 199:App/STM32F4-Discovery/Libraries/CMSIS/Include/core_cmInstr.h **** 
 200:App/STM32F4-Discovery/Libraries/CMSIS/Include/core_cmInstr.h **** 
 201:App/STM32F4-Discovery/Libraries/CMSIS/Include/core_cmInstr.h **** /** \brief  STR Exclusive (32 bit)
 202:App/STM32F4-Discovery/Libraries/CMSIS/Include/core_cmInstr.h **** 
 203:App/STM32F4-Discovery/Libraries/CMSIS/Include/core_cmInstr.h ****     This function performs a exclusive STR command for 32 bit values.
 204:App/STM32F4-Discovery/Libraries/CMSIS/Include/core_cmInstr.h **** 
 205:App/STM32F4-Discovery/Libraries/CMSIS/Include/core_cmInstr.h ****     \param [in]  value  Value to store
 206:App/STM32F4-Discovery/Libraries/CMSIS/Include/core_cmInstr.h ****     \param [in]    ptr  Pointer to location
 207:App/STM32F4-Discovery/Libraries/CMSIS/Include/core_cmInstr.h ****     \return          0  Function succeeded
 208:App/STM32F4-Discovery/Libraries/CMSIS/Include/core_cmInstr.h ****     \return          1  Function failed
 209:App/STM32F4-Discovery/Libraries/CMSIS/Include/core_cmInstr.h ****  */
 210:App/STM32F4-Discovery/Libraries/CMSIS/Include/core_cmInstr.h **** #define __STREXW(value, ptr)              __strex(value, ptr)
 211:App/STM32F4-Discovery/Libraries/CMSIS/Include/core_cmInstr.h **** 
 212:App/STM32F4-Discovery/Libraries/CMSIS/Include/core_cmInstr.h **** 
 213:App/STM32F4-Discovery/Libraries/CMSIS/Include/core_cmInstr.h **** /** \brief  Remove the exclusive lock
 214:App/STM32F4-Discovery/Libraries/CMSIS/Include/core_cmInstr.h **** 
 215:App/STM32F4-Discovery/Libraries/CMSIS/Include/core_cmInstr.h ****     This function removes the exclusive lock which is created by LDREX.
 216:App/STM32F4-Discovery/Libraries/CMSIS/Include/core_cmInstr.h **** 
 217:App/STM32F4-Discovery/Libraries/CMSIS/Include/core_cmInstr.h ****  */
 218:App/STM32F4-Discovery/Libraries/CMSIS/Include/core_cmInstr.h **** #define __CLREX                           __clrex
 219:App/STM32F4-Discovery/Libraries/CMSIS/Include/core_cmInstr.h **** 
 220:App/STM32F4-Discovery/Libraries/CMSIS/Include/core_cmInstr.h **** 
 221:App/STM32F4-Discovery/Libraries/CMSIS/Include/core_cmInstr.h **** /** \brief  Signed Saturate
 222:App/STM32F4-Discovery/Libraries/CMSIS/Include/core_cmInstr.h **** 
 223:App/STM32F4-Discovery/Libraries/CMSIS/Include/core_cmInstr.h ****     This function saturates a signed value.
 224:App/STM32F4-Discovery/Libraries/CMSIS/Include/core_cmInstr.h **** 
 225:App/STM32F4-Discovery/Libraries/CMSIS/Include/core_cmInstr.h ****     \param [in]  value  Value to be saturated
 226:App/STM32F4-Discovery/Libraries/CMSIS/Include/core_cmInstr.h ****     \param [in]    sat  Bit position to saturate to (1..32)
 227:App/STM32F4-Discovery/Libraries/CMSIS/Include/core_cmInstr.h ****     \return             Saturated value
 228:App/STM32F4-Discovery/Libraries/CMSIS/Include/core_cmInstr.h ****  */
 229:App/STM32F4-Discovery/Libraries/CMSIS/Include/core_cmInstr.h **** #define __SSAT                            __ssat
 230:App/STM32F4-Discovery/Libraries/CMSIS/Include/core_cmInstr.h **** 
 231:App/STM32F4-Discovery/Libraries/CMSIS/Include/core_cmInstr.h **** 
 232:App/STM32F4-Discovery/Libraries/CMSIS/Include/core_cmInstr.h **** /** \brief  Unsigned Saturate
 233:App/STM32F4-Discovery/Libraries/CMSIS/Include/core_cmInstr.h **** 
 234:App/STM32F4-Discovery/Libraries/CMSIS/Include/core_cmInstr.h ****     This function saturates an unsigned value.
 235:App/STM32F4-Discovery/Libraries/CMSIS/Include/core_cmInstr.h **** 
 236:App/STM32F4-Discovery/Libraries/CMSIS/Include/core_cmInstr.h ****     \param [in]  value  Value to be saturated
 237:App/STM32F4-Discovery/Libraries/CMSIS/Include/core_cmInstr.h ****     \param [in]    sat  Bit position to saturate to (0..31)
 238:App/STM32F4-Discovery/Libraries/CMSIS/Include/core_cmInstr.h ****     \return             Saturated value
 239:App/STM32F4-Discovery/Libraries/CMSIS/Include/core_cmInstr.h ****  */
 240:App/STM32F4-Discovery/Libraries/CMSIS/Include/core_cmInstr.h **** #define __USAT                            __usat
 241:App/STM32F4-Discovery/Libraries/CMSIS/Include/core_cmInstr.h **** 
 242:App/STM32F4-Discovery/Libraries/CMSIS/Include/core_cmInstr.h **** 
 243:App/STM32F4-Discovery/Libraries/CMSIS/Include/core_cmInstr.h **** /** \brief  Count leading zeros
 244:App/STM32F4-Discovery/Libraries/CMSIS/Include/core_cmInstr.h **** 
 245:App/STM32F4-Discovery/Libraries/CMSIS/Include/core_cmInstr.h ****     This function counts the number of leading zeros of a data value.
 246:App/STM32F4-Discovery/Libraries/CMSIS/Include/core_cmInstr.h **** 
 247:App/STM32F4-Discovery/Libraries/CMSIS/Include/core_cmInstr.h ****     \param [in]  value  Value to count the leading zeros
 248:App/STM32F4-Discovery/Libraries/CMSIS/Include/core_cmInstr.h ****     \return             number of leading zeros in value
 249:App/STM32F4-Discovery/Libraries/CMSIS/Include/core_cmInstr.h ****  */
 250:App/STM32F4-Discovery/Libraries/CMSIS/Include/core_cmInstr.h **** #define __CLZ                             __clz 
 251:App/STM32F4-Discovery/Libraries/CMSIS/Include/core_cmInstr.h **** 
 252:App/STM32F4-Discovery/Libraries/CMSIS/Include/core_cmInstr.h **** #endif /* (__CORTEX_M >= 0x03) */
 253:App/STM32F4-Discovery/Libraries/CMSIS/Include/core_cmInstr.h **** 
 254:App/STM32F4-Discovery/Libraries/CMSIS/Include/core_cmInstr.h **** 
 255:App/STM32F4-Discovery/Libraries/CMSIS/Include/core_cmInstr.h **** 
 256:App/STM32F4-Discovery/Libraries/CMSIS/Include/core_cmInstr.h **** #elif defined ( __ICCARM__ ) /*------------------ ICC Compiler -------------------*/
 257:App/STM32F4-Discovery/Libraries/CMSIS/Include/core_cmInstr.h **** /* IAR iccarm specific functions */
 258:App/STM32F4-Discovery/Libraries/CMSIS/Include/core_cmInstr.h **** 
 259:App/STM32F4-Discovery/Libraries/CMSIS/Include/core_cmInstr.h **** #include <cmsis_iar.h>
 260:App/STM32F4-Discovery/Libraries/CMSIS/Include/core_cmInstr.h **** 
 261:App/STM32F4-Discovery/Libraries/CMSIS/Include/core_cmInstr.h **** 
 262:App/STM32F4-Discovery/Libraries/CMSIS/Include/core_cmInstr.h **** #elif defined ( __GNUC__ ) /*------------------ GNU Compiler ---------------------*/
 263:App/STM32F4-Discovery/Libraries/CMSIS/Include/core_cmInstr.h **** /* GNU gcc specific functions */
 264:App/STM32F4-Discovery/Libraries/CMSIS/Include/core_cmInstr.h **** 
 265:App/STM32F4-Discovery/Libraries/CMSIS/Include/core_cmInstr.h **** /** \brief  No Operation
 266:App/STM32F4-Discovery/Libraries/CMSIS/Include/core_cmInstr.h **** 
 267:App/STM32F4-Discovery/Libraries/CMSIS/Include/core_cmInstr.h ****     No Operation does nothing. This instruction can be used for code alignment purposes.
 268:App/STM32F4-Discovery/Libraries/CMSIS/Include/core_cmInstr.h ****  */
 269:App/STM32F4-Discovery/Libraries/CMSIS/Include/core_cmInstr.h **** __attribute__( ( always_inline ) ) static __INLINE void __NOP(void)
 270:App/STM32F4-Discovery/Libraries/CMSIS/Include/core_cmInstr.h **** {
 271:App/STM32F4-Discovery/Libraries/CMSIS/Include/core_cmInstr.h ****   __ASM volatile ("nop");
 272:App/STM32F4-Discovery/Libraries/CMSIS/Include/core_cmInstr.h **** }
 273:App/STM32F4-Discovery/Libraries/CMSIS/Include/core_cmInstr.h **** 
 274:App/STM32F4-Discovery/Libraries/CMSIS/Include/core_cmInstr.h **** 
 275:App/STM32F4-Discovery/Libraries/CMSIS/Include/core_cmInstr.h **** /** \brief  Wait For Interrupt
 276:App/STM32F4-Discovery/Libraries/CMSIS/Include/core_cmInstr.h **** 
 277:App/STM32F4-Discovery/Libraries/CMSIS/Include/core_cmInstr.h ****     Wait For Interrupt is a hint instruction that suspends execution
 278:App/STM32F4-Discovery/Libraries/CMSIS/Include/core_cmInstr.h ****     until one of a number of events occurs.
 279:App/STM32F4-Discovery/Libraries/CMSIS/Include/core_cmInstr.h ****  */
 280:App/STM32F4-Discovery/Libraries/CMSIS/Include/core_cmInstr.h **** __attribute__( ( always_inline ) ) static __INLINE void __WFI(void)
 281:App/STM32F4-Discovery/Libraries/CMSIS/Include/core_cmInstr.h **** {
 282:App/STM32F4-Discovery/Libraries/CMSIS/Include/core_cmInstr.h ****   __ASM volatile ("wfi");
 283:App/STM32F4-Discovery/Libraries/CMSIS/Include/core_cmInstr.h **** }
 284:App/STM32F4-Discovery/Libraries/CMSIS/Include/core_cmInstr.h **** 
 285:App/STM32F4-Discovery/Libraries/CMSIS/Include/core_cmInstr.h **** 
 286:App/STM32F4-Discovery/Libraries/CMSIS/Include/core_cmInstr.h **** /** \brief  Wait For Event
 287:App/STM32F4-Discovery/Libraries/CMSIS/Include/core_cmInstr.h **** 
 288:App/STM32F4-Discovery/Libraries/CMSIS/Include/core_cmInstr.h ****     Wait For Event is a hint instruction that permits the processor to enter
 289:App/STM32F4-Discovery/Libraries/CMSIS/Include/core_cmInstr.h ****     a low-power state until one of a number of events occurs.
 290:App/STM32F4-Discovery/Libraries/CMSIS/Include/core_cmInstr.h ****  */
 291:App/STM32F4-Discovery/Libraries/CMSIS/Include/core_cmInstr.h **** __attribute__( ( always_inline ) ) static __INLINE void __WFE(void)
 292:App/STM32F4-Discovery/Libraries/CMSIS/Include/core_cmInstr.h **** {
 293:App/STM32F4-Discovery/Libraries/CMSIS/Include/core_cmInstr.h ****   __ASM volatile ("wfe");
 294:App/STM32F4-Discovery/Libraries/CMSIS/Include/core_cmInstr.h **** }
 295:App/STM32F4-Discovery/Libraries/CMSIS/Include/core_cmInstr.h **** 
 296:App/STM32F4-Discovery/Libraries/CMSIS/Include/core_cmInstr.h **** 
 297:App/STM32F4-Discovery/Libraries/CMSIS/Include/core_cmInstr.h **** /** \brief  Send Event
 298:App/STM32F4-Discovery/Libraries/CMSIS/Include/core_cmInstr.h **** 
 299:App/STM32F4-Discovery/Libraries/CMSIS/Include/core_cmInstr.h ****     Send Event is a hint instruction. It causes an event to be signaled to the CPU.
 300:App/STM32F4-Discovery/Libraries/CMSIS/Include/core_cmInstr.h ****  */
 301:App/STM32F4-Discovery/Libraries/CMSIS/Include/core_cmInstr.h **** __attribute__( ( always_inline ) ) static __INLINE void __SEV(void)
 302:App/STM32F4-Discovery/Libraries/CMSIS/Include/core_cmInstr.h **** {
 303:App/STM32F4-Discovery/Libraries/CMSIS/Include/core_cmInstr.h ****   __ASM volatile ("sev");
 304:App/STM32F4-Discovery/Libraries/CMSIS/Include/core_cmInstr.h **** }
 305:App/STM32F4-Discovery/Libraries/CMSIS/Include/core_cmInstr.h **** 
 306:App/STM32F4-Discovery/Libraries/CMSIS/Include/core_cmInstr.h **** 
 307:App/STM32F4-Discovery/Libraries/CMSIS/Include/core_cmInstr.h **** /** \brief  Instruction Synchronization Barrier
 308:App/STM32F4-Discovery/Libraries/CMSIS/Include/core_cmInstr.h **** 
 309:App/STM32F4-Discovery/Libraries/CMSIS/Include/core_cmInstr.h ****     Instruction Synchronization Barrier flushes the pipeline in the processor, 
 310:App/STM32F4-Discovery/Libraries/CMSIS/Include/core_cmInstr.h ****     so that all instructions following the ISB are fetched from cache or 
 311:App/STM32F4-Discovery/Libraries/CMSIS/Include/core_cmInstr.h ****     memory, after the instruction has been completed.
 312:App/STM32F4-Discovery/Libraries/CMSIS/Include/core_cmInstr.h ****  */
 313:App/STM32F4-Discovery/Libraries/CMSIS/Include/core_cmInstr.h **** __attribute__( ( always_inline ) ) static __INLINE void __ISB(void)
 314:App/STM32F4-Discovery/Libraries/CMSIS/Include/core_cmInstr.h **** {
 315:App/STM32F4-Discovery/Libraries/CMSIS/Include/core_cmInstr.h ****   __ASM volatile ("isb");
 316:App/STM32F4-Discovery/Libraries/CMSIS/Include/core_cmInstr.h **** }
 317:App/STM32F4-Discovery/Libraries/CMSIS/Include/core_cmInstr.h **** 
 318:App/STM32F4-Discovery/Libraries/CMSIS/Include/core_cmInstr.h **** 
 319:App/STM32F4-Discovery/Libraries/CMSIS/Include/core_cmInstr.h **** /** \brief  Data Synchronization Barrier
 320:App/STM32F4-Discovery/Libraries/CMSIS/Include/core_cmInstr.h **** 
 321:App/STM32F4-Discovery/Libraries/CMSIS/Include/core_cmInstr.h ****     This function acts as a special kind of Data Memory Barrier. 
 322:App/STM32F4-Discovery/Libraries/CMSIS/Include/core_cmInstr.h ****     It completes when all explicit memory accesses before this instruction complete.
 323:App/STM32F4-Discovery/Libraries/CMSIS/Include/core_cmInstr.h ****  */
 324:App/STM32F4-Discovery/Libraries/CMSIS/Include/core_cmInstr.h **** __attribute__( ( always_inline ) ) static __INLINE void __DSB(void)
 325:App/STM32F4-Discovery/Libraries/CMSIS/Include/core_cmInstr.h **** {
 326:App/STM32F4-Discovery/Libraries/CMSIS/Include/core_cmInstr.h ****   __ASM volatile ("dsb");
 327:App/STM32F4-Discovery/Libraries/CMSIS/Include/core_cmInstr.h **** }
 328:App/STM32F4-Discovery/Libraries/CMSIS/Include/core_cmInstr.h **** 
 329:App/STM32F4-Discovery/Libraries/CMSIS/Include/core_cmInstr.h **** 
 330:App/STM32F4-Discovery/Libraries/CMSIS/Include/core_cmInstr.h **** /** \brief  Data Memory Barrier
 331:App/STM32F4-Discovery/Libraries/CMSIS/Include/core_cmInstr.h **** 
 332:App/STM32F4-Discovery/Libraries/CMSIS/Include/core_cmInstr.h ****     This function ensures the apparent order of the explicit memory operations before 
 333:App/STM32F4-Discovery/Libraries/CMSIS/Include/core_cmInstr.h ****     and after the instruction, without ensuring their completion.
 334:App/STM32F4-Discovery/Libraries/CMSIS/Include/core_cmInstr.h ****  */
 335:App/STM32F4-Discovery/Libraries/CMSIS/Include/core_cmInstr.h **** __attribute__( ( always_inline ) ) static __INLINE void __DMB(void)
 336:App/STM32F4-Discovery/Libraries/CMSIS/Include/core_cmInstr.h **** {
 337:App/STM32F4-Discovery/Libraries/CMSIS/Include/core_cmInstr.h ****   __ASM volatile ("dmb");
 338:App/STM32F4-Discovery/Libraries/CMSIS/Include/core_cmInstr.h **** }
 339:App/STM32F4-Discovery/Libraries/CMSIS/Include/core_cmInstr.h **** 
 340:App/STM32F4-Discovery/Libraries/CMSIS/Include/core_cmInstr.h **** 
 341:App/STM32F4-Discovery/Libraries/CMSIS/Include/core_cmInstr.h **** /** \brief  Reverse byte order (32 bit)
 342:App/STM32F4-Discovery/Libraries/CMSIS/Include/core_cmInstr.h **** 
 343:App/STM32F4-Discovery/Libraries/CMSIS/Include/core_cmInstr.h ****     This function reverses the byte order in integer value.
 344:App/STM32F4-Discovery/Libraries/CMSIS/Include/core_cmInstr.h **** 
 345:App/STM32F4-Discovery/Libraries/CMSIS/Include/core_cmInstr.h ****     \param [in]    value  Value to reverse
 346:App/STM32F4-Discovery/Libraries/CMSIS/Include/core_cmInstr.h ****     \return               Reversed value
 347:App/STM32F4-Discovery/Libraries/CMSIS/Include/core_cmInstr.h ****  */
 348:App/STM32F4-Discovery/Libraries/CMSIS/Include/core_cmInstr.h **** __attribute__( ( always_inline ) ) static __INLINE uint32_t __REV(uint32_t value)
 349:App/STM32F4-Discovery/Libraries/CMSIS/Include/core_cmInstr.h **** {
 350:App/STM32F4-Discovery/Libraries/CMSIS/Include/core_cmInstr.h ****   uint32_t result;
 351:App/STM32F4-Discovery/Libraries/CMSIS/Include/core_cmInstr.h ****   
 352:App/STM32F4-Discovery/Libraries/CMSIS/Include/core_cmInstr.h ****   __ASM volatile ("rev %0, %1" : "=r" (result) : "r" (value) );
  94              		.loc 2 352 0
  95 0072 D7F8CC30 		ldr	r3, [r7, #204]
  96              	@ 352 "App/STM32F4-Discovery/Libraries/CMSIS/Include/core_cmInstr.h" 1
  97 0076 1CBA     		rev r4, r3
  98              	@ 0 "" 2
  99              		.thumb
 100 0078 C7F8C840 		str	r4, [r7, #200]
 353:App/STM32F4-Discovery/Libraries/CMSIS/Include/core_cmInstr.h ****   return(result);
 101              		.loc 2 353 0
 102 007c D7F8C830 		ldr	r3, [r7, #200]
 103              	.LBE127:
 104              	.LBE126:
 105              		.loc 1 118 0
 106 0080 BB62     		str	r3, [r7, #40]
 119:App/STM32F4-Discovery/Libraries/STM32F4xx_StdPeriph_Driver/src/stm32f4xx_cryp_aes.c ****     keyaddr+=4;
 107              		.loc 1 119 0
 108 0082 D7F8D030 		ldr	r3, [r7, #208]
 109 0086 03F10403 		add	r3, r3, #4
 110 008a C7F8D030 		str	r3, [r7, #208]
 120:App/STM32F4-Discovery/Libraries/STM32F4xx_StdPeriph_Driver/src/stm32f4xx_cryp_aes.c ****     AES_CRYP_KeyInitStructure.CRYP_Key2Right= __REV(*(uint32_t*)(keyaddr));
 111              		.loc 1 120 0
 112 008e D7F8D030 		ldr	r3, [r7, #208]
 113 0092 1B68     		ldr	r3, [r3, #0]
 114 0094 C7F8C430 		str	r3, [r7, #196]
 115              	.LBB128:
 116              	.LBB129:
 352:App/STM32F4-Discovery/Libraries/CMSIS/Include/core_cmInstr.h ****   __ASM volatile ("rev %0, %1" : "=r" (result) : "r" (value) );
 117              		.loc 2 352 0
 118 0098 D7F8C430 		ldr	r3, [r7, #196]
 119              	@ 352 "App/STM32F4-Discovery/Libraries/CMSIS/Include/core_cmInstr.h" 1
 120 009c 1CBA     		rev r4, r3
 121              	@ 0 "" 2
 122              		.thumb
 123 009e C7F8C040 		str	r4, [r7, #192]
 124              		.loc 2 353 0
 125 00a2 D7F8C030 		ldr	r3, [r7, #192]
 126              	.LBE129:
 127              	.LBE128:
 128              		.loc 1 120 0
 129 00a6 FB62     		str	r3, [r7, #44]
 121:App/STM32F4-Discovery/Libraries/STM32F4xx_StdPeriph_Driver/src/stm32f4xx_cryp_aes.c ****     keyaddr+=4;
 130              		.loc 1 121 0
 131 00a8 D7F8D030 		ldr	r3, [r7, #208]
 132 00ac 03F10403 		add	r3, r3, #4
 133 00b0 C7F8D030 		str	r3, [r7, #208]
 122:App/STM32F4-Discovery/Libraries/STM32F4xx_StdPeriph_Driver/src/stm32f4xx_cryp_aes.c ****     AES_CRYP_KeyInitStructure.CRYP_Key3Left = __REV(*(uint32_t*)(keyaddr));
 134              		.loc 1 122 0
 135 00b4 D7F8D030 		ldr	r3, [r7, #208]
 136 00b8 1B68     		ldr	r3, [r3, #0]
 137 00ba C7F8BC30 		str	r3, [r7, #188]
 138              	.LBB130:
 139              	.LBB131:
 352:App/STM32F4-Discovery/Libraries/CMSIS/Include/core_cmInstr.h ****   __ASM volatile ("rev %0, %1" : "=r" (result) : "r" (value) );
 140              		.loc 2 352 0
 141 00be D7F8BC30 		ldr	r3, [r7, #188]
 142              	@ 352 "App/STM32F4-Discovery/Libraries/CMSIS/Include/core_cmInstr.h" 1
 143 00c2 1CBA     		rev r4, r3
 144              	@ 0 "" 2
 145              		.thumb
 146 00c4 C7F8B840 		str	r4, [r7, #184]
 147              		.loc 2 353 0
 148 00c8 D7F8B830 		ldr	r3, [r7, #184]
 149              	.LBE131:
 150              	.LBE130:
 151              		.loc 1 122 0
 152 00cc 3B63     		str	r3, [r7, #48]
 123:App/STM32F4-Discovery/Libraries/STM32F4xx_StdPeriph_Driver/src/stm32f4xx_cryp_aes.c ****     keyaddr+=4;
 153              		.loc 1 123 0
 154 00ce D7F8D030 		ldr	r3, [r7, #208]
 155 00d2 03F10403 		add	r3, r3, #4
 156 00d6 C7F8D030 		str	r3, [r7, #208]
 124:App/STM32F4-Discovery/Libraries/STM32F4xx_StdPeriph_Driver/src/stm32f4xx_cryp_aes.c ****     AES_CRYP_KeyInitStructure.CRYP_Key3Right= __REV(*(uint32_t*)(keyaddr));
 157              		.loc 1 124 0
 158 00da D7F8D030 		ldr	r3, [r7, #208]
 159 00de 1B68     		ldr	r3, [r3, #0]
 160 00e0 C7F8B430 		str	r3, [r7, #180]
 161              	.LBB132:
 162              	.LBB133:
 352:App/STM32F4-Discovery/Libraries/CMSIS/Include/core_cmInstr.h ****   __ASM volatile ("rev %0, %1" : "=r" (result) : "r" (value) );
 163              		.loc 2 352 0
 164 00e4 D7F8B430 		ldr	r3, [r7, #180]
 165              	@ 352 "App/STM32F4-Discovery/Libraries/CMSIS/Include/core_cmInstr.h" 1
 166 00e8 1CBA     		rev r4, r3
 167              	@ 0 "" 2
 168              		.thumb
 169 00ea C7F8B040 		str	r4, [r7, #176]
 170              		.loc 2 353 0
 171 00ee D7F8B030 		ldr	r3, [r7, #176]
 172              	.LBE133:
 173              	.LBE132:
 174              		.loc 1 124 0
 175 00f2 7B63     		str	r3, [r7, #52]
 125:App/STM32F4-Discovery/Libraries/STM32F4xx_StdPeriph_Driver/src/stm32f4xx_cryp_aes.c ****     break;
 176              		.loc 1 125 0
 177 00f4 E6E0     		b	.L10
 178              	.L4:
 126:App/STM32F4-Discovery/Libraries/STM32F4xx_StdPeriph_Driver/src/stm32f4xx_cryp_aes.c ****     case 192:
 127:App/STM32F4-Discovery/Libraries/STM32F4xx_StdPeriph_Driver/src/stm32f4xx_cryp_aes.c ****     AES_CRYP_InitStructure.CRYP_KeySize  = CRYP_KeySize_192b;
 179              		.loc 1 127 0
 180 00f6 4FF48073 		mov	r3, #256
 181 00fa FB87     		strh	r3, [r7, #62]	@ movhi
 128:App/STM32F4-Discovery/Libraries/STM32F4xx_StdPeriph_Driver/src/stm32f4xx_cryp_aes.c ****     AES_CRYP_KeyInitStructure.CRYP_Key1Left = __REV(*(uint32_t*)(keyaddr));
 182              		.loc 1 128 0
 183 00fc D7F8D030 		ldr	r3, [r7, #208]
 184 0100 1B68     		ldr	r3, [r3, #0]
 185 0102 C7F8AC30 		str	r3, [r7, #172]
 186              	.LBB134:
 187              	.LBB135:
 352:App/STM32F4-Discovery/Libraries/CMSIS/Include/core_cmInstr.h ****   __ASM volatile ("rev %0, %1" : "=r" (result) : "r" (value) );
 188              		.loc 2 352 0
 189 0106 D7F8AC30 		ldr	r3, [r7, #172]
 190              	@ 352 "App/STM32F4-Discovery/Libraries/CMSIS/Include/core_cmInstr.h" 1
 191 010a 1CBA     		rev r4, r3
 192              	@ 0 "" 2
 193              		.thumb
 194 010c C7F8A840 		str	r4, [r7, #168]
 195              		.loc 2 353 0
 196 0110 D7F8A830 		ldr	r3, [r7, #168]
 197              	.LBE135:
 198              	.LBE134:
 199              		.loc 1 128 0
 200 0114 3B62     		str	r3, [r7, #32]
 129:App/STM32F4-Discovery/Libraries/STM32F4xx_StdPeriph_Driver/src/stm32f4xx_cryp_aes.c ****     keyaddr+=4;
 201              		.loc 1 129 0
 202 0116 D7F8D030 		ldr	r3, [r7, #208]
 203 011a 03F10403 		add	r3, r3, #4
 204 011e C7F8D030 		str	r3, [r7, #208]
 130:App/STM32F4-Discovery/Libraries/STM32F4xx_StdPeriph_Driver/src/stm32f4xx_cryp_aes.c ****     AES_CRYP_KeyInitStructure.CRYP_Key1Right= __REV(*(uint32_t*)(keyaddr));
 205              		.loc 1 130 0
 206 0122 D7F8D030 		ldr	r3, [r7, #208]
 207 0126 1B68     		ldr	r3, [r3, #0]
 208 0128 C7F8A430 		str	r3, [r7, #164]
 209              	.LBB136:
 210              	.LBB137:
 352:App/STM32F4-Discovery/Libraries/CMSIS/Include/core_cmInstr.h ****   __ASM volatile ("rev %0, %1" : "=r" (result) : "r" (value) );
 211              		.loc 2 352 0
 212 012c D7F8A430 		ldr	r3, [r7, #164]
 213              	@ 352 "App/STM32F4-Discovery/Libraries/CMSIS/Include/core_cmInstr.h" 1
 214 0130 1CBA     		rev r4, r3
 215              	@ 0 "" 2
 216              		.thumb
 217 0132 C7F8A040 		str	r4, [r7, #160]
 218              		.loc 2 353 0
 219 0136 D7F8A030 		ldr	r3, [r7, #160]
 220              	.LBE137:
 221              	.LBE136:
 222              		.loc 1 130 0
 223 013a 7B62     		str	r3, [r7, #36]
 131:App/STM32F4-Discovery/Libraries/STM32F4xx_StdPeriph_Driver/src/stm32f4xx_cryp_aes.c ****     keyaddr+=4;
 224              		.loc 1 131 0
 225 013c D7F8D030 		ldr	r3, [r7, #208]
 226 0140 03F10403 		add	r3, r3, #4
 227 0144 C7F8D030 		str	r3, [r7, #208]
 132:App/STM32F4-Discovery/Libraries/STM32F4xx_StdPeriph_Driver/src/stm32f4xx_cryp_aes.c ****     AES_CRYP_KeyInitStructure.CRYP_Key2Left = __REV(*(uint32_t*)(keyaddr));
 228              		.loc 1 132 0
 229 0148 D7F8D030 		ldr	r3, [r7, #208]
 230 014c 1B68     		ldr	r3, [r3, #0]
 231 014e C7F89C30 		str	r3, [r7, #156]
 232              	.LBB138:
 233              	.LBB139:
 352:App/STM32F4-Discovery/Libraries/CMSIS/Include/core_cmInstr.h ****   __ASM volatile ("rev %0, %1" : "=r" (result) : "r" (value) );
 234              		.loc 2 352 0
 235 0152 D7F89C30 		ldr	r3, [r7, #156]
 236              	@ 352 "App/STM32F4-Discovery/Libraries/CMSIS/Include/core_cmInstr.h" 1
 237 0156 1CBA     		rev r4, r3
 238              	@ 0 "" 2
 239              		.thumb
 240 0158 C7F89840 		str	r4, [r7, #152]
 241              		.loc 2 353 0
 242 015c D7F89830 		ldr	r3, [r7, #152]
 243              	.LBE139:
 244              	.LBE138:
 245              		.loc 1 132 0
 246 0160 BB62     		str	r3, [r7, #40]
 133:App/STM32F4-Discovery/Libraries/STM32F4xx_StdPeriph_Driver/src/stm32f4xx_cryp_aes.c ****     keyaddr+=4;
 247              		.loc 1 133 0
 248 0162 D7F8D030 		ldr	r3, [r7, #208]
 249 0166 03F10403 		add	r3, r3, #4
 250 016a C7F8D030 		str	r3, [r7, #208]
 134:App/STM32F4-Discovery/Libraries/STM32F4xx_StdPeriph_Driver/src/stm32f4xx_cryp_aes.c ****     AES_CRYP_KeyInitStructure.CRYP_Key2Right= __REV(*(uint32_t*)(keyaddr));
 251              		.loc 1 134 0
 252 016e D7F8D030 		ldr	r3, [r7, #208]
 253 0172 1B68     		ldr	r3, [r3, #0]
 254 0174 C7F89430 		str	r3, [r7, #148]
 255              	.LBB140:
 256              	.LBB141:
 352:App/STM32F4-Discovery/Libraries/CMSIS/Include/core_cmInstr.h ****   __ASM volatile ("rev %0, %1" : "=r" (result) : "r" (value) );
 257              		.loc 2 352 0
 258 0178 D7F89430 		ldr	r3, [r7, #148]
 259              	@ 352 "App/STM32F4-Discovery/Libraries/CMSIS/Include/core_cmInstr.h" 1
 260 017c 1CBA     		rev r4, r3
 261              	@ 0 "" 2
 262              		.thumb
 263 017e C7F89040 		str	r4, [r7, #144]
 264              		.loc 2 353 0
 265 0182 D7F89030 		ldr	r3, [r7, #144]
 266              	.LBE141:
 267              	.LBE140:
 268              		.loc 1 134 0
 269 0186 FB62     		str	r3, [r7, #44]
 135:App/STM32F4-Discovery/Libraries/STM32F4xx_StdPeriph_Driver/src/stm32f4xx_cryp_aes.c ****     keyaddr+=4;
 270              		.loc 1 135 0
 271 0188 D7F8D030 		ldr	r3, [r7, #208]
 272 018c 03F10403 		add	r3, r3, #4
 273 0190 C7F8D030 		str	r3, [r7, #208]
 136:App/STM32F4-Discovery/Libraries/STM32F4xx_StdPeriph_Driver/src/stm32f4xx_cryp_aes.c ****     AES_CRYP_KeyInitStructure.CRYP_Key3Left = __REV(*(uint32_t*)(keyaddr));
 274              		.loc 1 136 0
 275 0194 D7F8D030 		ldr	r3, [r7, #208]
 276 0198 1B68     		ldr	r3, [r3, #0]
 277 019a C7F88C30 		str	r3, [r7, #140]
 278              	.LBB142:
 279              	.LBB143:
 352:App/STM32F4-Discovery/Libraries/CMSIS/Include/core_cmInstr.h ****   __ASM volatile ("rev %0, %1" : "=r" (result) : "r" (value) );
 280              		.loc 2 352 0
 281 019e D7F88C30 		ldr	r3, [r7, #140]
 282              	@ 352 "App/STM32F4-Discovery/Libraries/CMSIS/Include/core_cmInstr.h" 1
 283 01a2 1CBA     		rev r4, r3
 284              	@ 0 "" 2
 285              		.thumb
 286 01a4 C7F88840 		str	r4, [r7, #136]
 287              		.loc 2 353 0
 288 01a8 D7F88830 		ldr	r3, [r7, #136]
 289              	.LBE143:
 290              	.LBE142:
 291              		.loc 1 136 0
 292 01ac 3B63     		str	r3, [r7, #48]
 137:App/STM32F4-Discovery/Libraries/STM32F4xx_StdPeriph_Driver/src/stm32f4xx_cryp_aes.c ****     keyaddr+=4;
 293              		.loc 1 137 0
 294 01ae D7F8D030 		ldr	r3, [r7, #208]
 295 01b2 03F10403 		add	r3, r3, #4
 296 01b6 C7F8D030 		str	r3, [r7, #208]
 138:App/STM32F4-Discovery/Libraries/STM32F4xx_StdPeriph_Driver/src/stm32f4xx_cryp_aes.c ****     AES_CRYP_KeyInitStructure.CRYP_Key3Right= __REV(*(uint32_t*)(keyaddr));
 297              		.loc 1 138 0
 298 01ba D7F8D030 		ldr	r3, [r7, #208]
 299 01be 1B68     		ldr	r3, [r3, #0]
 300 01c0 C7F88430 		str	r3, [r7, #132]
 301              	.LBB144:
 302              	.LBB145:
 352:App/STM32F4-Discovery/Libraries/CMSIS/Include/core_cmInstr.h ****   __ASM volatile ("rev %0, %1" : "=r" (result) : "r" (value) );
 303              		.loc 2 352 0
 304 01c4 D7F88430 		ldr	r3, [r7, #132]
 305              	@ 352 "App/STM32F4-Discovery/Libraries/CMSIS/Include/core_cmInstr.h" 1
 306 01c8 1CBA     		rev r4, r3
 307              	@ 0 "" 2
 308              		.thumb
 309 01ca C7F88040 		str	r4, [r7, #128]
 310              		.loc 2 353 0
 311 01ce D7F88030 		ldr	r3, [r7, #128]
 312              	.LBE145:
 313              	.LBE144:
 314              		.loc 1 138 0
 315 01d2 7B63     		str	r3, [r7, #52]
 139:App/STM32F4-Discovery/Libraries/STM32F4xx_StdPeriph_Driver/src/stm32f4xx_cryp_aes.c ****     break;
 316              		.loc 1 139 0
 317 01d4 76E0     		b	.L10
 318              	.L5:
 140:App/STM32F4-Discovery/Libraries/STM32F4xx_StdPeriph_Driver/src/stm32f4xx_cryp_aes.c ****     case 256:
 141:App/STM32F4-Discovery/Libraries/STM32F4xx_StdPeriph_Driver/src/stm32f4xx_cryp_aes.c ****     AES_CRYP_InitStructure.CRYP_KeySize  = CRYP_KeySize_256b;
 319              		.loc 1 141 0
 320 01d6 4FF40073 		mov	r3, #512
 321 01da FB87     		strh	r3, [r7, #62]	@ movhi
 142:App/STM32F4-Discovery/Libraries/STM32F4xx_StdPeriph_Driver/src/stm32f4xx_cryp_aes.c ****     AES_CRYP_KeyInitStructure.CRYP_Key0Left = __REV(*(uint32_t*)(keyaddr));
 322              		.loc 1 142 0
 323 01dc D7F8D030 		ldr	r3, [r7, #208]
 324 01e0 1B68     		ldr	r3, [r3, #0]
 325 01e2 FB67     		str	r3, [r7, #124]
 326              	.LBB146:
 327              	.LBB147:
 352:App/STM32F4-Discovery/Libraries/CMSIS/Include/core_cmInstr.h ****   __ASM volatile ("rev %0, %1" : "=r" (result) : "r" (value) );
 328              		.loc 2 352 0
 329 01e4 FB6F     		ldr	r3, [r7, #124]
 330              	@ 352 "App/STM32F4-Discovery/Libraries/CMSIS/Include/core_cmInstr.h" 1
 331 01e6 1CBA     		rev r4, r3
 332              	@ 0 "" 2
 333              		.thumb
 334 01e8 BC67     		str	r4, [r7, #120]
 335              		.loc 2 353 0
 336 01ea BB6F     		ldr	r3, [r7, #120]
 337              	.LBE147:
 338              	.LBE146:
 339              		.loc 1 142 0
 340 01ec BB61     		str	r3, [r7, #24]
 143:App/STM32F4-Discovery/Libraries/STM32F4xx_StdPeriph_Driver/src/stm32f4xx_cryp_aes.c ****     keyaddr+=4;
 341              		.loc 1 143 0
 342 01ee D7F8D030 		ldr	r3, [r7, #208]
 343 01f2 03F10403 		add	r3, r3, #4
 344 01f6 C7F8D030 		str	r3, [r7, #208]
 144:App/STM32F4-Discovery/Libraries/STM32F4xx_StdPeriph_Driver/src/stm32f4xx_cryp_aes.c ****     AES_CRYP_KeyInitStructure.CRYP_Key0Right= __REV(*(uint32_t*)(keyaddr));
 345              		.loc 1 144 0
 346 01fa D7F8D030 		ldr	r3, [r7, #208]
 347 01fe 1B68     		ldr	r3, [r3, #0]
 348 0200 7B67     		str	r3, [r7, #116]
 349              	.LBB148:
 350              	.LBB149:
 352:App/STM32F4-Discovery/Libraries/CMSIS/Include/core_cmInstr.h ****   __ASM volatile ("rev %0, %1" : "=r" (result) : "r" (value) );
 351              		.loc 2 352 0
 352 0202 7B6F     		ldr	r3, [r7, #116]
 353              	@ 352 "App/STM32F4-Discovery/Libraries/CMSIS/Include/core_cmInstr.h" 1
 354 0204 1CBA     		rev r4, r3
 355              	@ 0 "" 2
 356              		.thumb
 357 0206 3C67     		str	r4, [r7, #112]
 358              		.loc 2 353 0
 359 0208 3B6F     		ldr	r3, [r7, #112]
 360              	.LBE149:
 361              	.LBE148:
 362              		.loc 1 144 0
 363 020a FB61     		str	r3, [r7, #28]
 145:App/STM32F4-Discovery/Libraries/STM32F4xx_StdPeriph_Driver/src/stm32f4xx_cryp_aes.c ****     keyaddr+=4;
 364              		.loc 1 145 0
 365 020c D7F8D030 		ldr	r3, [r7, #208]
 366 0210 03F10403 		add	r3, r3, #4
 367 0214 C7F8D030 		str	r3, [r7, #208]
 146:App/STM32F4-Discovery/Libraries/STM32F4xx_StdPeriph_Driver/src/stm32f4xx_cryp_aes.c ****     AES_CRYP_KeyInitStructure.CRYP_Key1Left = __REV(*(uint32_t*)(keyaddr));
 368              		.loc 1 146 0
 369 0218 D7F8D030 		ldr	r3, [r7, #208]
 370 021c 1B68     		ldr	r3, [r3, #0]
 371 021e FB66     		str	r3, [r7, #108]
 372              	.LBB150:
 373              	.LBB151:
 352:App/STM32F4-Discovery/Libraries/CMSIS/Include/core_cmInstr.h ****   __ASM volatile ("rev %0, %1" : "=r" (result) : "r" (value) );
 374              		.loc 2 352 0
 375 0220 FB6E     		ldr	r3, [r7, #108]
 376              	@ 352 "App/STM32F4-Discovery/Libraries/CMSIS/Include/core_cmInstr.h" 1
 377 0222 1CBA     		rev r4, r3
 378              	@ 0 "" 2
 379              		.thumb
 380 0224 BC66     		str	r4, [r7, #104]
 381              		.loc 2 353 0
 382 0226 BB6E     		ldr	r3, [r7, #104]
 383              	.LBE151:
 384              	.LBE150:
 385              		.loc 1 146 0
 386 0228 3B62     		str	r3, [r7, #32]
 147:App/STM32F4-Discovery/Libraries/STM32F4xx_StdPeriph_Driver/src/stm32f4xx_cryp_aes.c ****     keyaddr+=4;
 387              		.loc 1 147 0
 388 022a D7F8D030 		ldr	r3, [r7, #208]
 389 022e 03F10403 		add	r3, r3, #4
 390 0232 C7F8D030 		str	r3, [r7, #208]
 148:App/STM32F4-Discovery/Libraries/STM32F4xx_StdPeriph_Driver/src/stm32f4xx_cryp_aes.c ****     AES_CRYP_KeyInitStructure.CRYP_Key1Right= __REV(*(uint32_t*)(keyaddr));
 391              		.loc 1 148 0
 392 0236 D7F8D030 		ldr	r3, [r7, #208]
 393 023a 1B68     		ldr	r3, [r3, #0]
 394 023c 7B66     		str	r3, [r7, #100]
 395              	.LBB152:
 396              	.LBB153:
 352:App/STM32F4-Discovery/Libraries/CMSIS/Include/core_cmInstr.h ****   __ASM volatile ("rev %0, %1" : "=r" (result) : "r" (value) );
 397              		.loc 2 352 0
 398 023e 7B6E     		ldr	r3, [r7, #100]
 399              	@ 352 "App/STM32F4-Discovery/Libraries/CMSIS/Include/core_cmInstr.h" 1
 400 0240 1CBA     		rev r4, r3
 401              	@ 0 "" 2
 402              		.thumb
 403 0242 3C66     		str	r4, [r7, #96]
 404              		.loc 2 353 0
 405 0244 3B6E     		ldr	r3, [r7, #96]
 406              	.LBE153:
 407              	.LBE152:
 408              		.loc 1 148 0
 409 0246 7B62     		str	r3, [r7, #36]
 149:App/STM32F4-Discovery/Libraries/STM32F4xx_StdPeriph_Driver/src/stm32f4xx_cryp_aes.c ****     keyaddr+=4;
 410              		.loc 1 149 0
 411 0248 D7F8D030 		ldr	r3, [r7, #208]
 412 024c 03F10403 		add	r3, r3, #4
 413 0250 C7F8D030 		str	r3, [r7, #208]
 150:App/STM32F4-Discovery/Libraries/STM32F4xx_StdPeriph_Driver/src/stm32f4xx_cryp_aes.c ****     AES_CRYP_KeyInitStructure.CRYP_Key2Left = __REV(*(uint32_t*)(keyaddr));
 414              		.loc 1 150 0
 415 0254 D7F8D030 		ldr	r3, [r7, #208]
 416 0258 1B68     		ldr	r3, [r3, #0]
 417 025a FB65     		str	r3, [r7, #92]
 418              	.LBB154:
 419              	.LBB155:
 352:App/STM32F4-Discovery/Libraries/CMSIS/Include/core_cmInstr.h ****   __ASM volatile ("rev %0, %1" : "=r" (result) : "r" (value) );
 420              		.loc 2 352 0
 421 025c FB6D     		ldr	r3, [r7, #92]
 422              	@ 352 "App/STM32F4-Discovery/Libraries/CMSIS/Include/core_cmInstr.h" 1
 423 025e 1CBA     		rev r4, r3
 424              	@ 0 "" 2
 425              		.thumb
 426 0260 BC65     		str	r4, [r7, #88]
 427              		.loc 2 353 0
 428 0262 BB6D     		ldr	r3, [r7, #88]
 429              	.LBE155:
 430              	.LBE154:
 431              		.loc 1 150 0
 432 0264 BB62     		str	r3, [r7, #40]
 151:App/STM32F4-Discovery/Libraries/STM32F4xx_StdPeriph_Driver/src/stm32f4xx_cryp_aes.c ****     keyaddr+=4;
 433              		.loc 1 151 0
 434 0266 D7F8D030 		ldr	r3, [r7, #208]
 435 026a 03F10403 		add	r3, r3, #4
 436 026e C7F8D030 		str	r3, [r7, #208]
 152:App/STM32F4-Discovery/Libraries/STM32F4xx_StdPeriph_Driver/src/stm32f4xx_cryp_aes.c ****     AES_CRYP_KeyInitStructure.CRYP_Key2Right= __REV(*(uint32_t*)(keyaddr));
 437              		.loc 1 152 0
 438 0272 D7F8D030 		ldr	r3, [r7, #208]
 439 0276 1B68     		ldr	r3, [r3, #0]
 440 0278 7B65     		str	r3, [r7, #84]
 441              	.LBB156:
 442              	.LBB157:
 352:App/STM32F4-Discovery/Libraries/CMSIS/Include/core_cmInstr.h ****   __ASM volatile ("rev %0, %1" : "=r" (result) : "r" (value) );
 443              		.loc 2 352 0
 444 027a 7B6D     		ldr	r3, [r7, #84]
 445              	@ 352 "App/STM32F4-Discovery/Libraries/CMSIS/Include/core_cmInstr.h" 1
 446 027c 1CBA     		rev r4, r3
 447              	@ 0 "" 2
 448              		.thumb
 449 027e 3C65     		str	r4, [r7, #80]
 450              		.loc 2 353 0
 451 0280 3B6D     		ldr	r3, [r7, #80]
 452              	.LBE157:
 453              	.LBE156:
 454              		.loc 1 152 0
 455 0282 FB62     		str	r3, [r7, #44]
 153:App/STM32F4-Discovery/Libraries/STM32F4xx_StdPeriph_Driver/src/stm32f4xx_cryp_aes.c ****     keyaddr+=4;
 456              		.loc 1 153 0
 457 0284 D7F8D030 		ldr	r3, [r7, #208]
 458 0288 03F10403 		add	r3, r3, #4
 459 028c C7F8D030 		str	r3, [r7, #208]
 154:App/STM32F4-Discovery/Libraries/STM32F4xx_StdPeriph_Driver/src/stm32f4xx_cryp_aes.c ****     AES_CRYP_KeyInitStructure.CRYP_Key3Left = __REV(*(uint32_t*)(keyaddr));
 460              		.loc 1 154 0
 461 0290 D7F8D030 		ldr	r3, [r7, #208]
 462 0294 1B68     		ldr	r3, [r3, #0]
 463 0296 FB64     		str	r3, [r7, #76]
 464              	.LBB158:
 465              	.LBB159:
 352:App/STM32F4-Discovery/Libraries/CMSIS/Include/core_cmInstr.h ****   __ASM volatile ("rev %0, %1" : "=r" (result) : "r" (value) );
 466              		.loc 2 352 0
 467 0298 FB6C     		ldr	r3, [r7, #76]
 468              	@ 352 "App/STM32F4-Discovery/Libraries/CMSIS/Include/core_cmInstr.h" 1
 469 029a 1CBA     		rev r4, r3
 470              	@ 0 "" 2
 471              		.thumb
 472 029c BC64     		str	r4, [r7, #72]
 473              		.loc 2 353 0
 474 029e BB6C     		ldr	r3, [r7, #72]
 475              	.LBE159:
 476              	.LBE158:
 477              		.loc 1 154 0
 478 02a0 3B63     		str	r3, [r7, #48]
 155:App/STM32F4-Discovery/Libraries/STM32F4xx_StdPeriph_Driver/src/stm32f4xx_cryp_aes.c ****     keyaddr+=4;
 479              		.loc 1 155 0
 480 02a2 D7F8D030 		ldr	r3, [r7, #208]
 481 02a6 03F10403 		add	r3, r3, #4
 482 02aa C7F8D030 		str	r3, [r7, #208]
 156:App/STM32F4-Discovery/Libraries/STM32F4xx_StdPeriph_Driver/src/stm32f4xx_cryp_aes.c ****     AES_CRYP_KeyInitStructure.CRYP_Key3Right= __REV(*(uint32_t*)(keyaddr));
 483              		.loc 1 156 0
 484 02ae D7F8D030 		ldr	r3, [r7, #208]
 485 02b2 1B68     		ldr	r3, [r3, #0]
 486 02b4 7B64     		str	r3, [r7, #68]
 487              	.LBB160:
 488              	.LBB161:
 352:App/STM32F4-Discovery/Libraries/CMSIS/Include/core_cmInstr.h ****   __ASM volatile ("rev %0, %1" : "=r" (result) : "r" (value) );
 489              		.loc 2 352 0
 490 02b6 7B6C     		ldr	r3, [r7, #68]
 491              	@ 352 "App/STM32F4-Discovery/Libraries/CMSIS/Include/core_cmInstr.h" 1
 492 02b8 1CBA     		rev r4, r3
 493              	@ 0 "" 2
 494              		.thumb
 495 02ba 3C64     		str	r4, [r7, #64]
 496              		.loc 2 353 0
 497 02bc 3B6C     		ldr	r3, [r7, #64]
 498              	.LBE161:
 499              	.LBE160:
 500              		.loc 1 156 0
 501 02be 7B63     		str	r3, [r7, #52]
 157:App/STM32F4-Discovery/Libraries/STM32F4xx_StdPeriph_Driver/src/stm32f4xx_cryp_aes.c ****     break;
 502              		.loc 1 157 0
 503 02c0 00E0     		b	.L10
 504              	.L38:
 158:App/STM32F4-Discovery/Libraries/STM32F4xx_StdPeriph_Driver/src/stm32f4xx_cryp_aes.c ****     default:
 159:App/STM32F4-Discovery/Libraries/STM32F4xx_StdPeriph_Driver/src/stm32f4xx_cryp_aes.c ****     break;
 505              		.loc 1 159 0
 506 02c2 00BF     		nop
 507              	.L10:
 160:App/STM32F4-Discovery/Libraries/STM32F4xx_StdPeriph_Driver/src/stm32f4xx_cryp_aes.c ****   }
 161:App/STM32F4-Discovery/Libraries/STM32F4xx_StdPeriph_Driver/src/stm32f4xx_cryp_aes.c **** 
 162:App/STM32F4-Discovery/Libraries/STM32F4xx_StdPeriph_Driver/src/stm32f4xx_cryp_aes.c ****   /*------------------ AES Decryption ------------------*/
 163:App/STM32F4-Discovery/Libraries/STM32F4xx_StdPeriph_Driver/src/stm32f4xx_cryp_aes.c ****   if(Mode == MODE_DECRYPT) /* AES decryption */
 508              		.loc 1 163 0
 509 02c4 FB7B     		ldrb	r3, [r7, #15]	@ zero_extendqisi2
 510 02c6 002B     		cmp	r3, #0
 511 02c8 38D1     		bne	.L25
 164:App/STM32F4-Discovery/Libraries/STM32F4xx_StdPeriph_Driver/src/stm32f4xx_cryp_aes.c ****   {
 165:App/STM32F4-Discovery/Libraries/STM32F4xx_StdPeriph_Driver/src/stm32f4xx_cryp_aes.c ****     /* Flush IN/OUT FIFOs */
 166:App/STM32F4-Discovery/Libraries/STM32F4xx_StdPeriph_Driver/src/stm32f4xx_cryp_aes.c ****     CRYP_FIFOFlush();
 512              		.loc 1 166 0
 513 02ca FFF7FEFF 		bl	CRYP_FIFOFlush
 167:App/STM32F4-Discovery/Libraries/STM32F4xx_StdPeriph_Driver/src/stm32f4xx_cryp_aes.c **** 
 168:App/STM32F4-Discovery/Libraries/STM32F4xx_StdPeriph_Driver/src/stm32f4xx_cryp_aes.c ****     /* Crypto Init for Key preparation for decryption process */
 169:App/STM32F4-Discovery/Libraries/STM32F4xx_StdPeriph_Driver/src/stm32f4xx_cryp_aes.c ****     AES_CRYP_InitStructure.CRYP_AlgoDir = CRYP_AlgoDir_Decrypt;
 514              		.loc 1 169 0
 515 02ce 4FF00403 		mov	r3, #4
 516 02d2 3B87     		strh	r3, [r7, #56]	@ movhi
 170:App/STM32F4-Discovery/Libraries/STM32F4xx_StdPeriph_Driver/src/stm32f4xx_cryp_aes.c ****     AES_CRYP_InitStructure.CRYP_AlgoMode = CRYP_AlgoMode_AES_Key;
 517              		.loc 1 170 0
 518 02d4 4FF03803 		mov	r3, #56
 519 02d8 7B87     		strh	r3, [r7, #58]	@ movhi
 171:App/STM32F4-Discovery/Libraries/STM32F4xx_StdPeriph_Driver/src/stm32f4xx_cryp_aes.c ****     AES_CRYP_InitStructure.CRYP_DataType = CRYP_DataType_32b;
 520              		.loc 1 171 0
 521 02da 4FF00003 		mov	r3, #0
 522 02de BB87     		strh	r3, [r7, #60]	@ movhi
 172:App/STM32F4-Discovery/Libraries/STM32F4xx_StdPeriph_Driver/src/stm32f4xx_cryp_aes.c ****     CRYP_Init(&AES_CRYP_InitStructure);
 523              		.loc 1 172 0
 524 02e0 07F13803 		add	r3, r7, #56
 525 02e4 1846     		mov	r0, r3
 526 02e6 FFF7FEFF 		bl	CRYP_Init
 173:App/STM32F4-Discovery/Libraries/STM32F4xx_StdPeriph_Driver/src/stm32f4xx_cryp_aes.c **** 
 174:App/STM32F4-Discovery/Libraries/STM32F4xx_StdPeriph_Driver/src/stm32f4xx_cryp_aes.c ****     /* Key Initialisation */
 175:App/STM32F4-Discovery/Libraries/STM32F4xx_StdPeriph_Driver/src/stm32f4xx_cryp_aes.c ****     CRYP_KeyInit(&AES_CRYP_KeyInitStructure);
 527              		.loc 1 175 0
 528 02ea 07F11803 		add	r3, r7, #24
 529 02ee 1846     		mov	r0, r3
 530 02f0 FFF7FEFF 		bl	CRYP_KeyInit
 176:App/STM32F4-Discovery/Libraries/STM32F4xx_StdPeriph_Driver/src/stm32f4xx_cryp_aes.c **** 
 177:App/STM32F4-Discovery/Libraries/STM32F4xx_StdPeriph_Driver/src/stm32f4xx_cryp_aes.c ****     /* Enable Crypto processor */
 178:App/STM32F4-Discovery/Libraries/STM32F4xx_StdPeriph_Driver/src/stm32f4xx_cryp_aes.c ****     CRYP_Cmd(ENABLE);
 531              		.loc 1 178 0
 532 02f4 4FF00100 		mov	r0, #1
 533 02f8 FFF7FEFF 		bl	CRYP_Cmd
 534              	.L27:
 179:App/STM32F4-Discovery/Libraries/STM32F4xx_StdPeriph_Driver/src/stm32f4xx_cryp_aes.c **** 
 180:App/STM32F4-Discovery/Libraries/STM32F4xx_StdPeriph_Driver/src/stm32f4xx_cryp_aes.c ****     /* wait until the Busy flag is RESET */
 181:App/STM32F4-Discovery/Libraries/STM32F4xx_StdPeriph_Driver/src/stm32f4xx_cryp_aes.c ****     do
 182:App/STM32F4-Discovery/Libraries/STM32F4xx_StdPeriph_Driver/src/stm32f4xx_cryp_aes.c ****     {
 183:App/STM32F4-Discovery/Libraries/STM32F4xx_StdPeriph_Driver/src/stm32f4xx_cryp_aes.c ****       busystatus = CRYP_GetFlagStatus(CRYP_FLAG_BUSY);
 535              		.loc 1 183 0 discriminator 1
 536 02fc 4FF01000 		mov	r0, #16
 537 0300 FFF7FEFF 		bl	CRYP_GetFlagStatus
 538 0304 0346     		mov	r3, r0
 539 0306 C7F8D430 		str	r3, [r7, #212]
 184:App/STM32F4-Discovery/Libraries/STM32F4xx_StdPeriph_Driver/src/stm32f4xx_cryp_aes.c ****       counter++;
 540              		.loc 1 184 0 discriminator 1
 541 030a 7B69     		ldr	r3, [r7, #20]
 542 030c 03F10103 		add	r3, r3, #1
 543 0310 7B61     		str	r3, [r7, #20]
 185:App/STM32F4-Discovery/Libraries/STM32F4xx_StdPeriph_Driver/src/stm32f4xx_cryp_aes.c ****     }while ((counter != AESBUSY_TIMEOUT) && (busystatus != RESET));
 544              		.loc 1 185 0 discriminator 1
 545 0312 7B69     		ldr	r3, [r7, #20]
 546 0314 B3F5803F 		cmp	r3, #65536
 547 0318 03D0     		beq	.L26
 548 031a D7F8D430 		ldr	r3, [r7, #212]
 549 031e 002B     		cmp	r3, #0
 550 0320 ECD1     		bne	.L27
 551              	.L26:
 186:App/STM32F4-Discovery/Libraries/STM32F4xx_StdPeriph_Driver/src/stm32f4xx_cryp_aes.c **** 
 187:App/STM32F4-Discovery/Libraries/STM32F4xx_StdPeriph_Driver/src/stm32f4xx_cryp_aes.c ****     if (busystatus != RESET)
 552              		.loc 1 187 0
 553 0322 D7F8D430 		ldr	r3, [r7, #212]
 554 0326 002B     		cmp	r3, #0
 555 0328 04D0     		beq	.L28
 188:App/STM32F4-Discovery/Libraries/STM32F4xx_StdPeriph_Driver/src/stm32f4xx_cryp_aes.c ****    {
 189:App/STM32F4-Discovery/Libraries/STM32F4xx_StdPeriph_Driver/src/stm32f4xx_cryp_aes.c ****        status = ERROR;
 556              		.loc 1 189 0
 557 032a 4FF00003 		mov	r3, #0
 558 032e 87F8E730 		strb	r3, [r7, #231]
 559 0332 0BE0     		b	.L29
 560              	.L28:
 190:App/STM32F4-Discovery/Libraries/STM32F4xx_StdPeriph_Driver/src/stm32f4xx_cryp_aes.c ****     }
 191:App/STM32F4-Discovery/Libraries/STM32F4xx_StdPeriph_Driver/src/stm32f4xx_cryp_aes.c ****     else
 192:App/STM32F4-Discovery/Libraries/STM32F4xx_StdPeriph_Driver/src/stm32f4xx_cryp_aes.c ****     {
 193:App/STM32F4-Discovery/Libraries/STM32F4xx_StdPeriph_Driver/src/stm32f4xx_cryp_aes.c ****       /* Crypto Init for decryption process */  
 194:App/STM32F4-Discovery/Libraries/STM32F4xx_StdPeriph_Driver/src/stm32f4xx_cryp_aes.c ****       AES_CRYP_InitStructure.CRYP_AlgoDir = CRYP_AlgoDir_Decrypt;
 561              		.loc 1 194 0
 562 0334 4FF00403 		mov	r3, #4
 563 0338 3B87     		strh	r3, [r7, #56]	@ movhi
 564 033a 07E0     		b	.L29
 565              	.L25:
 195:App/STM32F4-Discovery/Libraries/STM32F4xx_StdPeriph_Driver/src/stm32f4xx_cryp_aes.c ****     }
 196:App/STM32F4-Discovery/Libraries/STM32F4xx_StdPeriph_Driver/src/stm32f4xx_cryp_aes.c ****   }
 197:App/STM32F4-Discovery/Libraries/STM32F4xx_StdPeriph_Driver/src/stm32f4xx_cryp_aes.c ****   /*------------------ AES Encryption ------------------*/
 198:App/STM32F4-Discovery/Libraries/STM32F4xx_StdPeriph_Driver/src/stm32f4xx_cryp_aes.c ****   else /* AES encryption */
 199:App/STM32F4-Discovery/Libraries/STM32F4xx_StdPeriph_Driver/src/stm32f4xx_cryp_aes.c ****   {
 200:App/STM32F4-Discovery/Libraries/STM32F4xx_StdPeriph_Driver/src/stm32f4xx_cryp_aes.c **** 
 201:App/STM32F4-Discovery/Libraries/STM32F4xx_StdPeriph_Driver/src/stm32f4xx_cryp_aes.c ****     CRYP_KeyInit(&AES_CRYP_KeyInitStructure);
 566              		.loc 1 201 0
 567 033c 07F11803 		add	r3, r7, #24
 568 0340 1846     		mov	r0, r3
 569 0342 FFF7FEFF 		bl	CRYP_KeyInit
 202:App/STM32F4-Discovery/Libraries/STM32F4xx_StdPeriph_Driver/src/stm32f4xx_cryp_aes.c **** 
 203:App/STM32F4-Discovery/Libraries/STM32F4xx_StdPeriph_Driver/src/stm32f4xx_cryp_aes.c ****     /* Crypto Init for Encryption process */
 204:App/STM32F4-Discovery/Libraries/STM32F4xx_StdPeriph_Driver/src/stm32f4xx_cryp_aes.c ****     AES_CRYP_InitStructure.CRYP_AlgoDir  = CRYP_AlgoDir_Encrypt;
 570              		.loc 1 204 0
 571 0346 4FF00003 		mov	r3, #0
 572 034a 3B87     		strh	r3, [r7, #56]	@ movhi
 573              	.L29:
 205:App/STM32F4-Discovery/Libraries/STM32F4xx_StdPeriph_Driver/src/stm32f4xx_cryp_aes.c ****   }
 206:App/STM32F4-Discovery/Libraries/STM32F4xx_StdPeriph_Driver/src/stm32f4xx_cryp_aes.c **** 
 207:App/STM32F4-Discovery/Libraries/STM32F4xx_StdPeriph_Driver/src/stm32f4xx_cryp_aes.c ****   AES_CRYP_InitStructure.CRYP_AlgoMode = CRYP_AlgoMode_AES_ECB;
 574              		.loc 1 207 0
 575 034c 4FF02003 		mov	r3, #32
 576 0350 7B87     		strh	r3, [r7, #58]	@ movhi
 208:App/STM32F4-Discovery/Libraries/STM32F4xx_StdPeriph_Driver/src/stm32f4xx_cryp_aes.c ****   AES_CRYP_InitStructure.CRYP_DataType = CRYP_DataType_8b;
 577              		.loc 1 208 0
 578 0352 4FF08003 		mov	r3, #128
 579 0356 BB87     		strh	r3, [r7, #60]	@ movhi
 209:App/STM32F4-Discovery/Libraries/STM32F4xx_StdPeriph_Driver/src/stm32f4xx_cryp_aes.c ****   CRYP_Init(&AES_CRYP_InitStructure);
 580              		.loc 1 209 0
 581 0358 07F13803 		add	r3, r7, #56
 582 035c 1846     		mov	r0, r3
 583 035e FFF7FEFF 		bl	CRYP_Init
 210:App/STM32F4-Discovery/Libraries/STM32F4xx_StdPeriph_Driver/src/stm32f4xx_cryp_aes.c **** 
 211:App/STM32F4-Discovery/Libraries/STM32F4xx_StdPeriph_Driver/src/stm32f4xx_cryp_aes.c ****   /* Flush IN/OUT FIFOs */
 212:App/STM32F4-Discovery/Libraries/STM32F4xx_StdPeriph_Driver/src/stm32f4xx_cryp_aes.c ****   CRYP_FIFOFlush();
 584              		.loc 1 212 0
 585 0362 FFF7FEFF 		bl	CRYP_FIFOFlush
 213:App/STM32F4-Discovery/Libraries/STM32F4xx_StdPeriph_Driver/src/stm32f4xx_cryp_aes.c **** 
 214:App/STM32F4-Discovery/Libraries/STM32F4xx_StdPeriph_Driver/src/stm32f4xx_cryp_aes.c ****   /* Enable Crypto processor */
 215:App/STM32F4-Discovery/Libraries/STM32F4xx_StdPeriph_Driver/src/stm32f4xx_cryp_aes.c ****   CRYP_Cmd(ENABLE);
 586              		.loc 1 215 0
 587 0366 4FF00100 		mov	r0, #1
 588 036a FFF7FEFF 		bl	CRYP_Cmd
 216:App/STM32F4-Discovery/Libraries/STM32F4xx_StdPeriph_Driver/src/stm32f4xx_cryp_aes.c **** 
 217:App/STM32F4-Discovery/Libraries/STM32F4xx_StdPeriph_Driver/src/stm32f4xx_cryp_aes.c ****   for(i=0; ((i<Ilength) && (status != ERROR)); i+=16)
 589              		.loc 1 217 0
 590 036e 4FF00003 		mov	r3, #0
 591 0372 C7F8D830 		str	r3, [r7, #216]
 592 0376 84E0     		b	.L30
 593              	.L36:
 218:App/STM32F4-Discovery/Libraries/STM32F4xx_StdPeriph_Driver/src/stm32f4xx_cryp_aes.c ****   {
 219:App/STM32F4-Discovery/Libraries/STM32F4xx_StdPeriph_Driver/src/stm32f4xx_cryp_aes.c **** 
 220:App/STM32F4-Discovery/Libraries/STM32F4xx_StdPeriph_Driver/src/stm32f4xx_cryp_aes.c ****     /* Write the Input block in the IN FIFO */
 221:App/STM32F4-Discovery/Libraries/STM32F4xx_StdPeriph_Driver/src/stm32f4xx_cryp_aes.c ****     CRYP_DataIn(*(uint32_t*)(inputaddr));
 594              		.loc 1 221 0
 595 0378 D7F8E030 		ldr	r3, [r7, #224]
 596 037c 1B68     		ldr	r3, [r3, #0]
 597 037e 1846     		mov	r0, r3
 598 0380 FFF7FEFF 		bl	CRYP_DataIn
 222:App/STM32F4-Discovery/Libraries/STM32F4xx_StdPeriph_Driver/src/stm32f4xx_cryp_aes.c ****     inputaddr+=4;
 599              		.loc 1 222 0
 600 0384 D7F8E030 		ldr	r3, [r7, #224]
 601 0388 03F10403 		add	r3, r3, #4
 602 038c C7F8E030 		str	r3, [r7, #224]
 223:App/STM32F4-Discovery/Libraries/STM32F4xx_StdPeriph_Driver/src/stm32f4xx_cryp_aes.c ****     CRYP_DataIn(*(uint32_t*)(inputaddr));
 603              		.loc 1 223 0
 604 0390 D7F8E030 		ldr	r3, [r7, #224]
 605 0394 1B68     		ldr	r3, [r3, #0]
 606 0396 1846     		mov	r0, r3
 607 0398 FFF7FEFF 		bl	CRYP_DataIn
 224:App/STM32F4-Discovery/Libraries/STM32F4xx_StdPeriph_Driver/src/stm32f4xx_cryp_aes.c ****     inputaddr+=4;
 608              		.loc 1 224 0
 609 039c D7F8E030 		ldr	r3, [r7, #224]
 610 03a0 03F10403 		add	r3, r3, #4
 611 03a4 C7F8E030 		str	r3, [r7, #224]
 225:App/STM32F4-Discovery/Libraries/STM32F4xx_StdPeriph_Driver/src/stm32f4xx_cryp_aes.c ****     CRYP_DataIn(*(uint32_t*)(inputaddr));
 612              		.loc 1 225 0
 613 03a8 D7F8E030 		ldr	r3, [r7, #224]
 614 03ac 1B68     		ldr	r3, [r3, #0]
 615 03ae 1846     		mov	r0, r3
 616 03b0 FFF7FEFF 		bl	CRYP_DataIn
 226:App/STM32F4-Discovery/Libraries/STM32F4xx_StdPeriph_Driver/src/stm32f4xx_cryp_aes.c ****     inputaddr+=4;
 617              		.loc 1 226 0
 618 03b4 D7F8E030 		ldr	r3, [r7, #224]
 619 03b8 03F10403 		add	r3, r3, #4
 620 03bc C7F8E030 		str	r3, [r7, #224]
 227:App/STM32F4-Discovery/Libraries/STM32F4xx_StdPeriph_Driver/src/stm32f4xx_cryp_aes.c ****     CRYP_DataIn(*(uint32_t*)(inputaddr));
 621              		.loc 1 227 0
 622 03c0 D7F8E030 		ldr	r3, [r7, #224]
 623 03c4 1B68     		ldr	r3, [r3, #0]
 624 03c6 1846     		mov	r0, r3
 625 03c8 FFF7FEFF 		bl	CRYP_DataIn
 228:App/STM32F4-Discovery/Libraries/STM32F4xx_StdPeriph_Driver/src/stm32f4xx_cryp_aes.c ****     inputaddr+=4;
 626              		.loc 1 228 0
 627 03cc D7F8E030 		ldr	r3, [r7, #224]
 628 03d0 03F10403 		add	r3, r3, #4
 629 03d4 C7F8E030 		str	r3, [r7, #224]
 229:App/STM32F4-Discovery/Libraries/STM32F4xx_StdPeriph_Driver/src/stm32f4xx_cryp_aes.c **** 
 230:App/STM32F4-Discovery/Libraries/STM32F4xx_StdPeriph_Driver/src/stm32f4xx_cryp_aes.c ****     /* Wait until the complete message has been processed */
 231:App/STM32F4-Discovery/Libraries/STM32F4xx_StdPeriph_Driver/src/stm32f4xx_cryp_aes.c ****     counter = 0;
 630              		.loc 1 231 0
 631 03d8 4FF00003 		mov	r3, #0
 632 03dc 7B61     		str	r3, [r7, #20]
 633              	.L32:
 232:App/STM32F4-Discovery/Libraries/STM32F4xx_StdPeriph_Driver/src/stm32f4xx_cryp_aes.c ****     do
 233:App/STM32F4-Discovery/Libraries/STM32F4xx_StdPeriph_Driver/src/stm32f4xx_cryp_aes.c ****     {
 234:App/STM32F4-Discovery/Libraries/STM32F4xx_StdPeriph_Driver/src/stm32f4xx_cryp_aes.c ****       busystatus = CRYP_GetFlagStatus(CRYP_FLAG_BUSY);
 634              		.loc 1 234 0 discriminator 1
 635 03de 4FF01000 		mov	r0, #16
 636 03e2 FFF7FEFF 		bl	CRYP_GetFlagStatus
 637 03e6 0346     		mov	r3, r0
 638 03e8 C7F8D430 		str	r3, [r7, #212]
 235:App/STM32F4-Discovery/Libraries/STM32F4xx_StdPeriph_Driver/src/stm32f4xx_cryp_aes.c ****       counter++;
 639              		.loc 1 235 0 discriminator 1
 640 03ec 7B69     		ldr	r3, [r7, #20]
 641 03ee 03F10103 		add	r3, r3, #1
 642 03f2 7B61     		str	r3, [r7, #20]
 236:App/STM32F4-Discovery/Libraries/STM32F4xx_StdPeriph_Driver/src/stm32f4xx_cryp_aes.c ****     }while ((counter != AESBUSY_TIMEOUT) && (busystatus != RESET));
 643              		.loc 1 236 0 discriminator 1
 644 03f4 7B69     		ldr	r3, [r7, #20]
 645 03f6 B3F5803F 		cmp	r3, #65536
 646 03fa 03D0     		beq	.L31
 647 03fc D7F8D430 		ldr	r3, [r7, #212]
 648 0400 002B     		cmp	r3, #0
 649 0402 ECD1     		bne	.L32
 650              	.L31:
 237:App/STM32F4-Discovery/Libraries/STM32F4xx_StdPeriph_Driver/src/stm32f4xx_cryp_aes.c **** 
 238:App/STM32F4-Discovery/Libraries/STM32F4xx_StdPeriph_Driver/src/stm32f4xx_cryp_aes.c ****     if (busystatus != RESET)
 651              		.loc 1 238 0
 652 0404 D7F8D430 		ldr	r3, [r7, #212]
 653 0408 002B     		cmp	r3, #0
 654 040a 04D0     		beq	.L33
 239:App/STM32F4-Discovery/Libraries/STM32F4xx_StdPeriph_Driver/src/stm32f4xx_cryp_aes.c ****    {
 240:App/STM32F4-Discovery/Libraries/STM32F4xx_StdPeriph_Driver/src/stm32f4xx_cryp_aes.c ****        status = ERROR;
 655              		.loc 1 240 0
 656 040c 4FF00003 		mov	r3, #0
 657 0410 87F8E730 		strb	r3, [r7, #231]
 658 0414 2FE0     		b	.L34
 659              	.L33:
 241:App/STM32F4-Discovery/Libraries/STM32F4xx_StdPeriph_Driver/src/stm32f4xx_cryp_aes.c ****     }
 242:App/STM32F4-Discovery/Libraries/STM32F4xx_StdPeriph_Driver/src/stm32f4xx_cryp_aes.c ****     else
 243:App/STM32F4-Discovery/Libraries/STM32F4xx_StdPeriph_Driver/src/stm32f4xx_cryp_aes.c ****     {
 244:App/STM32F4-Discovery/Libraries/STM32F4xx_StdPeriph_Driver/src/stm32f4xx_cryp_aes.c **** 
 245:App/STM32F4-Discovery/Libraries/STM32F4xx_StdPeriph_Driver/src/stm32f4xx_cryp_aes.c ****       /* Read the Output block from the Output FIFO */
 246:App/STM32F4-Discovery/Libraries/STM32F4xx_StdPeriph_Driver/src/stm32f4xx_cryp_aes.c ****       *(uint32_t*)(outputaddr) = CRYP_DataOut();
 660              		.loc 1 246 0
 661 0416 D7F8DC40 		ldr	r4, [r7, #220]
 662 041a FFF7FEFF 		bl	CRYP_DataOut
 663 041e 0346     		mov	r3, r0
 664 0420 2360     		str	r3, [r4, #0]
 247:App/STM32F4-Discovery/Libraries/STM32F4xx_StdPeriph_Driver/src/stm32f4xx_cryp_aes.c ****       outputaddr+=4;
 665              		.loc 1 247 0
 666 0422 D7F8DC30 		ldr	r3, [r7, #220]
 667 0426 03F10403 		add	r3, r3, #4
 668 042a C7F8DC30 		str	r3, [r7, #220]
 248:App/STM32F4-Discovery/Libraries/STM32F4xx_StdPeriph_Driver/src/stm32f4xx_cryp_aes.c ****       *(uint32_t*)(outputaddr) = CRYP_DataOut();
 669              		.loc 1 248 0
 670 042e D7F8DC40 		ldr	r4, [r7, #220]
 671 0432 FFF7FEFF 		bl	CRYP_DataOut
 672 0436 0346     		mov	r3, r0
 673 0438 2360     		str	r3, [r4, #0]
 249:App/STM32F4-Discovery/Libraries/STM32F4xx_StdPeriph_Driver/src/stm32f4xx_cryp_aes.c ****       outputaddr+=4;
 674              		.loc 1 249 0
 675 043a D7F8DC30 		ldr	r3, [r7, #220]
 676 043e 03F10403 		add	r3, r3, #4
 677 0442 C7F8DC30 		str	r3, [r7, #220]
 250:App/STM32F4-Discovery/Libraries/STM32F4xx_StdPeriph_Driver/src/stm32f4xx_cryp_aes.c ****       *(uint32_t*)(outputaddr) = CRYP_DataOut();
 678              		.loc 1 250 0
 679 0446 D7F8DC40 		ldr	r4, [r7, #220]
 680 044a FFF7FEFF 		bl	CRYP_DataOut
 681 044e 0346     		mov	r3, r0
 682 0450 2360     		str	r3, [r4, #0]
 251:App/STM32F4-Discovery/Libraries/STM32F4xx_StdPeriph_Driver/src/stm32f4xx_cryp_aes.c ****       outputaddr+=4;
 683              		.loc 1 251 0
 684 0452 D7F8DC30 		ldr	r3, [r7, #220]
 685 0456 03F10403 		add	r3, r3, #4
 686 045a C7F8DC30 		str	r3, [r7, #220]
 252:App/STM32F4-Discovery/Libraries/STM32F4xx_StdPeriph_Driver/src/stm32f4xx_cryp_aes.c ****       *(uint32_t*)(outputaddr) = CRYP_DataOut(); 
 687              		.loc 1 252 0
 688 045e D7F8DC40 		ldr	r4, [r7, #220]
 689 0462 FFF7FEFF 		bl	CRYP_DataOut
 690 0466 0346     		mov	r3, r0
 691 0468 2360     		str	r3, [r4, #0]
 253:App/STM32F4-Discovery/Libraries/STM32F4xx_StdPeriph_Driver/src/stm32f4xx_cryp_aes.c ****       outputaddr+=4;
 692              		.loc 1 253 0
 693 046a D7F8DC30 		ldr	r3, [r7, #220]
 694 046e 03F10403 		add	r3, r3, #4
 695 0472 C7F8DC30 		str	r3, [r7, #220]
 696              	.L34:
 217:App/STM32F4-Discovery/Libraries/STM32F4xx_StdPeriph_Driver/src/stm32f4xx_cryp_aes.c ****   for(i=0; ((i<Ilength) && (status != ERROR)); i+=16)
 697              		.loc 1 217 0
 698 0476 D7F8D830 		ldr	r3, [r7, #216]
 699 047a 03F11003 		add	r3, r3, #16
 700 047e C7F8D830 		str	r3, [r7, #216]
 701              	.L30:
 217:App/STM32F4-Discovery/Libraries/STM32F4xx_StdPeriph_Driver/src/stm32f4xx_cryp_aes.c ****   for(i=0; ((i<Ilength) && (status != ERROR)); i+=16)
 702              		.loc 1 217 0 is_stmt 0 discriminator 1
 703 0482 D7F8D820 		ldr	r2, [r7, #216]
 704 0486 D7F8F830 		ldr	r3, [r7, #248]
 705 048a 9A42     		cmp	r2, r3
 706 048c 04D2     		bcs	.L35
 217:App/STM32F4-Discovery/Libraries/STM32F4xx_StdPeriph_Driver/src/stm32f4xx_cryp_aes.c ****   for(i=0; ((i<Ilength) && (status != ERROR)); i+=16)
 707              		.loc 1 217 0 discriminator 2
 708 048e 97F8E730 		ldrb	r3, [r7, #231]	@ zero_extendqisi2
 709 0492 002B     		cmp	r3, #0
 710 0494 7FF470AF 		bne	.L36
 711              	.L35:
 254:App/STM32F4-Discovery/Libraries/STM32F4xx_StdPeriph_Driver/src/stm32f4xx_cryp_aes.c ****     }
 255:App/STM32F4-Discovery/Libraries/STM32F4xx_StdPeriph_Driver/src/stm32f4xx_cryp_aes.c ****   }
 256:App/STM32F4-Discovery/Libraries/STM32F4xx_StdPeriph_Driver/src/stm32f4xx_cryp_aes.c **** 
 257:App/STM32F4-Discovery/Libraries/STM32F4xx_StdPeriph_Driver/src/stm32f4xx_cryp_aes.c ****   /* Disable Crypto */
 258:App/STM32F4-Discovery/Libraries/STM32F4xx_StdPeriph_Driver/src/stm32f4xx_cryp_aes.c ****   CRYP_Cmd(DISABLE);
 712              		.loc 1 258 0 is_stmt 1
 713 0498 4FF00000 		mov	r0, #0
 714 049c FFF7FEFF 		bl	CRYP_Cmd
 259:App/STM32F4-Discovery/Libraries/STM32F4xx_StdPeriph_Driver/src/stm32f4xx_cryp_aes.c **** 
 260:App/STM32F4-Discovery/Libraries/STM32F4xx_StdPeriph_Driver/src/stm32f4xx_cryp_aes.c ****   return status; 
 715              		.loc 1 260 0
 716 04a0 97F8E730 		ldrb	r3, [r7, #231]	@ zero_extendqisi2
 261:App/STM32F4-Discovery/Libraries/STM32F4xx_StdPeriph_Driver/src/stm32f4xx_cryp_aes.c **** }
 717              		.loc 1 261 0
 718 04a4 1846     		mov	r0, r3
 719 04a6 07F1EC07 		add	r7, r7, #236
 720 04aa BD46     		mov	sp, r7
 721 04ac 90BD     		pop	{r4, r7, pc}
 722              		.cfi_endproc
 723              	.LFE110:
 725 04ae 00BF     		.section	.text.CRYP_AES_CBC,"ax",%progbits
 726              		.align	2
 727              		.global	CRYP_AES_CBC
 728              		.thumb
 729              		.thumb_func
 731              	CRYP_AES_CBC:
 732              	.LFB111:
 262:App/STM32F4-Discovery/Libraries/STM32F4xx_StdPeriph_Driver/src/stm32f4xx_cryp_aes.c **** 
 263:App/STM32F4-Discovery/Libraries/STM32F4xx_StdPeriph_Driver/src/stm32f4xx_cryp_aes.c **** /**
 264:App/STM32F4-Discovery/Libraries/STM32F4xx_StdPeriph_Driver/src/stm32f4xx_cryp_aes.c ****   * @brief  Encrypt and decrypt using AES in CBC Mode
 265:App/STM32F4-Discovery/Libraries/STM32F4xx_StdPeriph_Driver/src/stm32f4xx_cryp_aes.c ****   * @param  Mode: encryption or decryption Mode.
 266:App/STM32F4-Discovery/Libraries/STM32F4xx_StdPeriph_Driver/src/stm32f4xx_cryp_aes.c ****   *          This parameter can be one of the following values:
 267:App/STM32F4-Discovery/Libraries/STM32F4xx_StdPeriph_Driver/src/stm32f4xx_cryp_aes.c ****   *            @arg MODE_ENCRYPT: Encryption
 268:App/STM32F4-Discovery/Libraries/STM32F4xx_StdPeriph_Driver/src/stm32f4xx_cryp_aes.c ****   *            @arg MODE_DECRYPT: Decryption
 269:App/STM32F4-Discovery/Libraries/STM32F4xx_StdPeriph_Driver/src/stm32f4xx_cryp_aes.c ****   * @param  InitVectors: Initialisation Vectors used for AES algorithm.
 270:App/STM32F4-Discovery/Libraries/STM32F4xx_StdPeriph_Driver/src/stm32f4xx_cryp_aes.c ****   * @param  Key: Key used for AES algorithm.
 271:App/STM32F4-Discovery/Libraries/STM32F4xx_StdPeriph_Driver/src/stm32f4xx_cryp_aes.c ****   * @param  Keysize: length of the Key, must be a 128, 192 or 256.
 272:App/STM32F4-Discovery/Libraries/STM32F4xx_StdPeriph_Driver/src/stm32f4xx_cryp_aes.c ****   * @param  Input: pointer to the Input buffer.
 273:App/STM32F4-Discovery/Libraries/STM32F4xx_StdPeriph_Driver/src/stm32f4xx_cryp_aes.c ****   * @param  Ilength: length of the Input buffer, must be a multiple of 16.
 274:App/STM32F4-Discovery/Libraries/STM32F4xx_StdPeriph_Driver/src/stm32f4xx_cryp_aes.c ****   * @param  Output: pointer to the returned buffer.
 275:App/STM32F4-Discovery/Libraries/STM32F4xx_StdPeriph_Driver/src/stm32f4xx_cryp_aes.c ****   * @retval An ErrorStatus enumeration value:
 276:App/STM32F4-Discovery/Libraries/STM32F4xx_StdPeriph_Driver/src/stm32f4xx_cryp_aes.c ****   *          - SUCCESS: Operation done
 277:App/STM32F4-Discovery/Libraries/STM32F4xx_StdPeriph_Driver/src/stm32f4xx_cryp_aes.c ****   *          - ERROR: Operation failed
 278:App/STM32F4-Discovery/Libraries/STM32F4xx_StdPeriph_Driver/src/stm32f4xx_cryp_aes.c ****   */
 279:App/STM32F4-Discovery/Libraries/STM32F4xx_StdPeriph_Driver/src/stm32f4xx_cryp_aes.c **** ErrorStatus CRYP_AES_CBC(uint8_t Mode, uint8_t InitVectors[16], uint8_t *Key,
 280:App/STM32F4-Discovery/Libraries/STM32F4xx_StdPeriph_Driver/src/stm32f4xx_cryp_aes.c ****                          uint16_t Keysize, uint8_t *Input, uint32_t Ilength,
 281:App/STM32F4-Discovery/Libraries/STM32F4xx_StdPeriph_Driver/src/stm32f4xx_cryp_aes.c ****                          uint8_t *Output)
 282:App/STM32F4-Discovery/Libraries/STM32F4xx_StdPeriph_Driver/src/stm32f4xx_cryp_aes.c **** {
 733              		.loc 1 282 0
 734              		.cfi_startproc
 735              		@ args = 12, pretend = 0, frame = 280
 736              		@ frame_needed = 1, uses_anonymous_args = 0
 737 0000 90B5     		push	{r4, r7, lr}
 738              	.LCFI3:
 739              		.cfi_def_cfa_offset 12
 740              		.cfi_offset 4, -12
 741              		.cfi_offset 7, -8
 742              		.cfi_offset 14, -4
 743 0002 C7B0     		sub	sp, sp, #284
 744              	.LCFI4:
 745              		.cfi_def_cfa_offset 296
 746 0004 00AF     		add	r7, sp, #0
 747              	.LCFI5:
 748              		.cfi_def_cfa_register 7
 749 0006 07F10804 		add	r4, r7, #8
 750 000a 2160     		str	r1, [r4, #0]
 751 000c 07F10401 		add	r1, r7, #4
 752 0010 0A60     		str	r2, [r1, #0]
 753 0012 1A46     		mov	r2, r3
 754 0014 07F10F03 		add	r3, r7, #15
 755 0018 0146     		mov	r1, r0
 756 001a 1970     		strb	r1, [r3, #0]
 757 001c 07F10C03 		add	r3, r7, #12
 758 0020 1A80     		strh	r2, [r3, #0]	@ movhi
 283:App/STM32F4-Discovery/Libraries/STM32F4xx_StdPeriph_Driver/src/stm32f4xx_cryp_aes.c ****   CRYP_InitTypeDef AES_CRYP_InitStructure;
 284:App/STM32F4-Discovery/Libraries/STM32F4xx_StdPeriph_Driver/src/stm32f4xx_cryp_aes.c ****   CRYP_KeyInitTypeDef AES_CRYP_KeyInitStructure;
 285:App/STM32F4-Discovery/Libraries/STM32F4xx_StdPeriph_Driver/src/stm32f4xx_cryp_aes.c ****   CRYP_IVInitTypeDef AES_CRYP_IVInitStructure;
 286:App/STM32F4-Discovery/Libraries/STM32F4xx_StdPeriph_Driver/src/stm32f4xx_cryp_aes.c ****   __IO uint32_t counter = 0;
 759              		.loc 1 286 0
 760 0022 07F11003 		add	r3, r7, #16
 761 0026 4FF00002 		mov	r2, #0
 762 002a 1A60     		str	r2, [r3, #0]
 287:App/STM32F4-Discovery/Libraries/STM32F4xx_StdPeriph_Driver/src/stm32f4xx_cryp_aes.c ****   uint32_t busystatus = 0;
 763              		.loc 1 287 0
 764 002c 4FF00003 		mov	r3, #0
 765 0030 C7F80431 		str	r3, [r7, #260]
 288:App/STM32F4-Discovery/Libraries/STM32F4xx_StdPeriph_Driver/src/stm32f4xx_cryp_aes.c ****   ErrorStatus status = SUCCESS;
 766              		.loc 1 288 0
 767 0034 4FF00103 		mov	r3, #1
 768 0038 87F81731 		strb	r3, [r7, #279]
 289:App/STM32F4-Discovery/Libraries/STM32F4xx_StdPeriph_Driver/src/stm32f4xx_cryp_aes.c ****   uint32_t keyaddr    = (uint32_t)Key;
 769              		.loc 1 289 0
 770 003c 07F10403 		add	r3, r7, #4
 771 0040 1B68     		ldr	r3, [r3, #0]
 772 0042 C7F80031 		str	r3, [r7, #256]
 290:App/STM32F4-Discovery/Libraries/STM32F4xx_StdPeriph_Driver/src/stm32f4xx_cryp_aes.c ****   uint32_t inputaddr  = (uint32_t)Input;
 773              		.loc 1 290 0
 774 0046 D7F82831 		ldr	r3, [r7, #296]
 775 004a C7F81031 		str	r3, [r7, #272]
 291:App/STM32F4-Discovery/Libraries/STM32F4xx_StdPeriph_Driver/src/stm32f4xx_cryp_aes.c ****   uint32_t outputaddr = (uint32_t)Output;
 776              		.loc 1 291 0
 777 004e D7F83031 		ldr	r3, [r7, #304]
 778 0052 C7F80C31 		str	r3, [r7, #268]
 292:App/STM32F4-Discovery/Libraries/STM32F4xx_StdPeriph_Driver/src/stm32f4xx_cryp_aes.c ****   uint32_t ivaddr     = (uint32_t)InitVectors;
 779              		.loc 1 292 0
 780 0056 07F10803 		add	r3, r7, #8
 781 005a 1B68     		ldr	r3, [r3, #0]
 782 005c C7F8FC30 		str	r3, [r7, #252]
 293:App/STM32F4-Discovery/Libraries/STM32F4xx_StdPeriph_Driver/src/stm32f4xx_cryp_aes.c ****   uint32_t i = 0;
 783              		.loc 1 293 0
 784 0060 4FF00003 		mov	r3, #0
 785 0064 C7F80831 		str	r3, [r7, #264]
 294:App/STM32F4-Discovery/Libraries/STM32F4xx_StdPeriph_Driver/src/stm32f4xx_cryp_aes.c **** 
 295:App/STM32F4-Discovery/Libraries/STM32F4xx_StdPeriph_Driver/src/stm32f4xx_cryp_aes.c ****   /* Crypto structures initialisation*/
 296:App/STM32F4-Discovery/Libraries/STM32F4xx_StdPeriph_Driver/src/stm32f4xx_cryp_aes.c ****   CRYP_KeyStructInit(&AES_CRYP_KeyInitStructure);
 786              		.loc 1 296 0
 787 0068 07F12403 		add	r3, r7, #36
 788 006c 1846     		mov	r0, r3
 789 006e FFF7FEFF 		bl	CRYP_KeyStructInit
 297:App/STM32F4-Discovery/Libraries/STM32F4xx_StdPeriph_Driver/src/stm32f4xx_cryp_aes.c **** 
 298:App/STM32F4-Discovery/Libraries/STM32F4xx_StdPeriph_Driver/src/stm32f4xx_cryp_aes.c ****   switch(Keysize)
 790              		.loc 1 298 0
 791 0072 07F10C03 		add	r3, r7, #12
 792 0076 1B88     		ldrh	r3, [r3, #0]
 793 0078 C02B     		cmp	r3, #192
 794 007a 51D0     		beq	.L42
 795 007c B3F5807F 		cmp	r3, #256
 796 0080 00F0BF80 		beq	.L43
 797 0084 802B     		cmp	r3, #128
 798 0086 40F04981 		bne	.L80
 799              	.L41:
 299:App/STM32F4-Discovery/Libraries/STM32F4xx_StdPeriph_Driver/src/stm32f4xx_cryp_aes.c ****   {
 300:App/STM32F4-Discovery/Libraries/STM32F4xx_StdPeriph_Driver/src/stm32f4xx_cryp_aes.c ****     case 128:
 301:App/STM32F4-Discovery/Libraries/STM32F4xx_StdPeriph_Driver/src/stm32f4xx_cryp_aes.c ****     AES_CRYP_InitStructure.CRYP_KeySize = CRYP_KeySize_128b;
 800              		.loc 1 301 0
 801 008a 4FF00003 		mov	r3, #0
 802 008e A7F84A30 		strh	r3, [r7, #74]	@ movhi
 302:App/STM32F4-Discovery/Libraries/STM32F4xx_StdPeriph_Driver/src/stm32f4xx_cryp_aes.c ****     AES_CRYP_KeyInitStructure.CRYP_Key2Left = __REV(*(uint32_t*)(keyaddr));
 803              		.loc 1 302 0
 804 0092 D7F80031 		ldr	r3, [r7, #256]
 805 0096 1B68     		ldr	r3, [r3, #0]
 806 0098 C7F8F830 		str	r3, [r7, #248]
 807              	.LBB162:
 808              	.LBB163:
 352:App/STM32F4-Discovery/Libraries/CMSIS/Include/core_cmInstr.h ****   __ASM volatile ("rev %0, %1" : "=r" (result) : "r" (value) );
 809              		.loc 2 352 0
 810 009c D7F8F830 		ldr	r3, [r7, #248]
 811              	@ 352 "App/STM32F4-Discovery/Libraries/CMSIS/Include/core_cmInstr.h" 1
 812 00a0 1CBA     		rev r4, r3
 813              	@ 0 "" 2
 814              		.thumb
 815 00a2 C7F8F440 		str	r4, [r7, #244]
 816              		.loc 2 353 0
 817 00a6 D7F8F430 		ldr	r3, [r7, #244]
 818              	.LBE163:
 819              	.LBE162:
 820              		.loc 1 302 0
 821 00aa 7B63     		str	r3, [r7, #52]
 303:App/STM32F4-Discovery/Libraries/STM32F4xx_StdPeriph_Driver/src/stm32f4xx_cryp_aes.c ****     keyaddr+=4;
 822              		.loc 1 303 0
 823 00ac D7F80031 		ldr	r3, [r7, #256]
 824 00b0 03F10403 		add	r3, r3, #4
 825 00b4 C7F80031 		str	r3, [r7, #256]
 304:App/STM32F4-Discovery/Libraries/STM32F4xx_StdPeriph_Driver/src/stm32f4xx_cryp_aes.c ****     AES_CRYP_KeyInitStructure.CRYP_Key2Right= __REV(*(uint32_t*)(keyaddr));
 826              		.loc 1 304 0
 827 00b8 D7F80031 		ldr	r3, [r7, #256]
 828 00bc 1B68     		ldr	r3, [r3, #0]
 829 00be C7F8F030 		str	r3, [r7, #240]
 830              	.LBB164:
 831              	.LBB165:
 352:App/STM32F4-Discovery/Libraries/CMSIS/Include/core_cmInstr.h ****   __ASM volatile ("rev %0, %1" : "=r" (result) : "r" (value) );
 832              		.loc 2 352 0
 833 00c2 D7F8F030 		ldr	r3, [r7, #240]
 834              	@ 352 "App/STM32F4-Discovery/Libraries/CMSIS/Include/core_cmInstr.h" 1
 835 00c6 1CBA     		rev r4, r3
 836              	@ 0 "" 2
 837              		.thumb
 838 00c8 C7F8EC40 		str	r4, [r7, #236]
 839              		.loc 2 353 0
 840 00cc D7F8EC30 		ldr	r3, [r7, #236]
 841              	.LBE165:
 842              	.LBE164:
 843              		.loc 1 304 0
 844 00d0 BB63     		str	r3, [r7, #56]
 305:App/STM32F4-Discovery/Libraries/STM32F4xx_StdPeriph_Driver/src/stm32f4xx_cryp_aes.c ****     keyaddr+=4;
 845              		.loc 1 305 0
 846 00d2 D7F80031 		ldr	r3, [r7, #256]
 847 00d6 03F10403 		add	r3, r3, #4
 848 00da C7F80031 		str	r3, [r7, #256]
 306:App/STM32F4-Discovery/Libraries/STM32F4xx_StdPeriph_Driver/src/stm32f4xx_cryp_aes.c ****     AES_CRYP_KeyInitStructure.CRYP_Key3Left = __REV(*(uint32_t*)(keyaddr));
 849              		.loc 1 306 0
 850 00de D7F80031 		ldr	r3, [r7, #256]
 851 00e2 1B68     		ldr	r3, [r3, #0]
 852 00e4 C7F8E830 		str	r3, [r7, #232]
 853              	.LBB166:
 854              	.LBB167:
 352:App/STM32F4-Discovery/Libraries/CMSIS/Include/core_cmInstr.h ****   __ASM volatile ("rev %0, %1" : "=r" (result) : "r" (value) );
 855              		.loc 2 352 0
 856 00e8 D7F8E830 		ldr	r3, [r7, #232]
 857              	@ 352 "App/STM32F4-Discovery/Libraries/CMSIS/Include/core_cmInstr.h" 1
 858 00ec 1CBA     		rev r4, r3
 859              	@ 0 "" 2
 860              		.thumb
 861 00ee C7F8E440 		str	r4, [r7, #228]
 862              		.loc 2 353 0
 863 00f2 D7F8E430 		ldr	r3, [r7, #228]
 864              	.LBE167:
 865              	.LBE166:
 866              		.loc 1 306 0
 867 00f6 FB63     		str	r3, [r7, #60]
 307:App/STM32F4-Discovery/Libraries/STM32F4xx_StdPeriph_Driver/src/stm32f4xx_cryp_aes.c ****     keyaddr+=4;
 868              		.loc 1 307 0
 869 00f8 D7F80031 		ldr	r3, [r7, #256]
 870 00fc 03F10403 		add	r3, r3, #4
 871 0100 C7F80031 		str	r3, [r7, #256]
 308:App/STM32F4-Discovery/Libraries/STM32F4xx_StdPeriph_Driver/src/stm32f4xx_cryp_aes.c ****     AES_CRYP_KeyInitStructure.CRYP_Key3Right= __REV(*(uint32_t*)(keyaddr));
 872              		.loc 1 308 0
 873 0104 D7F80031 		ldr	r3, [r7, #256]
 874 0108 1B68     		ldr	r3, [r3, #0]
 875 010a C7F8E030 		str	r3, [r7, #224]
 876              	.LBB168:
 877              	.LBB169:
 352:App/STM32F4-Discovery/Libraries/CMSIS/Include/core_cmInstr.h ****   __ASM volatile ("rev %0, %1" : "=r" (result) : "r" (value) );
 878              		.loc 2 352 0
 879 010e D7F8E030 		ldr	r3, [r7, #224]
 880              	@ 352 "App/STM32F4-Discovery/Libraries/CMSIS/Include/core_cmInstr.h" 1
 881 0112 1CBA     		rev r4, r3
 882              	@ 0 "" 2
 883              		.thumb
 884 0114 C7F8DC40 		str	r4, [r7, #220]
 885              		.loc 2 353 0
 886 0118 D7F8DC30 		ldr	r3, [r7, #220]
 887              	.LBE169:
 888              	.LBE168:
 889              		.loc 1 308 0
 890 011c 3B64     		str	r3, [r7, #64]
 309:App/STM32F4-Discovery/Libraries/STM32F4xx_StdPeriph_Driver/src/stm32f4xx_cryp_aes.c ****     break;
 891              		.loc 1 309 0
 892 011e FEE0     		b	.L48
 893              	.L42:
 310:App/STM32F4-Discovery/Libraries/STM32F4xx_StdPeriph_Driver/src/stm32f4xx_cryp_aes.c ****     case 192:
 311:App/STM32F4-Discovery/Libraries/STM32F4xx_StdPeriph_Driver/src/stm32f4xx_cryp_aes.c ****     AES_CRYP_InitStructure.CRYP_KeySize  = CRYP_KeySize_192b;
 894              		.loc 1 311 0
 895 0120 4FF48073 		mov	r3, #256
 896 0124 A7F84A30 		strh	r3, [r7, #74]	@ movhi
 312:App/STM32F4-Discovery/Libraries/STM32F4xx_StdPeriph_Driver/src/stm32f4xx_cryp_aes.c ****     AES_CRYP_KeyInitStructure.CRYP_Key1Left = __REV(*(uint32_t*)(keyaddr));
 897              		.loc 1 312 0
 898 0128 D7F80031 		ldr	r3, [r7, #256]
 899 012c 1B68     		ldr	r3, [r3, #0]
 900 012e C7F8D830 		str	r3, [r7, #216]
 901              	.LBB170:
 902              	.LBB171:
 352:App/STM32F4-Discovery/Libraries/CMSIS/Include/core_cmInstr.h ****   __ASM volatile ("rev %0, %1" : "=r" (result) : "r" (value) );
 903              		.loc 2 352 0
 904 0132 D7F8D830 		ldr	r3, [r7, #216]
 905              	@ 352 "App/STM32F4-Discovery/Libraries/CMSIS/Include/core_cmInstr.h" 1
 906 0136 1CBA     		rev r4, r3
 907              	@ 0 "" 2
 908              		.thumb
 909 0138 C7F8D440 		str	r4, [r7, #212]
 910              		.loc 2 353 0
 911 013c D7F8D430 		ldr	r3, [r7, #212]
 912              	.LBE171:
 913              	.LBE170:
 914              		.loc 1 312 0
 915 0140 FB62     		str	r3, [r7, #44]
 313:App/STM32F4-Discovery/Libraries/STM32F4xx_StdPeriph_Driver/src/stm32f4xx_cryp_aes.c ****     keyaddr+=4;
 916              		.loc 1 313 0
 917 0142 D7F80031 		ldr	r3, [r7, #256]
 918 0146 03F10403 		add	r3, r3, #4
 919 014a C7F80031 		str	r3, [r7, #256]
 314:App/STM32F4-Discovery/Libraries/STM32F4xx_StdPeriph_Driver/src/stm32f4xx_cryp_aes.c ****     AES_CRYP_KeyInitStructure.CRYP_Key1Right= __REV(*(uint32_t*)(keyaddr));
 920              		.loc 1 314 0
 921 014e D7F80031 		ldr	r3, [r7, #256]
 922 0152 1B68     		ldr	r3, [r3, #0]
 923 0154 C7F8D030 		str	r3, [r7, #208]
 924              	.LBB172:
 925              	.LBB173:
 352:App/STM32F4-Discovery/Libraries/CMSIS/Include/core_cmInstr.h ****   __ASM volatile ("rev %0, %1" : "=r" (result) : "r" (value) );
 926              		.loc 2 352 0
 927 0158 D7F8D030 		ldr	r3, [r7, #208]
 928              	@ 352 "App/STM32F4-Discovery/Libraries/CMSIS/Include/core_cmInstr.h" 1
 929 015c 1CBA     		rev r4, r3
 930              	@ 0 "" 2
 931              		.thumb
 932 015e C7F8CC40 		str	r4, [r7, #204]
 933              		.loc 2 353 0
 934 0162 D7F8CC30 		ldr	r3, [r7, #204]
 935              	.LBE173:
 936              	.LBE172:
 937              		.loc 1 314 0
 938 0166 3B63     		str	r3, [r7, #48]
 315:App/STM32F4-Discovery/Libraries/STM32F4xx_StdPeriph_Driver/src/stm32f4xx_cryp_aes.c ****     keyaddr+=4;
 939              		.loc 1 315 0
 940 0168 D7F80031 		ldr	r3, [r7, #256]
 941 016c 03F10403 		add	r3, r3, #4
 942 0170 C7F80031 		str	r3, [r7, #256]
 316:App/STM32F4-Discovery/Libraries/STM32F4xx_StdPeriph_Driver/src/stm32f4xx_cryp_aes.c ****     AES_CRYP_KeyInitStructure.CRYP_Key2Left = __REV(*(uint32_t*)(keyaddr));
 943              		.loc 1 316 0
 944 0174 D7F80031 		ldr	r3, [r7, #256]
 945 0178 1B68     		ldr	r3, [r3, #0]
 946 017a C7F8C830 		str	r3, [r7, #200]
 947              	.LBB174:
 948              	.LBB175:
 352:App/STM32F4-Discovery/Libraries/CMSIS/Include/core_cmInstr.h ****   __ASM volatile ("rev %0, %1" : "=r" (result) : "r" (value) );
 949              		.loc 2 352 0
 950 017e D7F8C830 		ldr	r3, [r7, #200]
 951              	@ 352 "App/STM32F4-Discovery/Libraries/CMSIS/Include/core_cmInstr.h" 1
 952 0182 1CBA     		rev r4, r3
 953              	@ 0 "" 2
 954              		.thumb
 955 0184 C7F8C440 		str	r4, [r7, #196]
 956              		.loc 2 353 0
 957 0188 D7F8C430 		ldr	r3, [r7, #196]
 958              	.LBE175:
 959              	.LBE174:
 960              		.loc 1 316 0
 961 018c 7B63     		str	r3, [r7, #52]
 317:App/STM32F4-Discovery/Libraries/STM32F4xx_StdPeriph_Driver/src/stm32f4xx_cryp_aes.c ****     keyaddr+=4;
 962              		.loc 1 317 0
 963 018e D7F80031 		ldr	r3, [r7, #256]
 964 0192 03F10403 		add	r3, r3, #4
 965 0196 C7F80031 		str	r3, [r7, #256]
 318:App/STM32F4-Discovery/Libraries/STM32F4xx_StdPeriph_Driver/src/stm32f4xx_cryp_aes.c ****     AES_CRYP_KeyInitStructure.CRYP_Key2Right= __REV(*(uint32_t*)(keyaddr));
 966              		.loc 1 318 0
 967 019a D7F80031 		ldr	r3, [r7, #256]
 968 019e 1B68     		ldr	r3, [r3, #0]
 969 01a0 C7F8C030 		str	r3, [r7, #192]
 970              	.LBB176:
 971              	.LBB177:
 352:App/STM32F4-Discovery/Libraries/CMSIS/Include/core_cmInstr.h ****   __ASM volatile ("rev %0, %1" : "=r" (result) : "r" (value) );
 972              		.loc 2 352 0
 973 01a4 D7F8C030 		ldr	r3, [r7, #192]
 974              	@ 352 "App/STM32F4-Discovery/Libraries/CMSIS/Include/core_cmInstr.h" 1
 975 01a8 1CBA     		rev r4, r3
 976              	@ 0 "" 2
 977              		.thumb
 978 01aa C7F8BC40 		str	r4, [r7, #188]
 979              		.loc 2 353 0
 980 01ae D7F8BC30 		ldr	r3, [r7, #188]
 981              	.LBE177:
 982              	.LBE176:
 983              		.loc 1 318 0
 984 01b2 BB63     		str	r3, [r7, #56]
 319:App/STM32F4-Discovery/Libraries/STM32F4xx_StdPeriph_Driver/src/stm32f4xx_cryp_aes.c ****     keyaddr+=4;
 985              		.loc 1 319 0
 986 01b4 D7F80031 		ldr	r3, [r7, #256]
 987 01b8 03F10403 		add	r3, r3, #4
 988 01bc C7F80031 		str	r3, [r7, #256]
 320:App/STM32F4-Discovery/Libraries/STM32F4xx_StdPeriph_Driver/src/stm32f4xx_cryp_aes.c ****     AES_CRYP_KeyInitStructure.CRYP_Key3Left = __REV(*(uint32_t*)(keyaddr));
 989              		.loc 1 320 0
 990 01c0 D7F80031 		ldr	r3, [r7, #256]
 991 01c4 1B68     		ldr	r3, [r3, #0]
 992 01c6 C7F8B830 		str	r3, [r7, #184]
 993              	.LBB178:
 994              	.LBB179:
 352:App/STM32F4-Discovery/Libraries/CMSIS/Include/core_cmInstr.h ****   __ASM volatile ("rev %0, %1" : "=r" (result) : "r" (value) );
 995              		.loc 2 352 0
 996 01ca D7F8B830 		ldr	r3, [r7, #184]
 997              	@ 352 "App/STM32F4-Discovery/Libraries/CMSIS/Include/core_cmInstr.h" 1
 998 01ce 1CBA     		rev r4, r3
 999              	@ 0 "" 2
 1000              		.thumb
 1001 01d0 C7F8B440 		str	r4, [r7, #180]
 1002              		.loc 2 353 0
 1003 01d4 D7F8B430 		ldr	r3, [r7, #180]
 1004              	.LBE179:
 1005              	.LBE178:
 1006              		.loc 1 320 0
 1007 01d8 FB63     		str	r3, [r7, #60]
 321:App/STM32F4-Discovery/Libraries/STM32F4xx_StdPeriph_Driver/src/stm32f4xx_cryp_aes.c ****     keyaddr+=4;
 1008              		.loc 1 321 0
 1009 01da D7F80031 		ldr	r3, [r7, #256]
 1010 01de 03F10403 		add	r3, r3, #4
 1011 01e2 C7F80031 		str	r3, [r7, #256]
 322:App/STM32F4-Discovery/Libraries/STM32F4xx_StdPeriph_Driver/src/stm32f4xx_cryp_aes.c ****     AES_CRYP_KeyInitStructure.CRYP_Key3Right= __REV(*(uint32_t*)(keyaddr));
 1012              		.loc 1 322 0
 1013 01e6 D7F80031 		ldr	r3, [r7, #256]
 1014 01ea 1B68     		ldr	r3, [r3, #0]
 1015 01ec C7F8B030 		str	r3, [r7, #176]
 1016              	.LBB180:
 1017              	.LBB181:
 352:App/STM32F4-Discovery/Libraries/CMSIS/Include/core_cmInstr.h ****   __ASM volatile ("rev %0, %1" : "=r" (result) : "r" (value) );
 1018              		.loc 2 352 0
 1019 01f0 D7F8B030 		ldr	r3, [r7, #176]
 1020              	@ 352 "App/STM32F4-Discovery/Libraries/CMSIS/Include/core_cmInstr.h" 1
 1021 01f4 1CBA     		rev r4, r3
 1022              	@ 0 "" 2
 1023              		.thumb
 1024 01f6 C7F8AC40 		str	r4, [r7, #172]
 1025              		.loc 2 353 0
 1026 01fa D7F8AC30 		ldr	r3, [r7, #172]
 1027              	.LBE181:
 1028              	.LBE180:
 1029              		.loc 1 322 0
 1030 01fe 3B64     		str	r3, [r7, #64]
 323:App/STM32F4-Discovery/Libraries/STM32F4xx_StdPeriph_Driver/src/stm32f4xx_cryp_aes.c ****     break;
 1031              		.loc 1 323 0
 1032 0200 8DE0     		b	.L48
 1033              	.L43:
 324:App/STM32F4-Discovery/Libraries/STM32F4xx_StdPeriph_Driver/src/stm32f4xx_cryp_aes.c ****     case 256:
 325:App/STM32F4-Discovery/Libraries/STM32F4xx_StdPeriph_Driver/src/stm32f4xx_cryp_aes.c ****     AES_CRYP_InitStructure.CRYP_KeySize  = CRYP_KeySize_256b;
 1034              		.loc 1 325 0
 1035 0202 4FF40073 		mov	r3, #512
 1036 0206 A7F84A30 		strh	r3, [r7, #74]	@ movhi
 326:App/STM32F4-Discovery/Libraries/STM32F4xx_StdPeriph_Driver/src/stm32f4xx_cryp_aes.c ****     AES_CRYP_KeyInitStructure.CRYP_Key0Left = __REV(*(uint32_t*)(keyaddr));
 1037              		.loc 1 326 0
 1038 020a D7F80031 		ldr	r3, [r7, #256]
 1039 020e 1B68     		ldr	r3, [r3, #0]
 1040 0210 C7F8A830 		str	r3, [r7, #168]
 1041              	.LBB182:
 1042              	.LBB183:
 352:App/STM32F4-Discovery/Libraries/CMSIS/Include/core_cmInstr.h ****   __ASM volatile ("rev %0, %1" : "=r" (result) : "r" (value) );
 1043              		.loc 2 352 0
 1044 0214 D7F8A830 		ldr	r3, [r7, #168]
 1045              	@ 352 "App/STM32F4-Discovery/Libraries/CMSIS/Include/core_cmInstr.h" 1
 1046 0218 1CBA     		rev r4, r3
 1047              	@ 0 "" 2
 1048              		.thumb
 1049 021a C7F8A440 		str	r4, [r7, #164]
 1050              		.loc 2 353 0
 1051 021e D7F8A430 		ldr	r3, [r7, #164]
 1052              	.LBE183:
 1053              	.LBE182:
 1054              		.loc 1 326 0
 1055 0222 7B62     		str	r3, [r7, #36]
 327:App/STM32F4-Discovery/Libraries/STM32F4xx_StdPeriph_Driver/src/stm32f4xx_cryp_aes.c ****     keyaddr+=4;
 1056              		.loc 1 327 0
 1057 0224 D7F80031 		ldr	r3, [r7, #256]
 1058 0228 03F10403 		add	r3, r3, #4
 1059 022c C7F80031 		str	r3, [r7, #256]
 328:App/STM32F4-Discovery/Libraries/STM32F4xx_StdPeriph_Driver/src/stm32f4xx_cryp_aes.c ****     AES_CRYP_KeyInitStructure.CRYP_Key0Right= __REV(*(uint32_t*)(keyaddr));
 1060              		.loc 1 328 0
 1061 0230 D7F80031 		ldr	r3, [r7, #256]
 1062 0234 1B68     		ldr	r3, [r3, #0]
 1063 0236 C7F8A030 		str	r3, [r7, #160]
 1064              	.LBB184:
 1065              	.LBB185:
 352:App/STM32F4-Discovery/Libraries/CMSIS/Include/core_cmInstr.h ****   __ASM volatile ("rev %0, %1" : "=r" (result) : "r" (value) );
 1066              		.loc 2 352 0
 1067 023a D7F8A030 		ldr	r3, [r7, #160]
 1068              	@ 352 "App/STM32F4-Discovery/Libraries/CMSIS/Include/core_cmInstr.h" 1
 1069 023e 1CBA     		rev r4, r3
 1070              	@ 0 "" 2
 1071              		.thumb
 1072 0240 C7F89C40 		str	r4, [r7, #156]
 1073              		.loc 2 353 0
 1074 0244 D7F89C30 		ldr	r3, [r7, #156]
 1075              	.LBE185:
 1076              	.LBE184:
 1077              		.loc 1 328 0
 1078 0248 BB62     		str	r3, [r7, #40]
 329:App/STM32F4-Discovery/Libraries/STM32F4xx_StdPeriph_Driver/src/stm32f4xx_cryp_aes.c ****     keyaddr+=4;
 1079              		.loc 1 329 0
 1080 024a D7F80031 		ldr	r3, [r7, #256]
 1081 024e 03F10403 		add	r3, r3, #4
 1082 0252 C7F80031 		str	r3, [r7, #256]
 330:App/STM32F4-Discovery/Libraries/STM32F4xx_StdPeriph_Driver/src/stm32f4xx_cryp_aes.c ****     AES_CRYP_KeyInitStructure.CRYP_Key1Left = __REV(*(uint32_t*)(keyaddr));
 1083              		.loc 1 330 0
 1084 0256 D7F80031 		ldr	r3, [r7, #256]
 1085 025a 1B68     		ldr	r3, [r3, #0]
 1086 025c C7F89830 		str	r3, [r7, #152]
 1087              	.LBB186:
 1088              	.LBB187:
 352:App/STM32F4-Discovery/Libraries/CMSIS/Include/core_cmInstr.h ****   __ASM volatile ("rev %0, %1" : "=r" (result) : "r" (value) );
 1089              		.loc 2 352 0
 1090 0260 D7F89830 		ldr	r3, [r7, #152]
 1091              	@ 352 "App/STM32F4-Discovery/Libraries/CMSIS/Include/core_cmInstr.h" 1
 1092 0264 1CBA     		rev r4, r3
 1093              	@ 0 "" 2
 1094              		.thumb
 1095 0266 C7F89440 		str	r4, [r7, #148]
 1096              		.loc 2 353 0
 1097 026a D7F89430 		ldr	r3, [r7, #148]
 1098              	.LBE187:
 1099              	.LBE186:
 1100              		.loc 1 330 0
 1101 026e FB62     		str	r3, [r7, #44]
 331:App/STM32F4-Discovery/Libraries/STM32F4xx_StdPeriph_Driver/src/stm32f4xx_cryp_aes.c ****     keyaddr+=4;
 1102              		.loc 1 331 0
 1103 0270 D7F80031 		ldr	r3, [r7, #256]
 1104 0274 03F10403 		add	r3, r3, #4
 1105 0278 C7F80031 		str	r3, [r7, #256]
 332:App/STM32F4-Discovery/Libraries/STM32F4xx_StdPeriph_Driver/src/stm32f4xx_cryp_aes.c ****     AES_CRYP_KeyInitStructure.CRYP_Key1Right= __REV(*(uint32_t*)(keyaddr));
 1106              		.loc 1 332 0
 1107 027c D7F80031 		ldr	r3, [r7, #256]
 1108 0280 1B68     		ldr	r3, [r3, #0]
 1109 0282 C7F89030 		str	r3, [r7, #144]
 1110              	.LBB188:
 1111              	.LBB189:
 352:App/STM32F4-Discovery/Libraries/CMSIS/Include/core_cmInstr.h ****   __ASM volatile ("rev %0, %1" : "=r" (result) : "r" (value) );
 1112              		.loc 2 352 0
 1113 0286 D7F89030 		ldr	r3, [r7, #144]
 1114              	@ 352 "App/STM32F4-Discovery/Libraries/CMSIS/Include/core_cmInstr.h" 1
 1115 028a 1CBA     		rev r4, r3
 1116              	@ 0 "" 2
 1117              		.thumb
 1118 028c C7F88C40 		str	r4, [r7, #140]
 1119              		.loc 2 353 0
 1120 0290 D7F88C30 		ldr	r3, [r7, #140]
 1121              	.LBE189:
 1122              	.LBE188:
 1123              		.loc 1 332 0
 1124 0294 3B63     		str	r3, [r7, #48]
 333:App/STM32F4-Discovery/Libraries/STM32F4xx_StdPeriph_Driver/src/stm32f4xx_cryp_aes.c ****     keyaddr+=4;
 1125              		.loc 1 333 0
 1126 0296 D7F80031 		ldr	r3, [r7, #256]
 1127 029a 03F10403 		add	r3, r3, #4
 1128 029e C7F80031 		str	r3, [r7, #256]
 334:App/STM32F4-Discovery/Libraries/STM32F4xx_StdPeriph_Driver/src/stm32f4xx_cryp_aes.c ****     AES_CRYP_KeyInitStructure.CRYP_Key2Left = __REV(*(uint32_t*)(keyaddr));
 1129              		.loc 1 334 0
 1130 02a2 D7F80031 		ldr	r3, [r7, #256]
 1131 02a6 1B68     		ldr	r3, [r3, #0]
 1132 02a8 C7F88830 		str	r3, [r7, #136]
 1133              	.LBB190:
 1134              	.LBB191:
 352:App/STM32F4-Discovery/Libraries/CMSIS/Include/core_cmInstr.h ****   __ASM volatile ("rev %0, %1" : "=r" (result) : "r" (value) );
 1135              		.loc 2 352 0
 1136 02ac D7F88830 		ldr	r3, [r7, #136]
 1137              	@ 352 "App/STM32F4-Discovery/Libraries/CMSIS/Include/core_cmInstr.h" 1
 1138 02b0 1CBA     		rev r4, r3
 1139              	@ 0 "" 2
 1140              		.thumb
 1141 02b2 C7F88440 		str	r4, [r7, #132]
 1142              		.loc 2 353 0
 1143 02b6 D7F88430 		ldr	r3, [r7, #132]
 1144              	.LBE191:
 1145              	.LBE190:
 1146              		.loc 1 334 0
 1147 02ba 7B63     		str	r3, [r7, #52]
 335:App/STM32F4-Discovery/Libraries/STM32F4xx_StdPeriph_Driver/src/stm32f4xx_cryp_aes.c ****     keyaddr+=4;
 1148              		.loc 1 335 0
 1149 02bc D7F80031 		ldr	r3, [r7, #256]
 1150 02c0 03F10403 		add	r3, r3, #4
 1151 02c4 C7F80031 		str	r3, [r7, #256]
 336:App/STM32F4-Discovery/Libraries/STM32F4xx_StdPeriph_Driver/src/stm32f4xx_cryp_aes.c ****     AES_CRYP_KeyInitStructure.CRYP_Key2Right= __REV(*(uint32_t*)(keyaddr));
 1152              		.loc 1 336 0
 1153 02c8 D7F80031 		ldr	r3, [r7, #256]
 1154 02cc 1B68     		ldr	r3, [r3, #0]
 1155 02ce C7F88030 		str	r3, [r7, #128]
 1156              	.LBB192:
 1157              	.LBB193:
 352:App/STM32F4-Discovery/Libraries/CMSIS/Include/core_cmInstr.h ****   __ASM volatile ("rev %0, %1" : "=r" (result) : "r" (value) );
 1158              		.loc 2 352 0
 1159 02d2 D7F88030 		ldr	r3, [r7, #128]
 1160              	@ 352 "App/STM32F4-Discovery/Libraries/CMSIS/Include/core_cmInstr.h" 1
 1161 02d6 1CBA     		rev r4, r3
 1162              	@ 0 "" 2
 1163              		.thumb
 1164 02d8 FC67     		str	r4, [r7, #124]
 1165              		.loc 2 353 0
 1166 02da FB6F     		ldr	r3, [r7, #124]
 1167              	.LBE193:
 1168              	.LBE192:
 1169              		.loc 1 336 0
 1170 02dc BB63     		str	r3, [r7, #56]
 337:App/STM32F4-Discovery/Libraries/STM32F4xx_StdPeriph_Driver/src/stm32f4xx_cryp_aes.c ****     keyaddr+=4;
 1171              		.loc 1 337 0
 1172 02de D7F80031 		ldr	r3, [r7, #256]
 1173 02e2 03F10403 		add	r3, r3, #4
 1174 02e6 C7F80031 		str	r3, [r7, #256]
 338:App/STM32F4-Discovery/Libraries/STM32F4xx_StdPeriph_Driver/src/stm32f4xx_cryp_aes.c ****     AES_CRYP_KeyInitStructure.CRYP_Key3Left = __REV(*(uint32_t*)(keyaddr));
 1175              		.loc 1 338 0
 1176 02ea D7F80031 		ldr	r3, [r7, #256]
 1177 02ee 1B68     		ldr	r3, [r3, #0]
 1178 02f0 BB67     		str	r3, [r7, #120]
 1179              	.LBB194:
 1180              	.LBB195:
 352:App/STM32F4-Discovery/Libraries/CMSIS/Include/core_cmInstr.h ****   __ASM volatile ("rev %0, %1" : "=r" (result) : "r" (value) );
 1181              		.loc 2 352 0
 1182 02f2 BB6F     		ldr	r3, [r7, #120]
 1183              	@ 352 "App/STM32F4-Discovery/Libraries/CMSIS/Include/core_cmInstr.h" 1
 1184 02f4 1CBA     		rev r4, r3
 1185              	@ 0 "" 2
 1186              		.thumb
 1187 02f6 7C67     		str	r4, [r7, #116]
 1188              		.loc 2 353 0
 1189 02f8 7B6F     		ldr	r3, [r7, #116]
 1190              	.LBE195:
 1191              	.LBE194:
 1192              		.loc 1 338 0
 1193 02fa FB63     		str	r3, [r7, #60]
 339:App/STM32F4-Discovery/Libraries/STM32F4xx_StdPeriph_Driver/src/stm32f4xx_cryp_aes.c ****     keyaddr+=4;
 1194              		.loc 1 339 0
 1195 02fc D7F80031 		ldr	r3, [r7, #256]
 1196 0300 03F10403 		add	r3, r3, #4
 1197 0304 C7F80031 		str	r3, [r7, #256]
 340:App/STM32F4-Discovery/Libraries/STM32F4xx_StdPeriph_Driver/src/stm32f4xx_cryp_aes.c ****     AES_CRYP_KeyInitStructure.CRYP_Key3Right= __REV(*(uint32_t*)(keyaddr));
 1198              		.loc 1 340 0
 1199 0308 D7F80031 		ldr	r3, [r7, #256]
 1200 030c 1B68     		ldr	r3, [r3, #0]
 1201 030e 3B67     		str	r3, [r7, #112]
 1202              	.LBB196:
 1203              	.LBB197:
 352:App/STM32F4-Discovery/Libraries/CMSIS/Include/core_cmInstr.h ****   __ASM volatile ("rev %0, %1" : "=r" (result) : "r" (value) );
 1204              		.loc 2 352 0
 1205 0310 3B6F     		ldr	r3, [r7, #112]
 1206              	@ 352 "App/STM32F4-Discovery/Libraries/CMSIS/Include/core_cmInstr.h" 1
 1207 0312 1CBA     		rev r4, r3
 1208              	@ 0 "" 2
 1209              		.thumb
 1210 0314 FC66     		str	r4, [r7, #108]
 1211              		.loc 2 353 0
 1212 0316 FB6E     		ldr	r3, [r7, #108]
 1213              	.LBE197:
 1214              	.LBE196:
 1215              		.loc 1 340 0
 1216 0318 3B64     		str	r3, [r7, #64]
 341:App/STM32F4-Discovery/Libraries/STM32F4xx_StdPeriph_Driver/src/stm32f4xx_cryp_aes.c ****     break;
 1217              		.loc 1 341 0
 1218 031a 00E0     		b	.L48
 1219              	.L80:
 342:App/STM32F4-Discovery/Libraries/STM32F4xx_StdPeriph_Driver/src/stm32f4xx_cryp_aes.c ****     default:
 343:App/STM32F4-Discovery/Libraries/STM32F4xx_StdPeriph_Driver/src/stm32f4xx_cryp_aes.c ****     break;
 1220              		.loc 1 343 0
 1221 031c 00BF     		nop
 1222              	.L48:
 344:App/STM32F4-Discovery/Libraries/STM32F4xx_StdPeriph_Driver/src/stm32f4xx_cryp_aes.c ****   }
 345:App/STM32F4-Discovery/Libraries/STM32F4xx_StdPeriph_Driver/src/stm32f4xx_cryp_aes.c **** 
 346:App/STM32F4-Discovery/Libraries/STM32F4xx_StdPeriph_Driver/src/stm32f4xx_cryp_aes.c ****   /* CRYP Initialization Vectors */
 347:App/STM32F4-Discovery/Libraries/STM32F4xx_StdPeriph_Driver/src/stm32f4xx_cryp_aes.c ****   AES_CRYP_IVInitStructure.CRYP_IV0Left = __REV(*(uint32_t*)(ivaddr));
 1223              		.loc 1 347 0
 1224 031e D7F8FC30 		ldr	r3, [r7, #252]
 1225 0322 1B68     		ldr	r3, [r3, #0]
 1226 0324 BB66     		str	r3, [r7, #104]
 1227              	.LBB198:
 1228              	.LBB199:
 352:App/STM32F4-Discovery/Libraries/CMSIS/Include/core_cmInstr.h ****   __ASM volatile ("rev %0, %1" : "=r" (result) : "r" (value) );
 1229              		.loc 2 352 0
 1230 0326 BB6E     		ldr	r3, [r7, #104]
 1231              	@ 352 "App/STM32F4-Discovery/Libraries/CMSIS/Include/core_cmInstr.h" 1
 1232 0328 1CBA     		rev r4, r3
 1233              	@ 0 "" 2
 1234              		.thumb
 1235 032a 7C66     		str	r4, [r7, #100]
 1236              		.loc 2 353 0
 1237 032c 7B6E     		ldr	r3, [r7, #100]
 1238              	.LBE199:
 1239              		.loc 1 347 0
 1240 032e 1A46     		mov	r2, r3
 1241              	.LBE198:
 1242 0330 07F11403 		add	r3, r7, #20
 1243 0334 1A60     		str	r2, [r3, #0]
 348:App/STM32F4-Discovery/Libraries/STM32F4xx_StdPeriph_Driver/src/stm32f4xx_cryp_aes.c ****   ivaddr+=4;
 1244              		.loc 1 348 0
 1245 0336 D7F8FC30 		ldr	r3, [r7, #252]
 1246 033a 03F10403 		add	r3, r3, #4
 1247 033e C7F8FC30 		str	r3, [r7, #252]
 349:App/STM32F4-Discovery/Libraries/STM32F4xx_StdPeriph_Driver/src/stm32f4xx_cryp_aes.c ****   AES_CRYP_IVInitStructure.CRYP_IV0Right= __REV(*(uint32_t*)(ivaddr));
 1248              		.loc 1 349 0
 1249 0342 D7F8FC30 		ldr	r3, [r7, #252]
 1250 0346 1B68     		ldr	r3, [r3, #0]
 1251 0348 3B66     		str	r3, [r7, #96]
 1252              	.LBB200:
 1253              	.LBB201:
 352:App/STM32F4-Discovery/Libraries/CMSIS/Include/core_cmInstr.h ****   __ASM volatile ("rev %0, %1" : "=r" (result) : "r" (value) );
 1254              		.loc 2 352 0
 1255 034a 3B6E     		ldr	r3, [r7, #96]
 1256              	@ 352 "App/STM32F4-Discovery/Libraries/CMSIS/Include/core_cmInstr.h" 1
 1257 034c 1CBA     		rev r4, r3
 1258              	@ 0 "" 2
 1259              		.thumb
 1260 034e FC65     		str	r4, [r7, #92]
 1261              		.loc 2 353 0
 1262 0350 FB6D     		ldr	r3, [r7, #92]
 1263              	.LBE201:
 1264              		.loc 1 349 0
 1265 0352 1A46     		mov	r2, r3
 1266              	.LBE200:
 1267 0354 07F11403 		add	r3, r7, #20
 1268 0358 5A60     		str	r2, [r3, #4]
 350:App/STM32F4-Discovery/Libraries/STM32F4xx_StdPeriph_Driver/src/stm32f4xx_cryp_aes.c ****   ivaddr+=4;
 1269              		.loc 1 350 0
 1270 035a D7F8FC30 		ldr	r3, [r7, #252]
 1271 035e 03F10403 		add	r3, r3, #4
 1272 0362 C7F8FC30 		str	r3, [r7, #252]
 351:App/STM32F4-Discovery/Libraries/STM32F4xx_StdPeriph_Driver/src/stm32f4xx_cryp_aes.c ****   AES_CRYP_IVInitStructure.CRYP_IV1Left = __REV(*(uint32_t*)(ivaddr));
 1273              		.loc 1 351 0
 1274 0366 D7F8FC30 		ldr	r3, [r7, #252]
 1275 036a 1B68     		ldr	r3, [r3, #0]
 1276 036c BB65     		str	r3, [r7, #88]
 1277              	.LBB202:
 1278              	.LBB203:
 352:App/STM32F4-Discovery/Libraries/CMSIS/Include/core_cmInstr.h ****   __ASM volatile ("rev %0, %1" : "=r" (result) : "r" (value) );
 1279              		.loc 2 352 0
 1280 036e BB6D     		ldr	r3, [r7, #88]
 1281              	@ 352 "App/STM32F4-Discovery/Libraries/CMSIS/Include/core_cmInstr.h" 1
 1282 0370 1CBA     		rev r4, r3
 1283              	@ 0 "" 2
 1284              		.thumb
 1285 0372 7C65     		str	r4, [r7, #84]
 1286              		.loc 2 353 0
 1287 0374 7B6D     		ldr	r3, [r7, #84]
 1288              	.LBE203:
 1289              		.loc 1 351 0
 1290 0376 1A46     		mov	r2, r3
 1291              	.LBE202:
 1292 0378 07F11403 		add	r3, r7, #20
 1293 037c 9A60     		str	r2, [r3, #8]
 352:App/STM32F4-Discovery/Libraries/STM32F4xx_StdPeriph_Driver/src/stm32f4xx_cryp_aes.c ****   ivaddr+=4;
 1294              		.loc 1 352 0
 1295 037e D7F8FC30 		ldr	r3, [r7, #252]
 1296 0382 03F10403 		add	r3, r3, #4
 1297 0386 C7F8FC30 		str	r3, [r7, #252]
 353:App/STM32F4-Discovery/Libraries/STM32F4xx_StdPeriph_Driver/src/stm32f4xx_cryp_aes.c ****   AES_CRYP_IVInitStructure.CRYP_IV1Right= __REV(*(uint32_t*)(ivaddr));
 1298              		.loc 1 353 0
 1299 038a D7F8FC30 		ldr	r3, [r7, #252]
 1300 038e 1B68     		ldr	r3, [r3, #0]
 1301 0390 3B65     		str	r3, [r7, #80]
 1302              	.LBB204:
 1303              	.LBB205:
 352:App/STM32F4-Discovery/Libraries/CMSIS/Include/core_cmInstr.h ****   __ASM volatile ("rev %0, %1" : "=r" (result) : "r" (value) );
 1304              		.loc 2 352 0
 1305 0392 3B6D     		ldr	r3, [r7, #80]
 1306              	@ 352 "App/STM32F4-Discovery/Libraries/CMSIS/Include/core_cmInstr.h" 1
 1307 0394 1CBA     		rev r4, r3
 1308              	@ 0 "" 2
 1309              		.thumb
 1310 0396 FC64     		str	r4, [r7, #76]
 1311              		.loc 2 353 0
 1312 0398 FB6C     		ldr	r3, [r7, #76]
 1313              	.LBE205:
 1314              		.loc 1 353 0
 1315 039a 1A46     		mov	r2, r3
 1316              	.LBE204:
 1317 039c 07F11403 		add	r3, r7, #20
 1318 03a0 DA60     		str	r2, [r3, #12]
 354:App/STM32F4-Discovery/Libraries/STM32F4xx_StdPeriph_Driver/src/stm32f4xx_cryp_aes.c **** 
 355:App/STM32F4-Discovery/Libraries/STM32F4xx_StdPeriph_Driver/src/stm32f4xx_cryp_aes.c **** 
 356:App/STM32F4-Discovery/Libraries/STM32F4xx_StdPeriph_Driver/src/stm32f4xx_cryp_aes.c ****   /*------------------ AES Decryption ------------------*/
 357:App/STM32F4-Discovery/Libraries/STM32F4xx_StdPeriph_Driver/src/stm32f4xx_cryp_aes.c ****   if(Mode == MODE_DECRYPT) /* AES decryption */
 1319              		.loc 1 357 0
 1320 03a2 07F10F03 		add	r3, r7, #15
 1321 03a6 1B78     		ldrb	r3, [r3, #0]	@ zero_extendqisi2
 1322 03a8 002B     		cmp	r3, #0
 1323 03aa 42D1     		bne	.L67
 358:App/STM32F4-Discovery/Libraries/STM32F4xx_StdPeriph_Driver/src/stm32f4xx_cryp_aes.c ****   {
 359:App/STM32F4-Discovery/Libraries/STM32F4xx_StdPeriph_Driver/src/stm32f4xx_cryp_aes.c ****     /* Flush IN/OUT FIFOs */
 360:App/STM32F4-Discovery/Libraries/STM32F4xx_StdPeriph_Driver/src/stm32f4xx_cryp_aes.c ****     CRYP_FIFOFlush();
 1324              		.loc 1 360 0
 1325 03ac FFF7FEFF 		bl	CRYP_FIFOFlush
 361:App/STM32F4-Discovery/Libraries/STM32F4xx_StdPeriph_Driver/src/stm32f4xx_cryp_aes.c **** 
 362:App/STM32F4-Discovery/Libraries/STM32F4xx_StdPeriph_Driver/src/stm32f4xx_cryp_aes.c ****     /* Crypto Init for Key preparation for decryption process */
 363:App/STM32F4-Discovery/Libraries/STM32F4xx_StdPeriph_Driver/src/stm32f4xx_cryp_aes.c ****     AES_CRYP_InitStructure.CRYP_AlgoDir = CRYP_AlgoDir_Decrypt;
 1326              		.loc 1 363 0
 1327 03b0 4FF00403 		mov	r3, #4
 1328 03b4 A7F84430 		strh	r3, [r7, #68]	@ movhi
 364:App/STM32F4-Discovery/Libraries/STM32F4xx_StdPeriph_Driver/src/stm32f4xx_cryp_aes.c ****     AES_CRYP_InitStructure.CRYP_AlgoMode = CRYP_AlgoMode_AES_Key;
 1329              		.loc 1 364 0
 1330 03b8 4FF03803 		mov	r3, #56
 1331 03bc A7F84630 		strh	r3, [r7, #70]	@ movhi
 365:App/STM32F4-Discovery/Libraries/STM32F4xx_StdPeriph_Driver/src/stm32f4xx_cryp_aes.c ****     AES_CRYP_InitStructure.CRYP_DataType = CRYP_DataType_32b;
 1332              		.loc 1 365 0
 1333 03c0 4FF00003 		mov	r3, #0
 1334 03c4 A7F84830 		strh	r3, [r7, #72]	@ movhi
 366:App/STM32F4-Discovery/Libraries/STM32F4xx_StdPeriph_Driver/src/stm32f4xx_cryp_aes.c **** 
 367:App/STM32F4-Discovery/Libraries/STM32F4xx_StdPeriph_Driver/src/stm32f4xx_cryp_aes.c ****     CRYP_Init(&AES_CRYP_InitStructure);
 1335              		.loc 1 367 0
 1336 03c8 07F14403 		add	r3, r7, #68
 1337 03cc 1846     		mov	r0, r3
 1338 03ce FFF7FEFF 		bl	CRYP_Init
 368:App/STM32F4-Discovery/Libraries/STM32F4xx_StdPeriph_Driver/src/stm32f4xx_cryp_aes.c **** 
 369:App/STM32F4-Discovery/Libraries/STM32F4xx_StdPeriph_Driver/src/stm32f4xx_cryp_aes.c ****     /* Key Initialisation */
 370:App/STM32F4-Discovery/Libraries/STM32F4xx_StdPeriph_Driver/src/stm32f4xx_cryp_aes.c ****     CRYP_KeyInit(&AES_CRYP_KeyInitStructure);
 1339              		.loc 1 370 0
 1340 03d2 07F12403 		add	r3, r7, #36
 1341 03d6 1846     		mov	r0, r3
 1342 03d8 FFF7FEFF 		bl	CRYP_KeyInit
 371:App/STM32F4-Discovery/Libraries/STM32F4xx_StdPeriph_Driver/src/stm32f4xx_cryp_aes.c **** 
 372:App/STM32F4-Discovery/Libraries/STM32F4xx_StdPeriph_Driver/src/stm32f4xx_cryp_aes.c ****     /* Enable Crypto processor */
 373:App/STM32F4-Discovery/Libraries/STM32F4xx_StdPeriph_Driver/src/stm32f4xx_cryp_aes.c ****     CRYP_Cmd(ENABLE);
 1343              		.loc 1 373 0
 1344 03dc 4FF00100 		mov	r0, #1
 1345 03e0 FFF7FEFF 		bl	CRYP_Cmd
 1346              	.L69:
 374:App/STM32F4-Discovery/Libraries/STM32F4xx_StdPeriph_Driver/src/stm32f4xx_cryp_aes.c **** 
 375:App/STM32F4-Discovery/Libraries/STM32F4xx_StdPeriph_Driver/src/stm32f4xx_cryp_aes.c ****     /* wait until the Busy flag is RESET */
 376:App/STM32F4-Discovery/Libraries/STM32F4xx_StdPeriph_Driver/src/stm32f4xx_cryp_aes.c ****     do
 377:App/STM32F4-Discovery/Libraries/STM32F4xx_StdPeriph_Driver/src/stm32f4xx_cryp_aes.c ****     {
 378:App/STM32F4-Discovery/Libraries/STM32F4xx_StdPeriph_Driver/src/stm32f4xx_cryp_aes.c ****       busystatus = CRYP_GetFlagStatus(CRYP_FLAG_BUSY);
 1347              		.loc 1 378 0 discriminator 1
 1348 03e4 4FF01000 		mov	r0, #16
 1349 03e8 FFF7FEFF 		bl	CRYP_GetFlagStatus
 1350 03ec 0346     		mov	r3, r0
 1351 03ee C7F80431 		str	r3, [r7, #260]
 379:App/STM32F4-Discovery/Libraries/STM32F4xx_StdPeriph_Driver/src/stm32f4xx_cryp_aes.c ****       counter++;
 1352              		.loc 1 379 0 discriminator 1
 1353 03f2 07F11003 		add	r3, r7, #16
 1354 03f6 1B68     		ldr	r3, [r3, #0]
 1355 03f8 03F10102 		add	r2, r3, #1
 1356 03fc 07F11003 		add	r3, r7, #16
 1357 0400 1A60     		str	r2, [r3, #0]
 380:App/STM32F4-Discovery/Libraries/STM32F4xx_StdPeriph_Driver/src/stm32f4xx_cryp_aes.c ****     }while ((counter != AESBUSY_TIMEOUT) && (busystatus != RESET));
 1358              		.loc 1 380 0 discriminator 1
 1359 0402 07F11003 		add	r3, r7, #16
 1360 0406 1B68     		ldr	r3, [r3, #0]
 1361 0408 B3F5803F 		cmp	r3, #65536
 1362 040c 03D0     		beq	.L68
 1363 040e D7F80431 		ldr	r3, [r7, #260]
 1364 0412 002B     		cmp	r3, #0
 1365 0414 E6D1     		bne	.L69
 1366              	.L68:
 381:App/STM32F4-Discovery/Libraries/STM32F4xx_StdPeriph_Driver/src/stm32f4xx_cryp_aes.c **** 
 382:App/STM32F4-Discovery/Libraries/STM32F4xx_StdPeriph_Driver/src/stm32f4xx_cryp_aes.c ****     if (busystatus != RESET)
 1367              		.loc 1 382 0
 1368 0416 D7F80431 		ldr	r3, [r7, #260]
 1369 041a 002B     		cmp	r3, #0
 1370 041c 04D0     		beq	.L70
 383:App/STM32F4-Discovery/Libraries/STM32F4xx_StdPeriph_Driver/src/stm32f4xx_cryp_aes.c ****    {
 384:App/STM32F4-Discovery/Libraries/STM32F4xx_StdPeriph_Driver/src/stm32f4xx_cryp_aes.c ****        status = ERROR;
 1371              		.loc 1 384 0
 1372 041e 4FF00003 		mov	r3, #0
 1373 0422 87F81731 		strb	r3, [r7, #279]
 1374 0426 0DE0     		b	.L71
 1375              	.L70:
 385:App/STM32F4-Discovery/Libraries/STM32F4xx_StdPeriph_Driver/src/stm32f4xx_cryp_aes.c ****     }
 386:App/STM32F4-Discovery/Libraries/STM32F4xx_StdPeriph_Driver/src/stm32f4xx_cryp_aes.c ****     else
 387:App/STM32F4-Discovery/Libraries/STM32F4xx_StdPeriph_Driver/src/stm32f4xx_cryp_aes.c ****     {
 388:App/STM32F4-Discovery/Libraries/STM32F4xx_StdPeriph_Driver/src/stm32f4xx_cryp_aes.c ****       /* Crypto Init for decryption process */  
 389:App/STM32F4-Discovery/Libraries/STM32F4xx_StdPeriph_Driver/src/stm32f4xx_cryp_aes.c ****       AES_CRYP_InitStructure.CRYP_AlgoDir = CRYP_AlgoDir_Decrypt;
 1376              		.loc 1 389 0
 1377 0428 4FF00403 		mov	r3, #4
 1378 042c A7F84430 		strh	r3, [r7, #68]	@ movhi
 1379 0430 08E0     		b	.L71
 1380              	.L67:
 390:App/STM32F4-Discovery/Libraries/STM32F4xx_StdPeriph_Driver/src/stm32f4xx_cryp_aes.c ****     }
 391:App/STM32F4-Discovery/Libraries/STM32F4xx_StdPeriph_Driver/src/stm32f4xx_cryp_aes.c ****   }
 392:App/STM32F4-Discovery/Libraries/STM32F4xx_StdPeriph_Driver/src/stm32f4xx_cryp_aes.c ****   /*------------------ AES Encryption ------------------*/
 393:App/STM32F4-Discovery/Libraries/STM32F4xx_StdPeriph_Driver/src/stm32f4xx_cryp_aes.c ****   else /* AES encryption */
 394:App/STM32F4-Discovery/Libraries/STM32F4xx_StdPeriph_Driver/src/stm32f4xx_cryp_aes.c ****   {
 395:App/STM32F4-Discovery/Libraries/STM32F4xx_StdPeriph_Driver/src/stm32f4xx_cryp_aes.c ****     CRYP_KeyInit(&AES_CRYP_KeyInitStructure);
 1381              		.loc 1 395 0
 1382 0432 07F12403 		add	r3, r7, #36
 1383 0436 1846     		mov	r0, r3
 1384 0438 FFF7FEFF 		bl	CRYP_KeyInit
 396:App/STM32F4-Discovery/Libraries/STM32F4xx_StdPeriph_Driver/src/stm32f4xx_cryp_aes.c **** 
 397:App/STM32F4-Discovery/Libraries/STM32F4xx_StdPeriph_Driver/src/stm32f4xx_cryp_aes.c ****     /* Crypto Init for Encryption process */
 398:App/STM32F4-Discovery/Libraries/STM32F4xx_StdPeriph_Driver/src/stm32f4xx_cryp_aes.c ****     AES_CRYP_InitStructure.CRYP_AlgoDir  = CRYP_AlgoDir_Encrypt;
 1385              		.loc 1 398 0
 1386 043c 4FF00003 		mov	r3, #0
 1387 0440 A7F84430 		strh	r3, [r7, #68]	@ movhi
 1388              	.L71:
 399:App/STM32F4-Discovery/Libraries/STM32F4xx_StdPeriph_Driver/src/stm32f4xx_cryp_aes.c ****   }
 400:App/STM32F4-Discovery/Libraries/STM32F4xx_StdPeriph_Driver/src/stm32f4xx_cryp_aes.c ****   AES_CRYP_InitStructure.CRYP_AlgoMode = CRYP_AlgoMode_AES_CBC;
 1389              		.loc 1 400 0
 1390 0444 4FF02803 		mov	r3, #40
 1391 0448 A7F84630 		strh	r3, [r7, #70]	@ movhi
 401:App/STM32F4-Discovery/Libraries/STM32F4xx_StdPeriph_Driver/src/stm32f4xx_cryp_aes.c ****   AES_CRYP_InitStructure.CRYP_DataType = CRYP_DataType_8b;
 1392              		.loc 1 401 0
 1393 044c 4FF08003 		mov	r3, #128
 1394 0450 A7F84830 		strh	r3, [r7, #72]	@ movhi
 402:App/STM32F4-Discovery/Libraries/STM32F4xx_StdPeriph_Driver/src/stm32f4xx_cryp_aes.c ****   CRYP_Init(&AES_CRYP_InitStructure);
 1395              		.loc 1 402 0
 1396 0454 07F14403 		add	r3, r7, #68
 1397 0458 1846     		mov	r0, r3
 1398 045a FFF7FEFF 		bl	CRYP_Init
 403:App/STM32F4-Discovery/Libraries/STM32F4xx_StdPeriph_Driver/src/stm32f4xx_cryp_aes.c **** 
 404:App/STM32F4-Discovery/Libraries/STM32F4xx_StdPeriph_Driver/src/stm32f4xx_cryp_aes.c ****   /* CRYP Initialization Vectors */
 405:App/STM32F4-Discovery/Libraries/STM32F4xx_StdPeriph_Driver/src/stm32f4xx_cryp_aes.c ****   CRYP_IVInit(&AES_CRYP_IVInitStructure);
 1399              		.loc 1 405 0
 1400 045e 07F11403 		add	r3, r7, #20
 1401 0462 1846     		mov	r0, r3
 1402 0464 FFF7FEFF 		bl	CRYP_IVInit
 406:App/STM32F4-Discovery/Libraries/STM32F4xx_StdPeriph_Driver/src/stm32f4xx_cryp_aes.c **** 
 407:App/STM32F4-Discovery/Libraries/STM32F4xx_StdPeriph_Driver/src/stm32f4xx_cryp_aes.c ****   /* Flush IN/OUT FIFOs */
 408:App/STM32F4-Discovery/Libraries/STM32F4xx_StdPeriph_Driver/src/stm32f4xx_cryp_aes.c ****   CRYP_FIFOFlush();
 1403              		.loc 1 408 0
 1404 0468 FFF7FEFF 		bl	CRYP_FIFOFlush
 409:App/STM32F4-Discovery/Libraries/STM32F4xx_StdPeriph_Driver/src/stm32f4xx_cryp_aes.c **** 
 410:App/STM32F4-Discovery/Libraries/STM32F4xx_StdPeriph_Driver/src/stm32f4xx_cryp_aes.c ****   /* Enable Crypto processor */
 411:App/STM32F4-Discovery/Libraries/STM32F4xx_StdPeriph_Driver/src/stm32f4xx_cryp_aes.c ****   CRYP_Cmd(ENABLE);
 1405              		.loc 1 411 0
 1406 046c 4FF00100 		mov	r0, #1
 1407 0470 FFF7FEFF 		bl	CRYP_Cmd
 412:App/STM32F4-Discovery/Libraries/STM32F4xx_StdPeriph_Driver/src/stm32f4xx_cryp_aes.c **** 
 413:App/STM32F4-Discovery/Libraries/STM32F4xx_StdPeriph_Driver/src/stm32f4xx_cryp_aes.c **** 
 414:App/STM32F4-Discovery/Libraries/STM32F4xx_StdPeriph_Driver/src/stm32f4xx_cryp_aes.c ****   for(i=0; ((i<Ilength) && (status != ERROR)); i+=16)
 1408              		.loc 1 414 0
 1409 0474 4FF00003 		mov	r3, #0
 1410 0478 C7F80831 		str	r3, [r7, #264]
 1411 047c 8CE0     		b	.L72
 1412              	.L78:
 415:App/STM32F4-Discovery/Libraries/STM32F4xx_StdPeriph_Driver/src/stm32f4xx_cryp_aes.c ****   {
 416:App/STM32F4-Discovery/Libraries/STM32F4xx_StdPeriph_Driver/src/stm32f4xx_cryp_aes.c **** 
 417:App/STM32F4-Discovery/Libraries/STM32F4xx_StdPeriph_Driver/src/stm32f4xx_cryp_aes.c ****     /* Write the Input block in the IN FIFO */
 418:App/STM32F4-Discovery/Libraries/STM32F4xx_StdPeriph_Driver/src/stm32f4xx_cryp_aes.c ****     CRYP_DataIn(*(uint32_t*)(inputaddr));
 1413              		.loc 1 418 0
 1414 047e D7F81031 		ldr	r3, [r7, #272]
 1415 0482 1B68     		ldr	r3, [r3, #0]
 1416 0484 1846     		mov	r0, r3
 1417 0486 FFF7FEFF 		bl	CRYP_DataIn
 419:App/STM32F4-Discovery/Libraries/STM32F4xx_StdPeriph_Driver/src/stm32f4xx_cryp_aes.c ****     inputaddr+=4;
 1418              		.loc 1 419 0
 1419 048a D7F81031 		ldr	r3, [r7, #272]
 1420 048e 03F10403 		add	r3, r3, #4
 1421 0492 C7F81031 		str	r3, [r7, #272]
 420:App/STM32F4-Discovery/Libraries/STM32F4xx_StdPeriph_Driver/src/stm32f4xx_cryp_aes.c ****     CRYP_DataIn(*(uint32_t*)(inputaddr));
 1422              		.loc 1 420 0
 1423 0496 D7F81031 		ldr	r3, [r7, #272]
 1424 049a 1B68     		ldr	r3, [r3, #0]
 1425 049c 1846     		mov	r0, r3
 1426 049e FFF7FEFF 		bl	CRYP_DataIn
 421:App/STM32F4-Discovery/Libraries/STM32F4xx_StdPeriph_Driver/src/stm32f4xx_cryp_aes.c ****     inputaddr+=4;
 1427              		.loc 1 421 0
 1428 04a2 D7F81031 		ldr	r3, [r7, #272]
 1429 04a6 03F10403 		add	r3, r3, #4
 1430 04aa C7F81031 		str	r3, [r7, #272]
 422:App/STM32F4-Discovery/Libraries/STM32F4xx_StdPeriph_Driver/src/stm32f4xx_cryp_aes.c ****     CRYP_DataIn(*(uint32_t*)(inputaddr));
 1431              		.loc 1 422 0
 1432 04ae D7F81031 		ldr	r3, [r7, #272]
 1433 04b2 1B68     		ldr	r3, [r3, #0]
 1434 04b4 1846     		mov	r0, r3
 1435 04b6 FFF7FEFF 		bl	CRYP_DataIn
 423:App/STM32F4-Discovery/Libraries/STM32F4xx_StdPeriph_Driver/src/stm32f4xx_cryp_aes.c ****     inputaddr+=4;
 1436              		.loc 1 423 0
 1437 04ba D7F81031 		ldr	r3, [r7, #272]
 1438 04be 03F10403 		add	r3, r3, #4
 1439 04c2 C7F81031 		str	r3, [r7, #272]
 424:App/STM32F4-Discovery/Libraries/STM32F4xx_StdPeriph_Driver/src/stm32f4xx_cryp_aes.c ****     CRYP_DataIn(*(uint32_t*)(inputaddr));
 1440              		.loc 1 424 0
 1441 04c6 D7F81031 		ldr	r3, [r7, #272]
 1442 04ca 1B68     		ldr	r3, [r3, #0]
 1443 04cc 1846     		mov	r0, r3
 1444 04ce FFF7FEFF 		bl	CRYP_DataIn
 425:App/STM32F4-Discovery/Libraries/STM32F4xx_StdPeriph_Driver/src/stm32f4xx_cryp_aes.c ****     inputaddr+=4;
 1445              		.loc 1 425 0
 1446 04d2 D7F81031 		ldr	r3, [r7, #272]
 1447 04d6 03F10403 		add	r3, r3, #4
 1448 04da C7F81031 		str	r3, [r7, #272]
 426:App/STM32F4-Discovery/Libraries/STM32F4xx_StdPeriph_Driver/src/stm32f4xx_cryp_aes.c ****     /* Wait until the complete message has been processed */
 427:App/STM32F4-Discovery/Libraries/STM32F4xx_StdPeriph_Driver/src/stm32f4xx_cryp_aes.c ****     counter = 0;
 1449              		.loc 1 427 0
 1450 04de 07F11003 		add	r3, r7, #16
 1451 04e2 4FF00002 		mov	r2, #0
 1452 04e6 1A60     		str	r2, [r3, #0]
 1453              	.L74:
 428:App/STM32F4-Discovery/Libraries/STM32F4xx_StdPeriph_Driver/src/stm32f4xx_cryp_aes.c ****     do
 429:App/STM32F4-Discovery/Libraries/STM32F4xx_StdPeriph_Driver/src/stm32f4xx_cryp_aes.c ****     {
 430:App/STM32F4-Discovery/Libraries/STM32F4xx_StdPeriph_Driver/src/stm32f4xx_cryp_aes.c ****       busystatus = CRYP_GetFlagStatus(CRYP_FLAG_BUSY);
 1454              		.loc 1 430 0 discriminator 1
 1455 04e8 4FF01000 		mov	r0, #16
 1456 04ec FFF7FEFF 		bl	CRYP_GetFlagStatus
 1457 04f0 0346     		mov	r3, r0
 1458 04f2 C7F80431 		str	r3, [r7, #260]
 431:App/STM32F4-Discovery/Libraries/STM32F4xx_StdPeriph_Driver/src/stm32f4xx_cryp_aes.c ****       counter++;
 1459              		.loc 1 431 0 discriminator 1
 1460 04f6 07F11003 		add	r3, r7, #16
 1461 04fa 1B68     		ldr	r3, [r3, #0]
 1462 04fc 03F10102 		add	r2, r3, #1
 1463 0500 07F11003 		add	r3, r7, #16
 1464 0504 1A60     		str	r2, [r3, #0]
 432:App/STM32F4-Discovery/Libraries/STM32F4xx_StdPeriph_Driver/src/stm32f4xx_cryp_aes.c ****     }while ((counter != AESBUSY_TIMEOUT) && (busystatus != RESET));
 1465              		.loc 1 432 0 discriminator 1
 1466 0506 07F11003 		add	r3, r7, #16
 1467 050a 1B68     		ldr	r3, [r3, #0]
 1468 050c B3F5803F 		cmp	r3, #65536
 1469 0510 03D0     		beq	.L73
 1470 0512 D7F80431 		ldr	r3, [r7, #260]
 1471 0516 002B     		cmp	r3, #0
 1472 0518 E6D1     		bne	.L74
 1473              	.L73:
 433:App/STM32F4-Discovery/Libraries/STM32F4xx_StdPeriph_Driver/src/stm32f4xx_cryp_aes.c **** 
 434:App/STM32F4-Discovery/Libraries/STM32F4xx_StdPeriph_Driver/src/stm32f4xx_cryp_aes.c ****     if (busystatus != RESET)
 1474              		.loc 1 434 0
 1475 051a D7F80431 		ldr	r3, [r7, #260]
 1476 051e 002B     		cmp	r3, #0
 1477 0520 04D0     		beq	.L75
 435:App/STM32F4-Discovery/Libraries/STM32F4xx_StdPeriph_Driver/src/stm32f4xx_cryp_aes.c ****    {
 436:App/STM32F4-Discovery/Libraries/STM32F4xx_StdPeriph_Driver/src/stm32f4xx_cryp_aes.c ****        status = ERROR;
 1478              		.loc 1 436 0
 1479 0522 4FF00003 		mov	r3, #0
 1480 0526 87F81731 		strb	r3, [r7, #279]
 1481 052a 2FE0     		b	.L76
 1482              	.L75:
 437:App/STM32F4-Discovery/Libraries/STM32F4xx_StdPeriph_Driver/src/stm32f4xx_cryp_aes.c ****     }
 438:App/STM32F4-Discovery/Libraries/STM32F4xx_StdPeriph_Driver/src/stm32f4xx_cryp_aes.c ****     else
 439:App/STM32F4-Discovery/Libraries/STM32F4xx_StdPeriph_Driver/src/stm32f4xx_cryp_aes.c ****     {
 440:App/STM32F4-Discovery/Libraries/STM32F4xx_StdPeriph_Driver/src/stm32f4xx_cryp_aes.c **** 
 441:App/STM32F4-Discovery/Libraries/STM32F4xx_StdPeriph_Driver/src/stm32f4xx_cryp_aes.c ****       /* Read the Output block from the Output FIFO */
 442:App/STM32F4-Discovery/Libraries/STM32F4xx_StdPeriph_Driver/src/stm32f4xx_cryp_aes.c ****       *(uint32_t*)(outputaddr) = CRYP_DataOut();
 1483              		.loc 1 442 0
 1484 052c D7F80C41 		ldr	r4, [r7, #268]
 1485 0530 FFF7FEFF 		bl	CRYP_DataOut
 1486 0534 0346     		mov	r3, r0
 1487 0536 2360     		str	r3, [r4, #0]
 443:App/STM32F4-Discovery/Libraries/STM32F4xx_StdPeriph_Driver/src/stm32f4xx_cryp_aes.c ****       outputaddr+=4;
 1488              		.loc 1 443 0
 1489 0538 D7F80C31 		ldr	r3, [r7, #268]
 1490 053c 03F10403 		add	r3, r3, #4
 1491 0540 C7F80C31 		str	r3, [r7, #268]
 444:App/STM32F4-Discovery/Libraries/STM32F4xx_StdPeriph_Driver/src/stm32f4xx_cryp_aes.c ****       *(uint32_t*)(outputaddr) = CRYP_DataOut();
 1492              		.loc 1 444 0
 1493 0544 D7F80C41 		ldr	r4, [r7, #268]
 1494 0548 FFF7FEFF 		bl	CRYP_DataOut
 1495 054c 0346     		mov	r3, r0
 1496 054e 2360     		str	r3, [r4, #0]
 445:App/STM32F4-Discovery/Libraries/STM32F4xx_StdPeriph_Driver/src/stm32f4xx_cryp_aes.c ****       outputaddr+=4;
 1497              		.loc 1 445 0
 1498 0550 D7F80C31 		ldr	r3, [r7, #268]
 1499 0554 03F10403 		add	r3, r3, #4
 1500 0558 C7F80C31 		str	r3, [r7, #268]
 446:App/STM32F4-Discovery/Libraries/STM32F4xx_StdPeriph_Driver/src/stm32f4xx_cryp_aes.c ****       *(uint32_t*)(outputaddr) = CRYP_DataOut();
 1501              		.loc 1 446 0
 1502 055c D7F80C41 		ldr	r4, [r7, #268]
 1503 0560 FFF7FEFF 		bl	CRYP_DataOut
 1504 0564 0346     		mov	r3, r0
 1505 0566 2360     		str	r3, [r4, #0]
 447:App/STM32F4-Discovery/Libraries/STM32F4xx_StdPeriph_Driver/src/stm32f4xx_cryp_aes.c ****       outputaddr+=4;
 1506              		.loc 1 447 0
 1507 0568 D7F80C31 		ldr	r3, [r7, #268]
 1508 056c 03F10403 		add	r3, r3, #4
 1509 0570 C7F80C31 		str	r3, [r7, #268]
 448:App/STM32F4-Discovery/Libraries/STM32F4xx_StdPeriph_Driver/src/stm32f4xx_cryp_aes.c ****       *(uint32_t*)(outputaddr) = CRYP_DataOut();
 1510              		.loc 1 448 0
 1511 0574 D7F80C41 		ldr	r4, [r7, #268]
 1512 0578 FFF7FEFF 		bl	CRYP_DataOut
 1513 057c 0346     		mov	r3, r0
 1514 057e 2360     		str	r3, [r4, #0]
 449:App/STM32F4-Discovery/Libraries/STM32F4xx_StdPeriph_Driver/src/stm32f4xx_cryp_aes.c ****       outputaddr+=4;
 1515              		.loc 1 449 0
 1516 0580 D7F80C31 		ldr	r3, [r7, #268]
 1517 0584 03F10403 		add	r3, r3, #4
 1518 0588 C7F80C31 		str	r3, [r7, #268]
 1519              	.L76:
 414:App/STM32F4-Discovery/Libraries/STM32F4xx_StdPeriph_Driver/src/stm32f4xx_cryp_aes.c ****   for(i=0; ((i<Ilength) && (status != ERROR)); i+=16)
 1520              		.loc 1 414 0
 1521 058c D7F80831 		ldr	r3, [r7, #264]
 1522 0590 03F11003 		add	r3, r3, #16
 1523 0594 C7F80831 		str	r3, [r7, #264]
 1524              	.L72:
 414:App/STM32F4-Discovery/Libraries/STM32F4xx_StdPeriph_Driver/src/stm32f4xx_cryp_aes.c ****   for(i=0; ((i<Ilength) && (status != ERROR)); i+=16)
 1525              		.loc 1 414 0 is_stmt 0 discriminator 1
 1526 0598 D7F80821 		ldr	r2, [r7, #264]
 1527 059c D7F82C31 		ldr	r3, [r7, #300]
 1528 05a0 9A42     		cmp	r2, r3
 1529 05a2 04D2     		bcs	.L77
 414:App/STM32F4-Discovery/Libraries/STM32F4xx_StdPeriph_Driver/src/stm32f4xx_cryp_aes.c ****   for(i=0; ((i<Ilength) && (status != ERROR)); i+=16)
 1530              		.loc 1 414 0 discriminator 2
 1531 05a4 97F81731 		ldrb	r3, [r7, #279]	@ zero_extendqisi2
 1532 05a8 002B     		cmp	r3, #0
 1533 05aa 7FF468AF 		bne	.L78
 1534              	.L77:
 450:App/STM32F4-Discovery/Libraries/STM32F4xx_StdPeriph_Driver/src/stm32f4xx_cryp_aes.c ****     }
 451:App/STM32F4-Discovery/Libraries/STM32F4xx_StdPeriph_Driver/src/stm32f4xx_cryp_aes.c ****   }
 452:App/STM32F4-Discovery/Libraries/STM32F4xx_StdPeriph_Driver/src/stm32f4xx_cryp_aes.c **** 
 453:App/STM32F4-Discovery/Libraries/STM32F4xx_StdPeriph_Driver/src/stm32f4xx_cryp_aes.c ****   /* Disable Crypto */
 454:App/STM32F4-Discovery/Libraries/STM32F4xx_StdPeriph_Driver/src/stm32f4xx_cryp_aes.c ****   CRYP_Cmd(DISABLE);
 1535              		.loc 1 454 0 is_stmt 1
 1536 05ae 4FF00000 		mov	r0, #0
 1537 05b2 FFF7FEFF 		bl	CRYP_Cmd
 455:App/STM32F4-Discovery/Libraries/STM32F4xx_StdPeriph_Driver/src/stm32f4xx_cryp_aes.c **** 
 456:App/STM32F4-Discovery/Libraries/STM32F4xx_StdPeriph_Driver/src/stm32f4xx_cryp_aes.c ****   return status;
 1538              		.loc 1 456 0
 1539 05b6 97F81731 		ldrb	r3, [r7, #279]	@ zero_extendqisi2
 457:App/STM32F4-Discovery/Libraries/STM32F4xx_StdPeriph_Driver/src/stm32f4xx_cryp_aes.c **** }
 1540              		.loc 1 457 0
 1541 05ba 1846     		mov	r0, r3
 1542 05bc 07F58E77 		add	r7, r7, #284
 1543 05c0 BD46     		mov	sp, r7
 1544 05c2 90BD     		pop	{r4, r7, pc}
 1545              		.cfi_endproc
 1546              	.LFE111:
 1548              		.section	.text.CRYP_AES_CTR,"ax",%progbits
 1549              		.align	2
 1550              		.global	CRYP_AES_CTR
 1551              		.thumb
 1552              		.thumb_func
 1554              	CRYP_AES_CTR:
 1555              	.LFB112:
 458:App/STM32F4-Discovery/Libraries/STM32F4xx_StdPeriph_Driver/src/stm32f4xx_cryp_aes.c **** 
 459:App/STM32F4-Discovery/Libraries/STM32F4xx_StdPeriph_Driver/src/stm32f4xx_cryp_aes.c **** /**
 460:App/STM32F4-Discovery/Libraries/STM32F4xx_StdPeriph_Driver/src/stm32f4xx_cryp_aes.c ****   * @brief  Encrypt and decrypt using AES in CTR Mode
 461:App/STM32F4-Discovery/Libraries/STM32F4xx_StdPeriph_Driver/src/stm32f4xx_cryp_aes.c ****   * @param  Mode: encryption or decryption Mode.
 462:App/STM32F4-Discovery/Libraries/STM32F4xx_StdPeriph_Driver/src/stm32f4xx_cryp_aes.c ****   *           This parameter can be one of the following values:
 463:App/STM32F4-Discovery/Libraries/STM32F4xx_StdPeriph_Driver/src/stm32f4xx_cryp_aes.c ****   *            @arg MODE_ENCRYPT: Encryption
 464:App/STM32F4-Discovery/Libraries/STM32F4xx_StdPeriph_Driver/src/stm32f4xx_cryp_aes.c ****   *            @arg MODE_DECRYPT: Decryption
 465:App/STM32F4-Discovery/Libraries/STM32F4xx_StdPeriph_Driver/src/stm32f4xx_cryp_aes.c ****   * @param  InitVectors: Initialisation Vectors used for AES algorithm.
 466:App/STM32F4-Discovery/Libraries/STM32F4xx_StdPeriph_Driver/src/stm32f4xx_cryp_aes.c ****   * @param  Key: Key used for AES algorithm.
 467:App/STM32F4-Discovery/Libraries/STM32F4xx_StdPeriph_Driver/src/stm32f4xx_cryp_aes.c ****   * @param  Keysize: length of the Key, must be a 128, 192 or 256.
 468:App/STM32F4-Discovery/Libraries/STM32F4xx_StdPeriph_Driver/src/stm32f4xx_cryp_aes.c ****   * @param  Input: pointer to the Input buffer.
 469:App/STM32F4-Discovery/Libraries/STM32F4xx_StdPeriph_Driver/src/stm32f4xx_cryp_aes.c ****   * @param  Ilength: length of the Input buffer, must be a multiple of 16.
 470:App/STM32F4-Discovery/Libraries/STM32F4xx_StdPeriph_Driver/src/stm32f4xx_cryp_aes.c ****   * @param  Output: pointer to the returned buffer.
 471:App/STM32F4-Discovery/Libraries/STM32F4xx_StdPeriph_Driver/src/stm32f4xx_cryp_aes.c ****   * @retval An ErrorStatus enumeration value:
 472:App/STM32F4-Discovery/Libraries/STM32F4xx_StdPeriph_Driver/src/stm32f4xx_cryp_aes.c ****   *          - SUCCESS: Operation done
 473:App/STM32F4-Discovery/Libraries/STM32F4xx_StdPeriph_Driver/src/stm32f4xx_cryp_aes.c ****   *          - ERROR: Operation failed
 474:App/STM32F4-Discovery/Libraries/STM32F4xx_StdPeriph_Driver/src/stm32f4xx_cryp_aes.c ****   */
 475:App/STM32F4-Discovery/Libraries/STM32F4xx_StdPeriph_Driver/src/stm32f4xx_cryp_aes.c **** ErrorStatus CRYP_AES_CTR(uint8_t Mode, uint8_t InitVectors[16], uint8_t *Key, 
 476:App/STM32F4-Discovery/Libraries/STM32F4xx_StdPeriph_Driver/src/stm32f4xx_cryp_aes.c ****                          uint16_t Keysize, uint8_t *Input, uint32_t Ilength,
 477:App/STM32F4-Discovery/Libraries/STM32F4xx_StdPeriph_Driver/src/stm32f4xx_cryp_aes.c ****                          uint8_t *Output)
 478:App/STM32F4-Discovery/Libraries/STM32F4xx_StdPeriph_Driver/src/stm32f4xx_cryp_aes.c **** {
 1556              		.loc 1 478 0
 1557              		.cfi_startproc
 1558              		@ args = 12, pretend = 0, frame = 280
 1559              		@ frame_needed = 1, uses_anonymous_args = 0
 1560 0000 90B5     		push	{r4, r7, lr}
 1561              	.LCFI6:
 1562              		.cfi_def_cfa_offset 12
 1563              		.cfi_offset 4, -12
 1564              		.cfi_offset 7, -8
 1565              		.cfi_offset 14, -4
 1566 0002 C7B0     		sub	sp, sp, #284
 1567              	.LCFI7:
 1568              		.cfi_def_cfa_offset 296
 1569 0004 00AF     		add	r7, sp, #0
 1570              	.LCFI8:
 1571              		.cfi_def_cfa_register 7
 1572 0006 07F10804 		add	r4, r7, #8
 1573 000a 2160     		str	r1, [r4, #0]
 1574 000c 07F10401 		add	r1, r7, #4
 1575 0010 0A60     		str	r2, [r1, #0]
 1576 0012 1A46     		mov	r2, r3
 1577 0014 07F10F03 		add	r3, r7, #15
 1578 0018 0146     		mov	r1, r0
 1579 001a 1970     		strb	r1, [r3, #0]
 1580 001c 07F10C03 		add	r3, r7, #12
 1581 0020 1A80     		strh	r2, [r3, #0]	@ movhi
 479:App/STM32F4-Discovery/Libraries/STM32F4xx_StdPeriph_Driver/src/stm32f4xx_cryp_aes.c ****   CRYP_InitTypeDef AES_CRYP_InitStructure;
 480:App/STM32F4-Discovery/Libraries/STM32F4xx_StdPeriph_Driver/src/stm32f4xx_cryp_aes.c ****   CRYP_KeyInitTypeDef AES_CRYP_KeyInitStructure;
 481:App/STM32F4-Discovery/Libraries/STM32F4xx_StdPeriph_Driver/src/stm32f4xx_cryp_aes.c ****   CRYP_IVInitTypeDef AES_CRYP_IVInitStructure;
 482:App/STM32F4-Discovery/Libraries/STM32F4xx_StdPeriph_Driver/src/stm32f4xx_cryp_aes.c ****   __IO uint32_t counter = 0;
 1582              		.loc 1 482 0
 1583 0022 07F11003 		add	r3, r7, #16
 1584 0026 4FF00002 		mov	r2, #0
 1585 002a 1A60     		str	r2, [r3, #0]
 483:App/STM32F4-Discovery/Libraries/STM32F4xx_StdPeriph_Driver/src/stm32f4xx_cryp_aes.c ****   uint32_t busystatus = 0;
 1586              		.loc 1 483 0
 1587 002c 4FF00003 		mov	r3, #0
 1588 0030 C7F80431 		str	r3, [r7, #260]
 484:App/STM32F4-Discovery/Libraries/STM32F4xx_StdPeriph_Driver/src/stm32f4xx_cryp_aes.c ****   ErrorStatus status = SUCCESS;
 1589              		.loc 1 484 0
 1590 0034 4FF00103 		mov	r3, #1
 1591 0038 87F81731 		strb	r3, [r7, #279]
 485:App/STM32F4-Discovery/Libraries/STM32F4xx_StdPeriph_Driver/src/stm32f4xx_cryp_aes.c ****   uint32_t keyaddr    = (uint32_t)Key;
 1592              		.loc 1 485 0
 1593 003c 07F10403 		add	r3, r7, #4
 1594 0040 1B68     		ldr	r3, [r3, #0]
 1595 0042 C7F80031 		str	r3, [r7, #256]
 486:App/STM32F4-Discovery/Libraries/STM32F4xx_StdPeriph_Driver/src/stm32f4xx_cryp_aes.c ****   uint32_t inputaddr  = (uint32_t)Input;
 1596              		.loc 1 486 0
 1597 0046 D7F82831 		ldr	r3, [r7, #296]
 1598 004a C7F81031 		str	r3, [r7, #272]
 487:App/STM32F4-Discovery/Libraries/STM32F4xx_StdPeriph_Driver/src/stm32f4xx_cryp_aes.c ****   uint32_t outputaddr = (uint32_t)Output;
 1599              		.loc 1 487 0
 1600 004e D7F83031 		ldr	r3, [r7, #304]
 1601 0052 C7F80C31 		str	r3, [r7, #268]
 488:App/STM32F4-Discovery/Libraries/STM32F4xx_StdPeriph_Driver/src/stm32f4xx_cryp_aes.c ****   uint32_t ivaddr     = (uint32_t)InitVectors;
 1602              		.loc 1 488 0
 1603 0056 07F10803 		add	r3, r7, #8
 1604 005a 1B68     		ldr	r3, [r3, #0]
 1605 005c C7F8FC30 		str	r3, [r7, #252]
 489:App/STM32F4-Discovery/Libraries/STM32F4xx_StdPeriph_Driver/src/stm32f4xx_cryp_aes.c ****   uint32_t i = 0;
 1606              		.loc 1 489 0
 1607 0060 4FF00003 		mov	r3, #0
 1608 0064 C7F80831 		str	r3, [r7, #264]
 490:App/STM32F4-Discovery/Libraries/STM32F4xx_StdPeriph_Driver/src/stm32f4xx_cryp_aes.c **** 
 491:App/STM32F4-Discovery/Libraries/STM32F4xx_StdPeriph_Driver/src/stm32f4xx_cryp_aes.c ****   /* Crypto structures initialisation*/
 492:App/STM32F4-Discovery/Libraries/STM32F4xx_StdPeriph_Driver/src/stm32f4xx_cryp_aes.c ****   CRYP_KeyStructInit(&AES_CRYP_KeyInitStructure);
 1609              		.loc 1 492 0
 1610 0068 07F12403 		add	r3, r7, #36
 1611 006c 1846     		mov	r0, r3
 1612 006e FFF7FEFF 		bl	CRYP_KeyStructInit
 493:App/STM32F4-Discovery/Libraries/STM32F4xx_StdPeriph_Driver/src/stm32f4xx_cryp_aes.c **** 
 494:App/STM32F4-Discovery/Libraries/STM32F4xx_StdPeriph_Driver/src/stm32f4xx_cryp_aes.c ****   switch(Keysize)
 1613              		.loc 1 494 0
 1614 0072 07F10C03 		add	r3, r7, #12
 1615 0076 1B88     		ldrh	r3, [r3, #0]
 1616 0078 C02B     		cmp	r3, #192
 1617 007a 51D0     		beq	.L84
 1618 007c B3F5807F 		cmp	r3, #256
 1619 0080 00F0BF80 		beq	.L85
 1620 0084 802B     		cmp	r3, #128
 1621 0086 40F04981 		bne	.L119
 1622              	.L83:
 495:App/STM32F4-Discovery/Libraries/STM32F4xx_StdPeriph_Driver/src/stm32f4xx_cryp_aes.c ****   {
 496:App/STM32F4-Discovery/Libraries/STM32F4xx_StdPeriph_Driver/src/stm32f4xx_cryp_aes.c ****     case 128:
 497:App/STM32F4-Discovery/Libraries/STM32F4xx_StdPeriph_Driver/src/stm32f4xx_cryp_aes.c ****     AES_CRYP_InitStructure.CRYP_KeySize = CRYP_KeySize_128b;
 1623              		.loc 1 497 0
 1624 008a 4FF00003 		mov	r3, #0
 1625 008e A7F84A30 		strh	r3, [r7, #74]	@ movhi
 498:App/STM32F4-Discovery/Libraries/STM32F4xx_StdPeriph_Driver/src/stm32f4xx_cryp_aes.c ****     AES_CRYP_KeyInitStructure.CRYP_Key2Left = __REV(*(uint32_t*)(keyaddr));
 1626              		.loc 1 498 0
 1627 0092 D7F80031 		ldr	r3, [r7, #256]
 1628 0096 1B68     		ldr	r3, [r3, #0]
 1629 0098 C7F8F830 		str	r3, [r7, #248]
 1630              	.LBB206:
 1631              	.LBB207:
 352:App/STM32F4-Discovery/Libraries/CMSIS/Include/core_cmInstr.h ****   __ASM volatile ("rev %0, %1" : "=r" (result) : "r" (value) );
 1632              		.loc 2 352 0
 1633 009c D7F8F830 		ldr	r3, [r7, #248]
 1634              	@ 352 "App/STM32F4-Discovery/Libraries/CMSIS/Include/core_cmInstr.h" 1
 1635 00a0 1CBA     		rev r4, r3
 1636              	@ 0 "" 2
 1637              		.thumb
 1638 00a2 C7F8F440 		str	r4, [r7, #244]
 1639              		.loc 2 353 0
 1640 00a6 D7F8F430 		ldr	r3, [r7, #244]
 1641              	.LBE207:
 1642              	.LBE206:
 1643              		.loc 1 498 0
 1644 00aa 7B63     		str	r3, [r7, #52]
 499:App/STM32F4-Discovery/Libraries/STM32F4xx_StdPeriph_Driver/src/stm32f4xx_cryp_aes.c ****     keyaddr+=4;
 1645              		.loc 1 499 0
 1646 00ac D7F80031 		ldr	r3, [r7, #256]
 1647 00b0 03F10403 		add	r3, r3, #4
 1648 00b4 C7F80031 		str	r3, [r7, #256]
 500:App/STM32F4-Discovery/Libraries/STM32F4xx_StdPeriph_Driver/src/stm32f4xx_cryp_aes.c ****     AES_CRYP_KeyInitStructure.CRYP_Key2Right= __REV(*(uint32_t*)(keyaddr));
 1649              		.loc 1 500 0
 1650 00b8 D7F80031 		ldr	r3, [r7, #256]
 1651 00bc 1B68     		ldr	r3, [r3, #0]
 1652 00be C7F8F030 		str	r3, [r7, #240]
 1653              	.LBB208:
 1654              	.LBB209:
 352:App/STM32F4-Discovery/Libraries/CMSIS/Include/core_cmInstr.h ****   __ASM volatile ("rev %0, %1" : "=r" (result) : "r" (value) );
 1655              		.loc 2 352 0
 1656 00c2 D7F8F030 		ldr	r3, [r7, #240]
 1657              	@ 352 "App/STM32F4-Discovery/Libraries/CMSIS/Include/core_cmInstr.h" 1
 1658 00c6 1CBA     		rev r4, r3
 1659              	@ 0 "" 2
 1660              		.thumb
 1661 00c8 C7F8EC40 		str	r4, [r7, #236]
 1662              		.loc 2 353 0
 1663 00cc D7F8EC30 		ldr	r3, [r7, #236]
 1664              	.LBE209:
 1665              	.LBE208:
 1666              		.loc 1 500 0
 1667 00d0 BB63     		str	r3, [r7, #56]
 501:App/STM32F4-Discovery/Libraries/STM32F4xx_StdPeriph_Driver/src/stm32f4xx_cryp_aes.c ****     keyaddr+=4;
 1668              		.loc 1 501 0
 1669 00d2 D7F80031 		ldr	r3, [r7, #256]
 1670 00d6 03F10403 		add	r3, r3, #4
 1671 00da C7F80031 		str	r3, [r7, #256]
 502:App/STM32F4-Discovery/Libraries/STM32F4xx_StdPeriph_Driver/src/stm32f4xx_cryp_aes.c ****     AES_CRYP_KeyInitStructure.CRYP_Key3Left = __REV(*(uint32_t*)(keyaddr));
 1672              		.loc 1 502 0
 1673 00de D7F80031 		ldr	r3, [r7, #256]
 1674 00e2 1B68     		ldr	r3, [r3, #0]
 1675 00e4 C7F8E830 		str	r3, [r7, #232]
 1676              	.LBB210:
 1677              	.LBB211:
 352:App/STM32F4-Discovery/Libraries/CMSIS/Include/core_cmInstr.h ****   __ASM volatile ("rev %0, %1" : "=r" (result) : "r" (value) );
 1678              		.loc 2 352 0
 1679 00e8 D7F8E830 		ldr	r3, [r7, #232]
 1680              	@ 352 "App/STM32F4-Discovery/Libraries/CMSIS/Include/core_cmInstr.h" 1
 1681 00ec 1CBA     		rev r4, r3
 1682              	@ 0 "" 2
 1683              		.thumb
 1684 00ee C7F8E440 		str	r4, [r7, #228]
 1685              		.loc 2 353 0
 1686 00f2 D7F8E430 		ldr	r3, [r7, #228]
 1687              	.LBE211:
 1688              	.LBE210:
 1689              		.loc 1 502 0
 1690 00f6 FB63     		str	r3, [r7, #60]
 503:App/STM32F4-Discovery/Libraries/STM32F4xx_StdPeriph_Driver/src/stm32f4xx_cryp_aes.c ****     keyaddr+=4;
 1691              		.loc 1 503 0
 1692 00f8 D7F80031 		ldr	r3, [r7, #256]
 1693 00fc 03F10403 		add	r3, r3, #4
 1694 0100 C7F80031 		str	r3, [r7, #256]
 504:App/STM32F4-Discovery/Libraries/STM32F4xx_StdPeriph_Driver/src/stm32f4xx_cryp_aes.c ****     AES_CRYP_KeyInitStructure.CRYP_Key3Right= __REV(*(uint32_t*)(keyaddr));
 1695              		.loc 1 504 0
 1696 0104 D7F80031 		ldr	r3, [r7, #256]
 1697 0108 1B68     		ldr	r3, [r3, #0]
 1698 010a C7F8E030 		str	r3, [r7, #224]
 1699              	.LBB212:
 1700              	.LBB213:
 352:App/STM32F4-Discovery/Libraries/CMSIS/Include/core_cmInstr.h ****   __ASM volatile ("rev %0, %1" : "=r" (result) : "r" (value) );
 1701              		.loc 2 352 0
 1702 010e D7F8E030 		ldr	r3, [r7, #224]
 1703              	@ 352 "App/STM32F4-Discovery/Libraries/CMSIS/Include/core_cmInstr.h" 1
 1704 0112 1CBA     		rev r4, r3
 1705              	@ 0 "" 2
 1706              		.thumb
 1707 0114 C7F8DC40 		str	r4, [r7, #220]
 1708              		.loc 2 353 0
 1709 0118 D7F8DC30 		ldr	r3, [r7, #220]
 1710              	.LBE213:
 1711              	.LBE212:
 1712              		.loc 1 504 0
 1713 011c 3B64     		str	r3, [r7, #64]
 505:App/STM32F4-Discovery/Libraries/STM32F4xx_StdPeriph_Driver/src/stm32f4xx_cryp_aes.c ****     break;
 1714              		.loc 1 505 0
 1715 011e FEE0     		b	.L90
 1716              	.L84:
 506:App/STM32F4-Discovery/Libraries/STM32F4xx_StdPeriph_Driver/src/stm32f4xx_cryp_aes.c ****     case 192:
 507:App/STM32F4-Discovery/Libraries/STM32F4xx_StdPeriph_Driver/src/stm32f4xx_cryp_aes.c ****     AES_CRYP_InitStructure.CRYP_KeySize  = CRYP_KeySize_192b;
 1717              		.loc 1 507 0
 1718 0120 4FF48073 		mov	r3, #256
 1719 0124 A7F84A30 		strh	r3, [r7, #74]	@ movhi
 508:App/STM32F4-Discovery/Libraries/STM32F4xx_StdPeriph_Driver/src/stm32f4xx_cryp_aes.c ****     AES_CRYP_KeyInitStructure.CRYP_Key1Left = __REV(*(uint32_t*)(keyaddr));
 1720              		.loc 1 508 0
 1721 0128 D7F80031 		ldr	r3, [r7, #256]
 1722 012c 1B68     		ldr	r3, [r3, #0]
 1723 012e C7F8D830 		str	r3, [r7, #216]
 1724              	.LBB214:
 1725              	.LBB215:
 352:App/STM32F4-Discovery/Libraries/CMSIS/Include/core_cmInstr.h ****   __ASM volatile ("rev %0, %1" : "=r" (result) : "r" (value) );
 1726              		.loc 2 352 0
 1727 0132 D7F8D830 		ldr	r3, [r7, #216]
 1728              	@ 352 "App/STM32F4-Discovery/Libraries/CMSIS/Include/core_cmInstr.h" 1
 1729 0136 1CBA     		rev r4, r3
 1730              	@ 0 "" 2
 1731              		.thumb
 1732 0138 C7F8D440 		str	r4, [r7, #212]
 1733              		.loc 2 353 0
 1734 013c D7F8D430 		ldr	r3, [r7, #212]
 1735              	.LBE215:
 1736              	.LBE214:
 1737              		.loc 1 508 0
 1738 0140 FB62     		str	r3, [r7, #44]
 509:App/STM32F4-Discovery/Libraries/STM32F4xx_StdPeriph_Driver/src/stm32f4xx_cryp_aes.c ****     keyaddr+=4;
 1739              		.loc 1 509 0
 1740 0142 D7F80031 		ldr	r3, [r7, #256]
 1741 0146 03F10403 		add	r3, r3, #4
 1742 014a C7F80031 		str	r3, [r7, #256]
 510:App/STM32F4-Discovery/Libraries/STM32F4xx_StdPeriph_Driver/src/stm32f4xx_cryp_aes.c ****     AES_CRYP_KeyInitStructure.CRYP_Key1Right= __REV(*(uint32_t*)(keyaddr));
 1743              		.loc 1 510 0
 1744 014e D7F80031 		ldr	r3, [r7, #256]
 1745 0152 1B68     		ldr	r3, [r3, #0]
 1746 0154 C7F8D030 		str	r3, [r7, #208]
 1747              	.LBB216:
 1748              	.LBB217:
 352:App/STM32F4-Discovery/Libraries/CMSIS/Include/core_cmInstr.h ****   __ASM volatile ("rev %0, %1" : "=r" (result) : "r" (value) );
 1749              		.loc 2 352 0
 1750 0158 D7F8D030 		ldr	r3, [r7, #208]
 1751              	@ 352 "App/STM32F4-Discovery/Libraries/CMSIS/Include/core_cmInstr.h" 1
 1752 015c 1CBA     		rev r4, r3
 1753              	@ 0 "" 2
 1754              		.thumb
 1755 015e C7F8CC40 		str	r4, [r7, #204]
 1756              		.loc 2 353 0
 1757 0162 D7F8CC30 		ldr	r3, [r7, #204]
 1758              	.LBE217:
 1759              	.LBE216:
 1760              		.loc 1 510 0
 1761 0166 3B63     		str	r3, [r7, #48]
 511:App/STM32F4-Discovery/Libraries/STM32F4xx_StdPeriph_Driver/src/stm32f4xx_cryp_aes.c ****     keyaddr+=4;
 1762              		.loc 1 511 0
 1763 0168 D7F80031 		ldr	r3, [r7, #256]
 1764 016c 03F10403 		add	r3, r3, #4
 1765 0170 C7F80031 		str	r3, [r7, #256]
 512:App/STM32F4-Discovery/Libraries/STM32F4xx_StdPeriph_Driver/src/stm32f4xx_cryp_aes.c ****     AES_CRYP_KeyInitStructure.CRYP_Key2Left = __REV(*(uint32_t*)(keyaddr));
 1766              		.loc 1 512 0
 1767 0174 D7F80031 		ldr	r3, [r7, #256]
 1768 0178 1B68     		ldr	r3, [r3, #0]
 1769 017a C7F8C830 		str	r3, [r7, #200]
 1770              	.LBB218:
 1771              	.LBB219:
 352:App/STM32F4-Discovery/Libraries/CMSIS/Include/core_cmInstr.h ****   __ASM volatile ("rev %0, %1" : "=r" (result) : "r" (value) );
 1772              		.loc 2 352 0
 1773 017e D7F8C830 		ldr	r3, [r7, #200]
 1774              	@ 352 "App/STM32F4-Discovery/Libraries/CMSIS/Include/core_cmInstr.h" 1
 1775 0182 1CBA     		rev r4, r3
 1776              	@ 0 "" 2
 1777              		.thumb
 1778 0184 C7F8C440 		str	r4, [r7, #196]
 1779              		.loc 2 353 0
 1780 0188 D7F8C430 		ldr	r3, [r7, #196]
 1781              	.LBE219:
 1782              	.LBE218:
 1783              		.loc 1 512 0
 1784 018c 7B63     		str	r3, [r7, #52]
 513:App/STM32F4-Discovery/Libraries/STM32F4xx_StdPeriph_Driver/src/stm32f4xx_cryp_aes.c ****     keyaddr+=4;
 1785              		.loc 1 513 0
 1786 018e D7F80031 		ldr	r3, [r7, #256]
 1787 0192 03F10403 		add	r3, r3, #4
 1788 0196 C7F80031 		str	r3, [r7, #256]
 514:App/STM32F4-Discovery/Libraries/STM32F4xx_StdPeriph_Driver/src/stm32f4xx_cryp_aes.c ****     AES_CRYP_KeyInitStructure.CRYP_Key2Right= __REV(*(uint32_t*)(keyaddr));
 1789              		.loc 1 514 0
 1790 019a D7F80031 		ldr	r3, [r7, #256]
 1791 019e 1B68     		ldr	r3, [r3, #0]
 1792 01a0 C7F8C030 		str	r3, [r7, #192]
 1793              	.LBB220:
 1794              	.LBB221:
 352:App/STM32F4-Discovery/Libraries/CMSIS/Include/core_cmInstr.h ****   __ASM volatile ("rev %0, %1" : "=r" (result) : "r" (value) );
 1795              		.loc 2 352 0
 1796 01a4 D7F8C030 		ldr	r3, [r7, #192]
 1797              	@ 352 "App/STM32F4-Discovery/Libraries/CMSIS/Include/core_cmInstr.h" 1
 1798 01a8 1CBA     		rev r4, r3
 1799              	@ 0 "" 2
 1800              		.thumb
 1801 01aa C7F8BC40 		str	r4, [r7, #188]
 1802              		.loc 2 353 0
 1803 01ae D7F8BC30 		ldr	r3, [r7, #188]
 1804              	.LBE221:
 1805              	.LBE220:
 1806              		.loc 1 514 0
 1807 01b2 BB63     		str	r3, [r7, #56]
 515:App/STM32F4-Discovery/Libraries/STM32F4xx_StdPeriph_Driver/src/stm32f4xx_cryp_aes.c ****     keyaddr+=4;
 1808              		.loc 1 515 0
 1809 01b4 D7F80031 		ldr	r3, [r7, #256]
 1810 01b8 03F10403 		add	r3, r3, #4
 1811 01bc C7F80031 		str	r3, [r7, #256]
 516:App/STM32F4-Discovery/Libraries/STM32F4xx_StdPeriph_Driver/src/stm32f4xx_cryp_aes.c ****     AES_CRYP_KeyInitStructure.CRYP_Key3Left = __REV(*(uint32_t*)(keyaddr));
 1812              		.loc 1 516 0
 1813 01c0 D7F80031 		ldr	r3, [r7, #256]
 1814 01c4 1B68     		ldr	r3, [r3, #0]
 1815 01c6 C7F8B830 		str	r3, [r7, #184]
 1816              	.LBB222:
 1817              	.LBB223:
 352:App/STM32F4-Discovery/Libraries/CMSIS/Include/core_cmInstr.h ****   __ASM volatile ("rev %0, %1" : "=r" (result) : "r" (value) );
 1818              		.loc 2 352 0
 1819 01ca D7F8B830 		ldr	r3, [r7, #184]
 1820              	@ 352 "App/STM32F4-Discovery/Libraries/CMSIS/Include/core_cmInstr.h" 1
 1821 01ce 1CBA     		rev r4, r3
 1822              	@ 0 "" 2
 1823              		.thumb
 1824 01d0 C7F8B440 		str	r4, [r7, #180]
 1825              		.loc 2 353 0
 1826 01d4 D7F8B430 		ldr	r3, [r7, #180]
 1827              	.LBE223:
 1828              	.LBE222:
 1829              		.loc 1 516 0
 1830 01d8 FB63     		str	r3, [r7, #60]
 517:App/STM32F4-Discovery/Libraries/STM32F4xx_StdPeriph_Driver/src/stm32f4xx_cryp_aes.c ****     keyaddr+=4;
 1831              		.loc 1 517 0
 1832 01da D7F80031 		ldr	r3, [r7, #256]
 1833 01de 03F10403 		add	r3, r3, #4
 1834 01e2 C7F80031 		str	r3, [r7, #256]
 518:App/STM32F4-Discovery/Libraries/STM32F4xx_StdPeriph_Driver/src/stm32f4xx_cryp_aes.c ****     AES_CRYP_KeyInitStructure.CRYP_Key3Right= __REV(*(uint32_t*)(keyaddr));
 1835              		.loc 1 518 0
 1836 01e6 D7F80031 		ldr	r3, [r7, #256]
 1837 01ea 1B68     		ldr	r3, [r3, #0]
 1838 01ec C7F8B030 		str	r3, [r7, #176]
 1839              	.LBB224:
 1840              	.LBB225:
 352:App/STM32F4-Discovery/Libraries/CMSIS/Include/core_cmInstr.h ****   __ASM volatile ("rev %0, %1" : "=r" (result) : "r" (value) );
 1841              		.loc 2 352 0
 1842 01f0 D7F8B030 		ldr	r3, [r7, #176]
 1843              	@ 352 "App/STM32F4-Discovery/Libraries/CMSIS/Include/core_cmInstr.h" 1
 1844 01f4 1CBA     		rev r4, r3
 1845              	@ 0 "" 2
 1846              		.thumb
 1847 01f6 C7F8AC40 		str	r4, [r7, #172]
 1848              		.loc 2 353 0
 1849 01fa D7F8AC30 		ldr	r3, [r7, #172]
 1850              	.LBE225:
 1851              	.LBE224:
 1852              		.loc 1 518 0
 1853 01fe 3B64     		str	r3, [r7, #64]
 519:App/STM32F4-Discovery/Libraries/STM32F4xx_StdPeriph_Driver/src/stm32f4xx_cryp_aes.c ****     break;
 1854              		.loc 1 519 0
 1855 0200 8DE0     		b	.L90
 1856              	.L85:
 520:App/STM32F4-Discovery/Libraries/STM32F4xx_StdPeriph_Driver/src/stm32f4xx_cryp_aes.c ****     case 256:
 521:App/STM32F4-Discovery/Libraries/STM32F4xx_StdPeriph_Driver/src/stm32f4xx_cryp_aes.c ****     AES_CRYP_InitStructure.CRYP_KeySize  = CRYP_KeySize_256b;
 1857              		.loc 1 521 0
 1858 0202 4FF40073 		mov	r3, #512
 1859 0206 A7F84A30 		strh	r3, [r7, #74]	@ movhi
 522:App/STM32F4-Discovery/Libraries/STM32F4xx_StdPeriph_Driver/src/stm32f4xx_cryp_aes.c ****     AES_CRYP_KeyInitStructure.CRYP_Key0Left = __REV(*(uint32_t*)(keyaddr));
 1860              		.loc 1 522 0
 1861 020a D7F80031 		ldr	r3, [r7, #256]
 1862 020e 1B68     		ldr	r3, [r3, #0]
 1863 0210 C7F8A830 		str	r3, [r7, #168]
 1864              	.LBB226:
 1865              	.LBB227:
 352:App/STM32F4-Discovery/Libraries/CMSIS/Include/core_cmInstr.h ****   __ASM volatile ("rev %0, %1" : "=r" (result) : "r" (value) );
 1866              		.loc 2 352 0
 1867 0214 D7F8A830 		ldr	r3, [r7, #168]
 1868              	@ 352 "App/STM32F4-Discovery/Libraries/CMSIS/Include/core_cmInstr.h" 1
 1869 0218 1CBA     		rev r4, r3
 1870              	@ 0 "" 2
 1871              		.thumb
 1872 021a C7F8A440 		str	r4, [r7, #164]
 1873              		.loc 2 353 0
 1874 021e D7F8A430 		ldr	r3, [r7, #164]
 1875              	.LBE227:
 1876              	.LBE226:
 1877              		.loc 1 522 0
 1878 0222 7B62     		str	r3, [r7, #36]
 523:App/STM32F4-Discovery/Libraries/STM32F4xx_StdPeriph_Driver/src/stm32f4xx_cryp_aes.c ****     keyaddr+=4;
 1879              		.loc 1 523 0
 1880 0224 D7F80031 		ldr	r3, [r7, #256]
 1881 0228 03F10403 		add	r3, r3, #4
 1882 022c C7F80031 		str	r3, [r7, #256]
 524:App/STM32F4-Discovery/Libraries/STM32F4xx_StdPeriph_Driver/src/stm32f4xx_cryp_aes.c ****     AES_CRYP_KeyInitStructure.CRYP_Key0Right= __REV(*(uint32_t*)(keyaddr));
 1883              		.loc 1 524 0
 1884 0230 D7F80031 		ldr	r3, [r7, #256]
 1885 0234 1B68     		ldr	r3, [r3, #0]
 1886 0236 C7F8A030 		str	r3, [r7, #160]
 1887              	.LBB228:
 1888              	.LBB229:
 352:App/STM32F4-Discovery/Libraries/CMSIS/Include/core_cmInstr.h ****   __ASM volatile ("rev %0, %1" : "=r" (result) : "r" (value) );
 1889              		.loc 2 352 0
 1890 023a D7F8A030 		ldr	r3, [r7, #160]
 1891              	@ 352 "App/STM32F4-Discovery/Libraries/CMSIS/Include/core_cmInstr.h" 1
 1892 023e 1CBA     		rev r4, r3
 1893              	@ 0 "" 2
 1894              		.thumb
 1895 0240 C7F89C40 		str	r4, [r7, #156]
 1896              		.loc 2 353 0
 1897 0244 D7F89C30 		ldr	r3, [r7, #156]
 1898              	.LBE229:
 1899              	.LBE228:
 1900              		.loc 1 524 0
 1901 0248 BB62     		str	r3, [r7, #40]
 525:App/STM32F4-Discovery/Libraries/STM32F4xx_StdPeriph_Driver/src/stm32f4xx_cryp_aes.c ****     keyaddr+=4;
 1902              		.loc 1 525 0
 1903 024a D7F80031 		ldr	r3, [r7, #256]
 1904 024e 03F10403 		add	r3, r3, #4
 1905 0252 C7F80031 		str	r3, [r7, #256]
 526:App/STM32F4-Discovery/Libraries/STM32F4xx_StdPeriph_Driver/src/stm32f4xx_cryp_aes.c ****     AES_CRYP_KeyInitStructure.CRYP_Key1Left = __REV(*(uint32_t*)(keyaddr));
 1906              		.loc 1 526 0
 1907 0256 D7F80031 		ldr	r3, [r7, #256]
 1908 025a 1B68     		ldr	r3, [r3, #0]
 1909 025c C7F89830 		str	r3, [r7, #152]
 1910              	.LBB230:
 1911              	.LBB231:
 352:App/STM32F4-Discovery/Libraries/CMSIS/Include/core_cmInstr.h ****   __ASM volatile ("rev %0, %1" : "=r" (result) : "r" (value) );
 1912              		.loc 2 352 0
 1913 0260 D7F89830 		ldr	r3, [r7, #152]
 1914              	@ 352 "App/STM32F4-Discovery/Libraries/CMSIS/Include/core_cmInstr.h" 1
 1915 0264 1CBA     		rev r4, r3
 1916              	@ 0 "" 2
 1917              		.thumb
 1918 0266 C7F89440 		str	r4, [r7, #148]
 1919              		.loc 2 353 0
 1920 026a D7F89430 		ldr	r3, [r7, #148]
 1921              	.LBE231:
 1922              	.LBE230:
 1923              		.loc 1 526 0
 1924 026e FB62     		str	r3, [r7, #44]
 527:App/STM32F4-Discovery/Libraries/STM32F4xx_StdPeriph_Driver/src/stm32f4xx_cryp_aes.c ****     keyaddr+=4;
 1925              		.loc 1 527 0
 1926 0270 D7F80031 		ldr	r3, [r7, #256]
 1927 0274 03F10403 		add	r3, r3, #4
 1928 0278 C7F80031 		str	r3, [r7, #256]
 528:App/STM32F4-Discovery/Libraries/STM32F4xx_StdPeriph_Driver/src/stm32f4xx_cryp_aes.c ****     AES_CRYP_KeyInitStructure.CRYP_Key1Right= __REV(*(uint32_t*)(keyaddr));
 1929              		.loc 1 528 0
 1930 027c D7F80031 		ldr	r3, [r7, #256]
 1931 0280 1B68     		ldr	r3, [r3, #0]
 1932 0282 C7F89030 		str	r3, [r7, #144]
 1933              	.LBB232:
 1934              	.LBB233:
 352:App/STM32F4-Discovery/Libraries/CMSIS/Include/core_cmInstr.h ****   __ASM volatile ("rev %0, %1" : "=r" (result) : "r" (value) );
 1935              		.loc 2 352 0
 1936 0286 D7F89030 		ldr	r3, [r7, #144]
 1937              	@ 352 "App/STM32F4-Discovery/Libraries/CMSIS/Include/core_cmInstr.h" 1
 1938 028a 1CBA     		rev r4, r3
 1939              	@ 0 "" 2
 1940              		.thumb
 1941 028c C7F88C40 		str	r4, [r7, #140]
 1942              		.loc 2 353 0
 1943 0290 D7F88C30 		ldr	r3, [r7, #140]
 1944              	.LBE233:
 1945              	.LBE232:
 1946              		.loc 1 528 0
 1947 0294 3B63     		str	r3, [r7, #48]
 529:App/STM32F4-Discovery/Libraries/STM32F4xx_StdPeriph_Driver/src/stm32f4xx_cryp_aes.c ****     keyaddr+=4;
 1948              		.loc 1 529 0
 1949 0296 D7F80031 		ldr	r3, [r7, #256]
 1950 029a 03F10403 		add	r3, r3, #4
 1951 029e C7F80031 		str	r3, [r7, #256]
 530:App/STM32F4-Discovery/Libraries/STM32F4xx_StdPeriph_Driver/src/stm32f4xx_cryp_aes.c ****     AES_CRYP_KeyInitStructure.CRYP_Key2Left = __REV(*(uint32_t*)(keyaddr));
 1952              		.loc 1 530 0
 1953 02a2 D7F80031 		ldr	r3, [r7, #256]
 1954 02a6 1B68     		ldr	r3, [r3, #0]
 1955 02a8 C7F88830 		str	r3, [r7, #136]
 1956              	.LBB234:
 1957              	.LBB235:
 352:App/STM32F4-Discovery/Libraries/CMSIS/Include/core_cmInstr.h ****   __ASM volatile ("rev %0, %1" : "=r" (result) : "r" (value) );
 1958              		.loc 2 352 0
 1959 02ac D7F88830 		ldr	r3, [r7, #136]
 1960              	@ 352 "App/STM32F4-Discovery/Libraries/CMSIS/Include/core_cmInstr.h" 1
 1961 02b0 1CBA     		rev r4, r3
 1962              	@ 0 "" 2
 1963              		.thumb
 1964 02b2 C7F88440 		str	r4, [r7, #132]
 1965              		.loc 2 353 0
 1966 02b6 D7F88430 		ldr	r3, [r7, #132]
 1967              	.LBE235:
 1968              	.LBE234:
 1969              		.loc 1 530 0
 1970 02ba 7B63     		str	r3, [r7, #52]
 531:App/STM32F4-Discovery/Libraries/STM32F4xx_StdPeriph_Driver/src/stm32f4xx_cryp_aes.c ****     keyaddr+=4;
 1971              		.loc 1 531 0
 1972 02bc D7F80031 		ldr	r3, [r7, #256]
 1973 02c0 03F10403 		add	r3, r3, #4
 1974 02c4 C7F80031 		str	r3, [r7, #256]
 532:App/STM32F4-Discovery/Libraries/STM32F4xx_StdPeriph_Driver/src/stm32f4xx_cryp_aes.c ****     AES_CRYP_KeyInitStructure.CRYP_Key2Right= __REV(*(uint32_t*)(keyaddr));
 1975              		.loc 1 532 0
 1976 02c8 D7F80031 		ldr	r3, [r7, #256]
 1977 02cc 1B68     		ldr	r3, [r3, #0]
 1978 02ce C7F88030 		str	r3, [r7, #128]
 1979              	.LBB236:
 1980              	.LBB237:
 352:App/STM32F4-Discovery/Libraries/CMSIS/Include/core_cmInstr.h ****   __ASM volatile ("rev %0, %1" : "=r" (result) : "r" (value) );
 1981              		.loc 2 352 0
 1982 02d2 D7F88030 		ldr	r3, [r7, #128]
 1983              	@ 352 "App/STM32F4-Discovery/Libraries/CMSIS/Include/core_cmInstr.h" 1
 1984 02d6 1CBA     		rev r4, r3
 1985              	@ 0 "" 2
 1986              		.thumb
 1987 02d8 FC67     		str	r4, [r7, #124]
 1988              		.loc 2 353 0
 1989 02da FB6F     		ldr	r3, [r7, #124]
 1990              	.LBE237:
 1991              	.LBE236:
 1992              		.loc 1 532 0
 1993 02dc BB63     		str	r3, [r7, #56]
 533:App/STM32F4-Discovery/Libraries/STM32F4xx_StdPeriph_Driver/src/stm32f4xx_cryp_aes.c ****     keyaddr+=4;
 1994              		.loc 1 533 0
 1995 02de D7F80031 		ldr	r3, [r7, #256]
 1996 02e2 03F10403 		add	r3, r3, #4
 1997 02e6 C7F80031 		str	r3, [r7, #256]
 534:App/STM32F4-Discovery/Libraries/STM32F4xx_StdPeriph_Driver/src/stm32f4xx_cryp_aes.c ****     AES_CRYP_KeyInitStructure.CRYP_Key3Left = __REV(*(uint32_t*)(keyaddr));
 1998              		.loc 1 534 0
 1999 02ea D7F80031 		ldr	r3, [r7, #256]
 2000 02ee 1B68     		ldr	r3, [r3, #0]
 2001 02f0 BB67     		str	r3, [r7, #120]
 2002              	.LBB238:
 2003              	.LBB239:
 352:App/STM32F4-Discovery/Libraries/CMSIS/Include/core_cmInstr.h ****   __ASM volatile ("rev %0, %1" : "=r" (result) : "r" (value) );
 2004              		.loc 2 352 0
 2005 02f2 BB6F     		ldr	r3, [r7, #120]
 2006              	@ 352 "App/STM32F4-Discovery/Libraries/CMSIS/Include/core_cmInstr.h" 1
 2007 02f4 1CBA     		rev r4, r3
 2008              	@ 0 "" 2
 2009              		.thumb
 2010 02f6 7C67     		str	r4, [r7, #116]
 2011              		.loc 2 353 0
 2012 02f8 7B6F     		ldr	r3, [r7, #116]
 2013              	.LBE239:
 2014              	.LBE238:
 2015              		.loc 1 534 0
 2016 02fa FB63     		str	r3, [r7, #60]
 535:App/STM32F4-Discovery/Libraries/STM32F4xx_StdPeriph_Driver/src/stm32f4xx_cryp_aes.c ****     keyaddr+=4;
 2017              		.loc 1 535 0
 2018 02fc D7F80031 		ldr	r3, [r7, #256]
 2019 0300 03F10403 		add	r3, r3, #4
 2020 0304 C7F80031 		str	r3, [r7, #256]
 536:App/STM32F4-Discovery/Libraries/STM32F4xx_StdPeriph_Driver/src/stm32f4xx_cryp_aes.c ****     AES_CRYP_KeyInitStructure.CRYP_Key3Right= __REV(*(uint32_t*)(keyaddr));
 2021              		.loc 1 536 0
 2022 0308 D7F80031 		ldr	r3, [r7, #256]
 2023 030c 1B68     		ldr	r3, [r3, #0]
 2024 030e 3B67     		str	r3, [r7, #112]
 2025              	.LBB240:
 2026              	.LBB241:
 352:App/STM32F4-Discovery/Libraries/CMSIS/Include/core_cmInstr.h ****   __ASM volatile ("rev %0, %1" : "=r" (result) : "r" (value) );
 2027              		.loc 2 352 0
 2028 0310 3B6F     		ldr	r3, [r7, #112]
 2029              	@ 352 "App/STM32F4-Discovery/Libraries/CMSIS/Include/core_cmInstr.h" 1
 2030 0312 1CBA     		rev r4, r3
 2031              	@ 0 "" 2
 2032              		.thumb
 2033 0314 FC66     		str	r4, [r7, #108]
 2034              		.loc 2 353 0
 2035 0316 FB6E     		ldr	r3, [r7, #108]
 2036              	.LBE241:
 2037              	.LBE240:
 2038              		.loc 1 536 0
 2039 0318 3B64     		str	r3, [r7, #64]
 537:App/STM32F4-Discovery/Libraries/STM32F4xx_StdPeriph_Driver/src/stm32f4xx_cryp_aes.c ****     break;
 2040              		.loc 1 537 0
 2041 031a 00E0     		b	.L90
 2042              	.L119:
 538:App/STM32F4-Discovery/Libraries/STM32F4xx_StdPeriph_Driver/src/stm32f4xx_cryp_aes.c ****     default:
 539:App/STM32F4-Discovery/Libraries/STM32F4xx_StdPeriph_Driver/src/stm32f4xx_cryp_aes.c ****     break;
 2043              		.loc 1 539 0
 2044 031c 00BF     		nop
 2045              	.L90:
 540:App/STM32F4-Discovery/Libraries/STM32F4xx_StdPeriph_Driver/src/stm32f4xx_cryp_aes.c ****   }
 541:App/STM32F4-Discovery/Libraries/STM32F4xx_StdPeriph_Driver/src/stm32f4xx_cryp_aes.c ****   /* CRYP Initialization Vectors */
 542:App/STM32F4-Discovery/Libraries/STM32F4xx_StdPeriph_Driver/src/stm32f4xx_cryp_aes.c ****   AES_CRYP_IVInitStructure.CRYP_IV0Left = __REV(*(uint32_t*)(ivaddr));
 2046              		.loc 1 542 0
 2047 031e D7F8FC30 		ldr	r3, [r7, #252]
 2048 0322 1B68     		ldr	r3, [r3, #0]
 2049 0324 BB66     		str	r3, [r7, #104]
 2050              	.LBB242:
 2051              	.LBB243:
 352:App/STM32F4-Discovery/Libraries/CMSIS/Include/core_cmInstr.h ****   __ASM volatile ("rev %0, %1" : "=r" (result) : "r" (value) );
 2052              		.loc 2 352 0
 2053 0326 BB6E     		ldr	r3, [r7, #104]
 2054              	@ 352 "App/STM32F4-Discovery/Libraries/CMSIS/Include/core_cmInstr.h" 1
 2055 0328 1CBA     		rev r4, r3
 2056              	@ 0 "" 2
 2057              		.thumb
 2058 032a 7C66     		str	r4, [r7, #100]
 2059              		.loc 2 353 0
 2060 032c 7B6E     		ldr	r3, [r7, #100]
 2061              	.LBE243:
 2062              		.loc 1 542 0
 2063 032e 1A46     		mov	r2, r3
 2064              	.LBE242:
 2065 0330 07F11403 		add	r3, r7, #20
 2066 0334 1A60     		str	r2, [r3, #0]
 543:App/STM32F4-Discovery/Libraries/STM32F4xx_StdPeriph_Driver/src/stm32f4xx_cryp_aes.c ****   ivaddr+=4;
 2067              		.loc 1 543 0
 2068 0336 D7F8FC30 		ldr	r3, [r7, #252]
 2069 033a 03F10403 		add	r3, r3, #4
 2070 033e C7F8FC30 		str	r3, [r7, #252]
 544:App/STM32F4-Discovery/Libraries/STM32F4xx_StdPeriph_Driver/src/stm32f4xx_cryp_aes.c ****   AES_CRYP_IVInitStructure.CRYP_IV0Right= __REV(*(uint32_t*)(ivaddr));
 2071              		.loc 1 544 0
 2072 0342 D7F8FC30 		ldr	r3, [r7, #252]
 2073 0346 1B68     		ldr	r3, [r3, #0]
 2074 0348 3B66     		str	r3, [r7, #96]
 2075              	.LBB244:
 2076              	.LBB245:
 352:App/STM32F4-Discovery/Libraries/CMSIS/Include/core_cmInstr.h ****   __ASM volatile ("rev %0, %1" : "=r" (result) : "r" (value) );
 2077              		.loc 2 352 0
 2078 034a 3B6E     		ldr	r3, [r7, #96]
 2079              	@ 352 "App/STM32F4-Discovery/Libraries/CMSIS/Include/core_cmInstr.h" 1
 2080 034c 1CBA     		rev r4, r3
 2081              	@ 0 "" 2
 2082              		.thumb
 2083 034e FC65     		str	r4, [r7, #92]
 2084              		.loc 2 353 0
 2085 0350 FB6D     		ldr	r3, [r7, #92]
 2086              	.LBE245:
 2087              		.loc 1 544 0
 2088 0352 1A46     		mov	r2, r3
 2089              	.LBE244:
 2090 0354 07F11403 		add	r3, r7, #20
 2091 0358 5A60     		str	r2, [r3, #4]
 545:App/STM32F4-Discovery/Libraries/STM32F4xx_StdPeriph_Driver/src/stm32f4xx_cryp_aes.c ****   ivaddr+=4;
 2092              		.loc 1 545 0
 2093 035a D7F8FC30 		ldr	r3, [r7, #252]
 2094 035e 03F10403 		add	r3, r3, #4
 2095 0362 C7F8FC30 		str	r3, [r7, #252]
 546:App/STM32F4-Discovery/Libraries/STM32F4xx_StdPeriph_Driver/src/stm32f4xx_cryp_aes.c ****   AES_CRYP_IVInitStructure.CRYP_IV1Left = __REV(*(uint32_t*)(ivaddr));
 2096              		.loc 1 546 0
 2097 0366 D7F8FC30 		ldr	r3, [r7, #252]
 2098 036a 1B68     		ldr	r3, [r3, #0]
 2099 036c BB65     		str	r3, [r7, #88]
 2100              	.LBB246:
 2101              	.LBB247:
 352:App/STM32F4-Discovery/Libraries/CMSIS/Include/core_cmInstr.h ****   __ASM volatile ("rev %0, %1" : "=r" (result) : "r" (value) );
 2102              		.loc 2 352 0
 2103 036e BB6D     		ldr	r3, [r7, #88]
 2104              	@ 352 "App/STM32F4-Discovery/Libraries/CMSIS/Include/core_cmInstr.h" 1
 2105 0370 1CBA     		rev r4, r3
 2106              	@ 0 "" 2
 2107              		.thumb
 2108 0372 7C65     		str	r4, [r7, #84]
 2109              		.loc 2 353 0
 2110 0374 7B6D     		ldr	r3, [r7, #84]
 2111              	.LBE247:
 2112              		.loc 1 546 0
 2113 0376 1A46     		mov	r2, r3
 2114              	.LBE246:
 2115 0378 07F11403 		add	r3, r7, #20
 2116 037c 9A60     		str	r2, [r3, #8]
 547:App/STM32F4-Discovery/Libraries/STM32F4xx_StdPeriph_Driver/src/stm32f4xx_cryp_aes.c ****   ivaddr+=4;
 2117              		.loc 1 547 0
 2118 037e D7F8FC30 		ldr	r3, [r7, #252]
 2119 0382 03F10403 		add	r3, r3, #4
 2120 0386 C7F8FC30 		str	r3, [r7, #252]
 548:App/STM32F4-Discovery/Libraries/STM32F4xx_StdPeriph_Driver/src/stm32f4xx_cryp_aes.c ****   AES_CRYP_IVInitStructure.CRYP_IV1Right= __REV(*(uint32_t*)(ivaddr));
 2121              		.loc 1 548 0
 2122 038a D7F8FC30 		ldr	r3, [r7, #252]
 2123 038e 1B68     		ldr	r3, [r3, #0]
 2124 0390 3B65     		str	r3, [r7, #80]
 2125              	.LBB248:
 2126              	.LBB249:
 352:App/STM32F4-Discovery/Libraries/CMSIS/Include/core_cmInstr.h ****   __ASM volatile ("rev %0, %1" : "=r" (result) : "r" (value) );
 2127              		.loc 2 352 0
 2128 0392 3B6D     		ldr	r3, [r7, #80]
 2129              	@ 352 "App/STM32F4-Discovery/Libraries/CMSIS/Include/core_cmInstr.h" 1
 2130 0394 1CBA     		rev r4, r3
 2131              	@ 0 "" 2
 2132              		.thumb
 2133 0396 FC64     		str	r4, [r7, #76]
 2134              		.loc 2 353 0
 2135 0398 FB6C     		ldr	r3, [r7, #76]
 2136              	.LBE249:
 2137              		.loc 1 548 0
 2138 039a 1A46     		mov	r2, r3
 2139              	.LBE248:
 2140 039c 07F11403 		add	r3, r7, #20
 2141 03a0 DA60     		str	r2, [r3, #12]
 549:App/STM32F4-Discovery/Libraries/STM32F4xx_StdPeriph_Driver/src/stm32f4xx_cryp_aes.c **** 
 550:App/STM32F4-Discovery/Libraries/STM32F4xx_StdPeriph_Driver/src/stm32f4xx_cryp_aes.c ****   /* Key Initialisation */
 551:App/STM32F4-Discovery/Libraries/STM32F4xx_StdPeriph_Driver/src/stm32f4xx_cryp_aes.c ****   CRYP_KeyInit(&AES_CRYP_KeyInitStructure);
 2142              		.loc 1 551 0
 2143 03a2 07F12403 		add	r3, r7, #36
 2144 03a6 1846     		mov	r0, r3
 2145 03a8 FFF7FEFF 		bl	CRYP_KeyInit
 552:App/STM32F4-Discovery/Libraries/STM32F4xx_StdPeriph_Driver/src/stm32f4xx_cryp_aes.c **** 
 553:App/STM32F4-Discovery/Libraries/STM32F4xx_StdPeriph_Driver/src/stm32f4xx_cryp_aes.c ****   /*------------------ AES Decryption ------------------*/
 554:App/STM32F4-Discovery/Libraries/STM32F4xx_StdPeriph_Driver/src/stm32f4xx_cryp_aes.c ****   if(Mode == MODE_DECRYPT) /* AES decryption */
 2146              		.loc 1 554 0
 2147 03ac 07F10F03 		add	r3, r7, #15
 2148 03b0 1B78     		ldrb	r3, [r3, #0]	@ zero_extendqisi2
 2149 03b2 002B     		cmp	r3, #0
 2150 03b4 04D1     		bne	.L109
 555:App/STM32F4-Discovery/Libraries/STM32F4xx_StdPeriph_Driver/src/stm32f4xx_cryp_aes.c ****   {
 556:App/STM32F4-Discovery/Libraries/STM32F4xx_StdPeriph_Driver/src/stm32f4xx_cryp_aes.c ****     /* Crypto Init for decryption process */
 557:App/STM32F4-Discovery/Libraries/STM32F4xx_StdPeriph_Driver/src/stm32f4xx_cryp_aes.c ****     AES_CRYP_InitStructure.CRYP_AlgoDir = CRYP_AlgoDir_Decrypt;
 2151              		.loc 1 557 0
 2152 03b6 4FF00403 		mov	r3, #4
 2153 03ba A7F84430 		strh	r3, [r7, #68]	@ movhi
 2154 03be 03E0     		b	.L110
 2155              	.L109:
 558:App/STM32F4-Discovery/Libraries/STM32F4xx_StdPeriph_Driver/src/stm32f4xx_cryp_aes.c ****   }
 559:App/STM32F4-Discovery/Libraries/STM32F4xx_StdPeriph_Driver/src/stm32f4xx_cryp_aes.c ****   /*------------------ AES Encryption ------------------*/
 560:App/STM32F4-Discovery/Libraries/STM32F4xx_StdPeriph_Driver/src/stm32f4xx_cryp_aes.c ****   else /* AES encryption */
 561:App/STM32F4-Discovery/Libraries/STM32F4xx_StdPeriph_Driver/src/stm32f4xx_cryp_aes.c ****   {
 562:App/STM32F4-Discovery/Libraries/STM32F4xx_StdPeriph_Driver/src/stm32f4xx_cryp_aes.c ****     /* Crypto Init for Encryption process */
 563:App/STM32F4-Discovery/Libraries/STM32F4xx_StdPeriph_Driver/src/stm32f4xx_cryp_aes.c ****     AES_CRYP_InitStructure.CRYP_AlgoDir = CRYP_AlgoDir_Encrypt;
 2156              		.loc 1 563 0
 2157 03c0 4FF00003 		mov	r3, #0
 2158 03c4 A7F84430 		strh	r3, [r7, #68]	@ movhi
 2159              	.L110:
 564:App/STM32F4-Discovery/Libraries/STM32F4xx_StdPeriph_Driver/src/stm32f4xx_cryp_aes.c ****   }
 565:App/STM32F4-Discovery/Libraries/STM32F4xx_StdPeriph_Driver/src/stm32f4xx_cryp_aes.c ****   AES_CRYP_InitStructure.CRYP_AlgoMode = CRYP_AlgoMode_AES_CTR;
 2160              		.loc 1 565 0
 2161 03c8 4FF03003 		mov	r3, #48
 2162 03cc A7F84630 		strh	r3, [r7, #70]	@ movhi
 566:App/STM32F4-Discovery/Libraries/STM32F4xx_StdPeriph_Driver/src/stm32f4xx_cryp_aes.c ****   AES_CRYP_InitStructure.CRYP_DataType = CRYP_DataType_8b;
 2163              		.loc 1 566 0
 2164 03d0 4FF08003 		mov	r3, #128
 2165 03d4 A7F84830 		strh	r3, [r7, #72]	@ movhi
 567:App/STM32F4-Discovery/Libraries/STM32F4xx_StdPeriph_Driver/src/stm32f4xx_cryp_aes.c ****   CRYP_Init(&AES_CRYP_InitStructure);
 2166              		.loc 1 567 0
 2167 03d8 07F14403 		add	r3, r7, #68
 2168 03dc 1846     		mov	r0, r3
 2169 03de FFF7FEFF 		bl	CRYP_Init
 568:App/STM32F4-Discovery/Libraries/STM32F4xx_StdPeriph_Driver/src/stm32f4xx_cryp_aes.c **** 
 569:App/STM32F4-Discovery/Libraries/STM32F4xx_StdPeriph_Driver/src/stm32f4xx_cryp_aes.c ****   /* CRYP Initialization Vectors */
 570:App/STM32F4-Discovery/Libraries/STM32F4xx_StdPeriph_Driver/src/stm32f4xx_cryp_aes.c ****   CRYP_IVInit(&AES_CRYP_IVInitStructure);
 2170              		.loc 1 570 0
 2171 03e2 07F11403 		add	r3, r7, #20
 2172 03e6 1846     		mov	r0, r3
 2173 03e8 FFF7FEFF 		bl	CRYP_IVInit
 571:App/STM32F4-Discovery/Libraries/STM32F4xx_StdPeriph_Driver/src/stm32f4xx_cryp_aes.c **** 
 572:App/STM32F4-Discovery/Libraries/STM32F4xx_StdPeriph_Driver/src/stm32f4xx_cryp_aes.c ****   /* Flush IN/OUT FIFOs */
 573:App/STM32F4-Discovery/Libraries/STM32F4xx_StdPeriph_Driver/src/stm32f4xx_cryp_aes.c ****   CRYP_FIFOFlush();
 2174              		.loc 1 573 0
 2175 03ec FFF7FEFF 		bl	CRYP_FIFOFlush
 574:App/STM32F4-Discovery/Libraries/STM32F4xx_StdPeriph_Driver/src/stm32f4xx_cryp_aes.c **** 
 575:App/STM32F4-Discovery/Libraries/STM32F4xx_StdPeriph_Driver/src/stm32f4xx_cryp_aes.c ****   /* Enable Crypto processor */
 576:App/STM32F4-Discovery/Libraries/STM32F4xx_StdPeriph_Driver/src/stm32f4xx_cryp_aes.c ****   CRYP_Cmd(ENABLE);
 2176              		.loc 1 576 0
 2177 03f0 4FF00100 		mov	r0, #1
 2178 03f4 FFF7FEFF 		bl	CRYP_Cmd
 577:App/STM32F4-Discovery/Libraries/STM32F4xx_StdPeriph_Driver/src/stm32f4xx_cryp_aes.c **** 
 578:App/STM32F4-Discovery/Libraries/STM32F4xx_StdPeriph_Driver/src/stm32f4xx_cryp_aes.c ****   for(i=0; ((i<Ilength) && (status != ERROR)); i+=16)
 2179              		.loc 1 578 0
 2180 03f8 4FF00003 		mov	r3, #0
 2181 03fc C7F80831 		str	r3, [r7, #264]
 2182 0400 8CE0     		b	.L111
 2183              	.L117:
 579:App/STM32F4-Discovery/Libraries/STM32F4xx_StdPeriph_Driver/src/stm32f4xx_cryp_aes.c ****   {
 580:App/STM32F4-Discovery/Libraries/STM32F4xx_StdPeriph_Driver/src/stm32f4xx_cryp_aes.c **** 
 581:App/STM32F4-Discovery/Libraries/STM32F4xx_StdPeriph_Driver/src/stm32f4xx_cryp_aes.c ****     /* Write the Input block in the IN FIFO */
 582:App/STM32F4-Discovery/Libraries/STM32F4xx_StdPeriph_Driver/src/stm32f4xx_cryp_aes.c ****     CRYP_DataIn(*(uint32_t*)(inputaddr));
 2184              		.loc 1 582 0
 2185 0402 D7F81031 		ldr	r3, [r7, #272]
 2186 0406 1B68     		ldr	r3, [r3, #0]
 2187 0408 1846     		mov	r0, r3
 2188 040a FFF7FEFF 		bl	CRYP_DataIn
 583:App/STM32F4-Discovery/Libraries/STM32F4xx_StdPeriph_Driver/src/stm32f4xx_cryp_aes.c ****     inputaddr+=4;
 2189              		.loc 1 583 0
 2190 040e D7F81031 		ldr	r3, [r7, #272]
 2191 0412 03F10403 		add	r3, r3, #4
 2192 0416 C7F81031 		str	r3, [r7, #272]
 584:App/STM32F4-Discovery/Libraries/STM32F4xx_StdPeriph_Driver/src/stm32f4xx_cryp_aes.c ****     CRYP_DataIn(*(uint32_t*)(inputaddr));
 2193              		.loc 1 584 0
 2194 041a D7F81031 		ldr	r3, [r7, #272]
 2195 041e 1B68     		ldr	r3, [r3, #0]
 2196 0420 1846     		mov	r0, r3
 2197 0422 FFF7FEFF 		bl	CRYP_DataIn
 585:App/STM32F4-Discovery/Libraries/STM32F4xx_StdPeriph_Driver/src/stm32f4xx_cryp_aes.c ****     inputaddr+=4;
 2198              		.loc 1 585 0
 2199 0426 D7F81031 		ldr	r3, [r7, #272]
 2200 042a 03F10403 		add	r3, r3, #4
 2201 042e C7F81031 		str	r3, [r7, #272]
 586:App/STM32F4-Discovery/Libraries/STM32F4xx_StdPeriph_Driver/src/stm32f4xx_cryp_aes.c ****     CRYP_DataIn(*(uint32_t*)(inputaddr));
 2202              		.loc 1 586 0
 2203 0432 D7F81031 		ldr	r3, [r7, #272]
 2204 0436 1B68     		ldr	r3, [r3, #0]
 2205 0438 1846     		mov	r0, r3
 2206 043a FFF7FEFF 		bl	CRYP_DataIn
 587:App/STM32F4-Discovery/Libraries/STM32F4xx_StdPeriph_Driver/src/stm32f4xx_cryp_aes.c ****     inputaddr+=4;
 2207              		.loc 1 587 0
 2208 043e D7F81031 		ldr	r3, [r7, #272]
 2209 0442 03F10403 		add	r3, r3, #4
 2210 0446 C7F81031 		str	r3, [r7, #272]
 588:App/STM32F4-Discovery/Libraries/STM32F4xx_StdPeriph_Driver/src/stm32f4xx_cryp_aes.c ****     CRYP_DataIn(*(uint32_t*)(inputaddr));
 2211              		.loc 1 588 0
 2212 044a D7F81031 		ldr	r3, [r7, #272]
 2213 044e 1B68     		ldr	r3, [r3, #0]
 2214 0450 1846     		mov	r0, r3
 2215 0452 FFF7FEFF 		bl	CRYP_DataIn
 589:App/STM32F4-Discovery/Libraries/STM32F4xx_StdPeriph_Driver/src/stm32f4xx_cryp_aes.c ****     inputaddr+=4;
 2216              		.loc 1 589 0
 2217 0456 D7F81031 		ldr	r3, [r7, #272]
 2218 045a 03F10403 		add	r3, r3, #4
 2219 045e C7F81031 		str	r3, [r7, #272]
 590:App/STM32F4-Discovery/Libraries/STM32F4xx_StdPeriph_Driver/src/stm32f4xx_cryp_aes.c ****     /* Wait until the complete message has been processed */
 591:App/STM32F4-Discovery/Libraries/STM32F4xx_StdPeriph_Driver/src/stm32f4xx_cryp_aes.c ****     counter = 0;
 2220              		.loc 1 591 0
 2221 0462 07F11003 		add	r3, r7, #16
 2222 0466 4FF00002 		mov	r2, #0
 2223 046a 1A60     		str	r2, [r3, #0]
 2224              	.L113:
 592:App/STM32F4-Discovery/Libraries/STM32F4xx_StdPeriph_Driver/src/stm32f4xx_cryp_aes.c ****     do
 593:App/STM32F4-Discovery/Libraries/STM32F4xx_StdPeriph_Driver/src/stm32f4xx_cryp_aes.c ****     {
 594:App/STM32F4-Discovery/Libraries/STM32F4xx_StdPeriph_Driver/src/stm32f4xx_cryp_aes.c ****       busystatus = CRYP_GetFlagStatus(CRYP_FLAG_BUSY);
 2225              		.loc 1 594 0 discriminator 1
 2226 046c 4FF01000 		mov	r0, #16
 2227 0470 FFF7FEFF 		bl	CRYP_GetFlagStatus
 2228 0474 0346     		mov	r3, r0
 2229 0476 C7F80431 		str	r3, [r7, #260]
 595:App/STM32F4-Discovery/Libraries/STM32F4xx_StdPeriph_Driver/src/stm32f4xx_cryp_aes.c ****       counter++;
 2230              		.loc 1 595 0 discriminator 1
 2231 047a 07F11003 		add	r3, r7, #16
 2232 047e 1B68     		ldr	r3, [r3, #0]
 2233 0480 03F10102 		add	r2, r3, #1
 2234 0484 07F11003 		add	r3, r7, #16
 2235 0488 1A60     		str	r2, [r3, #0]
 596:App/STM32F4-Discovery/Libraries/STM32F4xx_StdPeriph_Driver/src/stm32f4xx_cryp_aes.c ****     }while ((counter != AESBUSY_TIMEOUT) && (busystatus != RESET));
 2236              		.loc 1 596 0 discriminator 1
 2237 048a 07F11003 		add	r3, r7, #16
 2238 048e 1B68     		ldr	r3, [r3, #0]
 2239 0490 B3F5803F 		cmp	r3, #65536
 2240 0494 03D0     		beq	.L112
 2241 0496 D7F80431 		ldr	r3, [r7, #260]
 2242 049a 002B     		cmp	r3, #0
 2243 049c E6D1     		bne	.L113
 2244              	.L112:
 597:App/STM32F4-Discovery/Libraries/STM32F4xx_StdPeriph_Driver/src/stm32f4xx_cryp_aes.c **** 
 598:App/STM32F4-Discovery/Libraries/STM32F4xx_StdPeriph_Driver/src/stm32f4xx_cryp_aes.c ****     if (busystatus != RESET)
 2245              		.loc 1 598 0
 2246 049e D7F80431 		ldr	r3, [r7, #260]
 2247 04a2 002B     		cmp	r3, #0
 2248 04a4 04D0     		beq	.L114
 599:App/STM32F4-Discovery/Libraries/STM32F4xx_StdPeriph_Driver/src/stm32f4xx_cryp_aes.c ****    {
 600:App/STM32F4-Discovery/Libraries/STM32F4xx_StdPeriph_Driver/src/stm32f4xx_cryp_aes.c ****        status = ERROR;
 2249              		.loc 1 600 0
 2250 04a6 4FF00003 		mov	r3, #0
 2251 04aa 87F81731 		strb	r3, [r7, #279]
 2252 04ae 2FE0     		b	.L115
 2253              	.L114:
 601:App/STM32F4-Discovery/Libraries/STM32F4xx_StdPeriph_Driver/src/stm32f4xx_cryp_aes.c ****     }
 602:App/STM32F4-Discovery/Libraries/STM32F4xx_StdPeriph_Driver/src/stm32f4xx_cryp_aes.c ****     else
 603:App/STM32F4-Discovery/Libraries/STM32F4xx_StdPeriph_Driver/src/stm32f4xx_cryp_aes.c ****     {
 604:App/STM32F4-Discovery/Libraries/STM32F4xx_StdPeriph_Driver/src/stm32f4xx_cryp_aes.c **** 
 605:App/STM32F4-Discovery/Libraries/STM32F4xx_StdPeriph_Driver/src/stm32f4xx_cryp_aes.c ****       /* Read the Output block from the Output FIFO */
 606:App/STM32F4-Discovery/Libraries/STM32F4xx_StdPeriph_Driver/src/stm32f4xx_cryp_aes.c ****       *(uint32_t*)(outputaddr) = CRYP_DataOut();
 2254              		.loc 1 606 0
 2255 04b0 D7F80C41 		ldr	r4, [r7, #268]
 2256 04b4 FFF7FEFF 		bl	CRYP_DataOut
 2257 04b8 0346     		mov	r3, r0
 2258 04ba 2360     		str	r3, [r4, #0]
 607:App/STM32F4-Discovery/Libraries/STM32F4xx_StdPeriph_Driver/src/stm32f4xx_cryp_aes.c ****       outputaddr+=4;
 2259              		.loc 1 607 0
 2260 04bc D7F80C31 		ldr	r3, [r7, #268]
 2261 04c0 03F10403 		add	r3, r3, #4
 2262 04c4 C7F80C31 		str	r3, [r7, #268]
 608:App/STM32F4-Discovery/Libraries/STM32F4xx_StdPeriph_Driver/src/stm32f4xx_cryp_aes.c ****       *(uint32_t*)(outputaddr) = CRYP_DataOut();
 2263              		.loc 1 608 0
 2264 04c8 D7F80C41 		ldr	r4, [r7, #268]
 2265 04cc FFF7FEFF 		bl	CRYP_DataOut
 2266 04d0 0346     		mov	r3, r0
 2267 04d2 2360     		str	r3, [r4, #0]
 609:App/STM32F4-Discovery/Libraries/STM32F4xx_StdPeriph_Driver/src/stm32f4xx_cryp_aes.c ****       outputaddr+=4;
 2268              		.loc 1 609 0
 2269 04d4 D7F80C31 		ldr	r3, [r7, #268]
 2270 04d8 03F10403 		add	r3, r3, #4
 2271 04dc C7F80C31 		str	r3, [r7, #268]
 610:App/STM32F4-Discovery/Libraries/STM32F4xx_StdPeriph_Driver/src/stm32f4xx_cryp_aes.c ****       *(uint32_t*)(outputaddr) = CRYP_DataOut();
 2272              		.loc 1 610 0
 2273 04e0 D7F80C41 		ldr	r4, [r7, #268]
 2274 04e4 FFF7FEFF 		bl	CRYP_DataOut
 2275 04e8 0346     		mov	r3, r0
 2276 04ea 2360     		str	r3, [r4, #0]
 611:App/STM32F4-Discovery/Libraries/STM32F4xx_StdPeriph_Driver/src/stm32f4xx_cryp_aes.c ****       outputaddr+=4;
 2277              		.loc 1 611 0
 2278 04ec D7F80C31 		ldr	r3, [r7, #268]
 2279 04f0 03F10403 		add	r3, r3, #4
 2280 04f4 C7F80C31 		str	r3, [r7, #268]
 612:App/STM32F4-Discovery/Libraries/STM32F4xx_StdPeriph_Driver/src/stm32f4xx_cryp_aes.c ****       *(uint32_t*)(outputaddr) = CRYP_DataOut();
 2281              		.loc 1 612 0
 2282 04f8 D7F80C41 		ldr	r4, [r7, #268]
 2283 04fc FFF7FEFF 		bl	CRYP_DataOut
 2284 0500 0346     		mov	r3, r0
 2285 0502 2360     		str	r3, [r4, #0]
 613:App/STM32F4-Discovery/Libraries/STM32F4xx_StdPeriph_Driver/src/stm32f4xx_cryp_aes.c ****       outputaddr+=4;
 2286              		.loc 1 613 0
 2287 0504 D7F80C31 		ldr	r3, [r7, #268]
 2288 0508 03F10403 		add	r3, r3, #4
 2289 050c C7F80C31 		str	r3, [r7, #268]
 2290              	.L115:
 578:App/STM32F4-Discovery/Libraries/STM32F4xx_StdPeriph_Driver/src/stm32f4xx_cryp_aes.c ****   for(i=0; ((i<Ilength) && (status != ERROR)); i+=16)
 2291              		.loc 1 578 0
 2292 0510 D7F80831 		ldr	r3, [r7, #264]
 2293 0514 03F11003 		add	r3, r3, #16
 2294 0518 C7F80831 		str	r3, [r7, #264]
 2295              	.L111:
 578:App/STM32F4-Discovery/Libraries/STM32F4xx_StdPeriph_Driver/src/stm32f4xx_cryp_aes.c ****   for(i=0; ((i<Ilength) && (status != ERROR)); i+=16)
 2296              		.loc 1 578 0 is_stmt 0 discriminator 1
 2297 051c D7F80821 		ldr	r2, [r7, #264]
 2298 0520 D7F82C31 		ldr	r3, [r7, #300]
 2299 0524 9A42     		cmp	r2, r3
 2300 0526 04D2     		bcs	.L116
 578:App/STM32F4-Discovery/Libraries/STM32F4xx_StdPeriph_Driver/src/stm32f4xx_cryp_aes.c ****   for(i=0; ((i<Ilength) && (status != ERROR)); i+=16)
 2301              		.loc 1 578 0 discriminator 2
 2302 0528 97F81731 		ldrb	r3, [r7, #279]	@ zero_extendqisi2
 2303 052c 002B     		cmp	r3, #0
 2304 052e 7FF468AF 		bne	.L117
 2305              	.L116:
 614:App/STM32F4-Discovery/Libraries/STM32F4xx_StdPeriph_Driver/src/stm32f4xx_cryp_aes.c ****     }
 615:App/STM32F4-Discovery/Libraries/STM32F4xx_StdPeriph_Driver/src/stm32f4xx_cryp_aes.c ****   }
 616:App/STM32F4-Discovery/Libraries/STM32F4xx_StdPeriph_Driver/src/stm32f4xx_cryp_aes.c ****   /* Disable Crypto */
 617:App/STM32F4-Discovery/Libraries/STM32F4xx_StdPeriph_Driver/src/stm32f4xx_cryp_aes.c ****   CRYP_Cmd(DISABLE);
 2306              		.loc 1 617 0 is_stmt 1
 2307 0532 4FF00000 		mov	r0, #0
 2308 0536 FFF7FEFF 		bl	CRYP_Cmd
 618:App/STM32F4-Discovery/Libraries/STM32F4xx_StdPeriph_Driver/src/stm32f4xx_cryp_aes.c **** 
 619:App/STM32F4-Discovery/Libraries/STM32F4xx_StdPeriph_Driver/src/stm32f4xx_cryp_aes.c ****   return status;
 2309              		.loc 1 619 0
 2310 053a 97F81731 		ldrb	r3, [r7, #279]	@ zero_extendqisi2
 620:App/STM32F4-Discovery/Libraries/STM32F4xx_StdPeriph_Driver/src/stm32f4xx_cryp_aes.c **** }
 2311              		.loc 1 620 0
 2312 053e 1846     		mov	r0, r3
 2313 0540 07F58E77 		add	r7, r7, #284
 2314 0544 BD46     		mov	sp, r7
 2315 0546 90BD     		pop	{r4, r7, pc}
 2316              		.cfi_endproc
 2317              	.LFE112:
 2319              		.text
 2320              	.Letext0:
 2321              		.file 3 "/home/thanhtruong/embedded-development/toolchain/gcc-arm-none-eabi-4_7-2013q1/bin/../lib/
 2322              		.file 4 "App/STM32F4-Discovery/Libraries/CMSIS/ST/STM32F4xx/Include/stm32f4xx.h"
 2323              		.file 5 "App/STM32F4-Discovery/Libraries/STM32F4xx_StdPeriph_Driver/inc/stm32f4xx_cryp.h"
 2324              		.file 6 "App/STM32F4-Discovery/Libraries/CMSIS/Include/core_cm4.h"