   1              		.syntax unified
   2              		.cpu cortex-m4
   3              		.eabi_attribute 27, 3
   4              		.fpu fpv4-sp-d16
   5              		.eabi_attribute 20, 1
   6              		.eabi_attribute 21, 1
   7              		.eabi_attribute 23, 3
   8              		.eabi_attribute 24, 1
   9              		.eabi_attribute 25, 1
  10              		.eabi_attribute 26, 1
  11              		.eabi_attribute 30, 6
  12              		.eabi_attribute 34, 1
  13              		.eabi_attribute 18, 4
  14              		.thumb
  15              		.file	"stm32f4xx_gpio.c"
  16              		.text
  17              	.Ltext0:
  18              		.cfi_sections	.debug_frame
  19              		.section	.rodata
  20              		.align	2
  21              	.LC0:
  22 0000 4170702F 		.ascii	"App/STM32F4-Discovery/Libraries/STM32F4xx_StdPeriph"
  22      53544D33 
  22      3246342D 
  22      44697363 
  22      6F766572 
  23 0033 5F447269 		.ascii	"_Driver/src/stm32f4xx_gpio.c\000"
  23      7665722F 
  23      7372632F 
  23      73746D33 
  23      32663478 
  24              		.section	.text.GPIO_DeInit,"ax",%progbits
  25              		.align	2
  26              		.global	GPIO_DeInit
  27              		.thumb
  28              		.thumb_func
  30              	GPIO_DeInit:
  31              	.LFB110:
  32              		.file 1 "App/STM32F4-Discovery/Libraries/STM32F4xx_StdPeriph_Driver/src/stm32f4xx_gpio.c"
   1:App/STM32F4-Discovery/Libraries/STM32F4xx_StdPeriph_Driver/src/stm32f4xx_gpio.c **** /**
   2:App/STM32F4-Discovery/Libraries/STM32F4xx_StdPeriph_Driver/src/stm32f4xx_gpio.c ****   ******************************************************************************
   3:App/STM32F4-Discovery/Libraries/STM32F4xx_StdPeriph_Driver/src/stm32f4xx_gpio.c ****   * @file    stm32f4xx_gpio.c
   4:App/STM32F4-Discovery/Libraries/STM32F4xx_StdPeriph_Driver/src/stm32f4xx_gpio.c ****   * @author  MCD Application Team
   5:App/STM32F4-Discovery/Libraries/STM32F4xx_StdPeriph_Driver/src/stm32f4xx_gpio.c ****   * @version V1.0.0
   6:App/STM32F4-Discovery/Libraries/STM32F4xx_StdPeriph_Driver/src/stm32f4xx_gpio.c ****   * @date    30-September-2011
   7:App/STM32F4-Discovery/Libraries/STM32F4xx_StdPeriph_Driver/src/stm32f4xx_gpio.c ****   * @brief   This file provides firmware functions to manage the following 
   8:App/STM32F4-Discovery/Libraries/STM32F4xx_StdPeriph_Driver/src/stm32f4xx_gpio.c ****   *          functionalities of the GPIO peripheral:           
   9:App/STM32F4-Discovery/Libraries/STM32F4xx_StdPeriph_Driver/src/stm32f4xx_gpio.c ****   *           - Initialization and Configuration
  10:App/STM32F4-Discovery/Libraries/STM32F4xx_StdPeriph_Driver/src/stm32f4xx_gpio.c ****   *           - GPIO Read and Write
  11:App/STM32F4-Discovery/Libraries/STM32F4xx_StdPeriph_Driver/src/stm32f4xx_gpio.c ****   *           - GPIO Alternate functions configuration
  12:App/STM32F4-Discovery/Libraries/STM32F4xx_StdPeriph_Driver/src/stm32f4xx_gpio.c ****   * 
  13:App/STM32F4-Discovery/Libraries/STM32F4xx_StdPeriph_Driver/src/stm32f4xx_gpio.c ****   *  @verbatim
  14:App/STM32F4-Discovery/Libraries/STM32F4xx_StdPeriph_Driver/src/stm32f4xx_gpio.c ****   *
  15:App/STM32F4-Discovery/Libraries/STM32F4xx_StdPeriph_Driver/src/stm32f4xx_gpio.c ****   *          ===================================================================
  16:App/STM32F4-Discovery/Libraries/STM32F4xx_StdPeriph_Driver/src/stm32f4xx_gpio.c ****   *                                 How to use this driver
  17:App/STM32F4-Discovery/Libraries/STM32F4xx_StdPeriph_Driver/src/stm32f4xx_gpio.c ****   *          ===================================================================       
  18:App/STM32F4-Discovery/Libraries/STM32F4xx_StdPeriph_Driver/src/stm32f4xx_gpio.c ****   *           1. Enable the GPIO AHB clock using the following function
  19:App/STM32F4-Discovery/Libraries/STM32F4xx_StdPeriph_Driver/src/stm32f4xx_gpio.c ****   *                RCC_AHB1PeriphClockCmd(RCC_AHB1Periph_GPIOx, ENABLE);
  20:App/STM32F4-Discovery/Libraries/STM32F4xx_StdPeriph_Driver/src/stm32f4xx_gpio.c ****   *             
  21:App/STM32F4-Discovery/Libraries/STM32F4xx_StdPeriph_Driver/src/stm32f4xx_gpio.c ****   *           2. Configure the GPIO pin(s) using GPIO_Init()
  22:App/STM32F4-Discovery/Libraries/STM32F4xx_StdPeriph_Driver/src/stm32f4xx_gpio.c ****   *              Four possible configuration are available for each pin:
  23:App/STM32F4-Discovery/Libraries/STM32F4xx_StdPeriph_Driver/src/stm32f4xx_gpio.c ****   *                - Input: Floating, Pull-up, Pull-down.
  24:App/STM32F4-Discovery/Libraries/STM32F4xx_StdPeriph_Driver/src/stm32f4xx_gpio.c ****   *                - Output: Push-Pull (Pull-up, Pull-down or no Pull)
  25:App/STM32F4-Discovery/Libraries/STM32F4xx_StdPeriph_Driver/src/stm32f4xx_gpio.c ****   *                          Open Drain (Pull-up, Pull-down or no Pull).
  26:App/STM32F4-Discovery/Libraries/STM32F4xx_StdPeriph_Driver/src/stm32f4xx_gpio.c ****   *                  In output mode, the speed is configurable: 2 MHz, 25 MHz,
  27:App/STM32F4-Discovery/Libraries/STM32F4xx_StdPeriph_Driver/src/stm32f4xx_gpio.c ****   *                  50 MHz or 100 MHz.
  28:App/STM32F4-Discovery/Libraries/STM32F4xx_StdPeriph_Driver/src/stm32f4xx_gpio.c ****   *                - Alternate Function: Push-Pull (Pull-up, Pull-down or no Pull)
  29:App/STM32F4-Discovery/Libraries/STM32F4xx_StdPeriph_Driver/src/stm32f4xx_gpio.c ****   *                                      Open Drain (Pull-up, Pull-down or no Pull).
  30:App/STM32F4-Discovery/Libraries/STM32F4xx_StdPeriph_Driver/src/stm32f4xx_gpio.c ****   *                - Analog: required mode when a pin is to be used as ADC channel
  31:App/STM32F4-Discovery/Libraries/STM32F4xx_StdPeriph_Driver/src/stm32f4xx_gpio.c ****   *                          or DAC output.
  32:App/STM32F4-Discovery/Libraries/STM32F4xx_StdPeriph_Driver/src/stm32f4xx_gpio.c ****   * 
  33:App/STM32F4-Discovery/Libraries/STM32F4xx_StdPeriph_Driver/src/stm32f4xx_gpio.c ****   *          3- Peripherals alternate function:
  34:App/STM32F4-Discovery/Libraries/STM32F4xx_StdPeriph_Driver/src/stm32f4xx_gpio.c ****   *              - For ADC and DAC, configure the desired pin in analog mode using 
  35:App/STM32F4-Discovery/Libraries/STM32F4xx_StdPeriph_Driver/src/stm32f4xx_gpio.c ****   *                  GPIO_InitStruct->GPIO_Mode = GPIO_Mode_AN;
  36:App/STM32F4-Discovery/Libraries/STM32F4xx_StdPeriph_Driver/src/stm32f4xx_gpio.c ****   *              - For other peripherals (TIM, USART...):
  37:App/STM32F4-Discovery/Libraries/STM32F4xx_StdPeriph_Driver/src/stm32f4xx_gpio.c ****   *                 - Connect the pin to the desired peripherals' Alternate 
  38:App/STM32F4-Discovery/Libraries/STM32F4xx_StdPeriph_Driver/src/stm32f4xx_gpio.c ****   *                   Function (AF) using GPIO_PinAFConfig() function
  39:App/STM32F4-Discovery/Libraries/STM32F4xx_StdPeriph_Driver/src/stm32f4xx_gpio.c ****   *                 - Configure the desired pin in alternate function mode using
  40:App/STM32F4-Discovery/Libraries/STM32F4xx_StdPeriph_Driver/src/stm32f4xx_gpio.c ****   *                   GPIO_InitStruct->GPIO_Mode = GPIO_Mode_AF
  41:App/STM32F4-Discovery/Libraries/STM32F4xx_StdPeriph_Driver/src/stm32f4xx_gpio.c ****   *                 - Select the type, pull-up/pull-down and output speed via 
  42:App/STM32F4-Discovery/Libraries/STM32F4xx_StdPeriph_Driver/src/stm32f4xx_gpio.c ****   *                   GPIO_PuPd, GPIO_OType and GPIO_Speed members
  43:App/STM32F4-Discovery/Libraries/STM32F4xx_StdPeriph_Driver/src/stm32f4xx_gpio.c ****   *                 - Call GPIO_Init() function
  44:App/STM32F4-Discovery/Libraries/STM32F4xx_StdPeriph_Driver/src/stm32f4xx_gpio.c ****   *        
  45:App/STM32F4-Discovery/Libraries/STM32F4xx_StdPeriph_Driver/src/stm32f4xx_gpio.c ****   *          4. To get the level of a pin configured in input mode use GPIO_ReadInputDataBit()
  46:App/STM32F4-Discovery/Libraries/STM32F4xx_StdPeriph_Driver/src/stm32f4xx_gpio.c ****   *          
  47:App/STM32F4-Discovery/Libraries/STM32F4xx_StdPeriph_Driver/src/stm32f4xx_gpio.c ****   *          5. To set/reset the level of a pin configured in output mode use
  48:App/STM32F4-Discovery/Libraries/STM32F4xx_StdPeriph_Driver/src/stm32f4xx_gpio.c ****   *             GPIO_SetBits()/GPIO_ResetBits()
  49:App/STM32F4-Discovery/Libraries/STM32F4xx_StdPeriph_Driver/src/stm32f4xx_gpio.c ****   *               
  50:App/STM32F4-Discovery/Libraries/STM32F4xx_StdPeriph_Driver/src/stm32f4xx_gpio.c ****   *          6. During and just after reset, the alternate functions are not 
  51:App/STM32F4-Discovery/Libraries/STM32F4xx_StdPeriph_Driver/src/stm32f4xx_gpio.c ****   *             active and the GPIO pins are configured in input floating mode
  52:App/STM32F4-Discovery/Libraries/STM32F4xx_StdPeriph_Driver/src/stm32f4xx_gpio.c ****   *             (except JTAG pins).
  53:App/STM32F4-Discovery/Libraries/STM32F4xx_StdPeriph_Driver/src/stm32f4xx_gpio.c ****   *
  54:App/STM32F4-Discovery/Libraries/STM32F4xx_StdPeriph_Driver/src/stm32f4xx_gpio.c ****   *          7. The LSE oscillator pins OSC32_IN and OSC32_OUT can be used as 
  55:App/STM32F4-Discovery/Libraries/STM32F4xx_StdPeriph_Driver/src/stm32f4xx_gpio.c ****   *             general-purpose (PC14 and PC15, respectively) when the LSE
  56:App/STM32F4-Discovery/Libraries/STM32F4xx_StdPeriph_Driver/src/stm32f4xx_gpio.c ****   *             oscillator is off. The LSE has priority over the GPIO function.
  57:App/STM32F4-Discovery/Libraries/STM32F4xx_StdPeriph_Driver/src/stm32f4xx_gpio.c ****   *
  58:App/STM32F4-Discovery/Libraries/STM32F4xx_StdPeriph_Driver/src/stm32f4xx_gpio.c ****   *          8. The HSE oscillator pins OSC_IN/OSC_OUT can be used as 
  59:App/STM32F4-Discovery/Libraries/STM32F4xx_StdPeriph_Driver/src/stm32f4xx_gpio.c ****   *             general-purpose PH0 and PH1, respectively, when the HSE 
  60:App/STM32F4-Discovery/Libraries/STM32F4xx_StdPeriph_Driver/src/stm32f4xx_gpio.c ****   *             oscillator is off. The HSE has priority over the GPIO function.
  61:App/STM32F4-Discovery/Libraries/STM32F4xx_StdPeriph_Driver/src/stm32f4xx_gpio.c ****   *             
  62:App/STM32F4-Discovery/Libraries/STM32F4xx_StdPeriph_Driver/src/stm32f4xx_gpio.c ****   *  @endverbatim        
  63:App/STM32F4-Discovery/Libraries/STM32F4xx_StdPeriph_Driver/src/stm32f4xx_gpio.c ****   *
  64:App/STM32F4-Discovery/Libraries/STM32F4xx_StdPeriph_Driver/src/stm32f4xx_gpio.c ****   ******************************************************************************
  65:App/STM32F4-Discovery/Libraries/STM32F4xx_StdPeriph_Driver/src/stm32f4xx_gpio.c ****   * @attention
  66:App/STM32F4-Discovery/Libraries/STM32F4xx_StdPeriph_Driver/src/stm32f4xx_gpio.c ****   *
  67:App/STM32F4-Discovery/Libraries/STM32F4xx_StdPeriph_Driver/src/stm32f4xx_gpio.c ****   * THE PRESENT FIRMWARE WHICH IS FOR GUIDANCE ONLY AIMS AT PROVIDING CUSTOMERS
  68:App/STM32F4-Discovery/Libraries/STM32F4xx_StdPeriph_Driver/src/stm32f4xx_gpio.c ****   * WITH CODING INFORMATION REGARDING THEIR PRODUCTS IN ORDER FOR THEM TO SAVE
  69:App/STM32F4-Discovery/Libraries/STM32F4xx_StdPeriph_Driver/src/stm32f4xx_gpio.c ****   * TIME. AS A RESULT, STMICROELECTRONICS SHALL NOT BE HELD LIABLE FOR ANY
  70:App/STM32F4-Discovery/Libraries/STM32F4xx_StdPeriph_Driver/src/stm32f4xx_gpio.c ****   * DIRECT, INDIRECT OR CONSEQUENTIAL DAMAGES WITH RESPECT TO ANY CLAIMS ARISING
  71:App/STM32F4-Discovery/Libraries/STM32F4xx_StdPeriph_Driver/src/stm32f4xx_gpio.c ****   * FROM THE CONTENT OF SUCH FIRMWARE AND/OR THE USE MADE BY CUSTOMERS OF THE
  72:App/STM32F4-Discovery/Libraries/STM32F4xx_StdPeriph_Driver/src/stm32f4xx_gpio.c ****   * CODING INFORMATION CONTAINED HEREIN IN CONNECTION WITH THEIR PRODUCTS.
  73:App/STM32F4-Discovery/Libraries/STM32F4xx_StdPeriph_Driver/src/stm32f4xx_gpio.c ****   *
  74:App/STM32F4-Discovery/Libraries/STM32F4xx_StdPeriph_Driver/src/stm32f4xx_gpio.c ****   * <h2><center>&copy; COPYRIGHT 2011 STMicroelectronics</center></h2>
  75:App/STM32F4-Discovery/Libraries/STM32F4xx_StdPeriph_Driver/src/stm32f4xx_gpio.c ****   ******************************************************************************
  76:App/STM32F4-Discovery/Libraries/STM32F4xx_StdPeriph_Driver/src/stm32f4xx_gpio.c ****   */
  77:App/STM32F4-Discovery/Libraries/STM32F4xx_StdPeriph_Driver/src/stm32f4xx_gpio.c **** 
  78:App/STM32F4-Discovery/Libraries/STM32F4xx_StdPeriph_Driver/src/stm32f4xx_gpio.c **** /* Includes ------------------------------------------------------------------*/
  79:App/STM32F4-Discovery/Libraries/STM32F4xx_StdPeriph_Driver/src/stm32f4xx_gpio.c **** #include "stm32f4xx_gpio.h"
  80:App/STM32F4-Discovery/Libraries/STM32F4xx_StdPeriph_Driver/src/stm32f4xx_gpio.c **** #include "stm32f4xx_rcc.h"
  81:App/STM32F4-Discovery/Libraries/STM32F4xx_StdPeriph_Driver/src/stm32f4xx_gpio.c **** 
  82:App/STM32F4-Discovery/Libraries/STM32F4xx_StdPeriph_Driver/src/stm32f4xx_gpio.c **** /** @addtogroup STM32F4xx_StdPeriph_Driver
  83:App/STM32F4-Discovery/Libraries/STM32F4xx_StdPeriph_Driver/src/stm32f4xx_gpio.c ****   * @{
  84:App/STM32F4-Discovery/Libraries/STM32F4xx_StdPeriph_Driver/src/stm32f4xx_gpio.c ****   */
  85:App/STM32F4-Discovery/Libraries/STM32F4xx_StdPeriph_Driver/src/stm32f4xx_gpio.c **** 
  86:App/STM32F4-Discovery/Libraries/STM32F4xx_StdPeriph_Driver/src/stm32f4xx_gpio.c **** /** @defgroup GPIO 
  87:App/STM32F4-Discovery/Libraries/STM32F4xx_StdPeriph_Driver/src/stm32f4xx_gpio.c ****   * @brief GPIO driver modules
  88:App/STM32F4-Discovery/Libraries/STM32F4xx_StdPeriph_Driver/src/stm32f4xx_gpio.c ****   * @{
  89:App/STM32F4-Discovery/Libraries/STM32F4xx_StdPeriph_Driver/src/stm32f4xx_gpio.c ****   */ 
  90:App/STM32F4-Discovery/Libraries/STM32F4xx_StdPeriph_Driver/src/stm32f4xx_gpio.c **** 
  91:App/STM32F4-Discovery/Libraries/STM32F4xx_StdPeriph_Driver/src/stm32f4xx_gpio.c **** /* Private typedef -----------------------------------------------------------*/
  92:App/STM32F4-Discovery/Libraries/STM32F4xx_StdPeriph_Driver/src/stm32f4xx_gpio.c **** /* Private define ------------------------------------------------------------*/
  93:App/STM32F4-Discovery/Libraries/STM32F4xx_StdPeriph_Driver/src/stm32f4xx_gpio.c **** /* Private macro -------------------------------------------------------------*/
  94:App/STM32F4-Discovery/Libraries/STM32F4xx_StdPeriph_Driver/src/stm32f4xx_gpio.c **** /* Private variables ---------------------------------------------------------*/
  95:App/STM32F4-Discovery/Libraries/STM32F4xx_StdPeriph_Driver/src/stm32f4xx_gpio.c **** /* Private function prototypes -----------------------------------------------*/
  96:App/STM32F4-Discovery/Libraries/STM32F4xx_StdPeriph_Driver/src/stm32f4xx_gpio.c **** /* Private functions ---------------------------------------------------------*/
  97:App/STM32F4-Discovery/Libraries/STM32F4xx_StdPeriph_Driver/src/stm32f4xx_gpio.c **** 
  98:App/STM32F4-Discovery/Libraries/STM32F4xx_StdPeriph_Driver/src/stm32f4xx_gpio.c **** /** @defgroup GPIO_Private_Functions
  99:App/STM32F4-Discovery/Libraries/STM32F4xx_StdPeriph_Driver/src/stm32f4xx_gpio.c ****   * @{
 100:App/STM32F4-Discovery/Libraries/STM32F4xx_StdPeriph_Driver/src/stm32f4xx_gpio.c ****   */ 
 101:App/STM32F4-Discovery/Libraries/STM32F4xx_StdPeriph_Driver/src/stm32f4xx_gpio.c **** 
 102:App/STM32F4-Discovery/Libraries/STM32F4xx_StdPeriph_Driver/src/stm32f4xx_gpio.c **** /** @defgroup GPIO_Group1 Initialization and Configuration
 103:App/STM32F4-Discovery/Libraries/STM32F4xx_StdPeriph_Driver/src/stm32f4xx_gpio.c ****  *  @brief   Initialization and Configuration
 104:App/STM32F4-Discovery/Libraries/STM32F4xx_StdPeriph_Driver/src/stm32f4xx_gpio.c ****  *
 105:App/STM32F4-Discovery/Libraries/STM32F4xx_StdPeriph_Driver/src/stm32f4xx_gpio.c **** @verbatim   
 106:App/STM32F4-Discovery/Libraries/STM32F4xx_StdPeriph_Driver/src/stm32f4xx_gpio.c ****  ===============================================================================
 107:App/STM32F4-Discovery/Libraries/STM32F4xx_StdPeriph_Driver/src/stm32f4xx_gpio.c ****                         Initialization and Configuration
 108:App/STM32F4-Discovery/Libraries/STM32F4xx_StdPeriph_Driver/src/stm32f4xx_gpio.c ****  ===============================================================================  
 109:App/STM32F4-Discovery/Libraries/STM32F4xx_StdPeriph_Driver/src/stm32f4xx_gpio.c **** 
 110:App/STM32F4-Discovery/Libraries/STM32F4xx_StdPeriph_Driver/src/stm32f4xx_gpio.c **** @endverbatim
 111:App/STM32F4-Discovery/Libraries/STM32F4xx_StdPeriph_Driver/src/stm32f4xx_gpio.c ****   * @{
 112:App/STM32F4-Discovery/Libraries/STM32F4xx_StdPeriph_Driver/src/stm32f4xx_gpio.c ****   */
 113:App/STM32F4-Discovery/Libraries/STM32F4xx_StdPeriph_Driver/src/stm32f4xx_gpio.c **** 
 114:App/STM32F4-Discovery/Libraries/STM32F4xx_StdPeriph_Driver/src/stm32f4xx_gpio.c **** /**
 115:App/STM32F4-Discovery/Libraries/STM32F4xx_StdPeriph_Driver/src/stm32f4xx_gpio.c ****   * @brief  Deinitializes the GPIOx peripheral registers to their default reset values.
 116:App/STM32F4-Discovery/Libraries/STM32F4xx_StdPeriph_Driver/src/stm32f4xx_gpio.c ****   * @note   By default, The GPIO pins are configured in input floating mode (except JTAG pins).
 117:App/STM32F4-Discovery/Libraries/STM32F4xx_StdPeriph_Driver/src/stm32f4xx_gpio.c ****   * @param  GPIOx: where x can be (A..I) to select the GPIO peripheral.
 118:App/STM32F4-Discovery/Libraries/STM32F4xx_StdPeriph_Driver/src/stm32f4xx_gpio.c ****   * @retval None
 119:App/STM32F4-Discovery/Libraries/STM32F4xx_StdPeriph_Driver/src/stm32f4xx_gpio.c ****   */
 120:App/STM32F4-Discovery/Libraries/STM32F4xx_StdPeriph_Driver/src/stm32f4xx_gpio.c **** void GPIO_DeInit(GPIO_TypeDef* GPIOx)
 121:App/STM32F4-Discovery/Libraries/STM32F4xx_StdPeriph_Driver/src/stm32f4xx_gpio.c **** {
  33              		.loc 1 121 0
  34              		.cfi_startproc
  35              		@ args = 0, pretend = 0, frame = 8
  36              		@ frame_needed = 1, uses_anonymous_args = 0
  37 0000 80B5     		push	{r7, lr}
  38              	.LCFI0:
  39              		.cfi_def_cfa_offset 8
  40              		.cfi_offset 7, -8
  41              		.cfi_offset 14, -4
  42 0002 82B0     		sub	sp, sp, #8
  43              	.LCFI1:
  44              		.cfi_def_cfa_offset 16
  45 0004 00AF     		add	r7, sp, #0
  46              	.LCFI2:
  47              		.cfi_def_cfa_register 7
  48 0006 7860     		str	r0, [r7, #4]
 122:App/STM32F4-Discovery/Libraries/STM32F4xx_StdPeriph_Driver/src/stm32f4xx_gpio.c ****   /* Check the parameters */
 123:App/STM32F4-Discovery/Libraries/STM32F4xx_StdPeriph_Driver/src/stm32f4xx_gpio.c ****   assert_param(IS_GPIO_ALL_PERIPH(GPIOx));
  49              		.loc 1 123 0
  50 0008 7A68     		ldr	r2, [r7, #4]
  51 000a 4FF00003 		mov	r3, #0
  52 000e C4F20203 		movt	r3, 16386
  53 0012 9A42     		cmp	r2, r3
  54 0014 3FD0     		beq	.L2
  55              		.loc 1 123 0 is_stmt 0 discriminator 1
  56 0016 7A68     		ldr	r2, [r7, #4]
  57 0018 4FF48063 		mov	r3, #1024
  58 001c C4F20203 		movt	r3, 16386
  59 0020 9A42     		cmp	r2, r3
  60 0022 38D0     		beq	.L2
  61              		.loc 1 123 0 discriminator 2
  62 0024 7A68     		ldr	r2, [r7, #4]
  63 0026 4FF40063 		mov	r3, #2048
  64 002a C4F20203 		movt	r3, 16386
  65 002e 9A42     		cmp	r2, r3
  66 0030 31D0     		beq	.L2
  67              		.loc 1 123 0 discriminator 3
  68 0032 7A68     		ldr	r2, [r7, #4]
  69 0034 4FF44063 		mov	r3, #3072
  70 0038 C4F20203 		movt	r3, 16386
  71 003c 9A42     		cmp	r2, r3
  72 003e 2AD0     		beq	.L2
  73              		.loc 1 123 0 discriminator 4
  74 0040 7A68     		ldr	r2, [r7, #4]
  75 0042 4FF48053 		mov	r3, #4096
  76 0046 C4F20203 		movt	r3, 16386
  77 004a 9A42     		cmp	r2, r3
  78 004c 23D0     		beq	.L2
  79              		.loc 1 123 0 discriminator 5
  80 004e 7A68     		ldr	r2, [r7, #4]
  81 0050 4FF4A053 		mov	r3, #5120
  82 0054 C4F20203 		movt	r3, 16386
  83 0058 9A42     		cmp	r2, r3
  84 005a 1CD0     		beq	.L2
  85              		.loc 1 123 0 discriminator 6
  86 005c 7A68     		ldr	r2, [r7, #4]
  87 005e 4FF4C053 		mov	r3, #6144
  88 0062 C4F20203 		movt	r3, 16386
  89 0066 9A42     		cmp	r2, r3
  90 0068 15D0     		beq	.L2
  91              		.loc 1 123 0 discriminator 7
  92 006a 7A68     		ldr	r2, [r7, #4]
  93 006c 4FF4E053 		mov	r3, #7168
  94 0070 C4F20203 		movt	r3, 16386
  95 0074 9A42     		cmp	r2, r3
  96 0076 0ED0     		beq	.L2
  97              		.loc 1 123 0 discriminator 8
  98 0078 7A68     		ldr	r2, [r7, #4]
  99 007a 4FF40053 		mov	r3, #8192
 100 007e C4F20203 		movt	r3, 16386
 101 0082 9A42     		cmp	r2, r3
 102 0084 07D0     		beq	.L2
 103              		.loc 1 123 0 discriminator 9
 104 0086 40F20000 		movw	r0, #:lower16:.LC0
 105 008a C0F20000 		movt	r0, #:upper16:.LC0
 106 008e 4FF07B01 		mov	r1, #123
 107 0092 FFF7FEFF 		bl	assert_failed
 108              	.L2:
 124:App/STM32F4-Discovery/Libraries/STM32F4xx_StdPeriph_Driver/src/stm32f4xx_gpio.c **** 
 125:App/STM32F4-Discovery/Libraries/STM32F4xx_StdPeriph_Driver/src/stm32f4xx_gpio.c ****   if (GPIOx == GPIOA)
 109              		.loc 1 125 0 is_stmt 1
 110 0096 7A68     		ldr	r2, [r7, #4]
 111 0098 4FF00003 		mov	r3, #0
 112 009c C4F20203 		movt	r3, 16386
 113 00a0 9A42     		cmp	r2, r3
 114 00a2 0CD1     		bne	.L3
 126:App/STM32F4-Discovery/Libraries/STM32F4xx_StdPeriph_Driver/src/stm32f4xx_gpio.c ****   {
 127:App/STM32F4-Discovery/Libraries/STM32F4xx_StdPeriph_Driver/src/stm32f4xx_gpio.c ****     RCC_AHB1PeriphResetCmd(RCC_AHB1Periph_GPIOA, ENABLE);
 115              		.loc 1 127 0
 116 00a4 4FF00100 		mov	r0, #1
 117 00a8 4FF00101 		mov	r1, #1
 118 00ac FFF7FEFF 		bl	RCC_AHB1PeriphResetCmd
 128:App/STM32F4-Discovery/Libraries/STM32F4xx_StdPeriph_Driver/src/stm32f4xx_gpio.c ****     RCC_AHB1PeriphResetCmd(RCC_AHB1Periph_GPIOA, DISABLE);
 119              		.loc 1 128 0
 120 00b0 4FF00100 		mov	r0, #1
 121 00b4 4FF00001 		mov	r1, #0
 122 00b8 FFF7FEFF 		bl	RCC_AHB1PeriphResetCmd
 123 00bc 9EE0     		b	.L1
 124              	.L3:
 129:App/STM32F4-Discovery/Libraries/STM32F4xx_StdPeriph_Driver/src/stm32f4xx_gpio.c ****   }
 130:App/STM32F4-Discovery/Libraries/STM32F4xx_StdPeriph_Driver/src/stm32f4xx_gpio.c ****   else if (GPIOx == GPIOB)
 125              		.loc 1 130 0
 126 00be 7A68     		ldr	r2, [r7, #4]
 127 00c0 4FF48063 		mov	r3, #1024
 128 00c4 C4F20203 		movt	r3, 16386
 129 00c8 9A42     		cmp	r2, r3
 130 00ca 0CD1     		bne	.L5
 131:App/STM32F4-Discovery/Libraries/STM32F4xx_StdPeriph_Driver/src/stm32f4xx_gpio.c ****   {
 132:App/STM32F4-Discovery/Libraries/STM32F4xx_StdPeriph_Driver/src/stm32f4xx_gpio.c ****     RCC_AHB1PeriphResetCmd(RCC_AHB1Periph_GPIOB, ENABLE);
 131              		.loc 1 132 0
 132 00cc 4FF00200 		mov	r0, #2
 133 00d0 4FF00101 		mov	r1, #1
 134 00d4 FFF7FEFF 		bl	RCC_AHB1PeriphResetCmd
 133:App/STM32F4-Discovery/Libraries/STM32F4xx_StdPeriph_Driver/src/stm32f4xx_gpio.c ****     RCC_AHB1PeriphResetCmd(RCC_AHB1Periph_GPIOB, DISABLE);
 135              		.loc 1 133 0
 136 00d8 4FF00200 		mov	r0, #2
 137 00dc 4FF00001 		mov	r1, #0
 138 00e0 FFF7FEFF 		bl	RCC_AHB1PeriphResetCmd
 139 00e4 8AE0     		b	.L1
 140              	.L5:
 134:App/STM32F4-Discovery/Libraries/STM32F4xx_StdPeriph_Driver/src/stm32f4xx_gpio.c ****   }
 135:App/STM32F4-Discovery/Libraries/STM32F4xx_StdPeriph_Driver/src/stm32f4xx_gpio.c ****   else if (GPIOx == GPIOC)
 141              		.loc 1 135 0
 142 00e6 7A68     		ldr	r2, [r7, #4]
 143 00e8 4FF40063 		mov	r3, #2048
 144 00ec C4F20203 		movt	r3, 16386
 145 00f0 9A42     		cmp	r2, r3
 146 00f2 0CD1     		bne	.L6
 136:App/STM32F4-Discovery/Libraries/STM32F4xx_StdPeriph_Driver/src/stm32f4xx_gpio.c ****   {
 137:App/STM32F4-Discovery/Libraries/STM32F4xx_StdPeriph_Driver/src/stm32f4xx_gpio.c ****     RCC_AHB1PeriphResetCmd(RCC_AHB1Periph_GPIOC, ENABLE);
 147              		.loc 1 137 0
 148 00f4 4FF00400 		mov	r0, #4
 149 00f8 4FF00101 		mov	r1, #1
 150 00fc FFF7FEFF 		bl	RCC_AHB1PeriphResetCmd
 138:App/STM32F4-Discovery/Libraries/STM32F4xx_StdPeriph_Driver/src/stm32f4xx_gpio.c ****     RCC_AHB1PeriphResetCmd(RCC_AHB1Periph_GPIOC, DISABLE);
 151              		.loc 1 138 0
 152 0100 4FF00400 		mov	r0, #4
 153 0104 4FF00001 		mov	r1, #0
 154 0108 FFF7FEFF 		bl	RCC_AHB1PeriphResetCmd
 155 010c 76E0     		b	.L1
 156              	.L6:
 139:App/STM32F4-Discovery/Libraries/STM32F4xx_StdPeriph_Driver/src/stm32f4xx_gpio.c ****   }
 140:App/STM32F4-Discovery/Libraries/STM32F4xx_StdPeriph_Driver/src/stm32f4xx_gpio.c ****   else if (GPIOx == GPIOD)
 157              		.loc 1 140 0
 158 010e 7A68     		ldr	r2, [r7, #4]
 159 0110 4FF44063 		mov	r3, #3072
 160 0114 C4F20203 		movt	r3, 16386
 161 0118 9A42     		cmp	r2, r3
 162 011a 0CD1     		bne	.L7
 141:App/STM32F4-Discovery/Libraries/STM32F4xx_StdPeriph_Driver/src/stm32f4xx_gpio.c ****   {
 142:App/STM32F4-Discovery/Libraries/STM32F4xx_StdPeriph_Driver/src/stm32f4xx_gpio.c ****     RCC_AHB1PeriphResetCmd(RCC_AHB1Periph_GPIOD, ENABLE);
 163              		.loc 1 142 0
 164 011c 4FF00800 		mov	r0, #8
 165 0120 4FF00101 		mov	r1, #1
 166 0124 FFF7FEFF 		bl	RCC_AHB1PeriphResetCmd
 143:App/STM32F4-Discovery/Libraries/STM32F4xx_StdPeriph_Driver/src/stm32f4xx_gpio.c ****     RCC_AHB1PeriphResetCmd(RCC_AHB1Periph_GPIOD, DISABLE);
 167              		.loc 1 143 0
 168 0128 4FF00800 		mov	r0, #8
 169 012c 4FF00001 		mov	r1, #0
 170 0130 FFF7FEFF 		bl	RCC_AHB1PeriphResetCmd
 171 0134 62E0     		b	.L1
 172              	.L7:
 144:App/STM32F4-Discovery/Libraries/STM32F4xx_StdPeriph_Driver/src/stm32f4xx_gpio.c ****   }
 145:App/STM32F4-Discovery/Libraries/STM32F4xx_StdPeriph_Driver/src/stm32f4xx_gpio.c ****   else if (GPIOx == GPIOE)
 173              		.loc 1 145 0
 174 0136 7A68     		ldr	r2, [r7, #4]
 175 0138 4FF48053 		mov	r3, #4096
 176 013c C4F20203 		movt	r3, 16386
 177 0140 9A42     		cmp	r2, r3
 178 0142 0CD1     		bne	.L8
 146:App/STM32F4-Discovery/Libraries/STM32F4xx_StdPeriph_Driver/src/stm32f4xx_gpio.c ****   {
 147:App/STM32F4-Discovery/Libraries/STM32F4xx_StdPeriph_Driver/src/stm32f4xx_gpio.c ****     RCC_AHB1PeriphResetCmd(RCC_AHB1Periph_GPIOE, ENABLE);
 179              		.loc 1 147 0
 180 0144 4FF01000 		mov	r0, #16
 181 0148 4FF00101 		mov	r1, #1
 182 014c FFF7FEFF 		bl	RCC_AHB1PeriphResetCmd
 148:App/STM32F4-Discovery/Libraries/STM32F4xx_StdPeriph_Driver/src/stm32f4xx_gpio.c ****     RCC_AHB1PeriphResetCmd(RCC_AHB1Periph_GPIOE, DISABLE);
 183              		.loc 1 148 0
 184 0150 4FF01000 		mov	r0, #16
 185 0154 4FF00001 		mov	r1, #0
 186 0158 FFF7FEFF 		bl	RCC_AHB1PeriphResetCmd
 187 015c 4EE0     		b	.L1
 188              	.L8:
 149:App/STM32F4-Discovery/Libraries/STM32F4xx_StdPeriph_Driver/src/stm32f4xx_gpio.c ****   }
 150:App/STM32F4-Discovery/Libraries/STM32F4xx_StdPeriph_Driver/src/stm32f4xx_gpio.c ****   else if (GPIOx == GPIOF)
 189              		.loc 1 150 0
 190 015e 7A68     		ldr	r2, [r7, #4]
 191 0160 4FF4A053 		mov	r3, #5120
 192 0164 C4F20203 		movt	r3, 16386
 193 0168 9A42     		cmp	r2, r3
 194 016a 0CD1     		bne	.L9
 151:App/STM32F4-Discovery/Libraries/STM32F4xx_StdPeriph_Driver/src/stm32f4xx_gpio.c ****   {
 152:App/STM32F4-Discovery/Libraries/STM32F4xx_StdPeriph_Driver/src/stm32f4xx_gpio.c ****     RCC_AHB1PeriphResetCmd(RCC_AHB1Periph_GPIOF, ENABLE);
 195              		.loc 1 152 0
 196 016c 4FF02000 		mov	r0, #32
 197 0170 4FF00101 		mov	r1, #1
 198 0174 FFF7FEFF 		bl	RCC_AHB1PeriphResetCmd
 153:App/STM32F4-Discovery/Libraries/STM32F4xx_StdPeriph_Driver/src/stm32f4xx_gpio.c ****     RCC_AHB1PeriphResetCmd(RCC_AHB1Periph_GPIOF, DISABLE);
 199              		.loc 1 153 0
 200 0178 4FF02000 		mov	r0, #32
 201 017c 4FF00001 		mov	r1, #0
 202 0180 FFF7FEFF 		bl	RCC_AHB1PeriphResetCmd
 203 0184 3AE0     		b	.L1
 204              	.L9:
 154:App/STM32F4-Discovery/Libraries/STM32F4xx_StdPeriph_Driver/src/stm32f4xx_gpio.c ****   }
 155:App/STM32F4-Discovery/Libraries/STM32F4xx_StdPeriph_Driver/src/stm32f4xx_gpio.c ****   else if (GPIOx == GPIOG)
 205              		.loc 1 155 0
 206 0186 7A68     		ldr	r2, [r7, #4]
 207 0188 4FF4C053 		mov	r3, #6144
 208 018c C4F20203 		movt	r3, 16386
 209 0190 9A42     		cmp	r2, r3
 210 0192 0CD1     		bne	.L10
 156:App/STM32F4-Discovery/Libraries/STM32F4xx_StdPeriph_Driver/src/stm32f4xx_gpio.c ****   {
 157:App/STM32F4-Discovery/Libraries/STM32F4xx_StdPeriph_Driver/src/stm32f4xx_gpio.c ****     RCC_AHB1PeriphResetCmd(RCC_AHB1Periph_GPIOG, ENABLE);
 211              		.loc 1 157 0
 212 0194 4FF04000 		mov	r0, #64
 213 0198 4FF00101 		mov	r1, #1
 214 019c FFF7FEFF 		bl	RCC_AHB1PeriphResetCmd
 158:App/STM32F4-Discovery/Libraries/STM32F4xx_StdPeriph_Driver/src/stm32f4xx_gpio.c ****     RCC_AHB1PeriphResetCmd(RCC_AHB1Periph_GPIOG, DISABLE);
 215              		.loc 1 158 0
 216 01a0 4FF04000 		mov	r0, #64
 217 01a4 4FF00001 		mov	r1, #0
 218 01a8 FFF7FEFF 		bl	RCC_AHB1PeriphResetCmd
 219 01ac 26E0     		b	.L1
 220              	.L10:
 159:App/STM32F4-Discovery/Libraries/STM32F4xx_StdPeriph_Driver/src/stm32f4xx_gpio.c ****   }
 160:App/STM32F4-Discovery/Libraries/STM32F4xx_StdPeriph_Driver/src/stm32f4xx_gpio.c ****   else if (GPIOx == GPIOH)
 221              		.loc 1 160 0
 222 01ae 7A68     		ldr	r2, [r7, #4]
 223 01b0 4FF4E053 		mov	r3, #7168
 224 01b4 C4F20203 		movt	r3, 16386
 225 01b8 9A42     		cmp	r2, r3
 226 01ba 0CD1     		bne	.L11
 161:App/STM32F4-Discovery/Libraries/STM32F4xx_StdPeriph_Driver/src/stm32f4xx_gpio.c ****   {
 162:App/STM32F4-Discovery/Libraries/STM32F4xx_StdPeriph_Driver/src/stm32f4xx_gpio.c ****     RCC_AHB1PeriphResetCmd(RCC_AHB1Periph_GPIOH, ENABLE);
 227              		.loc 1 162 0
 228 01bc 4FF08000 		mov	r0, #128
 229 01c0 4FF00101 		mov	r1, #1
 230 01c4 FFF7FEFF 		bl	RCC_AHB1PeriphResetCmd
 163:App/STM32F4-Discovery/Libraries/STM32F4xx_StdPeriph_Driver/src/stm32f4xx_gpio.c ****     RCC_AHB1PeriphResetCmd(RCC_AHB1Periph_GPIOH, DISABLE);
 231              		.loc 1 163 0
 232 01c8 4FF08000 		mov	r0, #128
 233 01cc 4FF00001 		mov	r1, #0
 234 01d0 FFF7FEFF 		bl	RCC_AHB1PeriphResetCmd
 235 01d4 12E0     		b	.L1
 236              	.L11:
 164:App/STM32F4-Discovery/Libraries/STM32F4xx_StdPeriph_Driver/src/stm32f4xx_gpio.c ****   }
 165:App/STM32F4-Discovery/Libraries/STM32F4xx_StdPeriph_Driver/src/stm32f4xx_gpio.c ****   else
 166:App/STM32F4-Discovery/Libraries/STM32F4xx_StdPeriph_Driver/src/stm32f4xx_gpio.c ****   {
 167:App/STM32F4-Discovery/Libraries/STM32F4xx_StdPeriph_Driver/src/stm32f4xx_gpio.c ****     if (GPIOx == GPIOI)
 237              		.loc 1 167 0
 238 01d6 7A68     		ldr	r2, [r7, #4]
 239 01d8 4FF40053 		mov	r3, #8192
 240 01dc C4F20203 		movt	r3, 16386
 241 01e0 9A42     		cmp	r2, r3
 242 01e2 0BD1     		bne	.L1
 168:App/STM32F4-Discovery/Libraries/STM32F4xx_StdPeriph_Driver/src/stm32f4xx_gpio.c ****     {
 169:App/STM32F4-Discovery/Libraries/STM32F4xx_StdPeriph_Driver/src/stm32f4xx_gpio.c ****       RCC_AHB1PeriphResetCmd(RCC_AHB1Periph_GPIOI, ENABLE);
 243              		.loc 1 169 0
 244 01e4 4FF48070 		mov	r0, #256
 245 01e8 4FF00101 		mov	r1, #1
 246 01ec FFF7FEFF 		bl	RCC_AHB1PeriphResetCmd
 170:App/STM32F4-Discovery/Libraries/STM32F4xx_StdPeriph_Driver/src/stm32f4xx_gpio.c ****       RCC_AHB1PeriphResetCmd(RCC_AHB1Periph_GPIOI, DISABLE);
 247              		.loc 1 170 0
 248 01f0 4FF48070 		mov	r0, #256
 249 01f4 4FF00001 		mov	r1, #0
 250 01f8 FFF7FEFF 		bl	RCC_AHB1PeriphResetCmd
 251              	.L1:
 171:App/STM32F4-Discovery/Libraries/STM32F4xx_StdPeriph_Driver/src/stm32f4xx_gpio.c ****     }
 172:App/STM32F4-Discovery/Libraries/STM32F4xx_StdPeriph_Driver/src/stm32f4xx_gpio.c ****   }
 173:App/STM32F4-Discovery/Libraries/STM32F4xx_StdPeriph_Driver/src/stm32f4xx_gpio.c **** }
 252              		.loc 1 173 0
 253 01fc 07F10807 		add	r7, r7, #8
 254 0200 BD46     		mov	sp, r7
 255 0202 80BD     		pop	{r7, pc}
 256              		.cfi_endproc
 257              	.LFE110:
 259              		.section	.text.GPIO_Init,"ax",%progbits
 260              		.align	2
 261              		.global	GPIO_Init
 262              		.thumb
 263              		.thumb_func
 265              	GPIO_Init:
 266              	.LFB111:
 174:App/STM32F4-Discovery/Libraries/STM32F4xx_StdPeriph_Driver/src/stm32f4xx_gpio.c **** 
 175:App/STM32F4-Discovery/Libraries/STM32F4xx_StdPeriph_Driver/src/stm32f4xx_gpio.c **** /**
 176:App/STM32F4-Discovery/Libraries/STM32F4xx_StdPeriph_Driver/src/stm32f4xx_gpio.c ****   * @brief  Initializes the GPIOx peripheral according to the specified parameters in the GPIO_Init
 177:App/STM32F4-Discovery/Libraries/STM32F4xx_StdPeriph_Driver/src/stm32f4xx_gpio.c ****   * @param  GPIOx: where x can be (A..I) to select the GPIO peripheral.
 178:App/STM32F4-Discovery/Libraries/STM32F4xx_StdPeriph_Driver/src/stm32f4xx_gpio.c ****   * @param  GPIO_InitStruct: pointer to a GPIO_InitTypeDef structure that contains
 179:App/STM32F4-Discovery/Libraries/STM32F4xx_StdPeriph_Driver/src/stm32f4xx_gpio.c ****   *         the configuration information for the specified GPIO peripheral.
 180:App/STM32F4-Discovery/Libraries/STM32F4xx_StdPeriph_Driver/src/stm32f4xx_gpio.c ****   * @retval None
 181:App/STM32F4-Discovery/Libraries/STM32F4xx_StdPeriph_Driver/src/stm32f4xx_gpio.c ****   */
 182:App/STM32F4-Discovery/Libraries/STM32F4xx_StdPeriph_Driver/src/stm32f4xx_gpio.c **** void GPIO_Init(GPIO_TypeDef* GPIOx, GPIO_InitTypeDef* GPIO_InitStruct)
 183:App/STM32F4-Discovery/Libraries/STM32F4xx_StdPeriph_Driver/src/stm32f4xx_gpio.c **** {
 267              		.loc 1 183 0
 268              		.cfi_startproc
 269              		@ args = 0, pretend = 0, frame = 24
 270              		@ frame_needed = 1, uses_anonymous_args = 0
 271 0000 80B5     		push	{r7, lr}
 272              	.LCFI3:
 273              		.cfi_def_cfa_offset 8
 274              		.cfi_offset 7, -8
 275              		.cfi_offset 14, -4
 276 0002 86B0     		sub	sp, sp, #24
 277              	.LCFI4:
 278              		.cfi_def_cfa_offset 32
 279 0004 00AF     		add	r7, sp, #0
 280              	.LCFI5:
 281              		.cfi_def_cfa_register 7
 282 0006 7860     		str	r0, [r7, #4]
 283 0008 3960     		str	r1, [r7, #0]
 184:App/STM32F4-Discovery/Libraries/STM32F4xx_StdPeriph_Driver/src/stm32f4xx_gpio.c ****   uint32_t pinpos = 0x00, pos = 0x00 , currentpin = 0x00;
 284              		.loc 1 184 0
 285 000a 4FF00003 		mov	r3, #0
 286 000e 7B61     		str	r3, [r7, #20]
 287 0010 4FF00003 		mov	r3, #0
 288 0014 3B61     		str	r3, [r7, #16]
 289 0016 4FF00003 		mov	r3, #0
 290 001a FB60     		str	r3, [r7, #12]
 185:App/STM32F4-Discovery/Libraries/STM32F4xx_StdPeriph_Driver/src/stm32f4xx_gpio.c **** 
 186:App/STM32F4-Discovery/Libraries/STM32F4xx_StdPeriph_Driver/src/stm32f4xx_gpio.c ****   /* Check the parameters */
 187:App/STM32F4-Discovery/Libraries/STM32F4xx_StdPeriph_Driver/src/stm32f4xx_gpio.c ****   assert_param(IS_GPIO_ALL_PERIPH(GPIOx));
 291              		.loc 1 187 0
 292 001c 7A68     		ldr	r2, [r7, #4]
 293 001e 4FF00003 		mov	r3, #0
 294 0022 C4F20203 		movt	r3, 16386
 295 0026 9A42     		cmp	r2, r3
 296 0028 3FD0     		beq	.L13
 297              		.loc 1 187 0 is_stmt 0 discriminator 1
 298 002a 7A68     		ldr	r2, [r7, #4]
 299 002c 4FF48063 		mov	r3, #1024
 300 0030 C4F20203 		movt	r3, 16386
 301 0034 9A42     		cmp	r2, r3
 302 0036 38D0     		beq	.L13
 303              		.loc 1 187 0 discriminator 2
 304 0038 7A68     		ldr	r2, [r7, #4]
 305 003a 4FF40063 		mov	r3, #2048
 306 003e C4F20203 		movt	r3, 16386
 307 0042 9A42     		cmp	r2, r3
 308 0044 31D0     		beq	.L13
 309              		.loc 1 187 0 discriminator 3
 310 0046 7A68     		ldr	r2, [r7, #4]
 311 0048 4FF44063 		mov	r3, #3072
 312 004c C4F20203 		movt	r3, 16386
 313 0050 9A42     		cmp	r2, r3
 314 0052 2AD0     		beq	.L13
 315              		.loc 1 187 0 discriminator 4
 316 0054 7A68     		ldr	r2, [r7, #4]
 317 0056 4FF48053 		mov	r3, #4096
 318 005a C4F20203 		movt	r3, 16386
 319 005e 9A42     		cmp	r2, r3
 320 0060 23D0     		beq	.L13
 321              		.loc 1 187 0 discriminator 5
 322 0062 7A68     		ldr	r2, [r7, #4]
 323 0064 4FF4A053 		mov	r3, #5120
 324 0068 C4F20203 		movt	r3, 16386
 325 006c 9A42     		cmp	r2, r3
 326 006e 1CD0     		beq	.L13
 327              		.loc 1 187 0 discriminator 6
 328 0070 7A68     		ldr	r2, [r7, #4]
 329 0072 4FF4C053 		mov	r3, #6144
 330 0076 C4F20203 		movt	r3, 16386
 331 007a 9A42     		cmp	r2, r3
 332 007c 15D0     		beq	.L13
 333              		.loc 1 187 0 discriminator 7
 334 007e 7A68     		ldr	r2, [r7, #4]
 335 0080 4FF4E053 		mov	r3, #7168
 336 0084 C4F20203 		movt	r3, 16386
 337 0088 9A42     		cmp	r2, r3
 338 008a 0ED0     		beq	.L13
 339              		.loc 1 187 0 discriminator 8
 340 008c 7A68     		ldr	r2, [r7, #4]
 341 008e 4FF40053 		mov	r3, #8192
 342 0092 C4F20203 		movt	r3, 16386
 343 0096 9A42     		cmp	r2, r3
 344 0098 07D0     		beq	.L13
 345              		.loc 1 187 0 discriminator 9
 346 009a 40F20000 		movw	r0, #:lower16:.LC0
 347 009e C0F20000 		movt	r0, #:upper16:.LC0
 348 00a2 4FF0BB01 		mov	r1, #187
 349 00a6 FFF7FEFF 		bl	assert_failed
 350              	.L13:
 188:App/STM32F4-Discovery/Libraries/STM32F4xx_StdPeriph_Driver/src/stm32f4xx_gpio.c ****   assert_param(IS_GPIO_PIN(GPIO_InitStruct->GPIO_Pin));
 351              		.loc 1 188 0 is_stmt 1
 352 00aa 3B68     		ldr	r3, [r7, #0]
 353 00ac 1B68     		ldr	r3, [r3, #0]
 354 00ae 002B     		cmp	r3, #0
 355 00b0 07D1     		bne	.L14
 356              		.loc 1 188 0 is_stmt 0 discriminator 1
 357 00b2 40F20000 		movw	r0, #:lower16:.LC0
 358 00b6 C0F20000 		movt	r0, #:upper16:.LC0
 359 00ba 4FF0BC01 		mov	r1, #188
 360 00be FFF7FEFF 		bl	assert_failed
 361              	.L14:
 189:App/STM32F4-Discovery/Libraries/STM32F4xx_StdPeriph_Driver/src/stm32f4xx_gpio.c ****   assert_param(IS_GPIO_MODE(GPIO_InitStruct->GPIO_Mode));
 362              		.loc 1 189 0 is_stmt 1
 363 00c2 3B68     		ldr	r3, [r7, #0]
 364 00c4 1B79     		ldrb	r3, [r3, #4]	@ zero_extendqisi2
 365 00c6 002B     		cmp	r3, #0
 366 00c8 13D0     		beq	.L15
 367              		.loc 1 189 0 is_stmt 0 discriminator 1
 368 00ca 3B68     		ldr	r3, [r7, #0]
 369 00cc 1B79     		ldrb	r3, [r3, #4]	@ zero_extendqisi2
 370 00ce 012B     		cmp	r3, #1
 371 00d0 0FD0     		beq	.L15
 372              		.loc 1 189 0 discriminator 2
 373 00d2 3B68     		ldr	r3, [r7, #0]
 374 00d4 1B79     		ldrb	r3, [r3, #4]	@ zero_extendqisi2
 375 00d6 022B     		cmp	r3, #2
 376 00d8 0BD0     		beq	.L15
 377              		.loc 1 189 0 discriminator 3
 378 00da 3B68     		ldr	r3, [r7, #0]
 379 00dc 1B79     		ldrb	r3, [r3, #4]	@ zero_extendqisi2
 380 00de 032B     		cmp	r3, #3
 381 00e0 07D0     		beq	.L15
 382              		.loc 1 189 0 discriminator 4
 383 00e2 40F20000 		movw	r0, #:lower16:.LC0
 384 00e6 C0F20000 		movt	r0, #:upper16:.LC0
 385 00ea 4FF0BD01 		mov	r1, #189
 386 00ee FFF7FEFF 		bl	assert_failed
 387              	.L15:
 190:App/STM32F4-Discovery/Libraries/STM32F4xx_StdPeriph_Driver/src/stm32f4xx_gpio.c ****   assert_param(IS_GPIO_PUPD(GPIO_InitStruct->GPIO_PuPd));
 388              		.loc 1 190 0 is_stmt 1
 389 00f2 3B68     		ldr	r3, [r7, #0]
 390 00f4 DB79     		ldrb	r3, [r3, #7]	@ zero_extendqisi2
 391 00f6 002B     		cmp	r3, #0
 392 00f8 0FD0     		beq	.L16
 393              		.loc 1 190 0 is_stmt 0 discriminator 1
 394 00fa 3B68     		ldr	r3, [r7, #0]
 395 00fc DB79     		ldrb	r3, [r3, #7]	@ zero_extendqisi2
 396 00fe 012B     		cmp	r3, #1
 397 0100 0BD0     		beq	.L16
 398              		.loc 1 190 0 discriminator 2
 399 0102 3B68     		ldr	r3, [r7, #0]
 400 0104 DB79     		ldrb	r3, [r3, #7]	@ zero_extendqisi2
 401 0106 022B     		cmp	r3, #2
 402 0108 07D0     		beq	.L16
 403              		.loc 1 190 0 discriminator 3
 404 010a 40F20000 		movw	r0, #:lower16:.LC0
 405 010e C0F20000 		movt	r0, #:upper16:.LC0
 406 0112 4FF0BE01 		mov	r1, #190
 407 0116 FFF7FEFF 		bl	assert_failed
 408              	.L16:
 191:App/STM32F4-Discovery/Libraries/STM32F4xx_StdPeriph_Driver/src/stm32f4xx_gpio.c **** 
 192:App/STM32F4-Discovery/Libraries/STM32F4xx_StdPeriph_Driver/src/stm32f4xx_gpio.c ****   /* -------------------------Configure the port pins---------------- */
 193:App/STM32F4-Discovery/Libraries/STM32F4xx_StdPeriph_Driver/src/stm32f4xx_gpio.c ****   /*-- GPIO Mode Configuration --*/
 194:App/STM32F4-Discovery/Libraries/STM32F4xx_StdPeriph_Driver/src/stm32f4xx_gpio.c ****   for (pinpos = 0x00; pinpos < 0x10; pinpos++)
 409              		.loc 1 194 0 is_stmt 1
 410 011a 4FF00003 		mov	r3, #0
 411 011e 7B61     		str	r3, [r7, #20]
 412 0120 AFE0     		b	.L17
 413              	.L23:
 195:App/STM32F4-Discovery/Libraries/STM32F4xx_StdPeriph_Driver/src/stm32f4xx_gpio.c ****   {
 196:App/STM32F4-Discovery/Libraries/STM32F4xx_StdPeriph_Driver/src/stm32f4xx_gpio.c ****     pos = ((uint32_t)0x01) << pinpos;
 414              		.loc 1 196 0
 415 0122 7B69     		ldr	r3, [r7, #20]
 416 0124 4FF00102 		mov	r2, #1
 417 0128 02FA03F3 		lsl	r3, r2, r3
 418 012c 3B61     		str	r3, [r7, #16]
 197:App/STM32F4-Discovery/Libraries/STM32F4xx_StdPeriph_Driver/src/stm32f4xx_gpio.c ****     /* Get the port pins position */
 198:App/STM32F4-Discovery/Libraries/STM32F4xx_StdPeriph_Driver/src/stm32f4xx_gpio.c ****     currentpin = (GPIO_InitStruct->GPIO_Pin) & pos;
 419              		.loc 1 198 0
 420 012e 3B68     		ldr	r3, [r7, #0]
 421 0130 1A68     		ldr	r2, [r3, #0]
 422 0132 3B69     		ldr	r3, [r7, #16]
 423 0134 1340     		ands	r3, r3, r2
 424 0136 FB60     		str	r3, [r7, #12]
 199:App/STM32F4-Discovery/Libraries/STM32F4xx_StdPeriph_Driver/src/stm32f4xx_gpio.c **** 
 200:App/STM32F4-Discovery/Libraries/STM32F4xx_StdPeriph_Driver/src/stm32f4xx_gpio.c ****     if (currentpin == pos)
 425              		.loc 1 200 0
 426 0138 FA68     		ldr	r2, [r7, #12]
 427 013a 3B69     		ldr	r3, [r7, #16]
 428 013c 9A42     		cmp	r2, r3
 429 013e 40F09C80 		bne	.L18
 201:App/STM32F4-Discovery/Libraries/STM32F4xx_StdPeriph_Driver/src/stm32f4xx_gpio.c ****     {
 202:App/STM32F4-Discovery/Libraries/STM32F4xx_StdPeriph_Driver/src/stm32f4xx_gpio.c ****       GPIOx->MODER  &= ~(GPIO_MODER_MODER0 << (pinpos * 2));
 430              		.loc 1 202 0
 431 0142 7B68     		ldr	r3, [r7, #4]
 432 0144 1A68     		ldr	r2, [r3, #0]
 433 0146 7B69     		ldr	r3, [r7, #20]
 434 0148 4FEA4303 		lsl	r3, r3, #1
 435 014c 4FF00301 		mov	r1, #3
 436 0150 01FA03F3 		lsl	r3, r1, r3
 437 0154 6FEA0303 		mvn	r3, r3
 438 0158 1A40     		ands	r2, r2, r3
 439 015a 7B68     		ldr	r3, [r7, #4]
 440 015c 1A60     		str	r2, [r3, #0]
 203:App/STM32F4-Discovery/Libraries/STM32F4xx_StdPeriph_Driver/src/stm32f4xx_gpio.c ****       GPIOx->MODER |= (((uint32_t)GPIO_InitStruct->GPIO_Mode) << (pinpos * 2));
 441              		.loc 1 203 0
 442 015e 7B68     		ldr	r3, [r7, #4]
 443 0160 1A68     		ldr	r2, [r3, #0]
 444 0162 3B68     		ldr	r3, [r7, #0]
 445 0164 1B79     		ldrb	r3, [r3, #4]	@ zero_extendqisi2
 446 0166 1946     		mov	r1, r3
 447 0168 7B69     		ldr	r3, [r7, #20]
 448 016a 4FEA4303 		lsl	r3, r3, #1
 449 016e 01FA03F3 		lsl	r3, r1, r3
 450 0172 1A43     		orrs	r2, r2, r3
 451 0174 7B68     		ldr	r3, [r7, #4]
 452 0176 1A60     		str	r2, [r3, #0]
 204:App/STM32F4-Discovery/Libraries/STM32F4xx_StdPeriph_Driver/src/stm32f4xx_gpio.c **** 
 205:App/STM32F4-Discovery/Libraries/STM32F4xx_StdPeriph_Driver/src/stm32f4xx_gpio.c ****       if ((GPIO_InitStruct->GPIO_Mode == GPIO_Mode_OUT) || (GPIO_InitStruct->GPIO_Mode == GPIO_Mode
 453              		.loc 1 205 0
 454 0178 3B68     		ldr	r3, [r7, #0]
 455 017a 1B79     		ldrb	r3, [r3, #4]	@ zero_extendqisi2
 456 017c 012B     		cmp	r3, #1
 457 017e 03D0     		beq	.L19
 458              		.loc 1 205 0 is_stmt 0 discriminator 1
 459 0180 3B68     		ldr	r3, [r7, #0]
 460 0182 1B79     		ldrb	r3, [r3, #4]	@ zero_extendqisi2
 461 0184 022B     		cmp	r3, #2
 462 0186 5CD1     		bne	.L20
 463              	.L19:
 206:App/STM32F4-Discovery/Libraries/STM32F4xx_StdPeriph_Driver/src/stm32f4xx_gpio.c ****       {
 207:App/STM32F4-Discovery/Libraries/STM32F4xx_StdPeriph_Driver/src/stm32f4xx_gpio.c ****         /* Check Speed mode parameters */
 208:App/STM32F4-Discovery/Libraries/STM32F4xx_StdPeriph_Driver/src/stm32f4xx_gpio.c ****         assert_param(IS_GPIO_SPEED(GPIO_InitStruct->GPIO_Speed));
 464              		.loc 1 208 0 is_stmt 1
 465 0188 3B68     		ldr	r3, [r7, #0]
 466 018a 5B79     		ldrb	r3, [r3, #5]	@ zero_extendqisi2
 467 018c 002B     		cmp	r3, #0
 468 018e 13D0     		beq	.L21
 469              		.loc 1 208 0 is_stmt 0 discriminator 1
 470 0190 3B68     		ldr	r3, [r7, #0]
 471 0192 5B79     		ldrb	r3, [r3, #5]	@ zero_extendqisi2
 472 0194 012B     		cmp	r3, #1
 473 0196 0FD0     		beq	.L21
 474              		.loc 1 208 0 discriminator 2
 475 0198 3B68     		ldr	r3, [r7, #0]
 476 019a 5B79     		ldrb	r3, [r3, #5]	@ zero_extendqisi2
 477 019c 022B     		cmp	r3, #2
 478 019e 0BD0     		beq	.L21
 479              		.loc 1 208 0 discriminator 3
 480 01a0 3B68     		ldr	r3, [r7, #0]
 481 01a2 5B79     		ldrb	r3, [r3, #5]	@ zero_extendqisi2
 482 01a4 032B     		cmp	r3, #3
 483 01a6 07D0     		beq	.L21
 484              		.loc 1 208 0 discriminator 4
 485 01a8 40F20000 		movw	r0, #:lower16:.LC0
 486 01ac C0F20000 		movt	r0, #:upper16:.LC0
 487 01b0 4FF0D001 		mov	r1, #208
 488 01b4 FFF7FEFF 		bl	assert_failed
 489              	.L21:
 209:App/STM32F4-Discovery/Libraries/STM32F4xx_StdPeriph_Driver/src/stm32f4xx_gpio.c **** 
 210:App/STM32F4-Discovery/Libraries/STM32F4xx_StdPeriph_Driver/src/stm32f4xx_gpio.c ****         /* Speed mode configuration */
 211:App/STM32F4-Discovery/Libraries/STM32F4xx_StdPeriph_Driver/src/stm32f4xx_gpio.c ****         GPIOx->OSPEEDR &= ~(GPIO_OSPEEDER_OSPEEDR0 << (pinpos * 2));
 490              		.loc 1 211 0 is_stmt 1
 491 01b8 7B68     		ldr	r3, [r7, #4]
 492 01ba 9A68     		ldr	r2, [r3, #8]
 493 01bc 7B69     		ldr	r3, [r7, #20]
 494 01be 4FEA4303 		lsl	r3, r3, #1
 495 01c2 4FF00301 		mov	r1, #3
 496 01c6 01FA03F3 		lsl	r3, r1, r3
 497 01ca 6FEA0303 		mvn	r3, r3
 498 01ce 1A40     		ands	r2, r2, r3
 499 01d0 7B68     		ldr	r3, [r7, #4]
 500 01d2 9A60     		str	r2, [r3, #8]
 212:App/STM32F4-Discovery/Libraries/STM32F4xx_StdPeriph_Driver/src/stm32f4xx_gpio.c ****         GPIOx->OSPEEDR |= ((uint32_t)(GPIO_InitStruct->GPIO_Speed) << (pinpos * 2));
 501              		.loc 1 212 0
 502 01d4 7B68     		ldr	r3, [r7, #4]
 503 01d6 9A68     		ldr	r2, [r3, #8]
 504 01d8 3B68     		ldr	r3, [r7, #0]
 505 01da 5B79     		ldrb	r3, [r3, #5]	@ zero_extendqisi2
 506 01dc 1946     		mov	r1, r3
 507 01de 7B69     		ldr	r3, [r7, #20]
 508 01e0 4FEA4303 		lsl	r3, r3, #1
 509 01e4 01FA03F3 		lsl	r3, r1, r3
 510 01e8 1A43     		orrs	r2, r2, r3
 511 01ea 7B68     		ldr	r3, [r7, #4]
 512 01ec 9A60     		str	r2, [r3, #8]
 213:App/STM32F4-Discovery/Libraries/STM32F4xx_StdPeriph_Driver/src/stm32f4xx_gpio.c **** 
 214:App/STM32F4-Discovery/Libraries/STM32F4xx_StdPeriph_Driver/src/stm32f4xx_gpio.c ****         /* Check Output mode parameters */
 215:App/STM32F4-Discovery/Libraries/STM32F4xx_StdPeriph_Driver/src/stm32f4xx_gpio.c ****         assert_param(IS_GPIO_OTYPE(GPIO_InitStruct->GPIO_OType));
 513              		.loc 1 215 0
 514 01ee 3B68     		ldr	r3, [r7, #0]
 515 01f0 9B79     		ldrb	r3, [r3, #6]	@ zero_extendqisi2
 516 01f2 002B     		cmp	r3, #0
 517 01f4 0BD0     		beq	.L22
 518              		.loc 1 215 0 is_stmt 0 discriminator 1
 519 01f6 3B68     		ldr	r3, [r7, #0]
 520 01f8 9B79     		ldrb	r3, [r3, #6]	@ zero_extendqisi2
 521 01fa 012B     		cmp	r3, #1
 522 01fc 07D0     		beq	.L22
 523              		.loc 1 215 0 discriminator 2
 524 01fe 40F20000 		movw	r0, #:lower16:.LC0
 525 0202 C0F20000 		movt	r0, #:upper16:.LC0
 526 0206 4FF0D701 		mov	r1, #215
 527 020a FFF7FEFF 		bl	assert_failed
 528              	.L22:
 216:App/STM32F4-Discovery/Libraries/STM32F4xx_StdPeriph_Driver/src/stm32f4xx_gpio.c **** 
 217:App/STM32F4-Discovery/Libraries/STM32F4xx_StdPeriph_Driver/src/stm32f4xx_gpio.c ****         /* Output mode configuration*/
 218:App/STM32F4-Discovery/Libraries/STM32F4xx_StdPeriph_Driver/src/stm32f4xx_gpio.c ****         GPIOx->OTYPER  &= ~((GPIO_OTYPER_OT_0) << ((uint16_t)pinpos)) ;
 529              		.loc 1 218 0 is_stmt 1
 530 020e 7B68     		ldr	r3, [r7, #4]
 531 0210 5A68     		ldr	r2, [r3, #4]
 532 0212 7B69     		ldr	r3, [r7, #20]
 533 0214 9BB2     		uxth	r3, r3
 534 0216 4FF00101 		mov	r1, #1
 535 021a 01FA03F3 		lsl	r3, r1, r3
 536 021e 6FEA0303 		mvn	r3, r3
 537 0222 1A40     		ands	r2, r2, r3
 538 0224 7B68     		ldr	r3, [r7, #4]
 539 0226 5A60     		str	r2, [r3, #4]
 219:App/STM32F4-Discovery/Libraries/STM32F4xx_StdPeriph_Driver/src/stm32f4xx_gpio.c ****         GPIOx->OTYPER |= (uint16_t)(((uint16_t)GPIO_InitStruct->GPIO_OType) << ((uint16_t)pinpos));
 540              		.loc 1 219 0
 541 0228 7B68     		ldr	r3, [r7, #4]
 542 022a 5A68     		ldr	r2, [r3, #4]
 543 022c 3B68     		ldr	r3, [r7, #0]
 544 022e 9B79     		ldrb	r3, [r3, #6]	@ zero_extendqisi2
 545 0230 1946     		mov	r1, r3
 546 0232 7B69     		ldr	r3, [r7, #20]
 547 0234 9BB2     		uxth	r3, r3
 548 0236 01FA03F3 		lsl	r3, r1, r3
 549 023a 9BB2     		uxth	r3, r3
 550 023c 1A43     		orrs	r2, r2, r3
 551 023e 7B68     		ldr	r3, [r7, #4]
 552 0240 5A60     		str	r2, [r3, #4]
 553              	.L20:
 220:App/STM32F4-Discovery/Libraries/STM32F4xx_StdPeriph_Driver/src/stm32f4xx_gpio.c ****       }
 221:App/STM32F4-Discovery/Libraries/STM32F4xx_StdPeriph_Driver/src/stm32f4xx_gpio.c **** 
 222:App/STM32F4-Discovery/Libraries/STM32F4xx_StdPeriph_Driver/src/stm32f4xx_gpio.c ****       /* Pull-up Pull down resistor configuration*/
 223:App/STM32F4-Discovery/Libraries/STM32F4xx_StdPeriph_Driver/src/stm32f4xx_gpio.c ****       GPIOx->PUPDR &= ~(GPIO_PUPDR_PUPDR0 << ((uint16_t)pinpos * 2));
 554              		.loc 1 223 0
 555 0242 7B68     		ldr	r3, [r7, #4]
 556 0244 DA68     		ldr	r2, [r3, #12]
 557 0246 7B69     		ldr	r3, [r7, #20]
 558 0248 9BB2     		uxth	r3, r3
 559 024a 4FEA4303 		lsl	r3, r3, #1
 560 024e 4FF00301 		mov	r1, #3
 561 0252 01FA03F3 		lsl	r3, r1, r3
 562 0256 6FEA0303 		mvn	r3, r3
 563 025a 1A40     		ands	r2, r2, r3
 564 025c 7B68     		ldr	r3, [r7, #4]
 565 025e DA60     		str	r2, [r3, #12]
 224:App/STM32F4-Discovery/Libraries/STM32F4xx_StdPeriph_Driver/src/stm32f4xx_gpio.c ****       GPIOx->PUPDR |= (((uint32_t)GPIO_InitStruct->GPIO_PuPd) << (pinpos * 2));
 566              		.loc 1 224 0
 567 0260 7B68     		ldr	r3, [r7, #4]
 568 0262 DA68     		ldr	r2, [r3, #12]
 569 0264 3B68     		ldr	r3, [r7, #0]
 570 0266 DB79     		ldrb	r3, [r3, #7]	@ zero_extendqisi2
 571 0268 1946     		mov	r1, r3
 572 026a 7B69     		ldr	r3, [r7, #20]
 573 026c 4FEA4303 		lsl	r3, r3, #1
 574 0270 01FA03F3 		lsl	r3, r1, r3
 575 0274 1A43     		orrs	r2, r2, r3
 576 0276 7B68     		ldr	r3, [r7, #4]
 577 0278 DA60     		str	r2, [r3, #12]
 578              	.L18:
 194:App/STM32F4-Discovery/Libraries/STM32F4xx_StdPeriph_Driver/src/stm32f4xx_gpio.c ****   for (pinpos = 0x00; pinpos < 0x10; pinpos++)
 579              		.loc 1 194 0
 580 027a 7B69     		ldr	r3, [r7, #20]
 581 027c 03F10103 		add	r3, r3, #1
 582 0280 7B61     		str	r3, [r7, #20]
 583              	.L17:
 194:App/STM32F4-Discovery/Libraries/STM32F4xx_StdPeriph_Driver/src/stm32f4xx_gpio.c ****   for (pinpos = 0x00; pinpos < 0x10; pinpos++)
 584              		.loc 1 194 0 is_stmt 0 discriminator 1
 585 0282 7B69     		ldr	r3, [r7, #20]
 586 0284 0F2B     		cmp	r3, #15
 587 0286 7FF64CAF 		bls	.L23
 225:App/STM32F4-Discovery/Libraries/STM32F4xx_StdPeriph_Driver/src/stm32f4xx_gpio.c ****     }
 226:App/STM32F4-Discovery/Libraries/STM32F4xx_StdPeriph_Driver/src/stm32f4xx_gpio.c ****   }
 227:App/STM32F4-Discovery/Libraries/STM32F4xx_StdPeriph_Driver/src/stm32f4xx_gpio.c **** }
 588              		.loc 1 227 0 is_stmt 1
 589 028a 07F11807 		add	r7, r7, #24
 590 028e BD46     		mov	sp, r7
 591 0290 80BD     		pop	{r7, pc}
 592              		.cfi_endproc
 593              	.LFE111:
 595 0292 00BF     		.section	.text.GPIO_StructInit,"ax",%progbits
 596              		.align	2
 597              		.global	GPIO_StructInit
 598              		.thumb
 599              		.thumb_func
 601              	GPIO_StructInit:
 602              	.LFB112:
 228:App/STM32F4-Discovery/Libraries/STM32F4xx_StdPeriph_Driver/src/stm32f4xx_gpio.c **** 
 229:App/STM32F4-Discovery/Libraries/STM32F4xx_StdPeriph_Driver/src/stm32f4xx_gpio.c **** /**
 230:App/STM32F4-Discovery/Libraries/STM32F4xx_StdPeriph_Driver/src/stm32f4xx_gpio.c ****   * @brief  Fills each GPIO_InitStruct member with its default value.
 231:App/STM32F4-Discovery/Libraries/STM32F4xx_StdPeriph_Driver/src/stm32f4xx_gpio.c ****   * @param  GPIO_InitStruct : pointer to a GPIO_InitTypeDef structure which will be initialized.
 232:App/STM32F4-Discovery/Libraries/STM32F4xx_StdPeriph_Driver/src/stm32f4xx_gpio.c ****   * @retval None
 233:App/STM32F4-Discovery/Libraries/STM32F4xx_StdPeriph_Driver/src/stm32f4xx_gpio.c ****   */
 234:App/STM32F4-Discovery/Libraries/STM32F4xx_StdPeriph_Driver/src/stm32f4xx_gpio.c **** void GPIO_StructInit(GPIO_InitTypeDef* GPIO_InitStruct)
 235:App/STM32F4-Discovery/Libraries/STM32F4xx_StdPeriph_Driver/src/stm32f4xx_gpio.c **** {
 603              		.loc 1 235 0
 604              		.cfi_startproc
 605              		@ args = 0, pretend = 0, frame = 8
 606              		@ frame_needed = 1, uses_anonymous_args = 0
 607              		@ link register save eliminated.
 608 0000 80B4     		push	{r7}
 609              	.LCFI6:
 610              		.cfi_def_cfa_offset 4
 611              		.cfi_offset 7, -4
 612 0002 83B0     		sub	sp, sp, #12
 613              	.LCFI7:
 614              		.cfi_def_cfa_offset 16
 615 0004 00AF     		add	r7, sp, #0
 616              	.LCFI8:
 617              		.cfi_def_cfa_register 7
 618 0006 7860     		str	r0, [r7, #4]
 236:App/STM32F4-Discovery/Libraries/STM32F4xx_StdPeriph_Driver/src/stm32f4xx_gpio.c ****   /* Reset GPIO init structure parameters values */
 237:App/STM32F4-Discovery/Libraries/STM32F4xx_StdPeriph_Driver/src/stm32f4xx_gpio.c ****   GPIO_InitStruct->GPIO_Pin  = GPIO_Pin_All;
 619              		.loc 1 237 0
 620 0008 7B68     		ldr	r3, [r7, #4]
 621 000a 4FF6FF72 		movw	r2, #65535
 622 000e 1A60     		str	r2, [r3, #0]
 238:App/STM32F4-Discovery/Libraries/STM32F4xx_StdPeriph_Driver/src/stm32f4xx_gpio.c ****   GPIO_InitStruct->GPIO_Mode = GPIO_Mode_IN;
 623              		.loc 1 238 0
 624 0010 7B68     		ldr	r3, [r7, #4]
 625 0012 4FF00002 		mov	r2, #0
 626 0016 1A71     		strb	r2, [r3, #4]
 239:App/STM32F4-Discovery/Libraries/STM32F4xx_StdPeriph_Driver/src/stm32f4xx_gpio.c ****   GPIO_InitStruct->GPIO_Speed = GPIO_Speed_2MHz;
 627              		.loc 1 239 0
 628 0018 7B68     		ldr	r3, [r7, #4]
 629 001a 4FF00002 		mov	r2, #0
 630 001e 5A71     		strb	r2, [r3, #5]
 240:App/STM32F4-Discovery/Libraries/STM32F4xx_StdPeriph_Driver/src/stm32f4xx_gpio.c ****   GPIO_InitStruct->GPIO_OType = GPIO_OType_PP;
 631              		.loc 1 240 0
 632 0020 7B68     		ldr	r3, [r7, #4]
 633 0022 4FF00002 		mov	r2, #0
 634 0026 9A71     		strb	r2, [r3, #6]
 241:App/STM32F4-Discovery/Libraries/STM32F4xx_StdPeriph_Driver/src/stm32f4xx_gpio.c ****   GPIO_InitStruct->GPIO_PuPd = GPIO_PuPd_NOPULL;
 635              		.loc 1 241 0
 636 0028 7B68     		ldr	r3, [r7, #4]
 637 002a 4FF00002 		mov	r2, #0
 638 002e DA71     		strb	r2, [r3, #7]
 242:App/STM32F4-Discovery/Libraries/STM32F4xx_StdPeriph_Driver/src/stm32f4xx_gpio.c **** }
 639              		.loc 1 242 0
 640 0030 07F10C07 		add	r7, r7, #12
 641 0034 BD46     		mov	sp, r7
 642 0036 80BC     		pop	{r7}
 643 0038 7047     		bx	lr
 644              		.cfi_endproc
 645              	.LFE112:
 647 003a 00BF     		.section	.text.GPIO_PinLockConfig,"ax",%progbits
 648              		.align	2
 649              		.global	GPIO_PinLockConfig
 650              		.thumb
 651              		.thumb_func
 653              	GPIO_PinLockConfig:
 654              	.LFB113:
 243:App/STM32F4-Discovery/Libraries/STM32F4xx_StdPeriph_Driver/src/stm32f4xx_gpio.c **** 
 244:App/STM32F4-Discovery/Libraries/STM32F4xx_StdPeriph_Driver/src/stm32f4xx_gpio.c **** /**
 245:App/STM32F4-Discovery/Libraries/STM32F4xx_StdPeriph_Driver/src/stm32f4xx_gpio.c ****   * @brief  Locks GPIO Pins configuration registers.
 246:App/STM32F4-Discovery/Libraries/STM32F4xx_StdPeriph_Driver/src/stm32f4xx_gpio.c ****   * @note   The locked registers are GPIOx_MODER, GPIOx_OTYPER, GPIOx_OSPEEDR,
 247:App/STM32F4-Discovery/Libraries/STM32F4xx_StdPeriph_Driver/src/stm32f4xx_gpio.c ****   *         GPIOx_PUPDR, GPIOx_AFRL and GPIOx_AFRH.
 248:App/STM32F4-Discovery/Libraries/STM32F4xx_StdPeriph_Driver/src/stm32f4xx_gpio.c ****   * @note   The configuration of the locked GPIO pins can no longer be modified
 249:App/STM32F4-Discovery/Libraries/STM32F4xx_StdPeriph_Driver/src/stm32f4xx_gpio.c ****   *         until the next reset.
 250:App/STM32F4-Discovery/Libraries/STM32F4xx_StdPeriph_Driver/src/stm32f4xx_gpio.c ****   * @param  GPIOx: where x can be (A..I) to select the GPIO peripheral.
 251:App/STM32F4-Discovery/Libraries/STM32F4xx_StdPeriph_Driver/src/stm32f4xx_gpio.c ****   * @param  GPIO_Pin: specifies the port bit to be locked.
 252:App/STM32F4-Discovery/Libraries/STM32F4xx_StdPeriph_Driver/src/stm32f4xx_gpio.c ****   *          This parameter can be any combination of GPIO_Pin_x where x can be (0..15).
 253:App/STM32F4-Discovery/Libraries/STM32F4xx_StdPeriph_Driver/src/stm32f4xx_gpio.c ****   * @retval None
 254:App/STM32F4-Discovery/Libraries/STM32F4xx_StdPeriph_Driver/src/stm32f4xx_gpio.c ****   */
 255:App/STM32F4-Discovery/Libraries/STM32F4xx_StdPeriph_Driver/src/stm32f4xx_gpio.c **** void GPIO_PinLockConfig(GPIO_TypeDef* GPIOx, uint16_t GPIO_Pin)
 256:App/STM32F4-Discovery/Libraries/STM32F4xx_StdPeriph_Driver/src/stm32f4xx_gpio.c **** {
 655              		.loc 1 256 0
 656              		.cfi_startproc
 657              		@ args = 0, pretend = 0, frame = 16
 658              		@ frame_needed = 1, uses_anonymous_args = 0
 659 0000 80B5     		push	{r7, lr}
 660              	.LCFI9:
 661              		.cfi_def_cfa_offset 8
 662              		.cfi_offset 7, -8
 663              		.cfi_offset 14, -4
 664 0002 84B0     		sub	sp, sp, #16
 665              	.LCFI10:
 666              		.cfi_def_cfa_offset 24
 667 0004 00AF     		add	r7, sp, #0
 668              	.LCFI11:
 669              		.cfi_def_cfa_register 7
 670 0006 7860     		str	r0, [r7, #4]
 671 0008 0B46     		mov	r3, r1
 672 000a 7B80     		strh	r3, [r7, #2]	@ movhi
 257:App/STM32F4-Discovery/Libraries/STM32F4xx_StdPeriph_Driver/src/stm32f4xx_gpio.c ****   __IO uint32_t tmp = 0x00010000;
 673              		.loc 1 257 0
 674 000c 4FF48033 		mov	r3, #65536
 675 0010 FB60     		str	r3, [r7, #12]
 258:App/STM32F4-Discovery/Libraries/STM32F4xx_StdPeriph_Driver/src/stm32f4xx_gpio.c **** 
 259:App/STM32F4-Discovery/Libraries/STM32F4xx_StdPeriph_Driver/src/stm32f4xx_gpio.c ****   /* Check the parameters */
 260:App/STM32F4-Discovery/Libraries/STM32F4xx_StdPeriph_Driver/src/stm32f4xx_gpio.c ****   assert_param(IS_GPIO_ALL_PERIPH(GPIOx));
 676              		.loc 1 260 0
 677 0012 7A68     		ldr	r2, [r7, #4]
 678 0014 4FF00003 		mov	r3, #0
 679 0018 C4F20203 		movt	r3, 16386
 680 001c 9A42     		cmp	r2, r3
 681 001e 3FD0     		beq	.L26
 682              		.loc 1 260 0 is_stmt 0 discriminator 1
 683 0020 7A68     		ldr	r2, [r7, #4]
 684 0022 4FF48063 		mov	r3, #1024
 685 0026 C4F20203 		movt	r3, 16386
 686 002a 9A42     		cmp	r2, r3
 687 002c 38D0     		beq	.L26
 688              		.loc 1 260 0 discriminator 2
 689 002e 7A68     		ldr	r2, [r7, #4]
 690 0030 4FF40063 		mov	r3, #2048
 691 0034 C4F20203 		movt	r3, 16386
 692 0038 9A42     		cmp	r2, r3
 693 003a 31D0     		beq	.L26
 694              		.loc 1 260 0 discriminator 3
 695 003c 7A68     		ldr	r2, [r7, #4]
 696 003e 4FF44063 		mov	r3, #3072
 697 0042 C4F20203 		movt	r3, 16386
 698 0046 9A42     		cmp	r2, r3
 699 0048 2AD0     		beq	.L26
 700              		.loc 1 260 0 discriminator 4
 701 004a 7A68     		ldr	r2, [r7, #4]
 702 004c 4FF48053 		mov	r3, #4096
 703 0050 C4F20203 		movt	r3, 16386
 704 0054 9A42     		cmp	r2, r3
 705 0056 23D0     		beq	.L26
 706              		.loc 1 260 0 discriminator 5
 707 0058 7A68     		ldr	r2, [r7, #4]
 708 005a 4FF4A053 		mov	r3, #5120
 709 005e C4F20203 		movt	r3, 16386
 710 0062 9A42     		cmp	r2, r3
 711 0064 1CD0     		beq	.L26
 712              		.loc 1 260 0 discriminator 6
 713 0066 7A68     		ldr	r2, [r7, #4]
 714 0068 4FF4C053 		mov	r3, #6144
 715 006c C4F20203 		movt	r3, 16386
 716 0070 9A42     		cmp	r2, r3
 717 0072 15D0     		beq	.L26
 718              		.loc 1 260 0 discriminator 7
 719 0074 7A68     		ldr	r2, [r7, #4]
 720 0076 4FF4E053 		mov	r3, #7168
 721 007a C4F20203 		movt	r3, 16386
 722 007e 9A42     		cmp	r2, r3
 723 0080 0ED0     		beq	.L26
 724              		.loc 1 260 0 discriminator 8
 725 0082 7A68     		ldr	r2, [r7, #4]
 726 0084 4FF40053 		mov	r3, #8192
 727 0088 C4F20203 		movt	r3, 16386
 728 008c 9A42     		cmp	r2, r3
 729 008e 07D0     		beq	.L26
 730              		.loc 1 260 0 discriminator 9
 731 0090 40F20000 		movw	r0, #:lower16:.LC0
 732 0094 C0F20000 		movt	r0, #:upper16:.LC0
 733 0098 4FF48271 		mov	r1, #260
 734 009c FFF7FEFF 		bl	assert_failed
 735              	.L26:
 261:App/STM32F4-Discovery/Libraries/STM32F4xx_StdPeriph_Driver/src/stm32f4xx_gpio.c ****   assert_param(IS_GPIO_PIN(GPIO_Pin));
 736              		.loc 1 261 0 is_stmt 1
 737 00a0 7B88     		ldrh	r3, [r7, #2]
 738 00a2 002B     		cmp	r3, #0
 739 00a4 07D1     		bne	.L27
 740              		.loc 1 261 0 is_stmt 0 discriminator 1
 741 00a6 40F20000 		movw	r0, #:lower16:.LC0
 742 00aa C0F20000 		movt	r0, #:upper16:.LC0
 743 00ae 40F20511 		movw	r1, #261
 744 00b2 FFF7FEFF 		bl	assert_failed
 745              	.L27:
 262:App/STM32F4-Discovery/Libraries/STM32F4xx_StdPeriph_Driver/src/stm32f4xx_gpio.c **** 
 263:App/STM32F4-Discovery/Libraries/STM32F4xx_StdPeriph_Driver/src/stm32f4xx_gpio.c ****   tmp |= GPIO_Pin;
 746              		.loc 1 263 0 is_stmt 1
 747 00b6 7A88     		ldrh	r2, [r7, #2]
 748 00b8 FB68     		ldr	r3, [r7, #12]
 749 00ba 1343     		orrs	r3, r3, r2
 750 00bc FB60     		str	r3, [r7, #12]
 264:App/STM32F4-Discovery/Libraries/STM32F4xx_StdPeriph_Driver/src/stm32f4xx_gpio.c ****   /* Set LCKK bit */
 265:App/STM32F4-Discovery/Libraries/STM32F4xx_StdPeriph_Driver/src/stm32f4xx_gpio.c ****   GPIOx->LCKR = tmp;
 751              		.loc 1 265 0
 752 00be FA68     		ldr	r2, [r7, #12]
 753 00c0 7B68     		ldr	r3, [r7, #4]
 754 00c2 DA61     		str	r2, [r3, #28]
 266:App/STM32F4-Discovery/Libraries/STM32F4xx_StdPeriph_Driver/src/stm32f4xx_gpio.c ****   /* Reset LCKK bit */
 267:App/STM32F4-Discovery/Libraries/STM32F4xx_StdPeriph_Driver/src/stm32f4xx_gpio.c ****   GPIOx->LCKR =  GPIO_Pin;
 755              		.loc 1 267 0
 756 00c4 7A88     		ldrh	r2, [r7, #2]
 757 00c6 7B68     		ldr	r3, [r7, #4]
 758 00c8 DA61     		str	r2, [r3, #28]
 268:App/STM32F4-Discovery/Libraries/STM32F4xx_StdPeriph_Driver/src/stm32f4xx_gpio.c ****   /* Set LCKK bit */
 269:App/STM32F4-Discovery/Libraries/STM32F4xx_StdPeriph_Driver/src/stm32f4xx_gpio.c ****   GPIOx->LCKR = tmp;
 759              		.loc 1 269 0
 760 00ca FA68     		ldr	r2, [r7, #12]
 761 00cc 7B68     		ldr	r3, [r7, #4]
 762 00ce DA61     		str	r2, [r3, #28]
 270:App/STM32F4-Discovery/Libraries/STM32F4xx_StdPeriph_Driver/src/stm32f4xx_gpio.c ****   /* Read LCKK bit*/
 271:App/STM32F4-Discovery/Libraries/STM32F4xx_StdPeriph_Driver/src/stm32f4xx_gpio.c ****   tmp = GPIOx->LCKR;
 763              		.loc 1 271 0
 764 00d0 7B68     		ldr	r3, [r7, #4]
 765 00d2 DB69     		ldr	r3, [r3, #28]
 766 00d4 FB60     		str	r3, [r7, #12]
 272:App/STM32F4-Discovery/Libraries/STM32F4xx_StdPeriph_Driver/src/stm32f4xx_gpio.c ****   /* Read LCKK bit*/
 273:App/STM32F4-Discovery/Libraries/STM32F4xx_StdPeriph_Driver/src/stm32f4xx_gpio.c ****   tmp = GPIOx->LCKR;
 767              		.loc 1 273 0
 768 00d6 7B68     		ldr	r3, [r7, #4]
 769 00d8 DB69     		ldr	r3, [r3, #28]
 770 00da FB60     		str	r3, [r7, #12]
 274:App/STM32F4-Discovery/Libraries/STM32F4xx_StdPeriph_Driver/src/stm32f4xx_gpio.c **** }
 771              		.loc 1 274 0
 772 00dc 07F11007 		add	r7, r7, #16
 773 00e0 BD46     		mov	sp, r7
 774 00e2 80BD     		pop	{r7, pc}
 775              		.cfi_endproc
 776              	.LFE113:
 778              		.section	.text.GPIO_ReadInputDataBit,"ax",%progbits
 779              		.align	2
 780              		.global	GPIO_ReadInputDataBit
 781              		.thumb
 782              		.thumb_func
 784              	GPIO_ReadInputDataBit:
 785              	.LFB114:
 275:App/STM32F4-Discovery/Libraries/STM32F4xx_StdPeriph_Driver/src/stm32f4xx_gpio.c **** 
 276:App/STM32F4-Discovery/Libraries/STM32F4xx_StdPeriph_Driver/src/stm32f4xx_gpio.c **** /**
 277:App/STM32F4-Discovery/Libraries/STM32F4xx_StdPeriph_Driver/src/stm32f4xx_gpio.c ****   * @}
 278:App/STM32F4-Discovery/Libraries/STM32F4xx_StdPeriph_Driver/src/stm32f4xx_gpio.c ****   */
 279:App/STM32F4-Discovery/Libraries/STM32F4xx_StdPeriph_Driver/src/stm32f4xx_gpio.c **** 
 280:App/STM32F4-Discovery/Libraries/STM32F4xx_StdPeriph_Driver/src/stm32f4xx_gpio.c **** /** @defgroup GPIO_Group2 GPIO Read and Write
 281:App/STM32F4-Discovery/Libraries/STM32F4xx_StdPeriph_Driver/src/stm32f4xx_gpio.c ****  *  @brief   GPIO Read and Write
 282:App/STM32F4-Discovery/Libraries/STM32F4xx_StdPeriph_Driver/src/stm32f4xx_gpio.c ****  *
 283:App/STM32F4-Discovery/Libraries/STM32F4xx_StdPeriph_Driver/src/stm32f4xx_gpio.c **** @verbatim   
 284:App/STM32F4-Discovery/Libraries/STM32F4xx_StdPeriph_Driver/src/stm32f4xx_gpio.c ****  ===============================================================================
 285:App/STM32F4-Discovery/Libraries/STM32F4xx_StdPeriph_Driver/src/stm32f4xx_gpio.c ****                               GPIO Read and Write
 286:App/STM32F4-Discovery/Libraries/STM32F4xx_StdPeriph_Driver/src/stm32f4xx_gpio.c ****  ===============================================================================  
 287:App/STM32F4-Discovery/Libraries/STM32F4xx_StdPeriph_Driver/src/stm32f4xx_gpio.c **** 
 288:App/STM32F4-Discovery/Libraries/STM32F4xx_StdPeriph_Driver/src/stm32f4xx_gpio.c **** @endverbatim
 289:App/STM32F4-Discovery/Libraries/STM32F4xx_StdPeriph_Driver/src/stm32f4xx_gpio.c ****   * @{
 290:App/STM32F4-Discovery/Libraries/STM32F4xx_StdPeriph_Driver/src/stm32f4xx_gpio.c ****   */
 291:App/STM32F4-Discovery/Libraries/STM32F4xx_StdPeriph_Driver/src/stm32f4xx_gpio.c **** 
 292:App/STM32F4-Discovery/Libraries/STM32F4xx_StdPeriph_Driver/src/stm32f4xx_gpio.c **** /**
 293:App/STM32F4-Discovery/Libraries/STM32F4xx_StdPeriph_Driver/src/stm32f4xx_gpio.c ****   * @brief  Reads the specified input port pin.
 294:App/STM32F4-Discovery/Libraries/STM32F4xx_StdPeriph_Driver/src/stm32f4xx_gpio.c ****   * @param  GPIOx: where x can be (A..I) to select the GPIO peripheral.
 295:App/STM32F4-Discovery/Libraries/STM32F4xx_StdPeriph_Driver/src/stm32f4xx_gpio.c ****   * @param  GPIO_Pin: specifies the port bit to read.
 296:App/STM32F4-Discovery/Libraries/STM32F4xx_StdPeriph_Driver/src/stm32f4xx_gpio.c ****   *         This parameter can be GPIO_Pin_x where x can be (0..15).
 297:App/STM32F4-Discovery/Libraries/STM32F4xx_StdPeriph_Driver/src/stm32f4xx_gpio.c ****   * @retval The input port pin value.
 298:App/STM32F4-Discovery/Libraries/STM32F4xx_StdPeriph_Driver/src/stm32f4xx_gpio.c ****   */
 299:App/STM32F4-Discovery/Libraries/STM32F4xx_StdPeriph_Driver/src/stm32f4xx_gpio.c **** uint8_t GPIO_ReadInputDataBit(GPIO_TypeDef* GPIOx, uint16_t GPIO_Pin)
 300:App/STM32F4-Discovery/Libraries/STM32F4xx_StdPeriph_Driver/src/stm32f4xx_gpio.c **** {
 786              		.loc 1 300 0
 787              		.cfi_startproc
 788              		@ args = 0, pretend = 0, frame = 16
 789              		@ frame_needed = 1, uses_anonymous_args = 0
 790 0000 80B5     		push	{r7, lr}
 791              	.LCFI12:
 792              		.cfi_def_cfa_offset 8
 793              		.cfi_offset 7, -8
 794              		.cfi_offset 14, -4
 795 0002 84B0     		sub	sp, sp, #16
 796              	.LCFI13:
 797              		.cfi_def_cfa_offset 24
 798 0004 00AF     		add	r7, sp, #0
 799              	.LCFI14:
 800              		.cfi_def_cfa_register 7
 801 0006 7860     		str	r0, [r7, #4]
 802 0008 0B46     		mov	r3, r1
 803 000a 7B80     		strh	r3, [r7, #2]	@ movhi
 301:App/STM32F4-Discovery/Libraries/STM32F4xx_StdPeriph_Driver/src/stm32f4xx_gpio.c ****   uint8_t bitstatus = 0x00;
 804              		.loc 1 301 0
 805 000c 4FF00003 		mov	r3, #0
 806 0010 FB73     		strb	r3, [r7, #15]
 302:App/STM32F4-Discovery/Libraries/STM32F4xx_StdPeriph_Driver/src/stm32f4xx_gpio.c **** 
 303:App/STM32F4-Discovery/Libraries/STM32F4xx_StdPeriph_Driver/src/stm32f4xx_gpio.c ****   /* Check the parameters */
 304:App/STM32F4-Discovery/Libraries/STM32F4xx_StdPeriph_Driver/src/stm32f4xx_gpio.c ****   assert_param(IS_GPIO_ALL_PERIPH(GPIOx));
 807              		.loc 1 304 0
 808 0012 7A68     		ldr	r2, [r7, #4]
 809 0014 4FF00003 		mov	r3, #0
 810 0018 C4F20203 		movt	r3, 16386
 811 001c 9A42     		cmp	r2, r3
 812 001e 3FD0     		beq	.L29
 813              		.loc 1 304 0 is_stmt 0 discriminator 1
 814 0020 7A68     		ldr	r2, [r7, #4]
 815 0022 4FF48063 		mov	r3, #1024
 816 0026 C4F20203 		movt	r3, 16386
 817 002a 9A42     		cmp	r2, r3
 818 002c 38D0     		beq	.L29
 819              		.loc 1 304 0 discriminator 2
 820 002e 7A68     		ldr	r2, [r7, #4]
 821 0030 4FF40063 		mov	r3, #2048
 822 0034 C4F20203 		movt	r3, 16386
 823 0038 9A42     		cmp	r2, r3
 824 003a 31D0     		beq	.L29
 825              		.loc 1 304 0 discriminator 3
 826 003c 7A68     		ldr	r2, [r7, #4]
 827 003e 4FF44063 		mov	r3, #3072
 828 0042 C4F20203 		movt	r3, 16386
 829 0046 9A42     		cmp	r2, r3
 830 0048 2AD0     		beq	.L29
 831              		.loc 1 304 0 discriminator 4
 832 004a 7A68     		ldr	r2, [r7, #4]
 833 004c 4FF48053 		mov	r3, #4096
 834 0050 C4F20203 		movt	r3, 16386
 835 0054 9A42     		cmp	r2, r3
 836 0056 23D0     		beq	.L29
 837              		.loc 1 304 0 discriminator 5
 838 0058 7A68     		ldr	r2, [r7, #4]
 839 005a 4FF4A053 		mov	r3, #5120
 840 005e C4F20203 		movt	r3, 16386
 841 0062 9A42     		cmp	r2, r3
 842 0064 1CD0     		beq	.L29
 843              		.loc 1 304 0 discriminator 6
 844 0066 7A68     		ldr	r2, [r7, #4]
 845 0068 4FF4C053 		mov	r3, #6144
 846 006c C4F20203 		movt	r3, 16386
 847 0070 9A42     		cmp	r2, r3
 848 0072 15D0     		beq	.L29
 849              		.loc 1 304 0 discriminator 7
 850 0074 7A68     		ldr	r2, [r7, #4]
 851 0076 4FF4E053 		mov	r3, #7168
 852 007a C4F20203 		movt	r3, 16386
 853 007e 9A42     		cmp	r2, r3
 854 0080 0ED0     		beq	.L29
 855              		.loc 1 304 0 discriminator 8
 856 0082 7A68     		ldr	r2, [r7, #4]
 857 0084 4FF40053 		mov	r3, #8192
 858 0088 C4F20203 		movt	r3, 16386
 859 008c 9A42     		cmp	r2, r3
 860 008e 07D0     		beq	.L29
 861              		.loc 1 304 0 discriminator 9
 862 0090 40F20000 		movw	r0, #:lower16:.LC0
 863 0094 C0F20000 		movt	r0, #:upper16:.LC0
 864 0098 4FF49871 		mov	r1, #304
 865 009c FFF7FEFF 		bl	assert_failed
 866              	.L29:
 305:App/STM32F4-Discovery/Libraries/STM32F4xx_StdPeriph_Driver/src/stm32f4xx_gpio.c ****   assert_param(IS_GET_GPIO_PIN(GPIO_Pin));
 867              		.loc 1 305 0 is_stmt 1
 868 00a0 7B88     		ldrh	r3, [r7, #2]
 869 00a2 012B     		cmp	r3, #1
 870 00a4 3CD0     		beq	.L30
 871              		.loc 1 305 0 is_stmt 0 discriminator 1
 872 00a6 7B88     		ldrh	r3, [r7, #2]
 873 00a8 022B     		cmp	r3, #2
 874 00aa 39D0     		beq	.L30
 875              		.loc 1 305 0 discriminator 2
 876 00ac 7B88     		ldrh	r3, [r7, #2]
 877 00ae 042B     		cmp	r3, #4
 878 00b0 36D0     		beq	.L30
 879              		.loc 1 305 0 discriminator 3
 880 00b2 7B88     		ldrh	r3, [r7, #2]
 881 00b4 082B     		cmp	r3, #8
 882 00b6 33D0     		beq	.L30
 883              		.loc 1 305 0 discriminator 4
 884 00b8 7B88     		ldrh	r3, [r7, #2]
 885 00ba 102B     		cmp	r3, #16
 886 00bc 30D0     		beq	.L30
 887              		.loc 1 305 0 discriminator 5
 888 00be 7B88     		ldrh	r3, [r7, #2]
 889 00c0 202B     		cmp	r3, #32
 890 00c2 2DD0     		beq	.L30
 891              		.loc 1 305 0 discriminator 6
 892 00c4 7B88     		ldrh	r3, [r7, #2]
 893 00c6 402B     		cmp	r3, #64
 894 00c8 2AD0     		beq	.L30
 895              		.loc 1 305 0 discriminator 7
 896 00ca 7B88     		ldrh	r3, [r7, #2]
 897 00cc 802B     		cmp	r3, #128
 898 00ce 27D0     		beq	.L30
 899              		.loc 1 305 0 discriminator 8
 900 00d0 7B88     		ldrh	r3, [r7, #2]
 901 00d2 B3F5807F 		cmp	r3, #256
 902 00d6 23D0     		beq	.L30
 903              		.loc 1 305 0 discriminator 9
 904 00d8 7B88     		ldrh	r3, [r7, #2]
 905 00da B3F5007F 		cmp	r3, #512
 906 00de 1FD0     		beq	.L30
 907              		.loc 1 305 0 discriminator 10
 908 00e0 7B88     		ldrh	r3, [r7, #2]
 909 00e2 B3F5806F 		cmp	r3, #1024
 910 00e6 1BD0     		beq	.L30
 911              		.loc 1 305 0 discriminator 11
 912 00e8 7B88     		ldrh	r3, [r7, #2]
 913 00ea B3F5006F 		cmp	r3, #2048
 914 00ee 17D0     		beq	.L30
 915              		.loc 1 305 0 discriminator 12
 916 00f0 7B88     		ldrh	r3, [r7, #2]
 917 00f2 B3F5805F 		cmp	r3, #4096
 918 00f6 13D0     		beq	.L30
 919              		.loc 1 305 0 discriminator 13
 920 00f8 7B88     		ldrh	r3, [r7, #2]
 921 00fa B3F5005F 		cmp	r3, #8192
 922 00fe 0FD0     		beq	.L30
 923              		.loc 1 305 0 discriminator 14
 924 0100 7B88     		ldrh	r3, [r7, #2]
 925 0102 B3F5804F 		cmp	r3, #16384
 926 0106 0BD0     		beq	.L30
 927              		.loc 1 305 0 discriminator 15
 928 0108 7B88     		ldrh	r3, [r7, #2]
 929 010a B3F5004F 		cmp	r3, #32768
 930 010e 07D0     		beq	.L30
 931              		.loc 1 305 0 discriminator 16
 932 0110 40F20000 		movw	r0, #:lower16:.LC0
 933 0114 C0F20000 		movt	r0, #:upper16:.LC0
 934 0118 40F23111 		movw	r1, #305
 935 011c FFF7FEFF 		bl	assert_failed
 936              	.L30:
 306:App/STM32F4-Discovery/Libraries/STM32F4xx_StdPeriph_Driver/src/stm32f4xx_gpio.c **** 
 307:App/STM32F4-Discovery/Libraries/STM32F4xx_StdPeriph_Driver/src/stm32f4xx_gpio.c ****   if ((GPIOx->IDR & GPIO_Pin) != (uint32_t)Bit_RESET)
 937              		.loc 1 307 0 is_stmt 1
 938 0120 7B68     		ldr	r3, [r7, #4]
 939 0122 1A69     		ldr	r2, [r3, #16]
 940 0124 7B88     		ldrh	r3, [r7, #2]
 941 0126 1340     		ands	r3, r3, r2
 942 0128 002B     		cmp	r3, #0
 943 012a 03D0     		beq	.L31
 308:App/STM32F4-Discovery/Libraries/STM32F4xx_StdPeriph_Driver/src/stm32f4xx_gpio.c ****   {
 309:App/STM32F4-Discovery/Libraries/STM32F4xx_StdPeriph_Driver/src/stm32f4xx_gpio.c ****     bitstatus = (uint8_t)Bit_SET;
 944              		.loc 1 309 0
 945 012c 4FF00103 		mov	r3, #1
 946 0130 FB73     		strb	r3, [r7, #15]
 947 0132 02E0     		b	.L32
 948              	.L31:
 310:App/STM32F4-Discovery/Libraries/STM32F4xx_StdPeriph_Driver/src/stm32f4xx_gpio.c ****   }
 311:App/STM32F4-Discovery/Libraries/STM32F4xx_StdPeriph_Driver/src/stm32f4xx_gpio.c ****   else
 312:App/STM32F4-Discovery/Libraries/STM32F4xx_StdPeriph_Driver/src/stm32f4xx_gpio.c ****   {
 313:App/STM32F4-Discovery/Libraries/STM32F4xx_StdPeriph_Driver/src/stm32f4xx_gpio.c ****     bitstatus = (uint8_t)Bit_RESET;
 949              		.loc 1 313 0
 950 0134 4FF00003 		mov	r3, #0
 951 0138 FB73     		strb	r3, [r7, #15]
 952              	.L32:
 314:App/STM32F4-Discovery/Libraries/STM32F4xx_StdPeriph_Driver/src/stm32f4xx_gpio.c ****   }
 315:App/STM32F4-Discovery/Libraries/STM32F4xx_StdPeriph_Driver/src/stm32f4xx_gpio.c ****   return bitstatus;
 953              		.loc 1 315 0
 954 013a FB7B     		ldrb	r3, [r7, #15]	@ zero_extendqisi2
 316:App/STM32F4-Discovery/Libraries/STM32F4xx_StdPeriph_Driver/src/stm32f4xx_gpio.c **** }
 955              		.loc 1 316 0
 956 013c 1846     		mov	r0, r3
 957 013e 07F11007 		add	r7, r7, #16
 958 0142 BD46     		mov	sp, r7
 959 0144 80BD     		pop	{r7, pc}
 960              		.cfi_endproc
 961              	.LFE114:
 963 0146 00BF     		.section	.text.GPIO_ReadInputData,"ax",%progbits
 964              		.align	2
 965              		.global	GPIO_ReadInputData
 966              		.thumb
 967              		.thumb_func
 969              	GPIO_ReadInputData:
 970              	.LFB115:
 317:App/STM32F4-Discovery/Libraries/STM32F4xx_StdPeriph_Driver/src/stm32f4xx_gpio.c **** 
 318:App/STM32F4-Discovery/Libraries/STM32F4xx_StdPeriph_Driver/src/stm32f4xx_gpio.c **** /**
 319:App/STM32F4-Discovery/Libraries/STM32F4xx_StdPeriph_Driver/src/stm32f4xx_gpio.c ****   * @brief  Reads the specified GPIO input data port.
 320:App/STM32F4-Discovery/Libraries/STM32F4xx_StdPeriph_Driver/src/stm32f4xx_gpio.c ****   * @param  GPIOx: where x can be (A..I) to select the GPIO peripheral.
 321:App/STM32F4-Discovery/Libraries/STM32F4xx_StdPeriph_Driver/src/stm32f4xx_gpio.c ****   * @retval GPIO input data port value.
 322:App/STM32F4-Discovery/Libraries/STM32F4xx_StdPeriph_Driver/src/stm32f4xx_gpio.c ****   */
 323:App/STM32F4-Discovery/Libraries/STM32F4xx_StdPeriph_Driver/src/stm32f4xx_gpio.c **** uint16_t GPIO_ReadInputData(GPIO_TypeDef* GPIOx)
 324:App/STM32F4-Discovery/Libraries/STM32F4xx_StdPeriph_Driver/src/stm32f4xx_gpio.c **** {
 971              		.loc 1 324 0
 972              		.cfi_startproc
 973              		@ args = 0, pretend = 0, frame = 8
 974              		@ frame_needed = 1, uses_anonymous_args = 0
 975 0000 80B5     		push	{r7, lr}
 976              	.LCFI15:
 977              		.cfi_def_cfa_offset 8
 978              		.cfi_offset 7, -8
 979              		.cfi_offset 14, -4
 980 0002 82B0     		sub	sp, sp, #8
 981              	.LCFI16:
 982              		.cfi_def_cfa_offset 16
 983 0004 00AF     		add	r7, sp, #0
 984              	.LCFI17:
 985              		.cfi_def_cfa_register 7
 986 0006 7860     		str	r0, [r7, #4]
 325:App/STM32F4-Discovery/Libraries/STM32F4xx_StdPeriph_Driver/src/stm32f4xx_gpio.c ****   /* Check the parameters */
 326:App/STM32F4-Discovery/Libraries/STM32F4xx_StdPeriph_Driver/src/stm32f4xx_gpio.c ****   assert_param(IS_GPIO_ALL_PERIPH(GPIOx));
 987              		.loc 1 326 0
 988 0008 7A68     		ldr	r2, [r7, #4]
 989 000a 4FF00003 		mov	r3, #0
 990 000e C4F20203 		movt	r3, 16386
 991 0012 9A42     		cmp	r2, r3
 992 0014 3FD0     		beq	.L35
 993              		.loc 1 326 0 is_stmt 0 discriminator 1
 994 0016 7A68     		ldr	r2, [r7, #4]
 995 0018 4FF48063 		mov	r3, #1024
 996 001c C4F20203 		movt	r3, 16386
 997 0020 9A42     		cmp	r2, r3
 998 0022 38D0     		beq	.L35
 999              		.loc 1 326 0 discriminator 2
 1000 0024 7A68     		ldr	r2, [r7, #4]
 1001 0026 4FF40063 		mov	r3, #2048
 1002 002a C4F20203 		movt	r3, 16386
 1003 002e 9A42     		cmp	r2, r3
 1004 0030 31D0     		beq	.L35
 1005              		.loc 1 326 0 discriminator 3
 1006 0032 7A68     		ldr	r2, [r7, #4]
 1007 0034 4FF44063 		mov	r3, #3072
 1008 0038 C4F20203 		movt	r3, 16386
 1009 003c 9A42     		cmp	r2, r3
 1010 003e 2AD0     		beq	.L35
 1011              		.loc 1 326 0 discriminator 4
 1012 0040 7A68     		ldr	r2, [r7, #4]
 1013 0042 4FF48053 		mov	r3, #4096
 1014 0046 C4F20203 		movt	r3, 16386
 1015 004a 9A42     		cmp	r2, r3
 1016 004c 23D0     		beq	.L35
 1017              		.loc 1 326 0 discriminator 5
 1018 004e 7A68     		ldr	r2, [r7, #4]
 1019 0050 4FF4A053 		mov	r3, #5120
 1020 0054 C4F20203 		movt	r3, 16386
 1021 0058 9A42     		cmp	r2, r3
 1022 005a 1CD0     		beq	.L35
 1023              		.loc 1 326 0 discriminator 6
 1024 005c 7A68     		ldr	r2, [r7, #4]
 1025 005e 4FF4C053 		mov	r3, #6144
 1026 0062 C4F20203 		movt	r3, 16386
 1027 0066 9A42     		cmp	r2, r3
 1028 0068 15D0     		beq	.L35
 1029              		.loc 1 326 0 discriminator 7
 1030 006a 7A68     		ldr	r2, [r7, #4]
 1031 006c 4FF4E053 		mov	r3, #7168
 1032 0070 C4F20203 		movt	r3, 16386
 1033 0074 9A42     		cmp	r2, r3
 1034 0076 0ED0     		beq	.L35
 1035              		.loc 1 326 0 discriminator 8
 1036 0078 7A68     		ldr	r2, [r7, #4]
 1037 007a 4FF40053 		mov	r3, #8192
 1038 007e C4F20203 		movt	r3, 16386
 1039 0082 9A42     		cmp	r2, r3
 1040 0084 07D0     		beq	.L35
 1041              		.loc 1 326 0 discriminator 9
 1042 0086 40F20000 		movw	r0, #:lower16:.LC0
 1043 008a C0F20000 		movt	r0, #:upper16:.LC0
 1044 008e 4FF4A371 		mov	r1, #326
 1045 0092 FFF7FEFF 		bl	assert_failed
 1046              	.L35:
 327:App/STM32F4-Discovery/Libraries/STM32F4xx_StdPeriph_Driver/src/stm32f4xx_gpio.c **** 
 328:App/STM32F4-Discovery/Libraries/STM32F4xx_StdPeriph_Driver/src/stm32f4xx_gpio.c ****   return ((uint16_t)GPIOx->IDR);
 1047              		.loc 1 328 0 is_stmt 1
 1048 0096 7B68     		ldr	r3, [r7, #4]
 1049 0098 1B69     		ldr	r3, [r3, #16]
 1050 009a 9BB2     		uxth	r3, r3
 329:App/STM32F4-Discovery/Libraries/STM32F4xx_StdPeriph_Driver/src/stm32f4xx_gpio.c **** }
 1051              		.loc 1 329 0
 1052 009c 1846     		mov	r0, r3
 1053 009e 07F10807 		add	r7, r7, #8
 1054 00a2 BD46     		mov	sp, r7
 1055 00a4 80BD     		pop	{r7, pc}
 1056              		.cfi_endproc
 1057              	.LFE115:
 1059 00a6 00BF     		.section	.text.GPIO_ReadOutputDataBit,"ax",%progbits
 1060              		.align	2
 1061              		.global	GPIO_ReadOutputDataBit
 1062              		.thumb
 1063              		.thumb_func
 1065              	GPIO_ReadOutputDataBit:
 1066              	.LFB116:
 330:App/STM32F4-Discovery/Libraries/STM32F4xx_StdPeriph_Driver/src/stm32f4xx_gpio.c **** 
 331:App/STM32F4-Discovery/Libraries/STM32F4xx_StdPeriph_Driver/src/stm32f4xx_gpio.c **** /**
 332:App/STM32F4-Discovery/Libraries/STM32F4xx_StdPeriph_Driver/src/stm32f4xx_gpio.c ****   * @brief  Reads the specified output data port bit.
 333:App/STM32F4-Discovery/Libraries/STM32F4xx_StdPeriph_Driver/src/stm32f4xx_gpio.c ****   * @param  GPIOx: where x can be (A..I) to select the GPIO peripheral.
 334:App/STM32F4-Discovery/Libraries/STM32F4xx_StdPeriph_Driver/src/stm32f4xx_gpio.c ****   * @param  GPIO_Pin: specifies the port bit to read.
 335:App/STM32F4-Discovery/Libraries/STM32F4xx_StdPeriph_Driver/src/stm32f4xx_gpio.c ****   *          This parameter can be GPIO_Pin_x where x can be (0..15).
 336:App/STM32F4-Discovery/Libraries/STM32F4xx_StdPeriph_Driver/src/stm32f4xx_gpio.c ****   * @retval The output port pin value.
 337:App/STM32F4-Discovery/Libraries/STM32F4xx_StdPeriph_Driver/src/stm32f4xx_gpio.c ****   */
 338:App/STM32F4-Discovery/Libraries/STM32F4xx_StdPeriph_Driver/src/stm32f4xx_gpio.c **** uint8_t GPIO_ReadOutputDataBit(GPIO_TypeDef* GPIOx, uint16_t GPIO_Pin)
 339:App/STM32F4-Discovery/Libraries/STM32F4xx_StdPeriph_Driver/src/stm32f4xx_gpio.c **** {
 1067              		.loc 1 339 0
 1068              		.cfi_startproc
 1069              		@ args = 0, pretend = 0, frame = 16
 1070              		@ frame_needed = 1, uses_anonymous_args = 0
 1071 0000 80B5     		push	{r7, lr}
 1072              	.LCFI18:
 1073              		.cfi_def_cfa_offset 8
 1074              		.cfi_offset 7, -8
 1075              		.cfi_offset 14, -4
 1076 0002 84B0     		sub	sp, sp, #16
 1077              	.LCFI19:
 1078              		.cfi_def_cfa_offset 24
 1079 0004 00AF     		add	r7, sp, #0
 1080              	.LCFI20:
 1081              		.cfi_def_cfa_register 7
 1082 0006 7860     		str	r0, [r7, #4]
 1083 0008 0B46     		mov	r3, r1
 1084 000a 7B80     		strh	r3, [r7, #2]	@ movhi
 340:App/STM32F4-Discovery/Libraries/STM32F4xx_StdPeriph_Driver/src/stm32f4xx_gpio.c ****   uint8_t bitstatus = 0x00;
 1085              		.loc 1 340 0
 1086 000c 4FF00003 		mov	r3, #0
 1087 0010 FB73     		strb	r3, [r7, #15]
 341:App/STM32F4-Discovery/Libraries/STM32F4xx_StdPeriph_Driver/src/stm32f4xx_gpio.c **** 
 342:App/STM32F4-Discovery/Libraries/STM32F4xx_StdPeriph_Driver/src/stm32f4xx_gpio.c ****   /* Check the parameters */
 343:App/STM32F4-Discovery/Libraries/STM32F4xx_StdPeriph_Driver/src/stm32f4xx_gpio.c ****   assert_param(IS_GPIO_ALL_PERIPH(GPIOx));
 1088              		.loc 1 343 0
 1089 0012 7A68     		ldr	r2, [r7, #4]
 1090 0014 4FF00003 		mov	r3, #0
 1091 0018 C4F20203 		movt	r3, 16386
 1092 001c 9A42     		cmp	r2, r3
 1093 001e 3FD0     		beq	.L38
 1094              		.loc 1 343 0 is_stmt 0 discriminator 1
 1095 0020 7A68     		ldr	r2, [r7, #4]
 1096 0022 4FF48063 		mov	r3, #1024
 1097 0026 C4F20203 		movt	r3, 16386
 1098 002a 9A42     		cmp	r2, r3
 1099 002c 38D0     		beq	.L38
 1100              		.loc 1 343 0 discriminator 2
 1101 002e 7A68     		ldr	r2, [r7, #4]
 1102 0030 4FF40063 		mov	r3, #2048
 1103 0034 C4F20203 		movt	r3, 16386
 1104 0038 9A42     		cmp	r2, r3
 1105 003a 31D0     		beq	.L38
 1106              		.loc 1 343 0 discriminator 3
 1107 003c 7A68     		ldr	r2, [r7, #4]
 1108 003e 4FF44063 		mov	r3, #3072
 1109 0042 C4F20203 		movt	r3, 16386
 1110 0046 9A42     		cmp	r2, r3
 1111 0048 2AD0     		beq	.L38
 1112              		.loc 1 343 0 discriminator 4
 1113 004a 7A68     		ldr	r2, [r7, #4]
 1114 004c 4FF48053 		mov	r3, #4096
 1115 0050 C4F20203 		movt	r3, 16386
 1116 0054 9A42     		cmp	r2, r3
 1117 0056 23D0     		beq	.L38
 1118              		.loc 1 343 0 discriminator 5
 1119 0058 7A68     		ldr	r2, [r7, #4]
 1120 005a 4FF4A053 		mov	r3, #5120
 1121 005e C4F20203 		movt	r3, 16386
 1122 0062 9A42     		cmp	r2, r3
 1123 0064 1CD0     		beq	.L38
 1124              		.loc 1 343 0 discriminator 6
 1125 0066 7A68     		ldr	r2, [r7, #4]
 1126 0068 4FF4C053 		mov	r3, #6144
 1127 006c C4F20203 		movt	r3, 16386
 1128 0070 9A42     		cmp	r2, r3
 1129 0072 15D0     		beq	.L38
 1130              		.loc 1 343 0 discriminator 7
 1131 0074 7A68     		ldr	r2, [r7, #4]
 1132 0076 4FF4E053 		mov	r3, #7168
 1133 007a C4F20203 		movt	r3, 16386
 1134 007e 9A42     		cmp	r2, r3
 1135 0080 0ED0     		beq	.L38
 1136              		.loc 1 343 0 discriminator 8
 1137 0082 7A68     		ldr	r2, [r7, #4]
 1138 0084 4FF40053 		mov	r3, #8192
 1139 0088 C4F20203 		movt	r3, 16386
 1140 008c 9A42     		cmp	r2, r3
 1141 008e 07D0     		beq	.L38
 1142              		.loc 1 343 0 discriminator 9
 1143 0090 40F20000 		movw	r0, #:lower16:.LC0
 1144 0094 C0F20000 		movt	r0, #:upper16:.LC0
 1145 0098 40F25711 		movw	r1, #343
 1146 009c FFF7FEFF 		bl	assert_failed
 1147              	.L38:
 344:App/STM32F4-Discovery/Libraries/STM32F4xx_StdPeriph_Driver/src/stm32f4xx_gpio.c ****   assert_param(IS_GET_GPIO_PIN(GPIO_Pin));
 1148              		.loc 1 344 0 is_stmt 1
 1149 00a0 7B88     		ldrh	r3, [r7, #2]
 1150 00a2 012B     		cmp	r3, #1
 1151 00a4 3CD0     		beq	.L39
 1152              		.loc 1 344 0 is_stmt 0 discriminator 1
 1153 00a6 7B88     		ldrh	r3, [r7, #2]
 1154 00a8 022B     		cmp	r3, #2
 1155 00aa 39D0     		beq	.L39
 1156              		.loc 1 344 0 discriminator 2
 1157 00ac 7B88     		ldrh	r3, [r7, #2]
 1158 00ae 042B     		cmp	r3, #4
 1159 00b0 36D0     		beq	.L39
 1160              		.loc 1 344 0 discriminator 3
 1161 00b2 7B88     		ldrh	r3, [r7, #2]
 1162 00b4 082B     		cmp	r3, #8
 1163 00b6 33D0     		beq	.L39
 1164              		.loc 1 344 0 discriminator 4
 1165 00b8 7B88     		ldrh	r3, [r7, #2]
 1166 00ba 102B     		cmp	r3, #16
 1167 00bc 30D0     		beq	.L39
 1168              		.loc 1 344 0 discriminator 5
 1169 00be 7B88     		ldrh	r3, [r7, #2]
 1170 00c0 202B     		cmp	r3, #32
 1171 00c2 2DD0     		beq	.L39
 1172              		.loc 1 344 0 discriminator 6
 1173 00c4 7B88     		ldrh	r3, [r7, #2]
 1174 00c6 402B     		cmp	r3, #64
 1175 00c8 2AD0     		beq	.L39
 1176              		.loc 1 344 0 discriminator 7
 1177 00ca 7B88     		ldrh	r3, [r7, #2]
 1178 00cc 802B     		cmp	r3, #128
 1179 00ce 27D0     		beq	.L39
 1180              		.loc 1 344 0 discriminator 8
 1181 00d0 7B88     		ldrh	r3, [r7, #2]
 1182 00d2 B3F5807F 		cmp	r3, #256
 1183 00d6 23D0     		beq	.L39
 1184              		.loc 1 344 0 discriminator 9
 1185 00d8 7B88     		ldrh	r3, [r7, #2]
 1186 00da B3F5007F 		cmp	r3, #512
 1187 00de 1FD0     		beq	.L39
 1188              		.loc 1 344 0 discriminator 10
 1189 00e0 7B88     		ldrh	r3, [r7, #2]
 1190 00e2 B3F5806F 		cmp	r3, #1024
 1191 00e6 1BD0     		beq	.L39
 1192              		.loc 1 344 0 discriminator 11
 1193 00e8 7B88     		ldrh	r3, [r7, #2]
 1194 00ea B3F5006F 		cmp	r3, #2048
 1195 00ee 17D0     		beq	.L39
 1196              		.loc 1 344 0 discriminator 12
 1197 00f0 7B88     		ldrh	r3, [r7, #2]
 1198 00f2 B3F5805F 		cmp	r3, #4096
 1199 00f6 13D0     		beq	.L39
 1200              		.loc 1 344 0 discriminator 13
 1201 00f8 7B88     		ldrh	r3, [r7, #2]
 1202 00fa B3F5005F 		cmp	r3, #8192
 1203 00fe 0FD0     		beq	.L39
 1204              		.loc 1 344 0 discriminator 14
 1205 0100 7B88     		ldrh	r3, [r7, #2]
 1206 0102 B3F5804F 		cmp	r3, #16384
 1207 0106 0BD0     		beq	.L39
 1208              		.loc 1 344 0 discriminator 15
 1209 0108 7B88     		ldrh	r3, [r7, #2]
 1210 010a B3F5004F 		cmp	r3, #32768
 1211 010e 07D0     		beq	.L39
 1212              		.loc 1 344 0 discriminator 16
 1213 0110 40F20000 		movw	r0, #:lower16:.LC0
 1214 0114 C0F20000 		movt	r0, #:upper16:.LC0
 1215 0118 4FF4AC71 		mov	r1, #344
 1216 011c FFF7FEFF 		bl	assert_failed
 1217              	.L39:
 345:App/STM32F4-Discovery/Libraries/STM32F4xx_StdPeriph_Driver/src/stm32f4xx_gpio.c **** 
 346:App/STM32F4-Discovery/Libraries/STM32F4xx_StdPeriph_Driver/src/stm32f4xx_gpio.c ****   if ((GPIOx->ODR & GPIO_Pin) != (uint32_t)Bit_RESET)
 1218              		.loc 1 346 0 is_stmt 1
 1219 0120 7B68     		ldr	r3, [r7, #4]
 1220 0122 5A69     		ldr	r2, [r3, #20]
 1221 0124 7B88     		ldrh	r3, [r7, #2]
 1222 0126 1340     		ands	r3, r3, r2
 1223 0128 002B     		cmp	r3, #0
 1224 012a 03D0     		beq	.L40
 347:App/STM32F4-Discovery/Libraries/STM32F4xx_StdPeriph_Driver/src/stm32f4xx_gpio.c ****   {
 348:App/STM32F4-Discovery/Libraries/STM32F4xx_StdPeriph_Driver/src/stm32f4xx_gpio.c ****     bitstatus = (uint8_t)Bit_SET;
 1225              		.loc 1 348 0
 1226 012c 4FF00103 		mov	r3, #1
 1227 0130 FB73     		strb	r3, [r7, #15]
 1228 0132 02E0     		b	.L41
 1229              	.L40:
 349:App/STM32F4-Discovery/Libraries/STM32F4xx_StdPeriph_Driver/src/stm32f4xx_gpio.c ****   }
 350:App/STM32F4-Discovery/Libraries/STM32F4xx_StdPeriph_Driver/src/stm32f4xx_gpio.c ****   else
 351:App/STM32F4-Discovery/Libraries/STM32F4xx_StdPeriph_Driver/src/stm32f4xx_gpio.c ****   {
 352:App/STM32F4-Discovery/Libraries/STM32F4xx_StdPeriph_Driver/src/stm32f4xx_gpio.c ****     bitstatus = (uint8_t)Bit_RESET;
 1230              		.loc 1 352 0
 1231 0134 4FF00003 		mov	r3, #0
 1232 0138 FB73     		strb	r3, [r7, #15]
 1233              	.L41:
 353:App/STM32F4-Discovery/Libraries/STM32F4xx_StdPeriph_Driver/src/stm32f4xx_gpio.c ****   }
 354:App/STM32F4-Discovery/Libraries/STM32F4xx_StdPeriph_Driver/src/stm32f4xx_gpio.c ****   return bitstatus;
 1234              		.loc 1 354 0
 1235 013a FB7B     		ldrb	r3, [r7, #15]	@ zero_extendqisi2
 355:App/STM32F4-Discovery/Libraries/STM32F4xx_StdPeriph_Driver/src/stm32f4xx_gpio.c **** }
 1236              		.loc 1 355 0
 1237 013c 1846     		mov	r0, r3
 1238 013e 07F11007 		add	r7, r7, #16
 1239 0142 BD46     		mov	sp, r7
 1240 0144 80BD     		pop	{r7, pc}
 1241              		.cfi_endproc
 1242              	.LFE116:
 1244 0146 00BF     		.section	.text.GPIO_ReadOutputData,"ax",%progbits
 1245              		.align	2
 1246              		.global	GPIO_ReadOutputData
 1247              		.thumb
 1248              		.thumb_func
 1250              	GPIO_ReadOutputData:
 1251              	.LFB117:
 356:App/STM32F4-Discovery/Libraries/STM32F4xx_StdPeriph_Driver/src/stm32f4xx_gpio.c **** 
 357:App/STM32F4-Discovery/Libraries/STM32F4xx_StdPeriph_Driver/src/stm32f4xx_gpio.c **** /**
 358:App/STM32F4-Discovery/Libraries/STM32F4xx_StdPeriph_Driver/src/stm32f4xx_gpio.c ****   * @brief  Reads the specified GPIO output data port.
 359:App/STM32F4-Discovery/Libraries/STM32F4xx_StdPeriph_Driver/src/stm32f4xx_gpio.c ****   * @param  GPIOx: where x can be (A..I) to select the GPIO peripheral.
 360:App/STM32F4-Discovery/Libraries/STM32F4xx_StdPeriph_Driver/src/stm32f4xx_gpio.c ****   * @retval GPIO output data port value.
 361:App/STM32F4-Discovery/Libraries/STM32F4xx_StdPeriph_Driver/src/stm32f4xx_gpio.c ****   */
 362:App/STM32F4-Discovery/Libraries/STM32F4xx_StdPeriph_Driver/src/stm32f4xx_gpio.c **** uint16_t GPIO_ReadOutputData(GPIO_TypeDef* GPIOx)
 363:App/STM32F4-Discovery/Libraries/STM32F4xx_StdPeriph_Driver/src/stm32f4xx_gpio.c **** {
 1252              		.loc 1 363 0
 1253              		.cfi_startproc
 1254              		@ args = 0, pretend = 0, frame = 8
 1255              		@ frame_needed = 1, uses_anonymous_args = 0
 1256 0000 80B5     		push	{r7, lr}
 1257              	.LCFI21:
 1258              		.cfi_def_cfa_offset 8
 1259              		.cfi_offset 7, -8
 1260              		.cfi_offset 14, -4
 1261 0002 82B0     		sub	sp, sp, #8
 1262              	.LCFI22:
 1263              		.cfi_def_cfa_offset 16
 1264 0004 00AF     		add	r7, sp, #0
 1265              	.LCFI23:
 1266              		.cfi_def_cfa_register 7
 1267 0006 7860     		str	r0, [r7, #4]
 364:App/STM32F4-Discovery/Libraries/STM32F4xx_StdPeriph_Driver/src/stm32f4xx_gpio.c ****   /* Check the parameters */
 365:App/STM32F4-Discovery/Libraries/STM32F4xx_StdPeriph_Driver/src/stm32f4xx_gpio.c ****   assert_param(IS_GPIO_ALL_PERIPH(GPIOx));
 1268              		.loc 1 365 0
 1269 0008 7A68     		ldr	r2, [r7, #4]
 1270 000a 4FF00003 		mov	r3, #0
 1271 000e C4F20203 		movt	r3, 16386
 1272 0012 9A42     		cmp	r2, r3
 1273 0014 3FD0     		beq	.L44
 1274              		.loc 1 365 0 is_stmt 0 discriminator 1
 1275 0016 7A68     		ldr	r2, [r7, #4]
 1276 0018 4FF48063 		mov	r3, #1024
 1277 001c C4F20203 		movt	r3, 16386
 1278 0020 9A42     		cmp	r2, r3
 1279 0022 38D0     		beq	.L44
 1280              		.loc 1 365 0 discriminator 2
 1281 0024 7A68     		ldr	r2, [r7, #4]
 1282 0026 4FF40063 		mov	r3, #2048
 1283 002a C4F20203 		movt	r3, 16386
 1284 002e 9A42     		cmp	r2, r3
 1285 0030 31D0     		beq	.L44
 1286              		.loc 1 365 0 discriminator 3
 1287 0032 7A68     		ldr	r2, [r7, #4]
 1288 0034 4FF44063 		mov	r3, #3072
 1289 0038 C4F20203 		movt	r3, 16386
 1290 003c 9A42     		cmp	r2, r3
 1291 003e 2AD0     		beq	.L44
 1292              		.loc 1 365 0 discriminator 4
 1293 0040 7A68     		ldr	r2, [r7, #4]
 1294 0042 4FF48053 		mov	r3, #4096
 1295 0046 C4F20203 		movt	r3, 16386
 1296 004a 9A42     		cmp	r2, r3
 1297 004c 23D0     		beq	.L44
 1298              		.loc 1 365 0 discriminator 5
 1299 004e 7A68     		ldr	r2, [r7, #4]
 1300 0050 4FF4A053 		mov	r3, #5120
 1301 0054 C4F20203 		movt	r3, 16386
 1302 0058 9A42     		cmp	r2, r3
 1303 005a 1CD0     		beq	.L44
 1304              		.loc 1 365 0 discriminator 6
 1305 005c 7A68     		ldr	r2, [r7, #4]
 1306 005e 4FF4C053 		mov	r3, #6144
 1307 0062 C4F20203 		movt	r3, 16386
 1308 0066 9A42     		cmp	r2, r3
 1309 0068 15D0     		beq	.L44
 1310              		.loc 1 365 0 discriminator 7
 1311 006a 7A68     		ldr	r2, [r7, #4]
 1312 006c 4FF4E053 		mov	r3, #7168
 1313 0070 C4F20203 		movt	r3, 16386
 1314 0074 9A42     		cmp	r2, r3
 1315 0076 0ED0     		beq	.L44
 1316              		.loc 1 365 0 discriminator 8
 1317 0078 7A68     		ldr	r2, [r7, #4]
 1318 007a 4FF40053 		mov	r3, #8192
 1319 007e C4F20203 		movt	r3, 16386
 1320 0082 9A42     		cmp	r2, r3
 1321 0084 07D0     		beq	.L44
 1322              		.loc 1 365 0 discriminator 9
 1323 0086 40F20000 		movw	r0, #:lower16:.LC0
 1324 008a C0F20000 		movt	r0, #:upper16:.LC0
 1325 008e 40F26D11 		movw	r1, #365
 1326 0092 FFF7FEFF 		bl	assert_failed
 1327              	.L44:
 366:App/STM32F4-Discovery/Libraries/STM32F4xx_StdPeriph_Driver/src/stm32f4xx_gpio.c **** 
 367:App/STM32F4-Discovery/Libraries/STM32F4xx_StdPeriph_Driver/src/stm32f4xx_gpio.c ****   return ((uint16_t)GPIOx->ODR);
 1328              		.loc 1 367 0 is_stmt 1
 1329 0096 7B68     		ldr	r3, [r7, #4]
 1330 0098 5B69     		ldr	r3, [r3, #20]
 1331 009a 9BB2     		uxth	r3, r3
 368:App/STM32F4-Discovery/Libraries/STM32F4xx_StdPeriph_Driver/src/stm32f4xx_gpio.c **** }
 1332              		.loc 1 368 0
 1333 009c 1846     		mov	r0, r3
 1334 009e 07F10807 		add	r7, r7, #8
 1335 00a2 BD46     		mov	sp, r7
 1336 00a4 80BD     		pop	{r7, pc}
 1337              		.cfi_endproc
 1338              	.LFE117:
 1340 00a6 00BF     		.section	.text.GPIO_SetBits,"ax",%progbits
 1341              		.align	2
 1342              		.global	GPIO_SetBits
 1343              		.thumb
 1344              		.thumb_func
 1346              	GPIO_SetBits:
 1347              	.LFB118:
 369:App/STM32F4-Discovery/Libraries/STM32F4xx_StdPeriph_Driver/src/stm32f4xx_gpio.c **** 
 370:App/STM32F4-Discovery/Libraries/STM32F4xx_StdPeriph_Driver/src/stm32f4xx_gpio.c **** /**
 371:App/STM32F4-Discovery/Libraries/STM32F4xx_StdPeriph_Driver/src/stm32f4xx_gpio.c ****   * @brief  Sets the selected data port bits.
 372:App/STM32F4-Discovery/Libraries/STM32F4xx_StdPeriph_Driver/src/stm32f4xx_gpio.c ****   * @note   This functions uses GPIOx_BSRR register to allow atomic read/modify 
 373:App/STM32F4-Discovery/Libraries/STM32F4xx_StdPeriph_Driver/src/stm32f4xx_gpio.c ****   *         accesses. In this way, there is no risk of an IRQ occurring between
 374:App/STM32F4-Discovery/Libraries/STM32F4xx_StdPeriph_Driver/src/stm32f4xx_gpio.c ****   *         the read and the modify access.
 375:App/STM32F4-Discovery/Libraries/STM32F4xx_StdPeriph_Driver/src/stm32f4xx_gpio.c ****   * @param  GPIOx: where x can be (A..I) to select the GPIO peripheral.
 376:App/STM32F4-Discovery/Libraries/STM32F4xx_StdPeriph_Driver/src/stm32f4xx_gpio.c ****   * @param  GPIO_Pin: specifies the port bits to be written.
 377:App/STM32F4-Discovery/Libraries/STM32F4xx_StdPeriph_Driver/src/stm32f4xx_gpio.c ****   *          This parameter can be any combination of GPIO_Pin_x where x can be (0..15).
 378:App/STM32F4-Discovery/Libraries/STM32F4xx_StdPeriph_Driver/src/stm32f4xx_gpio.c ****   * @retval None
 379:App/STM32F4-Discovery/Libraries/STM32F4xx_StdPeriph_Driver/src/stm32f4xx_gpio.c ****   */
 380:App/STM32F4-Discovery/Libraries/STM32F4xx_StdPeriph_Driver/src/stm32f4xx_gpio.c **** void GPIO_SetBits(GPIO_TypeDef* GPIOx, uint16_t GPIO_Pin)
 381:App/STM32F4-Discovery/Libraries/STM32F4xx_StdPeriph_Driver/src/stm32f4xx_gpio.c **** {
 1348              		.loc 1 381 0
 1349              		.cfi_startproc
 1350              		@ args = 0, pretend = 0, frame = 8
 1351              		@ frame_needed = 1, uses_anonymous_args = 0
 1352 0000 80B5     		push	{r7, lr}
 1353              	.LCFI24:
 1354              		.cfi_def_cfa_offset 8
 1355              		.cfi_offset 7, -8
 1356              		.cfi_offset 14, -4
 1357 0002 82B0     		sub	sp, sp, #8
 1358              	.LCFI25:
 1359              		.cfi_def_cfa_offset 16
 1360 0004 00AF     		add	r7, sp, #0
 1361              	.LCFI26:
 1362              		.cfi_def_cfa_register 7
 1363 0006 7860     		str	r0, [r7, #4]
 1364 0008 0B46     		mov	r3, r1
 1365 000a 7B80     		strh	r3, [r7, #2]	@ movhi
 382:App/STM32F4-Discovery/Libraries/STM32F4xx_StdPeriph_Driver/src/stm32f4xx_gpio.c ****   /* Check the parameters */
 383:App/STM32F4-Discovery/Libraries/STM32F4xx_StdPeriph_Driver/src/stm32f4xx_gpio.c ****   assert_param(IS_GPIO_ALL_PERIPH(GPIOx));
 1366              		.loc 1 383 0
 1367 000c 7A68     		ldr	r2, [r7, #4]
 1368 000e 4FF00003 		mov	r3, #0
 1369 0012 C4F20203 		movt	r3, 16386
 1370 0016 9A42     		cmp	r2, r3
 1371 0018 3FD0     		beq	.L47
 1372              		.loc 1 383 0 is_stmt 0 discriminator 1
 1373 001a 7A68     		ldr	r2, [r7, #4]
 1374 001c 4FF48063 		mov	r3, #1024
 1375 0020 C4F20203 		movt	r3, 16386
 1376 0024 9A42     		cmp	r2, r3
 1377 0026 38D0     		beq	.L47
 1378              		.loc 1 383 0 discriminator 2
 1379 0028 7A68     		ldr	r2, [r7, #4]
 1380 002a 4FF40063 		mov	r3, #2048
 1381 002e C4F20203 		movt	r3, 16386
 1382 0032 9A42     		cmp	r2, r3
 1383 0034 31D0     		beq	.L47
 1384              		.loc 1 383 0 discriminator 3
 1385 0036 7A68     		ldr	r2, [r7, #4]
 1386 0038 4FF44063 		mov	r3, #3072
 1387 003c C4F20203 		movt	r3, 16386
 1388 0040 9A42     		cmp	r2, r3
 1389 0042 2AD0     		beq	.L47
 1390              		.loc 1 383 0 discriminator 4
 1391 0044 7A68     		ldr	r2, [r7, #4]
 1392 0046 4FF48053 		mov	r3, #4096
 1393 004a C4F20203 		movt	r3, 16386
 1394 004e 9A42     		cmp	r2, r3
 1395 0050 23D0     		beq	.L47
 1396              		.loc 1 383 0 discriminator 5
 1397 0052 7A68     		ldr	r2, [r7, #4]
 1398 0054 4FF4A053 		mov	r3, #5120
 1399 0058 C4F20203 		movt	r3, 16386
 1400 005c 9A42     		cmp	r2, r3
 1401 005e 1CD0     		beq	.L47
 1402              		.loc 1 383 0 discriminator 6
 1403 0060 7A68     		ldr	r2, [r7, #4]
 1404 0062 4FF4C053 		mov	r3, #6144
 1405 0066 C4F20203 		movt	r3, 16386
 1406 006a 9A42     		cmp	r2, r3
 1407 006c 15D0     		beq	.L47
 1408              		.loc 1 383 0 discriminator 7
 1409 006e 7A68     		ldr	r2, [r7, #4]
 1410 0070 4FF4E053 		mov	r3, #7168
 1411 0074 C4F20203 		movt	r3, 16386
 1412 0078 9A42     		cmp	r2, r3
 1413 007a 0ED0     		beq	.L47
 1414              		.loc 1 383 0 discriminator 8
 1415 007c 7A68     		ldr	r2, [r7, #4]
 1416 007e 4FF40053 		mov	r3, #8192
 1417 0082 C4F20203 		movt	r3, 16386
 1418 0086 9A42     		cmp	r2, r3
 1419 0088 07D0     		beq	.L47
 1420              		.loc 1 383 0 discriminator 9
 1421 008a 40F20000 		movw	r0, #:lower16:.LC0
 1422 008e C0F20000 		movt	r0, #:upper16:.LC0
 1423 0092 40F27F11 		movw	r1, #383
 1424 0096 FFF7FEFF 		bl	assert_failed
 1425              	.L47:
 384:App/STM32F4-Discovery/Libraries/STM32F4xx_StdPeriph_Driver/src/stm32f4xx_gpio.c ****   assert_param(IS_GPIO_PIN(GPIO_Pin));
 1426              		.loc 1 384 0 is_stmt 1
 1427 009a 7B88     		ldrh	r3, [r7, #2]
 1428 009c 002B     		cmp	r3, #0
 1429 009e 07D1     		bne	.L48
 1430              		.loc 1 384 0 is_stmt 0 discriminator 1
 1431 00a0 40F20000 		movw	r0, #:lower16:.LC0
 1432 00a4 C0F20000 		movt	r0, #:upper16:.LC0
 1433 00a8 4FF4C071 		mov	r1, #384
 1434 00ac FFF7FEFF 		bl	assert_failed
 1435              	.L48:
 385:App/STM32F4-Discovery/Libraries/STM32F4xx_StdPeriph_Driver/src/stm32f4xx_gpio.c **** 
 386:App/STM32F4-Discovery/Libraries/STM32F4xx_StdPeriph_Driver/src/stm32f4xx_gpio.c ****   GPIOx->BSRRL = GPIO_Pin;
 1436              		.loc 1 386 0 is_stmt 1
 1437 00b0 7B68     		ldr	r3, [r7, #4]
 1438 00b2 7A88     		ldrh	r2, [r7, #2]	@ movhi
 1439 00b4 1A83     		strh	r2, [r3, #24]	@ movhi
 387:App/STM32F4-Discovery/Libraries/STM32F4xx_StdPeriph_Driver/src/stm32f4xx_gpio.c **** }
 1440              		.loc 1 387 0
 1441 00b6 07F10807 		add	r7, r7, #8
 1442 00ba BD46     		mov	sp, r7
 1443 00bc 80BD     		pop	{r7, pc}
 1444              		.cfi_endproc
 1445              	.LFE118:
 1447 00be 00BF     		.section	.text.GPIO_ResetBits,"ax",%progbits
 1448              		.align	2
 1449              		.global	GPIO_ResetBits
 1450              		.thumb
 1451              		.thumb_func
 1453              	GPIO_ResetBits:
 1454              	.LFB119:
 388:App/STM32F4-Discovery/Libraries/STM32F4xx_StdPeriph_Driver/src/stm32f4xx_gpio.c **** 
 389:App/STM32F4-Discovery/Libraries/STM32F4xx_StdPeriph_Driver/src/stm32f4xx_gpio.c **** /**
 390:App/STM32F4-Discovery/Libraries/STM32F4xx_StdPeriph_Driver/src/stm32f4xx_gpio.c ****   * @brief  Clears the selected data port bits.
 391:App/STM32F4-Discovery/Libraries/STM32F4xx_StdPeriph_Driver/src/stm32f4xx_gpio.c ****   * @note   This functions uses GPIOx_BSRR register to allow atomic read/modify 
 392:App/STM32F4-Discovery/Libraries/STM32F4xx_StdPeriph_Driver/src/stm32f4xx_gpio.c ****   *         accesses. In this way, there is no risk of an IRQ occurring between
 393:App/STM32F4-Discovery/Libraries/STM32F4xx_StdPeriph_Driver/src/stm32f4xx_gpio.c ****   *         the read and the modify access.
 394:App/STM32F4-Discovery/Libraries/STM32F4xx_StdPeriph_Driver/src/stm32f4xx_gpio.c ****   * @param  GPIOx: where x can be (A..I) to select the GPIO peripheral.
 395:App/STM32F4-Discovery/Libraries/STM32F4xx_StdPeriph_Driver/src/stm32f4xx_gpio.c ****   * @param  GPIO_Pin: specifies the port bits to be written.
 396:App/STM32F4-Discovery/Libraries/STM32F4xx_StdPeriph_Driver/src/stm32f4xx_gpio.c ****   *          This parameter can be any combination of GPIO_Pin_x where x can be (0..15).
 397:App/STM32F4-Discovery/Libraries/STM32F4xx_StdPeriph_Driver/src/stm32f4xx_gpio.c ****   * @retval None
 398:App/STM32F4-Discovery/Libraries/STM32F4xx_StdPeriph_Driver/src/stm32f4xx_gpio.c ****   */
 399:App/STM32F4-Discovery/Libraries/STM32F4xx_StdPeriph_Driver/src/stm32f4xx_gpio.c **** void GPIO_ResetBits(GPIO_TypeDef* GPIOx, uint16_t GPIO_Pin)
 400:App/STM32F4-Discovery/Libraries/STM32F4xx_StdPeriph_Driver/src/stm32f4xx_gpio.c **** {
 1455              		.loc 1 400 0
 1456              		.cfi_startproc
 1457              		@ args = 0, pretend = 0, frame = 8
 1458              		@ frame_needed = 1, uses_anonymous_args = 0
 1459 0000 80B5     		push	{r7, lr}
 1460              	.LCFI27:
 1461              		.cfi_def_cfa_offset 8
 1462              		.cfi_offset 7, -8
 1463              		.cfi_offset 14, -4
 1464 0002 82B0     		sub	sp, sp, #8
 1465              	.LCFI28:
 1466              		.cfi_def_cfa_offset 16
 1467 0004 00AF     		add	r7, sp, #0
 1468              	.LCFI29:
 1469              		.cfi_def_cfa_register 7
 1470 0006 7860     		str	r0, [r7, #4]
 1471 0008 0B46     		mov	r3, r1
 1472 000a 7B80     		strh	r3, [r7, #2]	@ movhi
 401:App/STM32F4-Discovery/Libraries/STM32F4xx_StdPeriph_Driver/src/stm32f4xx_gpio.c ****   /* Check the parameters */
 402:App/STM32F4-Discovery/Libraries/STM32F4xx_StdPeriph_Driver/src/stm32f4xx_gpio.c ****   assert_param(IS_GPIO_ALL_PERIPH(GPIOx));
 1473              		.loc 1 402 0
 1474 000c 7A68     		ldr	r2, [r7, #4]
 1475 000e 4FF00003 		mov	r3, #0
 1476 0012 C4F20203 		movt	r3, 16386
 1477 0016 9A42     		cmp	r2, r3
 1478 0018 3FD0     		beq	.L50
 1479              		.loc 1 402 0 is_stmt 0 discriminator 1
 1480 001a 7A68     		ldr	r2, [r7, #4]
 1481 001c 4FF48063 		mov	r3, #1024
 1482 0020 C4F20203 		movt	r3, 16386
 1483 0024 9A42     		cmp	r2, r3
 1484 0026 38D0     		beq	.L50
 1485              		.loc 1 402 0 discriminator 2
 1486 0028 7A68     		ldr	r2, [r7, #4]
 1487 002a 4FF40063 		mov	r3, #2048
 1488 002e C4F20203 		movt	r3, 16386
 1489 0032 9A42     		cmp	r2, r3
 1490 0034 31D0     		beq	.L50
 1491              		.loc 1 402 0 discriminator 3
 1492 0036 7A68     		ldr	r2, [r7, #4]
 1493 0038 4FF44063 		mov	r3, #3072
 1494 003c C4F20203 		movt	r3, 16386
 1495 0040 9A42     		cmp	r2, r3
 1496 0042 2AD0     		beq	.L50
 1497              		.loc 1 402 0 discriminator 4
 1498 0044 7A68     		ldr	r2, [r7, #4]
 1499 0046 4FF48053 		mov	r3, #4096
 1500 004a C4F20203 		movt	r3, 16386
 1501 004e 9A42     		cmp	r2, r3
 1502 0050 23D0     		beq	.L50
 1503              		.loc 1 402 0 discriminator 5
 1504 0052 7A68     		ldr	r2, [r7, #4]
 1505 0054 4FF4A053 		mov	r3, #5120
 1506 0058 C4F20203 		movt	r3, 16386
 1507 005c 9A42     		cmp	r2, r3
 1508 005e 1CD0     		beq	.L50
 1509              		.loc 1 402 0 discriminator 6
 1510 0060 7A68     		ldr	r2, [r7, #4]
 1511 0062 4FF4C053 		mov	r3, #6144
 1512 0066 C4F20203 		movt	r3, 16386
 1513 006a 9A42     		cmp	r2, r3
 1514 006c 15D0     		beq	.L50
 1515              		.loc 1 402 0 discriminator 7
 1516 006e 7A68     		ldr	r2, [r7, #4]
 1517 0070 4FF4E053 		mov	r3, #7168
 1518 0074 C4F20203 		movt	r3, 16386
 1519 0078 9A42     		cmp	r2, r3
 1520 007a 0ED0     		beq	.L50
 1521              		.loc 1 402 0 discriminator 8
 1522 007c 7A68     		ldr	r2, [r7, #4]
 1523 007e 4FF40053 		mov	r3, #8192
 1524 0082 C4F20203 		movt	r3, 16386
 1525 0086 9A42     		cmp	r2, r3
 1526 0088 07D0     		beq	.L50
 1527              		.loc 1 402 0 discriminator 9
 1528 008a 40F20000 		movw	r0, #:lower16:.LC0
 1529 008e C0F20000 		movt	r0, #:upper16:.LC0
 1530 0092 4FF4C971 		mov	r1, #402
 1531 0096 FFF7FEFF 		bl	assert_failed
 1532              	.L50:
 403:App/STM32F4-Discovery/Libraries/STM32F4xx_StdPeriph_Driver/src/stm32f4xx_gpio.c ****   assert_param(IS_GPIO_PIN(GPIO_Pin));
 1533              		.loc 1 403 0 is_stmt 1
 1534 009a 7B88     		ldrh	r3, [r7, #2]
 1535 009c 002B     		cmp	r3, #0
 1536 009e 07D1     		bne	.L51
 1537              		.loc 1 403 0 is_stmt 0 discriminator 1
 1538 00a0 40F20000 		movw	r0, #:lower16:.LC0
 1539 00a4 C0F20000 		movt	r0, #:upper16:.LC0
 1540 00a8 40F29311 		movw	r1, #403
 1541 00ac FFF7FEFF 		bl	assert_failed
 1542              	.L51:
 404:App/STM32F4-Discovery/Libraries/STM32F4xx_StdPeriph_Driver/src/stm32f4xx_gpio.c **** 
 405:App/STM32F4-Discovery/Libraries/STM32F4xx_StdPeriph_Driver/src/stm32f4xx_gpio.c ****   GPIOx->BSRRH = GPIO_Pin;
 1543              		.loc 1 405 0 is_stmt 1
 1544 00b0 7B68     		ldr	r3, [r7, #4]
 1545 00b2 7A88     		ldrh	r2, [r7, #2]	@ movhi
 1546 00b4 5A83     		strh	r2, [r3, #26]	@ movhi
 406:App/STM32F4-Discovery/Libraries/STM32F4xx_StdPeriph_Driver/src/stm32f4xx_gpio.c **** }
 1547              		.loc 1 406 0
 1548 00b6 07F10807 		add	r7, r7, #8
 1549 00ba BD46     		mov	sp, r7
 1550 00bc 80BD     		pop	{r7, pc}
 1551              		.cfi_endproc
 1552              	.LFE119:
 1554 00be 00BF     		.section	.text.GPIO_WriteBit,"ax",%progbits
 1555              		.align	2
 1556              		.global	GPIO_WriteBit
 1557              		.thumb
 1558              		.thumb_func
 1560              	GPIO_WriteBit:
 1561              	.LFB120:
 407:App/STM32F4-Discovery/Libraries/STM32F4xx_StdPeriph_Driver/src/stm32f4xx_gpio.c **** 
 408:App/STM32F4-Discovery/Libraries/STM32F4xx_StdPeriph_Driver/src/stm32f4xx_gpio.c **** /**
 409:App/STM32F4-Discovery/Libraries/STM32F4xx_StdPeriph_Driver/src/stm32f4xx_gpio.c ****   * @brief  Sets or clears the selected data port bit.
 410:App/STM32F4-Discovery/Libraries/STM32F4xx_StdPeriph_Driver/src/stm32f4xx_gpio.c ****   * @param  GPIOx: where x can be (A..I) to select the GPIO peripheral.
 411:App/STM32F4-Discovery/Libraries/STM32F4xx_StdPeriph_Driver/src/stm32f4xx_gpio.c ****   * @param  GPIO_Pin: specifies the port bit to be written.
 412:App/STM32F4-Discovery/Libraries/STM32F4xx_StdPeriph_Driver/src/stm32f4xx_gpio.c ****   *          This parameter can be one of GPIO_Pin_x where x can be (0..15).
 413:App/STM32F4-Discovery/Libraries/STM32F4xx_StdPeriph_Driver/src/stm32f4xx_gpio.c ****   * @param  BitVal: specifies the value to be written to the selected bit.
 414:App/STM32F4-Discovery/Libraries/STM32F4xx_StdPeriph_Driver/src/stm32f4xx_gpio.c ****   *          This parameter can be one of the BitAction enum values:
 415:App/STM32F4-Discovery/Libraries/STM32F4xx_StdPeriph_Driver/src/stm32f4xx_gpio.c ****   *            @arg Bit_RESET: to clear the port pin
 416:App/STM32F4-Discovery/Libraries/STM32F4xx_StdPeriph_Driver/src/stm32f4xx_gpio.c ****   *            @arg Bit_SET: to set the port pin
 417:App/STM32F4-Discovery/Libraries/STM32F4xx_StdPeriph_Driver/src/stm32f4xx_gpio.c ****   * @retval None
 418:App/STM32F4-Discovery/Libraries/STM32F4xx_StdPeriph_Driver/src/stm32f4xx_gpio.c ****   */
 419:App/STM32F4-Discovery/Libraries/STM32F4xx_StdPeriph_Driver/src/stm32f4xx_gpio.c **** void GPIO_WriteBit(GPIO_TypeDef* GPIOx, uint16_t GPIO_Pin, BitAction BitVal)
 420:App/STM32F4-Discovery/Libraries/STM32F4xx_StdPeriph_Driver/src/stm32f4xx_gpio.c **** {
 1562              		.loc 1 420 0
 1563              		.cfi_startproc
 1564              		@ args = 0, pretend = 0, frame = 8
 1565              		@ frame_needed = 1, uses_anonymous_args = 0
 1566 0000 80B5     		push	{r7, lr}
 1567              	.LCFI30:
 1568              		.cfi_def_cfa_offset 8
 1569              		.cfi_offset 7, -8
 1570              		.cfi_offset 14, -4
 1571 0002 82B0     		sub	sp, sp, #8
 1572              	.LCFI31:
 1573              		.cfi_def_cfa_offset 16
 1574 0004 00AF     		add	r7, sp, #0
 1575              	.LCFI32:
 1576              		.cfi_def_cfa_register 7
 1577 0006 7860     		str	r0, [r7, #4]
 1578 0008 1346     		mov	r3, r2
 1579 000a 0A46     		mov	r2, r1	@ movhi
 1580 000c 7A80     		strh	r2, [r7, #2]	@ movhi
 1581 000e 7B70     		strb	r3, [r7, #1]
 421:App/STM32F4-Discovery/Libraries/STM32F4xx_StdPeriph_Driver/src/stm32f4xx_gpio.c ****   /* Check the parameters */
 422:App/STM32F4-Discovery/Libraries/STM32F4xx_StdPeriph_Driver/src/stm32f4xx_gpio.c ****   assert_param(IS_GPIO_ALL_PERIPH(GPIOx));
 1582              		.loc 1 422 0
 1583 0010 7A68     		ldr	r2, [r7, #4]
 1584 0012 4FF00003 		mov	r3, #0
 1585 0016 C4F20203 		movt	r3, 16386
 1586 001a 9A42     		cmp	r2, r3
 1587 001c 3FD0     		beq	.L53
 1588              		.loc 1 422 0 is_stmt 0 discriminator 1
 1589 001e 7A68     		ldr	r2, [r7, #4]
 1590 0020 4FF48063 		mov	r3, #1024
 1591 0024 C4F20203 		movt	r3, 16386
 1592 0028 9A42     		cmp	r2, r3
 1593 002a 38D0     		beq	.L53
 1594              		.loc 1 422 0 discriminator 2
 1595 002c 7A68     		ldr	r2, [r7, #4]
 1596 002e 4FF40063 		mov	r3, #2048
 1597 0032 C4F20203 		movt	r3, 16386
 1598 0036 9A42     		cmp	r2, r3
 1599 0038 31D0     		beq	.L53
 1600              		.loc 1 422 0 discriminator 3
 1601 003a 7A68     		ldr	r2, [r7, #4]
 1602 003c 4FF44063 		mov	r3, #3072
 1603 0040 C4F20203 		movt	r3, 16386
 1604 0044 9A42     		cmp	r2, r3
 1605 0046 2AD0     		beq	.L53
 1606              		.loc 1 422 0 discriminator 4
 1607 0048 7A68     		ldr	r2, [r7, #4]
 1608 004a 4FF48053 		mov	r3, #4096
 1609 004e C4F20203 		movt	r3, 16386
 1610 0052 9A42     		cmp	r2, r3
 1611 0054 23D0     		beq	.L53
 1612              		.loc 1 422 0 discriminator 5
 1613 0056 7A68     		ldr	r2, [r7, #4]
 1614 0058 4FF4A053 		mov	r3, #5120
 1615 005c C4F20203 		movt	r3, 16386
 1616 0060 9A42     		cmp	r2, r3
 1617 0062 1CD0     		beq	.L53
 1618              		.loc 1 422 0 discriminator 6
 1619 0064 7A68     		ldr	r2, [r7, #4]
 1620 0066 4FF4C053 		mov	r3, #6144
 1621 006a C4F20203 		movt	r3, 16386
 1622 006e 9A42     		cmp	r2, r3
 1623 0070 15D0     		beq	.L53
 1624              		.loc 1 422 0 discriminator 7
 1625 0072 7A68     		ldr	r2, [r7, #4]
 1626 0074 4FF4E053 		mov	r3, #7168
 1627 0078 C4F20203 		movt	r3, 16386
 1628 007c 9A42     		cmp	r2, r3
 1629 007e 0ED0     		beq	.L53
 1630              		.loc 1 422 0 discriminator 8
 1631 0080 7A68     		ldr	r2, [r7, #4]
 1632 0082 4FF40053 		mov	r3, #8192
 1633 0086 C4F20203 		movt	r3, 16386
 1634 008a 9A42     		cmp	r2, r3
 1635 008c 07D0     		beq	.L53
 1636              		.loc 1 422 0 discriminator 9
 1637 008e 40F20000 		movw	r0, #:lower16:.LC0
 1638 0092 C0F20000 		movt	r0, #:upper16:.LC0
 1639 0096 4FF4D371 		mov	r1, #422
 1640 009a FFF7FEFF 		bl	assert_failed
 1641              	.L53:
 423:App/STM32F4-Discovery/Libraries/STM32F4xx_StdPeriph_Driver/src/stm32f4xx_gpio.c ****   assert_param(IS_GET_GPIO_PIN(GPIO_Pin));
 1642              		.loc 1 423 0 is_stmt 1
 1643 009e 7B88     		ldrh	r3, [r7, #2]
 1644 00a0 012B     		cmp	r3, #1
 1645 00a2 3CD0     		beq	.L54
 1646              		.loc 1 423 0 is_stmt 0 discriminator 1
 1647 00a4 7B88     		ldrh	r3, [r7, #2]
 1648 00a6 022B     		cmp	r3, #2
 1649 00a8 39D0     		beq	.L54
 1650              		.loc 1 423 0 discriminator 2
 1651 00aa 7B88     		ldrh	r3, [r7, #2]
 1652 00ac 042B     		cmp	r3, #4
 1653 00ae 36D0     		beq	.L54
 1654              		.loc 1 423 0 discriminator 3
 1655 00b0 7B88     		ldrh	r3, [r7, #2]
 1656 00b2 082B     		cmp	r3, #8
 1657 00b4 33D0     		beq	.L54
 1658              		.loc 1 423 0 discriminator 4
 1659 00b6 7B88     		ldrh	r3, [r7, #2]
 1660 00b8 102B     		cmp	r3, #16
 1661 00ba 30D0     		beq	.L54
 1662              		.loc 1 423 0 discriminator 5
 1663 00bc 7B88     		ldrh	r3, [r7, #2]
 1664 00be 202B     		cmp	r3, #32
 1665 00c0 2DD0     		beq	.L54
 1666              		.loc 1 423 0 discriminator 6
 1667 00c2 7B88     		ldrh	r3, [r7, #2]
 1668 00c4 402B     		cmp	r3, #64
 1669 00c6 2AD0     		beq	.L54
 1670              		.loc 1 423 0 discriminator 7
 1671 00c8 7B88     		ldrh	r3, [r7, #2]
 1672 00ca 802B     		cmp	r3, #128
 1673 00cc 27D0     		beq	.L54
 1674              		.loc 1 423 0 discriminator 8
 1675 00ce 7B88     		ldrh	r3, [r7, #2]
 1676 00d0 B3F5807F 		cmp	r3, #256
 1677 00d4 23D0     		beq	.L54
 1678              		.loc 1 423 0 discriminator 9
 1679 00d6 7B88     		ldrh	r3, [r7, #2]
 1680 00d8 B3F5007F 		cmp	r3, #512
 1681 00dc 1FD0     		beq	.L54
 1682              		.loc 1 423 0 discriminator 10
 1683 00de 7B88     		ldrh	r3, [r7, #2]
 1684 00e0 B3F5806F 		cmp	r3, #1024
 1685 00e4 1BD0     		beq	.L54
 1686              		.loc 1 423 0 discriminator 11
 1687 00e6 7B88     		ldrh	r3, [r7, #2]
 1688 00e8 B3F5006F 		cmp	r3, #2048
 1689 00ec 17D0     		beq	.L54
 1690              		.loc 1 423 0 discriminator 12
 1691 00ee 7B88     		ldrh	r3, [r7, #2]
 1692 00f0 B3F5805F 		cmp	r3, #4096
 1693 00f4 13D0     		beq	.L54
 1694              		.loc 1 423 0 discriminator 13
 1695 00f6 7B88     		ldrh	r3, [r7, #2]
 1696 00f8 B3F5005F 		cmp	r3, #8192
 1697 00fc 0FD0     		beq	.L54
 1698              		.loc 1 423 0 discriminator 14
 1699 00fe 7B88     		ldrh	r3, [r7, #2]
 1700 0100 B3F5804F 		cmp	r3, #16384
 1701 0104 0BD0     		beq	.L54
 1702              		.loc 1 423 0 discriminator 15
 1703 0106 7B88     		ldrh	r3, [r7, #2]
 1704 0108 B3F5004F 		cmp	r3, #32768
 1705 010c 07D0     		beq	.L54
 1706              		.loc 1 423 0 discriminator 16
 1707 010e 40F20000 		movw	r0, #:lower16:.LC0
 1708 0112 C0F20000 		movt	r0, #:upper16:.LC0
 1709 0116 40F2A711 		movw	r1, #423
 1710 011a FFF7FEFF 		bl	assert_failed
 1711              	.L54:
 424:App/STM32F4-Discovery/Libraries/STM32F4xx_StdPeriph_Driver/src/stm32f4xx_gpio.c ****   assert_param(IS_GPIO_BIT_ACTION(BitVal));
 1712              		.loc 1 424 0 is_stmt 1
 1713 011e 7B78     		ldrb	r3, [r7, #1]	@ zero_extendqisi2
 1714 0120 002B     		cmp	r3, #0
 1715 0122 0AD0     		beq	.L55
 1716              		.loc 1 424 0 is_stmt 0 discriminator 1
 1717 0124 7B78     		ldrb	r3, [r7, #1]	@ zero_extendqisi2
 1718 0126 012B     		cmp	r3, #1
 1719 0128 07D0     		beq	.L55
 1720              		.loc 1 424 0 discriminator 2
 1721 012a 40F20000 		movw	r0, #:lower16:.LC0
 1722 012e C0F20000 		movt	r0, #:upper16:.LC0
 1723 0132 4FF4D471 		mov	r1, #424
 1724 0136 FFF7FEFF 		bl	assert_failed
 1725              	.L55:
 425:App/STM32F4-Discovery/Libraries/STM32F4xx_StdPeriph_Driver/src/stm32f4xx_gpio.c **** 
 426:App/STM32F4-Discovery/Libraries/STM32F4xx_StdPeriph_Driver/src/stm32f4xx_gpio.c ****   if (BitVal != Bit_RESET)
 1726              		.loc 1 426 0 is_stmt 1
 1727 013a 7B78     		ldrb	r3, [r7, #1]	@ zero_extendqisi2
 1728 013c 002B     		cmp	r3, #0
 1729 013e 03D0     		beq	.L56
 427:App/STM32F4-Discovery/Libraries/STM32F4xx_StdPeriph_Driver/src/stm32f4xx_gpio.c ****   {
 428:App/STM32F4-Discovery/Libraries/STM32F4xx_StdPeriph_Driver/src/stm32f4xx_gpio.c ****     GPIOx->BSRRL = GPIO_Pin;
 1730              		.loc 1 428 0
 1731 0140 7B68     		ldr	r3, [r7, #4]
 1732 0142 7A88     		ldrh	r2, [r7, #2]	@ movhi
 1733 0144 1A83     		strh	r2, [r3, #24]	@ movhi
 1734 0146 02E0     		b	.L52
 1735              	.L56:
 429:App/STM32F4-Discovery/Libraries/STM32F4xx_StdPeriph_Driver/src/stm32f4xx_gpio.c ****   }
 430:App/STM32F4-Discovery/Libraries/STM32F4xx_StdPeriph_Driver/src/stm32f4xx_gpio.c ****   else
 431:App/STM32F4-Discovery/Libraries/STM32F4xx_StdPeriph_Driver/src/stm32f4xx_gpio.c ****   {
 432:App/STM32F4-Discovery/Libraries/STM32F4xx_StdPeriph_Driver/src/stm32f4xx_gpio.c ****     GPIOx->BSRRH = GPIO_Pin ;
 1736              		.loc 1 432 0
 1737 0148 7B68     		ldr	r3, [r7, #4]
 1738 014a 7A88     		ldrh	r2, [r7, #2]	@ movhi
 1739 014c 5A83     		strh	r2, [r3, #26]	@ movhi
 1740              	.L52:
 433:App/STM32F4-Discovery/Libraries/STM32F4xx_StdPeriph_Driver/src/stm32f4xx_gpio.c ****   }
 434:App/STM32F4-Discovery/Libraries/STM32F4xx_StdPeriph_Driver/src/stm32f4xx_gpio.c **** }
 1741              		.loc 1 434 0
 1742 014e 07F10807 		add	r7, r7, #8
 1743 0152 BD46     		mov	sp, r7
 1744 0154 80BD     		pop	{r7, pc}
 1745              		.cfi_endproc
 1746              	.LFE120:
 1748 0156 00BF     		.section	.text.GPIO_Write,"ax",%progbits
 1749              		.align	2
 1750              		.global	GPIO_Write
 1751              		.thumb
 1752              		.thumb_func
 1754              	GPIO_Write:
 1755              	.LFB121:
 435:App/STM32F4-Discovery/Libraries/STM32F4xx_StdPeriph_Driver/src/stm32f4xx_gpio.c **** 
 436:App/STM32F4-Discovery/Libraries/STM32F4xx_StdPeriph_Driver/src/stm32f4xx_gpio.c **** /**
 437:App/STM32F4-Discovery/Libraries/STM32F4xx_StdPeriph_Driver/src/stm32f4xx_gpio.c ****   * @brief  Writes data to the specified GPIO data port.
 438:App/STM32F4-Discovery/Libraries/STM32F4xx_StdPeriph_Driver/src/stm32f4xx_gpio.c ****   * @param  GPIOx: where x can be (A..I) to select the GPIO peripheral.
 439:App/STM32F4-Discovery/Libraries/STM32F4xx_StdPeriph_Driver/src/stm32f4xx_gpio.c ****   * @param  PortVal: specifies the value to be written to the port output data register.
 440:App/STM32F4-Discovery/Libraries/STM32F4xx_StdPeriph_Driver/src/stm32f4xx_gpio.c ****   * @retval None
 441:App/STM32F4-Discovery/Libraries/STM32F4xx_StdPeriph_Driver/src/stm32f4xx_gpio.c ****   */
 442:App/STM32F4-Discovery/Libraries/STM32F4xx_StdPeriph_Driver/src/stm32f4xx_gpio.c **** void GPIO_Write(GPIO_TypeDef* GPIOx, uint16_t PortVal)
 443:App/STM32F4-Discovery/Libraries/STM32F4xx_StdPeriph_Driver/src/stm32f4xx_gpio.c **** {
 1756              		.loc 1 443 0
 1757              		.cfi_startproc
 1758              		@ args = 0, pretend = 0, frame = 8
 1759              		@ frame_needed = 1, uses_anonymous_args = 0
 1760 0000 80B5     		push	{r7, lr}
 1761              	.LCFI33:
 1762              		.cfi_def_cfa_offset 8
 1763              		.cfi_offset 7, -8
 1764              		.cfi_offset 14, -4
 1765 0002 82B0     		sub	sp, sp, #8
 1766              	.LCFI34:
 1767              		.cfi_def_cfa_offset 16
 1768 0004 00AF     		add	r7, sp, #0
 1769              	.LCFI35:
 1770              		.cfi_def_cfa_register 7
 1771 0006 7860     		str	r0, [r7, #4]
 1772 0008 0B46     		mov	r3, r1
 1773 000a 7B80     		strh	r3, [r7, #2]	@ movhi
 444:App/STM32F4-Discovery/Libraries/STM32F4xx_StdPeriph_Driver/src/stm32f4xx_gpio.c ****   /* Check the parameters */
 445:App/STM32F4-Discovery/Libraries/STM32F4xx_StdPeriph_Driver/src/stm32f4xx_gpio.c ****   assert_param(IS_GPIO_ALL_PERIPH(GPIOx));
 1774              		.loc 1 445 0
 1775 000c 7A68     		ldr	r2, [r7, #4]
 1776 000e 4FF00003 		mov	r3, #0
 1777 0012 C4F20203 		movt	r3, 16386
 1778 0016 9A42     		cmp	r2, r3
 1779 0018 3FD0     		beq	.L59
 1780              		.loc 1 445 0 is_stmt 0 discriminator 1
 1781 001a 7A68     		ldr	r2, [r7, #4]
 1782 001c 4FF48063 		mov	r3, #1024
 1783 0020 C4F20203 		movt	r3, 16386
 1784 0024 9A42     		cmp	r2, r3
 1785 0026 38D0     		beq	.L59
 1786              		.loc 1 445 0 discriminator 2
 1787 0028 7A68     		ldr	r2, [r7, #4]
 1788 002a 4FF40063 		mov	r3, #2048
 1789 002e C4F20203 		movt	r3, 16386
 1790 0032 9A42     		cmp	r2, r3
 1791 0034 31D0     		beq	.L59
 1792              		.loc 1 445 0 discriminator 3
 1793 0036 7A68     		ldr	r2, [r7, #4]
 1794 0038 4FF44063 		mov	r3, #3072
 1795 003c C4F20203 		movt	r3, 16386
 1796 0040 9A42     		cmp	r2, r3
 1797 0042 2AD0     		beq	.L59
 1798              		.loc 1 445 0 discriminator 4
 1799 0044 7A68     		ldr	r2, [r7, #4]
 1800 0046 4FF48053 		mov	r3, #4096
 1801 004a C4F20203 		movt	r3, 16386
 1802 004e 9A42     		cmp	r2, r3
 1803 0050 23D0     		beq	.L59
 1804              		.loc 1 445 0 discriminator 5
 1805 0052 7A68     		ldr	r2, [r7, #4]
 1806 0054 4FF4A053 		mov	r3, #5120
 1807 0058 C4F20203 		movt	r3, 16386
 1808 005c 9A42     		cmp	r2, r3
 1809 005e 1CD0     		beq	.L59
 1810              		.loc 1 445 0 discriminator 6
 1811 0060 7A68     		ldr	r2, [r7, #4]
 1812 0062 4FF4C053 		mov	r3, #6144
 1813 0066 C4F20203 		movt	r3, 16386
 1814 006a 9A42     		cmp	r2, r3
 1815 006c 15D0     		beq	.L59
 1816              		.loc 1 445 0 discriminator 7
 1817 006e 7A68     		ldr	r2, [r7, #4]
 1818 0070 4FF4E053 		mov	r3, #7168
 1819 0074 C4F20203 		movt	r3, 16386
 1820 0078 9A42     		cmp	r2, r3
 1821 007a 0ED0     		beq	.L59
 1822              		.loc 1 445 0 discriminator 8
 1823 007c 7A68     		ldr	r2, [r7, #4]
 1824 007e 4FF40053 		mov	r3, #8192
 1825 0082 C4F20203 		movt	r3, 16386
 1826 0086 9A42     		cmp	r2, r3
 1827 0088 07D0     		beq	.L59
 1828              		.loc 1 445 0 discriminator 9
 1829 008a 40F20000 		movw	r0, #:lower16:.LC0
 1830 008e C0F20000 		movt	r0, #:upper16:.LC0
 1831 0092 40F2BD11 		movw	r1, #445
 1832 0096 FFF7FEFF 		bl	assert_failed
 1833              	.L59:
 446:App/STM32F4-Discovery/Libraries/STM32F4xx_StdPeriph_Driver/src/stm32f4xx_gpio.c **** 
 447:App/STM32F4-Discovery/Libraries/STM32F4xx_StdPeriph_Driver/src/stm32f4xx_gpio.c ****   GPIOx->ODR = PortVal;
 1834              		.loc 1 447 0 is_stmt 1
 1835 009a 7A88     		ldrh	r2, [r7, #2]
 1836 009c 7B68     		ldr	r3, [r7, #4]
 1837 009e 5A61     		str	r2, [r3, #20]
 448:App/STM32F4-Discovery/Libraries/STM32F4xx_StdPeriph_Driver/src/stm32f4xx_gpio.c **** }
 1838              		.loc 1 448 0
 1839 00a0 07F10807 		add	r7, r7, #8
 1840 00a4 BD46     		mov	sp, r7
 1841 00a6 80BD     		pop	{r7, pc}
 1842              		.cfi_endproc
 1843              	.LFE121:
 1845              		.section	.text.GPIO_ToggleBits,"ax",%progbits
 1846              		.align	2
 1847              		.global	GPIO_ToggleBits
 1848              		.thumb
 1849              		.thumb_func
 1851              	GPIO_ToggleBits:
 1852              	.LFB122:
 449:App/STM32F4-Discovery/Libraries/STM32F4xx_StdPeriph_Driver/src/stm32f4xx_gpio.c **** 
 450:App/STM32F4-Discovery/Libraries/STM32F4xx_StdPeriph_Driver/src/stm32f4xx_gpio.c **** /**
 451:App/STM32F4-Discovery/Libraries/STM32F4xx_StdPeriph_Driver/src/stm32f4xx_gpio.c ****   * @brief  Toggles the specified GPIO pins..
 452:App/STM32F4-Discovery/Libraries/STM32F4xx_StdPeriph_Driver/src/stm32f4xx_gpio.c ****   * @param  GPIOx: where x can be (A..I) to select the GPIO peripheral.
 453:App/STM32F4-Discovery/Libraries/STM32F4xx_StdPeriph_Driver/src/stm32f4xx_gpio.c ****   * @param  GPIO_Pin: Specifies the pins to be toggled.
 454:App/STM32F4-Discovery/Libraries/STM32F4xx_StdPeriph_Driver/src/stm32f4xx_gpio.c ****   * @retval None
 455:App/STM32F4-Discovery/Libraries/STM32F4xx_StdPeriph_Driver/src/stm32f4xx_gpio.c ****   */
 456:App/STM32F4-Discovery/Libraries/STM32F4xx_StdPeriph_Driver/src/stm32f4xx_gpio.c **** void GPIO_ToggleBits(GPIO_TypeDef* GPIOx, uint16_t GPIO_Pin)
 457:App/STM32F4-Discovery/Libraries/STM32F4xx_StdPeriph_Driver/src/stm32f4xx_gpio.c **** {
 1853              		.loc 1 457 0
 1854              		.cfi_startproc
 1855              		@ args = 0, pretend = 0, frame = 8
 1856              		@ frame_needed = 1, uses_anonymous_args = 0
 1857 0000 80B5     		push	{r7, lr}
 1858              	.LCFI36:
 1859              		.cfi_def_cfa_offset 8
 1860              		.cfi_offset 7, -8
 1861              		.cfi_offset 14, -4
 1862 0002 82B0     		sub	sp, sp, #8
 1863              	.LCFI37:
 1864              		.cfi_def_cfa_offset 16
 1865 0004 00AF     		add	r7, sp, #0
 1866              	.LCFI38:
 1867              		.cfi_def_cfa_register 7
 1868 0006 7860     		str	r0, [r7, #4]
 1869 0008 0B46     		mov	r3, r1
 1870 000a 7B80     		strh	r3, [r7, #2]	@ movhi
 458:App/STM32F4-Discovery/Libraries/STM32F4xx_StdPeriph_Driver/src/stm32f4xx_gpio.c ****   /* Check the parameters */
 459:App/STM32F4-Discovery/Libraries/STM32F4xx_StdPeriph_Driver/src/stm32f4xx_gpio.c ****   assert_param(IS_GPIO_ALL_PERIPH(GPIOx));
 1871              		.loc 1 459 0
 1872 000c 7A68     		ldr	r2, [r7, #4]
 1873 000e 4FF00003 		mov	r3, #0
 1874 0012 C4F20203 		movt	r3, 16386
 1875 0016 9A42     		cmp	r2, r3
 1876 0018 3FD0     		beq	.L61
 1877              		.loc 1 459 0 is_stmt 0 discriminator 1
 1878 001a 7A68     		ldr	r2, [r7, #4]
 1879 001c 4FF48063 		mov	r3, #1024
 1880 0020 C4F20203 		movt	r3, 16386
 1881 0024 9A42     		cmp	r2, r3
 1882 0026 38D0     		beq	.L61
 1883              		.loc 1 459 0 discriminator 2
 1884 0028 7A68     		ldr	r2, [r7, #4]
 1885 002a 4FF40063 		mov	r3, #2048
 1886 002e C4F20203 		movt	r3, 16386
 1887 0032 9A42     		cmp	r2, r3
 1888 0034 31D0     		beq	.L61
 1889              		.loc 1 459 0 discriminator 3
 1890 0036 7A68     		ldr	r2, [r7, #4]
 1891 0038 4FF44063 		mov	r3, #3072
 1892 003c C4F20203 		movt	r3, 16386
 1893 0040 9A42     		cmp	r2, r3
 1894 0042 2AD0     		beq	.L61
 1895              		.loc 1 459 0 discriminator 4
 1896 0044 7A68     		ldr	r2, [r7, #4]
 1897 0046 4FF48053 		mov	r3, #4096
 1898 004a C4F20203 		movt	r3, 16386
 1899 004e 9A42     		cmp	r2, r3
 1900 0050 23D0     		beq	.L61
 1901              		.loc 1 459 0 discriminator 5
 1902 0052 7A68     		ldr	r2, [r7, #4]
 1903 0054 4FF4A053 		mov	r3, #5120
 1904 0058 C4F20203 		movt	r3, 16386
 1905 005c 9A42     		cmp	r2, r3
 1906 005e 1CD0     		beq	.L61
 1907              		.loc 1 459 0 discriminator 6
 1908 0060 7A68     		ldr	r2, [r7, #4]
 1909 0062 4FF4C053 		mov	r3, #6144
 1910 0066 C4F20203 		movt	r3, 16386
 1911 006a 9A42     		cmp	r2, r3
 1912 006c 15D0     		beq	.L61
 1913              		.loc 1 459 0 discriminator 7
 1914 006e 7A68     		ldr	r2, [r7, #4]
 1915 0070 4FF4E053 		mov	r3, #7168
 1916 0074 C4F20203 		movt	r3, 16386
 1917 0078 9A42     		cmp	r2, r3
 1918 007a 0ED0     		beq	.L61
 1919              		.loc 1 459 0 discriminator 8
 1920 007c 7A68     		ldr	r2, [r7, #4]
 1921 007e 4FF40053 		mov	r3, #8192
 1922 0082 C4F20203 		movt	r3, 16386
 1923 0086 9A42     		cmp	r2, r3
 1924 0088 07D0     		beq	.L61
 1925              		.loc 1 459 0 discriminator 9
 1926 008a 40F20000 		movw	r0, #:lower16:.LC0
 1927 008e C0F20000 		movt	r0, #:upper16:.LC0
 1928 0092 40F2CB11 		movw	r1, #459
 1929 0096 FFF7FEFF 		bl	assert_failed
 1930              	.L61:
 460:App/STM32F4-Discovery/Libraries/STM32F4xx_StdPeriph_Driver/src/stm32f4xx_gpio.c **** 
 461:App/STM32F4-Discovery/Libraries/STM32F4xx_StdPeriph_Driver/src/stm32f4xx_gpio.c ****   GPIOx->ODR ^= GPIO_Pin;
 1931              		.loc 1 461 0 is_stmt 1
 1932 009a 7B68     		ldr	r3, [r7, #4]
 1933 009c 5A69     		ldr	r2, [r3, #20]
 1934 009e 7B88     		ldrh	r3, [r7, #2]
 1935 00a0 5A40     		eors	r2, r2, r3
 1936 00a2 7B68     		ldr	r3, [r7, #4]
 1937 00a4 5A61     		str	r2, [r3, #20]
 462:App/STM32F4-Discovery/Libraries/STM32F4xx_StdPeriph_Driver/src/stm32f4xx_gpio.c **** }
 1938              		.loc 1 462 0
 1939 00a6 07F10807 		add	r7, r7, #8
 1940 00aa BD46     		mov	sp, r7
 1941 00ac 80BD     		pop	{r7, pc}
 1942              		.cfi_endproc
 1943              	.LFE122:
 1945 00ae 00BF     		.section	.text.GPIO_PinAFConfig,"ax",%progbits
 1946              		.align	2
 1947              		.global	GPIO_PinAFConfig
 1948              		.thumb
 1949              		.thumb_func
 1951              	GPIO_PinAFConfig:
 1952              	.LFB123:
 463:App/STM32F4-Discovery/Libraries/STM32F4xx_StdPeriph_Driver/src/stm32f4xx_gpio.c **** 
 464:App/STM32F4-Discovery/Libraries/STM32F4xx_StdPeriph_Driver/src/stm32f4xx_gpio.c **** /**
 465:App/STM32F4-Discovery/Libraries/STM32F4xx_StdPeriph_Driver/src/stm32f4xx_gpio.c ****   * @}
 466:App/STM32F4-Discovery/Libraries/STM32F4xx_StdPeriph_Driver/src/stm32f4xx_gpio.c ****   */
 467:App/STM32F4-Discovery/Libraries/STM32F4xx_StdPeriph_Driver/src/stm32f4xx_gpio.c **** 
 468:App/STM32F4-Discovery/Libraries/STM32F4xx_StdPeriph_Driver/src/stm32f4xx_gpio.c **** /** @defgroup GPIO_Group3 GPIO Alternate functions configuration function
 469:App/STM32F4-Discovery/Libraries/STM32F4xx_StdPeriph_Driver/src/stm32f4xx_gpio.c ****  *  @brief   GPIO Alternate functions configuration function
 470:App/STM32F4-Discovery/Libraries/STM32F4xx_StdPeriph_Driver/src/stm32f4xx_gpio.c ****  *
 471:App/STM32F4-Discovery/Libraries/STM32F4xx_StdPeriph_Driver/src/stm32f4xx_gpio.c **** @verbatim   
 472:App/STM32F4-Discovery/Libraries/STM32F4xx_StdPeriph_Driver/src/stm32f4xx_gpio.c ****  ===============================================================================
 473:App/STM32F4-Discovery/Libraries/STM32F4xx_StdPeriph_Driver/src/stm32f4xx_gpio.c ****                GPIO Alternate functions configuration function
 474:App/STM32F4-Discovery/Libraries/STM32F4xx_StdPeriph_Driver/src/stm32f4xx_gpio.c ****  ===============================================================================  
 475:App/STM32F4-Discovery/Libraries/STM32F4xx_StdPeriph_Driver/src/stm32f4xx_gpio.c **** 
 476:App/STM32F4-Discovery/Libraries/STM32F4xx_StdPeriph_Driver/src/stm32f4xx_gpio.c **** @endverbatim
 477:App/STM32F4-Discovery/Libraries/STM32F4xx_StdPeriph_Driver/src/stm32f4xx_gpio.c ****   * @{
 478:App/STM32F4-Discovery/Libraries/STM32F4xx_StdPeriph_Driver/src/stm32f4xx_gpio.c ****   */
 479:App/STM32F4-Discovery/Libraries/STM32F4xx_StdPeriph_Driver/src/stm32f4xx_gpio.c **** 
 480:App/STM32F4-Discovery/Libraries/STM32F4xx_StdPeriph_Driver/src/stm32f4xx_gpio.c **** /**
 481:App/STM32F4-Discovery/Libraries/STM32F4xx_StdPeriph_Driver/src/stm32f4xx_gpio.c ****   * @brief  Changes the mapping of the specified pin.
 482:App/STM32F4-Discovery/Libraries/STM32F4xx_StdPeriph_Driver/src/stm32f4xx_gpio.c ****   * @param  GPIOx: where x can be (A..I) to select the GPIO peripheral.
 483:App/STM32F4-Discovery/Libraries/STM32F4xx_StdPeriph_Driver/src/stm32f4xx_gpio.c ****   * @param  GPIO_PinSource: specifies the pin for the Alternate function.
 484:App/STM32F4-Discovery/Libraries/STM32F4xx_StdPeriph_Driver/src/stm32f4xx_gpio.c ****   *         This parameter can be GPIO_PinSourcex where x can be (0..15).
 485:App/STM32F4-Discovery/Libraries/STM32F4xx_StdPeriph_Driver/src/stm32f4xx_gpio.c ****   * @param  GPIO_AFSelection: selects the pin to used as Alternate function.
 486:App/STM32F4-Discovery/Libraries/STM32F4xx_StdPeriph_Driver/src/stm32f4xx_gpio.c ****   *          This parameter can be one of the following values:
 487:App/STM32F4-Discovery/Libraries/STM32F4xx_StdPeriph_Driver/src/stm32f4xx_gpio.c ****   *            @arg GPIO_AF_RTC_50Hz: Connect RTC_50Hz pin to AF0 (default after reset) 
 488:App/STM32F4-Discovery/Libraries/STM32F4xx_StdPeriph_Driver/src/stm32f4xx_gpio.c ****   *            @arg GPIO_AF_MCO: Connect MCO pin (MCO1 and MCO2) to AF0 (default after reset) 
 489:App/STM32F4-Discovery/Libraries/STM32F4xx_StdPeriph_Driver/src/stm32f4xx_gpio.c ****   *            @arg GPIO_AF_TAMPER: Connect TAMPER pins (TAMPER_1 and TAMPER_2) to AF0 (default aft
 490:App/STM32F4-Discovery/Libraries/STM32F4xx_StdPeriph_Driver/src/stm32f4xx_gpio.c ****   *            @arg GPIO_AF_SWJ: Connect SWJ pins (SWD and JTAG)to AF0 (default after reset) 
 491:App/STM32F4-Discovery/Libraries/STM32F4xx_StdPeriph_Driver/src/stm32f4xx_gpio.c ****   *            @arg GPIO_AF_TRACE: Connect TRACE pins to AF0 (default after reset)
 492:App/STM32F4-Discovery/Libraries/STM32F4xx_StdPeriph_Driver/src/stm32f4xx_gpio.c ****   *            @arg GPIO_AF_TIM1: Connect TIM1 pins to AF1
 493:App/STM32F4-Discovery/Libraries/STM32F4xx_StdPeriph_Driver/src/stm32f4xx_gpio.c ****   *            @arg GPIO_AF_TIM2: Connect TIM2 pins to AF1
 494:App/STM32F4-Discovery/Libraries/STM32F4xx_StdPeriph_Driver/src/stm32f4xx_gpio.c ****   *            @arg GPIO_AF_TIM3: Connect TIM3 pins to AF2
 495:App/STM32F4-Discovery/Libraries/STM32F4xx_StdPeriph_Driver/src/stm32f4xx_gpio.c ****   *            @arg GPIO_AF_TIM4: Connect TIM4 pins to AF2
 496:App/STM32F4-Discovery/Libraries/STM32F4xx_StdPeriph_Driver/src/stm32f4xx_gpio.c ****   *            @arg GPIO_AF_TIM5: Connect TIM5 pins to AF2
 497:App/STM32F4-Discovery/Libraries/STM32F4xx_StdPeriph_Driver/src/stm32f4xx_gpio.c ****   *            @arg GPIO_AF_TIM8: Connect TIM8 pins to AF3
 498:App/STM32F4-Discovery/Libraries/STM32F4xx_StdPeriph_Driver/src/stm32f4xx_gpio.c ****   *            @arg GPIO_AF_TIM9: Connect TIM9 pins to AF3
 499:App/STM32F4-Discovery/Libraries/STM32F4xx_StdPeriph_Driver/src/stm32f4xx_gpio.c ****   *            @arg GPIO_AF_TIM10: Connect TIM10 pins to AF3
 500:App/STM32F4-Discovery/Libraries/STM32F4xx_StdPeriph_Driver/src/stm32f4xx_gpio.c ****   *            @arg GPIO_AF_TIM11: Connect TIM11 pins to AF3
 501:App/STM32F4-Discovery/Libraries/STM32F4xx_StdPeriph_Driver/src/stm32f4xx_gpio.c ****   *            @arg GPIO_AF_I2C1: Connect I2C1 pins to AF4
 502:App/STM32F4-Discovery/Libraries/STM32F4xx_StdPeriph_Driver/src/stm32f4xx_gpio.c ****   *            @arg GPIO_AF_I2C2: Connect I2C2 pins to AF4
 503:App/STM32F4-Discovery/Libraries/STM32F4xx_StdPeriph_Driver/src/stm32f4xx_gpio.c ****   *            @arg GPIO_AF_I2C3: Connect I2C3 pins to AF4
 504:App/STM32F4-Discovery/Libraries/STM32F4xx_StdPeriph_Driver/src/stm32f4xx_gpio.c ****   *            @arg GPIO_AF_SPI1: Connect SPI1 pins to AF5
 505:App/STM32F4-Discovery/Libraries/STM32F4xx_StdPeriph_Driver/src/stm32f4xx_gpio.c ****   *            @arg GPIO_AF_SPI2: Connect SPI2/I2S2 pins to AF5
 506:App/STM32F4-Discovery/Libraries/STM32F4xx_StdPeriph_Driver/src/stm32f4xx_gpio.c ****   *            @arg GPIO_AF_SPI3: Connect SPI3/I2S3 pins to AF6
 507:App/STM32F4-Discovery/Libraries/STM32F4xx_StdPeriph_Driver/src/stm32f4xx_gpio.c ****   *            @arg GPIO_AF_I2S3ext: Connect I2S3ext pins to AF7
 508:App/STM32F4-Discovery/Libraries/STM32F4xx_StdPeriph_Driver/src/stm32f4xx_gpio.c ****   *            @arg GPIO_AF_USART1: Connect USART1 pins to AF7
 509:App/STM32F4-Discovery/Libraries/STM32F4xx_StdPeriph_Driver/src/stm32f4xx_gpio.c ****   *            @arg GPIO_AF_USART2: Connect USART2 pins to AF7
 510:App/STM32F4-Discovery/Libraries/STM32F4xx_StdPeriph_Driver/src/stm32f4xx_gpio.c ****   *            @arg GPIO_AF_USART3: Connect USART3 pins to AF7
 511:App/STM32F4-Discovery/Libraries/STM32F4xx_StdPeriph_Driver/src/stm32f4xx_gpio.c ****   *            @arg GPIO_AF_UART4: Connect UART4 pins to AF8
 512:App/STM32F4-Discovery/Libraries/STM32F4xx_StdPeriph_Driver/src/stm32f4xx_gpio.c ****   *            @arg GPIO_AF_UART5: Connect UART5 pins to AF8
 513:App/STM32F4-Discovery/Libraries/STM32F4xx_StdPeriph_Driver/src/stm32f4xx_gpio.c ****   *            @arg GPIO_AF_USART6: Connect USART6 pins to AF8
 514:App/STM32F4-Discovery/Libraries/STM32F4xx_StdPeriph_Driver/src/stm32f4xx_gpio.c ****   *            @arg GPIO_AF_CAN1: Connect CAN1 pins to AF9
 515:App/STM32F4-Discovery/Libraries/STM32F4xx_StdPeriph_Driver/src/stm32f4xx_gpio.c ****   *            @arg GPIO_AF_CAN2: Connect CAN2 pins to AF9
 516:App/STM32F4-Discovery/Libraries/STM32F4xx_StdPeriph_Driver/src/stm32f4xx_gpio.c ****   *            @arg GPIO_AF_TIM12: Connect TIM12 pins to AF9
 517:App/STM32F4-Discovery/Libraries/STM32F4xx_StdPeriph_Driver/src/stm32f4xx_gpio.c ****   *            @arg GPIO_AF_TIM13: Connect TIM13 pins to AF9
 518:App/STM32F4-Discovery/Libraries/STM32F4xx_StdPeriph_Driver/src/stm32f4xx_gpio.c ****   *            @arg GPIO_AF_TIM14: Connect TIM14 pins to AF9
 519:App/STM32F4-Discovery/Libraries/STM32F4xx_StdPeriph_Driver/src/stm32f4xx_gpio.c ****   *            @arg GPIO_AF_OTG_FS: Connect OTG_FS pins to AF10
 520:App/STM32F4-Discovery/Libraries/STM32F4xx_StdPeriph_Driver/src/stm32f4xx_gpio.c ****   *            @arg GPIO_AF_OTG_HS: Connect OTG_HS pins to AF10
 521:App/STM32F4-Discovery/Libraries/STM32F4xx_StdPeriph_Driver/src/stm32f4xx_gpio.c ****   *            @arg GPIO_AF_ETH: Connect ETHERNET pins to AF11
 522:App/STM32F4-Discovery/Libraries/STM32F4xx_StdPeriph_Driver/src/stm32f4xx_gpio.c ****   *            @arg GPIO_AF_FSMC: Connect FSMC pins to AF12
 523:App/STM32F4-Discovery/Libraries/STM32F4xx_StdPeriph_Driver/src/stm32f4xx_gpio.c ****   *            @arg GPIO_AF_OTG_HS_FS: Connect OTG HS (configured in FS) pins to AF12
 524:App/STM32F4-Discovery/Libraries/STM32F4xx_StdPeriph_Driver/src/stm32f4xx_gpio.c ****   *            @arg GPIO_AF_SDIO: Connect SDIO pins to AF12
 525:App/STM32F4-Discovery/Libraries/STM32F4xx_StdPeriph_Driver/src/stm32f4xx_gpio.c ****   *            @arg GPIO_AF_DCMI: Connect DCMI pins to AF13
 526:App/STM32F4-Discovery/Libraries/STM32F4xx_StdPeriph_Driver/src/stm32f4xx_gpio.c ****   *            @arg GPIO_AF_EVENTOUT: Connect EVENTOUT pins to AF15
 527:App/STM32F4-Discovery/Libraries/STM32F4xx_StdPeriph_Driver/src/stm32f4xx_gpio.c ****   * @retval None
 528:App/STM32F4-Discovery/Libraries/STM32F4xx_StdPeriph_Driver/src/stm32f4xx_gpio.c ****   */
 529:App/STM32F4-Discovery/Libraries/STM32F4xx_StdPeriph_Driver/src/stm32f4xx_gpio.c **** void GPIO_PinAFConfig(GPIO_TypeDef* GPIOx, uint16_t GPIO_PinSource, uint8_t GPIO_AF)
 530:App/STM32F4-Discovery/Libraries/STM32F4xx_StdPeriph_Driver/src/stm32f4xx_gpio.c **** {
 1953              		.loc 1 530 0
 1954              		.cfi_startproc
 1955              		@ args = 0, pretend = 0, frame = 16
 1956              		@ frame_needed = 1, uses_anonymous_args = 0
 1957 0000 80B5     		push	{r7, lr}
 1958              	.LCFI39:
 1959              		.cfi_def_cfa_offset 8
 1960              		.cfi_offset 7, -8
 1961              		.cfi_offset 14, -4
 1962 0002 84B0     		sub	sp, sp, #16
 1963              	.LCFI40:
 1964              		.cfi_def_cfa_offset 24
 1965 0004 00AF     		add	r7, sp, #0
 1966              	.LCFI41:
 1967              		.cfi_def_cfa_register 7
 1968 0006 7860     		str	r0, [r7, #4]
 1969 0008 1346     		mov	r3, r2
 1970 000a 0A46     		mov	r2, r1	@ movhi
 1971 000c 7A80     		strh	r2, [r7, #2]	@ movhi
 1972 000e 7B70     		strb	r3, [r7, #1]
 531:App/STM32F4-Discovery/Libraries/STM32F4xx_StdPeriph_Driver/src/stm32f4xx_gpio.c ****   uint32_t temp = 0x00;
 1973              		.loc 1 531 0
 1974 0010 4FF00003 		mov	r3, #0
 1975 0014 FB60     		str	r3, [r7, #12]
 532:App/STM32F4-Discovery/Libraries/STM32F4xx_StdPeriph_Driver/src/stm32f4xx_gpio.c ****   uint32_t temp_2 = 0x00;
 1976              		.loc 1 532 0
 1977 0016 4FF00003 		mov	r3, #0
 1978 001a BB60     		str	r3, [r7, #8]
 533:App/STM32F4-Discovery/Libraries/STM32F4xx_StdPeriph_Driver/src/stm32f4xx_gpio.c ****   
 534:App/STM32F4-Discovery/Libraries/STM32F4xx_StdPeriph_Driver/src/stm32f4xx_gpio.c ****   /* Check the parameters */
 535:App/STM32F4-Discovery/Libraries/STM32F4xx_StdPeriph_Driver/src/stm32f4xx_gpio.c ****   assert_param(IS_GPIO_ALL_PERIPH(GPIOx));
 1979              		.loc 1 535 0
 1980 001c 7A68     		ldr	r2, [r7, #4]
 1981 001e 4FF00003 		mov	r3, #0
 1982 0022 C4F20203 		movt	r3, 16386
 1983 0026 9A42     		cmp	r2, r3
 1984 0028 3FD0     		beq	.L63
 1985              		.loc 1 535 0 is_stmt 0 discriminator 1
 1986 002a 7A68     		ldr	r2, [r7, #4]
 1987 002c 4FF48063 		mov	r3, #1024
 1988 0030 C4F20203 		movt	r3, 16386
 1989 0034 9A42     		cmp	r2, r3
 1990 0036 38D0     		beq	.L63
 1991              		.loc 1 535 0 discriminator 2
 1992 0038 7A68     		ldr	r2, [r7, #4]
 1993 003a 4FF40063 		mov	r3, #2048
 1994 003e C4F20203 		movt	r3, 16386
 1995 0042 9A42     		cmp	r2, r3
 1996 0044 31D0     		beq	.L63
 1997              		.loc 1 535 0 discriminator 3
 1998 0046 7A68     		ldr	r2, [r7, #4]
 1999 0048 4FF44063 		mov	r3, #3072
 2000 004c C4F20203 		movt	r3, 16386
 2001 0050 9A42     		cmp	r2, r3
 2002 0052 2AD0     		beq	.L63
 2003              		.loc 1 535 0 discriminator 4
 2004 0054 7A68     		ldr	r2, [r7, #4]
 2005 0056 4FF48053 		mov	r3, #4096
 2006 005a C4F20203 		movt	r3, 16386
 2007 005e 9A42     		cmp	r2, r3
 2008 0060 23D0     		beq	.L63
 2009              		.loc 1 535 0 discriminator 5
 2010 0062 7A68     		ldr	r2, [r7, #4]
 2011 0064 4FF4A053 		mov	r3, #5120
 2012 0068 C4F20203 		movt	r3, 16386
 2013 006c 9A42     		cmp	r2, r3
 2014 006e 1CD0     		beq	.L63
 2015              		.loc 1 535 0 discriminator 6
 2016 0070 7A68     		ldr	r2, [r7, #4]
 2017 0072 4FF4C053 		mov	r3, #6144
 2018 0076 C4F20203 		movt	r3, 16386
 2019 007a 9A42     		cmp	r2, r3
 2020 007c 15D0     		beq	.L63
 2021              		.loc 1 535 0 discriminator 7
 2022 007e 7A68     		ldr	r2, [r7, #4]
 2023 0080 4FF4E053 		mov	r3, #7168
 2024 0084 C4F20203 		movt	r3, 16386
 2025 0088 9A42     		cmp	r2, r3
 2026 008a 0ED0     		beq	.L63
 2027              		.loc 1 535 0 discriminator 8
 2028 008c 7A68     		ldr	r2, [r7, #4]
 2029 008e 4FF40053 		mov	r3, #8192
 2030 0092 C4F20203 		movt	r3, 16386
 2031 0096 9A42     		cmp	r2, r3
 2032 0098 07D0     		beq	.L63
 2033              		.loc 1 535 0 discriminator 9
 2034 009a 40F20000 		movw	r0, #:lower16:.LC0
 2035 009e C0F20000 		movt	r0, #:upper16:.LC0
 2036 00a2 40F21721 		movw	r1, #535
 2037 00a6 FFF7FEFF 		bl	assert_failed
 2038              	.L63:
 536:App/STM32F4-Discovery/Libraries/STM32F4xx_StdPeriph_Driver/src/stm32f4xx_gpio.c ****   assert_param(IS_GPIO_PIN_SOURCE(GPIO_PinSource));
 2039              		.loc 1 536 0 is_stmt 1
 2040 00aa 7B88     		ldrh	r3, [r7, #2]
 2041 00ac 002B     		cmp	r3, #0
 2042 00ae 34D0     		beq	.L64
 2043              		.loc 1 536 0 is_stmt 0 discriminator 1
 2044 00b0 7B88     		ldrh	r3, [r7, #2]
 2045 00b2 012B     		cmp	r3, #1
 2046 00b4 31D0     		beq	.L64
 2047              		.loc 1 536 0 discriminator 2
 2048 00b6 7B88     		ldrh	r3, [r7, #2]
 2049 00b8 022B     		cmp	r3, #2
 2050 00ba 2ED0     		beq	.L64
 2051              		.loc 1 536 0 discriminator 3
 2052 00bc 7B88     		ldrh	r3, [r7, #2]
 2053 00be 032B     		cmp	r3, #3
 2054 00c0 2BD0     		beq	.L64
 2055              		.loc 1 536 0 discriminator 4
 2056 00c2 7B88     		ldrh	r3, [r7, #2]
 2057 00c4 042B     		cmp	r3, #4
 2058 00c6 28D0     		beq	.L64
 2059              		.loc 1 536 0 discriminator 5
 2060 00c8 7B88     		ldrh	r3, [r7, #2]
 2061 00ca 052B     		cmp	r3, #5
 2062 00cc 25D0     		beq	.L64
 2063              		.loc 1 536 0 discriminator 6
 2064 00ce 7B88     		ldrh	r3, [r7, #2]
 2065 00d0 062B     		cmp	r3, #6
 2066 00d2 22D0     		beq	.L64
 2067              		.loc 1 536 0 discriminator 7
 2068 00d4 7B88     		ldrh	r3, [r7, #2]
 2069 00d6 072B     		cmp	r3, #7
 2070 00d8 1FD0     		beq	.L64
 2071              		.loc 1 536 0 discriminator 8
 2072 00da 7B88     		ldrh	r3, [r7, #2]
 2073 00dc 082B     		cmp	r3, #8
 2074 00de 1CD0     		beq	.L64
 2075              		.loc 1 536 0 discriminator 9
 2076 00e0 7B88     		ldrh	r3, [r7, #2]
 2077 00e2 092B     		cmp	r3, #9
 2078 00e4 19D0     		beq	.L64
 2079              		.loc 1 536 0 discriminator 10
 2080 00e6 7B88     		ldrh	r3, [r7, #2]
 2081 00e8 0A2B     		cmp	r3, #10
 2082 00ea 16D0     		beq	.L64
 2083              		.loc 1 536 0 discriminator 11
 2084 00ec 7B88     		ldrh	r3, [r7, #2]
 2085 00ee 0B2B     		cmp	r3, #11
 2086 00f0 13D0     		beq	.L64
 2087              		.loc 1 536 0 discriminator 12
 2088 00f2 7B88     		ldrh	r3, [r7, #2]
 2089 00f4 0C2B     		cmp	r3, #12
 2090 00f6 10D0     		beq	.L64
 2091              		.loc 1 536 0 discriminator 13
 2092 00f8 7B88     		ldrh	r3, [r7, #2]
 2093 00fa 0D2B     		cmp	r3, #13
 2094 00fc 0DD0     		beq	.L64
 2095              		.loc 1 536 0 discriminator 14
 2096 00fe 7B88     		ldrh	r3, [r7, #2]
 2097 0100 0E2B     		cmp	r3, #14
 2098 0102 0AD0     		beq	.L64
 2099              		.loc 1 536 0 discriminator 15
 2100 0104 7B88     		ldrh	r3, [r7, #2]
 2101 0106 0F2B     		cmp	r3, #15
 2102 0108 07D0     		beq	.L64
 2103              		.loc 1 536 0 discriminator 16
 2104 010a 40F20000 		movw	r0, #:lower16:.LC0
 2105 010e C0F20000 		movt	r0, #:upper16:.LC0
 2106 0112 4FF40671 		mov	r1, #536
 2107 0116 FFF7FEFF 		bl	assert_failed
 2108              	.L64:
 537:App/STM32F4-Discovery/Libraries/STM32F4xx_StdPeriph_Driver/src/stm32f4xx_gpio.c ****   assert_param(IS_GPIO_AF(GPIO_AF));
 2109              		.loc 1 537 0 is_stmt 1
 2110 011a 7B78     		ldrb	r3, [r7, #1]	@ zero_extendqisi2
 2111 011c 002B     		cmp	r3, #0
 2112 011e 70D0     		beq	.L65
 2113              		.loc 1 537 0 is_stmt 0 discriminator 1
 2114 0120 7B78     		ldrb	r3, [r7, #1]	@ zero_extendqisi2
 2115 0122 092B     		cmp	r3, #9
 2116 0124 6DD0     		beq	.L65
 2117              		.loc 1 537 0 discriminator 2
 2118 0126 7B78     		ldrb	r3, [r7, #1]	@ zero_extendqisi2
 2119 0128 002B     		cmp	r3, #0
 2120 012a 6AD0     		beq	.L65
 2121              		.loc 1 537 0 discriminator 3
 2122 012c 7B78     		ldrb	r3, [r7, #1]	@ zero_extendqisi2
 2123 012e 002B     		cmp	r3, #0
 2124 0130 67D0     		beq	.L65
 2125              		.loc 1 537 0 discriminator 4
 2126 0132 7B78     		ldrb	r3, [r7, #1]	@ zero_extendqisi2
 2127 0134 002B     		cmp	r3, #0
 2128 0136 64D0     		beq	.L65
 2129              		.loc 1 537 0 discriminator 5
 2130 0138 7B78     		ldrb	r3, [r7, #1]	@ zero_extendqisi2
 2131 013a 002B     		cmp	r3, #0
 2132 013c 61D0     		beq	.L65
 2133              		.loc 1 537 0 discriminator 6
 2134 013e 7B78     		ldrb	r3, [r7, #1]	@ zero_extendqisi2
 2135 0140 012B     		cmp	r3, #1
 2136 0142 5ED0     		beq	.L65
 2137              		.loc 1 537 0 discriminator 7
 2138 0144 7B78     		ldrb	r3, [r7, #1]	@ zero_extendqisi2
 2139 0146 012B     		cmp	r3, #1
 2140 0148 5BD0     		beq	.L65
 2141              		.loc 1 537 0 discriminator 8
 2142 014a 7B78     		ldrb	r3, [r7, #1]	@ zero_extendqisi2
 2143 014c 022B     		cmp	r3, #2
 2144 014e 58D0     		beq	.L65
 2145              		.loc 1 537 0 discriminator 9
 2146 0150 7B78     		ldrb	r3, [r7, #1]	@ zero_extendqisi2
 2147 0152 022B     		cmp	r3, #2
 2148 0154 55D0     		beq	.L65
 2149              		.loc 1 537 0 discriminator 10
 2150 0156 7B78     		ldrb	r3, [r7, #1]	@ zero_extendqisi2
 2151 0158 022B     		cmp	r3, #2
 2152 015a 52D0     		beq	.L65
 2153              		.loc 1 537 0 discriminator 11
 2154 015c 7B78     		ldrb	r3, [r7, #1]	@ zero_extendqisi2
 2155 015e 032B     		cmp	r3, #3
 2156 0160 4FD0     		beq	.L65
 2157              		.loc 1 537 0 discriminator 12
 2158 0162 7B78     		ldrb	r3, [r7, #1]	@ zero_extendqisi2
 2159 0164 042B     		cmp	r3, #4
 2160 0166 4CD0     		beq	.L65
 2161              		.loc 1 537 0 discriminator 13
 2162 0168 7B78     		ldrb	r3, [r7, #1]	@ zero_extendqisi2
 2163 016a 042B     		cmp	r3, #4
 2164 016c 49D0     		beq	.L65
 2165              		.loc 1 537 0 discriminator 14
 2166 016e 7B78     		ldrb	r3, [r7, #1]	@ zero_extendqisi2
 2167 0170 042B     		cmp	r3, #4
 2168 0172 46D0     		beq	.L65
 2169              		.loc 1 537 0 discriminator 15
 2170 0174 7B78     		ldrb	r3, [r7, #1]	@ zero_extendqisi2
 2171 0176 052B     		cmp	r3, #5
 2172 0178 43D0     		beq	.L65
 2173              		.loc 1 537 0 discriminator 16
 2174 017a 7B78     		ldrb	r3, [r7, #1]	@ zero_extendqisi2
 2175 017c 052B     		cmp	r3, #5
 2176 017e 40D0     		beq	.L65
 2177              		.loc 1 537 0 discriminator 17
 2178 0180 7B78     		ldrb	r3, [r7, #1]	@ zero_extendqisi2
 2179 0182 092B     		cmp	r3, #9
 2180 0184 3DD0     		beq	.L65
 2181              		.loc 1 537 0 discriminator 18
 2182 0186 7B78     		ldrb	r3, [r7, #1]	@ zero_extendqisi2
 2183 0188 062B     		cmp	r3, #6
 2184 018a 3AD0     		beq	.L65
 2185              		.loc 1 537 0 discriminator 19
 2186 018c 7B78     		ldrb	r3, [r7, #1]	@ zero_extendqisi2
 2187 018e 092B     		cmp	r3, #9
 2188 0190 37D0     		beq	.L65
 2189              		.loc 1 537 0 discriminator 20
 2190 0192 7B78     		ldrb	r3, [r7, #1]	@ zero_extendqisi2
 2191 0194 072B     		cmp	r3, #7
 2192 0196 34D0     		beq	.L65
 2193              		.loc 1 537 0 discriminator 21
 2194 0198 7B78     		ldrb	r3, [r7, #1]	@ zero_extendqisi2
 2195 019a 072B     		cmp	r3, #7
 2196 019c 31D0     		beq	.L65
 2197              		.loc 1 537 0 discriminator 22
 2198 019e 7B78     		ldrb	r3, [r7, #1]	@ zero_extendqisi2
 2199 01a0 072B     		cmp	r3, #7
 2200 01a2 2ED0     		beq	.L65
 2201              		.loc 1 537 0 discriminator 23
 2202 01a4 7B78     		ldrb	r3, [r7, #1]	@ zero_extendqisi2
 2203 01a6 082B     		cmp	r3, #8
 2204 01a8 2BD0     		beq	.L65
 2205              		.loc 1 537 0 discriminator 24
 2206 01aa 7B78     		ldrb	r3, [r7, #1]	@ zero_extendqisi2
 2207 01ac 082B     		cmp	r3, #8
 2208 01ae 28D0     		beq	.L65
 2209              		.loc 1 537 0 discriminator 25
 2210 01b0 7B78     		ldrb	r3, [r7, #1]	@ zero_extendqisi2
 2211 01b2 082B     		cmp	r3, #8
 2212 01b4 25D0     		beq	.L65
 2213              		.loc 1 537 0 discriminator 26
 2214 01b6 7B78     		ldrb	r3, [r7, #1]	@ zero_extendqisi2
 2215 01b8 092B     		cmp	r3, #9
 2216 01ba 22D0     		beq	.L65
 2217              		.loc 1 537 0 discriminator 27
 2218 01bc 7B78     		ldrb	r3, [r7, #1]	@ zero_extendqisi2
 2219 01be 092B     		cmp	r3, #9
 2220 01c0 1FD0     		beq	.L65
 2221              		.loc 1 537 0 discriminator 28
 2222 01c2 7B78     		ldrb	r3, [r7, #1]	@ zero_extendqisi2
 2223 01c4 0A2B     		cmp	r3, #10
 2224 01c6 1CD0     		beq	.L65
 2225              		.loc 1 537 0 discriminator 29
 2226 01c8 7B78     		ldrb	r3, [r7, #1]	@ zero_extendqisi2
 2227 01ca 0A2B     		cmp	r3, #10
 2228 01cc 19D0     		beq	.L65
 2229              		.loc 1 537 0 discriminator 30
 2230 01ce 7B78     		ldrb	r3, [r7, #1]	@ zero_extendqisi2
 2231 01d0 0B2B     		cmp	r3, #11
 2232 01d2 16D0     		beq	.L65
 2233              		.loc 1 537 0 discriminator 31
 2234 01d4 7B78     		ldrb	r3, [r7, #1]	@ zero_extendqisi2
 2235 01d6 0C2B     		cmp	r3, #12
 2236 01d8 13D0     		beq	.L65
 2237              		.loc 1 537 0 discriminator 32
 2238 01da 7B78     		ldrb	r3, [r7, #1]	@ zero_extendqisi2
 2239 01dc 0C2B     		cmp	r3, #12
 2240 01de 10D0     		beq	.L65
 2241              		.loc 1 537 0 discriminator 33
 2242 01e0 7B78     		ldrb	r3, [r7, #1]	@ zero_extendqisi2
 2243 01e2 0C2B     		cmp	r3, #12
 2244 01e4 0DD0     		beq	.L65
 2245              		.loc 1 537 0 discriminator 34
 2246 01e6 7B78     		ldrb	r3, [r7, #1]	@ zero_extendqisi2
 2247 01e8 0D2B     		cmp	r3, #13
 2248 01ea 0AD0     		beq	.L65
 2249              		.loc 1 537 0 discriminator 35
 2250 01ec 7B78     		ldrb	r3, [r7, #1]	@ zero_extendqisi2
 2251 01ee 0F2B     		cmp	r3, #15
 2252 01f0 07D0     		beq	.L65
 2253              		.loc 1 537 0 discriminator 36
 2254 01f2 40F20000 		movw	r0, #:lower16:.LC0
 2255 01f6 C0F20000 		movt	r0, #:upper16:.LC0
 2256 01fa 40F21921 		movw	r1, #537
 2257 01fe FFF7FEFF 		bl	assert_failed
 2258              	.L65:
 538:App/STM32F4-Discovery/Libraries/STM32F4xx_StdPeriph_Driver/src/stm32f4xx_gpio.c ****   
 539:App/STM32F4-Discovery/Libraries/STM32F4xx_StdPeriph_Driver/src/stm32f4xx_gpio.c ****   temp = ((uint32_t)(GPIO_AF) << ((uint32_t)((uint32_t)GPIO_PinSource & (uint32_t)0x07) * 4)) ;
 2259              		.loc 1 539 0 is_stmt 1
 2260 0202 7A78     		ldrb	r2, [r7, #1]	@ zero_extendqisi2
 2261 0204 7B88     		ldrh	r3, [r7, #2]
 2262 0206 03F00703 		and	r3, r3, #7
 2263 020a 4FEA8303 		lsl	r3, r3, #2
 2264 020e 02FA03F3 		lsl	r3, r2, r3
 2265 0212 FB60     		str	r3, [r7, #12]
 540:App/STM32F4-Discovery/Libraries/STM32F4xx_StdPeriph_Driver/src/stm32f4xx_gpio.c ****   GPIOx->AFR[GPIO_PinSource >> 0x03] &= ~((uint32_t)0xF << ((uint32_t)((uint32_t)GPIO_PinSource & (
 2266              		.loc 1 540 0
 2267 0214 7B88     		ldrh	r3, [r7, #2]
 2268 0216 4FEAD303 		lsr	r3, r3, #3
 2269 021a 9BB2     		uxth	r3, r3
 2270 021c 1A46     		mov	r2, r3
 2271 021e 7B88     		ldrh	r3, [r7, #2]
 2272 0220 4FEAD303 		lsr	r3, r3, #3
 2273 0224 9BB2     		uxth	r3, r3
 2274 0226 1946     		mov	r1, r3
 2275 0228 7B68     		ldr	r3, [r7, #4]
 2276 022a 01F10801 		add	r1, r1, #8
 2277 022e 53F82110 		ldr	r1, [r3, r1, lsl #2]
 2278 0232 7B88     		ldrh	r3, [r7, #2]
 2279 0234 03F00703 		and	r3, r3, #7
 2280 0238 4FEA8303 		lsl	r3, r3, #2
 2281 023c 4FF00F00 		mov	r0, #15
 2282 0240 00FA03F3 		lsl	r3, r0, r3
 2283 0244 6FEA0303 		mvn	r3, r3
 2284 0248 1940     		ands	r1, r1, r3
 2285 024a 7B68     		ldr	r3, [r7, #4]
 2286 024c 02F10802 		add	r2, r2, #8
 2287 0250 43F82210 		str	r1, [r3, r2, lsl #2]
 541:App/STM32F4-Discovery/Libraries/STM32F4xx_StdPeriph_Driver/src/stm32f4xx_gpio.c ****   temp_2 = GPIOx->AFR[GPIO_PinSource >> 0x03] | temp;
 2288              		.loc 1 541 0
 2289 0254 7B88     		ldrh	r3, [r7, #2]
 2290 0256 4FEAD303 		lsr	r3, r3, #3
 2291 025a 9BB2     		uxth	r3, r3
 2292 025c 1A46     		mov	r2, r3
 2293 025e 7B68     		ldr	r3, [r7, #4]
 2294 0260 02F10802 		add	r2, r2, #8
 2295 0264 53F82220 		ldr	r2, [r3, r2, lsl #2]
 2296 0268 FB68     		ldr	r3, [r7, #12]
 2297 026a 1343     		orrs	r3, r3, r2
 2298 026c BB60     		str	r3, [r7, #8]
 542:App/STM32F4-Discovery/Libraries/STM32F4xx_StdPeriph_Driver/src/stm32f4xx_gpio.c ****   GPIOx->AFR[GPIO_PinSource >> 0x03] = temp_2;
 2299              		.loc 1 542 0
 2300 026e 7B88     		ldrh	r3, [r7, #2]
 2301 0270 4FEAD303 		lsr	r3, r3, #3
 2302 0274 9BB2     		uxth	r3, r3
 2303 0276 1A46     		mov	r2, r3
 2304 0278 7B68     		ldr	r3, [r7, #4]
 2305 027a 02F10802 		add	r2, r2, #8
 2306 027e B968     		ldr	r1, [r7, #8]
 2307 0280 43F82210 		str	r1, [r3, r2, lsl #2]
 543:App/STM32F4-Discovery/Libraries/STM32F4xx_StdPeriph_Driver/src/stm32f4xx_gpio.c **** }
 2308              		.loc 1 543 0
 2309 0284 07F11007 		add	r7, r7, #16
 2310 0288 BD46     		mov	sp, r7
 2311 028a 80BD     		pop	{r7, pc}
 2312              		.cfi_endproc
 2313              	.LFE123:
 2315              		.text
 2316              	.Letext0:
 2317              		.file 2 "/home/thanhtruong/embedded-development/toolchain/gcc-arm-none-eabi-4_7-2013q1/bin/../lib/
 2318              		.file 3 "App/STM32F4-Discovery/Libraries/CMSIS/ST/STM32F4xx/Include/stm32f4xx.h"
 2319              		.file 4 "App/STM32F4-Discovery/Libraries/STM32F4xx_StdPeriph_Driver/inc/stm32f4xx_gpio.h"
 2320              		.file 5 "App/STM32F4-Discovery/Libraries/CMSIS/Include/core_cm4.h"