   1              		.syntax unified
   2              		.cpu cortex-m4
   3              		.eabi_attribute 27, 3
   4              		.fpu fpv4-sp-d16
   5              		.eabi_attribute 20, 1
   6              		.eabi_attribute 21, 1
   7              		.eabi_attribute 23, 3
   8              		.eabi_attribute 24, 1
   9              		.eabi_attribute 25, 1
  10              		.eabi_attribute 26, 1
  11              		.eabi_attribute 30, 6
  12              		.eabi_attribute 34, 1
  13              		.eabi_attribute 18, 4
  14              		.thumb
  15              		.file	"stm32f4xx_dma.c"
  16              		.text
  17              	.Ltext0:
  18              		.cfi_sections	.debug_frame
  19              		.section	.rodata
  20              		.align	2
  21              	.LC0:
  22 0000 4170702F 		.ascii	"App/STM32F4-Discovery/Libraries/STM32F4xx_StdPeriph"
  22      53544D33 
  22      3246342D 
  22      44697363 
  22      6F766572 
  23 0033 5F447269 		.ascii	"_Driver/src/stm32f4xx_dma.c\000"
  23      7665722F 
  23      7372632F 
  23      73746D33 
  23      32663478 
  24 004f 00       		.section	.text.DMA_DeInit,"ax",%progbits
  25              		.align	2
  26              		.global	DMA_DeInit
  27              		.thumb
  28              		.thumb_func
  30              	DMA_DeInit:
  31              	.LFB110:
  32              		.file 1 "App/STM32F4-Discovery/Libraries/STM32F4xx_StdPeriph_Driver/src/stm32f4xx_dma.c"
   1:App/STM32F4-Discovery/Libraries/STM32F4xx_StdPeriph_Driver/src/stm32f4xx_dma.c **** /**
   2:App/STM32F4-Discovery/Libraries/STM32F4xx_StdPeriph_Driver/src/stm32f4xx_dma.c ****   ******************************************************************************
   3:App/STM32F4-Discovery/Libraries/STM32F4xx_StdPeriph_Driver/src/stm32f4xx_dma.c ****   * @file    stm32f4xx_dma.c
   4:App/STM32F4-Discovery/Libraries/STM32F4xx_StdPeriph_Driver/src/stm32f4xx_dma.c ****   * @author  MCD Application Team
   5:App/STM32F4-Discovery/Libraries/STM32F4xx_StdPeriph_Driver/src/stm32f4xx_dma.c ****   * @version V1.0.0
   6:App/STM32F4-Discovery/Libraries/STM32F4xx_StdPeriph_Driver/src/stm32f4xx_dma.c ****   * @date    30-September-2011
   7:App/STM32F4-Discovery/Libraries/STM32F4xx_StdPeriph_Driver/src/stm32f4xx_dma.c ****   * @brief   This file provides firmware functions to manage the following 
   8:App/STM32F4-Discovery/Libraries/STM32F4xx_StdPeriph_Driver/src/stm32f4xx_dma.c ****   *          functionalities of the Direct Memory Access controller (DMA):           
   9:App/STM32F4-Discovery/Libraries/STM32F4xx_StdPeriph_Driver/src/stm32f4xx_dma.c ****   *           - Initialization and Configuration
  10:App/STM32F4-Discovery/Libraries/STM32F4xx_StdPeriph_Driver/src/stm32f4xx_dma.c ****   *           - Data Counter
  11:App/STM32F4-Discovery/Libraries/STM32F4xx_StdPeriph_Driver/src/stm32f4xx_dma.c ****   *           - Double Buffer mode configuration and command  
  12:App/STM32F4-Discovery/Libraries/STM32F4xx_StdPeriph_Driver/src/stm32f4xx_dma.c ****   *           - Interrupts and flags management
  13:App/STM32F4-Discovery/Libraries/STM32F4xx_StdPeriph_Driver/src/stm32f4xx_dma.c ****   *           
  14:App/STM32F4-Discovery/Libraries/STM32F4xx_StdPeriph_Driver/src/stm32f4xx_dma.c ****   *  @verbatim
  15:App/STM32F4-Discovery/Libraries/STM32F4xx_StdPeriph_Driver/src/stm32f4xx_dma.c ****   *      
  16:App/STM32F4-Discovery/Libraries/STM32F4xx_StdPeriph_Driver/src/stm32f4xx_dma.c ****   *          ===================================================================      
  17:App/STM32F4-Discovery/Libraries/STM32F4xx_StdPeriph_Driver/src/stm32f4xx_dma.c ****   *                                 How to use this driver
  18:App/STM32F4-Discovery/Libraries/STM32F4xx_StdPeriph_Driver/src/stm32f4xx_dma.c ****   *          =================================================================== 
  19:App/STM32F4-Discovery/Libraries/STM32F4xx_StdPeriph_Driver/src/stm32f4xx_dma.c ****   *          1. Enable The DMA controller clock using RCC_AHB1PeriphResetCmd(RCC_AHB1Periph_DMA1, E
  20:App/STM32F4-Discovery/Libraries/STM32F4xx_StdPeriph_Driver/src/stm32f4xx_dma.c ****   *             function for DMA1 or using RCC_AHB1PeriphResetCmd(RCC_AHB1Periph_DMA2, ENABLE)
  21:App/STM32F4-Discovery/Libraries/STM32F4xx_StdPeriph_Driver/src/stm32f4xx_dma.c ****   *             function for DMA2.
  22:App/STM32F4-Discovery/Libraries/STM32F4xx_StdPeriph_Driver/src/stm32f4xx_dma.c ****   *
  23:App/STM32F4-Discovery/Libraries/STM32F4xx_StdPeriph_Driver/src/stm32f4xx_dma.c ****   *          2. Enable and configure the peripheral to be connected to the DMA Stream
  24:App/STM32F4-Discovery/Libraries/STM32F4xx_StdPeriph_Driver/src/stm32f4xx_dma.c ****   *             (except for internal SRAM / FLASH memories: no initialization is 
  25:App/STM32F4-Discovery/Libraries/STM32F4xx_StdPeriph_Driver/src/stm32f4xx_dma.c ****   *             necessary). 
  26:App/STM32F4-Discovery/Libraries/STM32F4xx_StdPeriph_Driver/src/stm32f4xx_dma.c ****   *        
  27:App/STM32F4-Discovery/Libraries/STM32F4xx_StdPeriph_Driver/src/stm32f4xx_dma.c ****   *          3. For a given Stream, program the required configuration through following parameters
  28:App/STM32F4-Discovery/Libraries/STM32F4xx_StdPeriph_Driver/src/stm32f4xx_dma.c ****   *             Source and Destination addresses, Transfer Direction, Transfer size, Source and Des
  29:App/STM32F4-Discovery/Libraries/STM32F4xx_StdPeriph_Driver/src/stm32f4xx_dma.c ****   *             data formats, Circular or Normal mode, Stream Priority level, Source and Destinatio
  30:App/STM32F4-Discovery/Libraries/STM32F4xx_StdPeriph_Driver/src/stm32f4xx_dma.c ****   *             Incrementation mode, FIFO mode and its Threshold (if needed), Burst mode for Source
  31:App/STM32F4-Discovery/Libraries/STM32F4xx_StdPeriph_Driver/src/stm32f4xx_dma.c ****   *             Destination (if needed) using the DMA_Init() function.
  32:App/STM32F4-Discovery/Libraries/STM32F4xx_StdPeriph_Driver/src/stm32f4xx_dma.c ****   *             To avoid filling un-nesecessary fields, you can call DMA_StructInit() function
  33:App/STM32F4-Discovery/Libraries/STM32F4xx_StdPeriph_Driver/src/stm32f4xx_dma.c ****   *             to initialize a given structure with default values (reset values), the modify
  34:App/STM32F4-Discovery/Libraries/STM32F4xx_StdPeriph_Driver/src/stm32f4xx_dma.c ****   *             only necessary fields (ie. Source and Destination addresses, Transfer size and Data
  35:App/STM32F4-Discovery/Libraries/STM32F4xx_StdPeriph_Driver/src/stm32f4xx_dma.c ****   *
  36:App/STM32F4-Discovery/Libraries/STM32F4xx_StdPeriph_Driver/src/stm32f4xx_dma.c ****   *          4. Enable the NVIC and the corresponding interrupt(s) using the function 
  37:App/STM32F4-Discovery/Libraries/STM32F4xx_StdPeriph_Driver/src/stm32f4xx_dma.c ****   *             DMA_ITConfig() if you need to use DMA interrupts. 
  38:App/STM32F4-Discovery/Libraries/STM32F4xx_StdPeriph_Driver/src/stm32f4xx_dma.c ****   *
  39:App/STM32F4-Discovery/Libraries/STM32F4xx_StdPeriph_Driver/src/stm32f4xx_dma.c ****   *          5. Optionally, if the Circular mode is enabled, you can use the Double buffer mode by 
  40:App/STM32F4-Discovery/Libraries/STM32F4xx_StdPeriph_Driver/src/stm32f4xx_dma.c ****   *             the second Memory address and the first Memory to be used through the function 
  41:App/STM32F4-Discovery/Libraries/STM32F4xx_StdPeriph_Driver/src/stm32f4xx_dma.c ****   *             DMA_DoubleBufferModeConfig(). Then enable the Double buffer mode through the functi
  42:App/STM32F4-Discovery/Libraries/STM32F4xx_StdPeriph_Driver/src/stm32f4xx_dma.c ****   *             DMA_DoubleBufferModeCmd(). These operations must be done before step 6.
  43:App/STM32F4-Discovery/Libraries/STM32F4xx_StdPeriph_Driver/src/stm32f4xx_dma.c ****   *    
  44:App/STM32F4-Discovery/Libraries/STM32F4xx_StdPeriph_Driver/src/stm32f4xx_dma.c ****   *          6. Enable the DMA stream using the DMA_Cmd() function. 
  45:App/STM32F4-Discovery/Libraries/STM32F4xx_StdPeriph_Driver/src/stm32f4xx_dma.c ****   *                
  46:App/STM32F4-Discovery/Libraries/STM32F4xx_StdPeriph_Driver/src/stm32f4xx_dma.c ****   *          7. Activate the needed Stream Request using PPP_DMACmd() function for
  47:App/STM32F4-Discovery/Libraries/STM32F4xx_StdPeriph_Driver/src/stm32f4xx_dma.c ****   *             any PPP peripheral except internal SRAM and FLASH (ie. SPI, USART ...)
  48:App/STM32F4-Discovery/Libraries/STM32F4xx_StdPeriph_Driver/src/stm32f4xx_dma.c ****   *             The function allowing this operation is provided in each PPP peripheral
  49:App/STM32F4-Discovery/Libraries/STM32F4xx_StdPeriph_Driver/src/stm32f4xx_dma.c ****   *             driver (ie. SPI_DMACmd for SPI peripheral).
  50:App/STM32F4-Discovery/Libraries/STM32F4xx_StdPeriph_Driver/src/stm32f4xx_dma.c ****   *             Once the Stream is enabled, it is not possible to modify its configuration
  51:App/STM32F4-Discovery/Libraries/STM32F4xx_StdPeriph_Driver/src/stm32f4xx_dma.c ****   *             unless the stream is stopped and disabled.
  52:App/STM32F4-Discovery/Libraries/STM32F4xx_StdPeriph_Driver/src/stm32f4xx_dma.c ****   *             After enabling the Stream, it is advised to monitor the EN bit status using
  53:App/STM32F4-Discovery/Libraries/STM32F4xx_StdPeriph_Driver/src/stm32f4xx_dma.c ****   *             the function DMA_GetCmdStatus(). In case of configuration errors or bus errors
  54:App/STM32F4-Discovery/Libraries/STM32F4xx_StdPeriph_Driver/src/stm32f4xx_dma.c ****   *             this bit will remain reset and all transfers on this Stream will remain on hold.   
  55:App/STM32F4-Discovery/Libraries/STM32F4xx_StdPeriph_Driver/src/stm32f4xx_dma.c ****   *
  56:App/STM32F4-Discovery/Libraries/STM32F4xx_StdPeriph_Driver/src/stm32f4xx_dma.c ****   *          8. Optionally, you can configure the number of data to be transferred
  57:App/STM32F4-Discovery/Libraries/STM32F4xx_StdPeriph_Driver/src/stm32f4xx_dma.c ****   *             when the Stream is disabled (ie. after each Transfer Complete event
  58:App/STM32F4-Discovery/Libraries/STM32F4xx_StdPeriph_Driver/src/stm32f4xx_dma.c ****   *             or when a Transfer Error occurs) using the function DMA_SetCurrDataCounter().
  59:App/STM32F4-Discovery/Libraries/STM32F4xx_StdPeriph_Driver/src/stm32f4xx_dma.c ****   *             And you can get the number of remaining data to be transferred using 
  60:App/STM32F4-Discovery/Libraries/STM32F4xx_StdPeriph_Driver/src/stm32f4xx_dma.c ****   *             the function DMA_GetCurrDataCounter() at run time (when the DMA Stream is
  61:App/STM32F4-Discovery/Libraries/STM32F4xx_StdPeriph_Driver/src/stm32f4xx_dma.c ****   *             enabled and running).  
  62:App/STM32F4-Discovery/Libraries/STM32F4xx_StdPeriph_Driver/src/stm32f4xx_dma.c ****   *                   
  63:App/STM32F4-Discovery/Libraries/STM32F4xx_StdPeriph_Driver/src/stm32f4xx_dma.c ****   *          9. To control DMA events you can use one of the following 
  64:App/STM32F4-Discovery/Libraries/STM32F4xx_StdPeriph_Driver/src/stm32f4xx_dma.c ****   *              two methods:
  65:App/STM32F4-Discovery/Libraries/STM32F4xx_StdPeriph_Driver/src/stm32f4xx_dma.c ****   *               a- Check on DMA Stream flags using the function DMA_GetFlagStatus().  
  66:App/STM32F4-Discovery/Libraries/STM32F4xx_StdPeriph_Driver/src/stm32f4xx_dma.c ****   *               b- Use DMA interrupts through the function DMA_ITConfig() at initialization
  67:App/STM32F4-Discovery/Libraries/STM32F4xx_StdPeriph_Driver/src/stm32f4xx_dma.c ****   *                  phase and DMA_GetITStatus() function into interrupt routines in
  68:App/STM32F4-Discovery/Libraries/STM32F4xx_StdPeriph_Driver/src/stm32f4xx_dma.c ****   *                  communication phase.  
  69:App/STM32F4-Discovery/Libraries/STM32F4xx_StdPeriph_Driver/src/stm32f4xx_dma.c ****   *              After checking on a flag you should clear it using DMA_ClearFlag()
  70:App/STM32F4-Discovery/Libraries/STM32F4xx_StdPeriph_Driver/src/stm32f4xx_dma.c ****   *              function. And after checking on an interrupt event you should 
  71:App/STM32F4-Discovery/Libraries/STM32F4xx_StdPeriph_Driver/src/stm32f4xx_dma.c ****   *              clear it using DMA_ClearITPendingBit() function.    
  72:App/STM32F4-Discovery/Libraries/STM32F4xx_StdPeriph_Driver/src/stm32f4xx_dma.c ****   *              
  73:App/STM32F4-Discovery/Libraries/STM32F4xx_StdPeriph_Driver/src/stm32f4xx_dma.c ****   *          10. Optionally, if Circular mode and Double Buffer mode are enabled, you can modify
  74:App/STM32F4-Discovery/Libraries/STM32F4xx_StdPeriph_Driver/src/stm32f4xx_dma.c ****   *              the Memory Addresses using the function DMA_MemoryTargetConfig(). Make sure that
  75:App/STM32F4-Discovery/Libraries/STM32F4xx_StdPeriph_Driver/src/stm32f4xx_dma.c ****   *              the Memory Address to be modified is not the one currently in use by DMA Stream.
  76:App/STM32F4-Discovery/Libraries/STM32F4xx_StdPeriph_Driver/src/stm32f4xx_dma.c ****   *              This condition can be monitored using the function DMA_GetCurrentMemoryTarget().
  77:App/STM32F4-Discovery/Libraries/STM32F4xx_StdPeriph_Driver/src/stm32f4xx_dma.c ****   *              
  78:App/STM32F4-Discovery/Libraries/STM32F4xx_StdPeriph_Driver/src/stm32f4xx_dma.c ****   *          11. Optionally, Pause-Resume operations may be performed:
  79:App/STM32F4-Discovery/Libraries/STM32F4xx_StdPeriph_Driver/src/stm32f4xx_dma.c ****   *              The DMA_Cmd() function may be used to perform Pause-Resume operation. When a 
  80:App/STM32F4-Discovery/Libraries/STM32F4xx_StdPeriph_Driver/src/stm32f4xx_dma.c ****   *              transfer is ongoing, calling this function to disable the Stream will cause the 
  81:App/STM32F4-Discovery/Libraries/STM32F4xx_StdPeriph_Driver/src/stm32f4xx_dma.c ****   *              transfer to be paused. All configuration registers and the number of remaining 
  82:App/STM32F4-Discovery/Libraries/STM32F4xx_StdPeriph_Driver/src/stm32f4xx_dma.c ****   *              data will be preserved. When calling again this function to re-enable the Stream, 
  83:App/STM32F4-Discovery/Libraries/STM32F4xx_StdPeriph_Driver/src/stm32f4xx_dma.c ****   *              the transfer will be resumed from the point where it was paused.          
  84:App/STM32F4-Discovery/Libraries/STM32F4xx_StdPeriph_Driver/src/stm32f4xx_dma.c ****   *                 
  85:App/STM32F4-Discovery/Libraries/STM32F4xx_StdPeriph_Driver/src/stm32f4xx_dma.c ****   * @note   Memory-to-Memory transfer is possible by setting the address of the memory into
  86:App/STM32F4-Discovery/Libraries/STM32F4xx_StdPeriph_Driver/src/stm32f4xx_dma.c ****   *         the Peripheral registers. In this mode, Circular mode and Double Buffer mode
  87:App/STM32F4-Discovery/Libraries/STM32F4xx_StdPeriph_Driver/src/stm32f4xx_dma.c ****   *         are not allowed.
  88:App/STM32F4-Discovery/Libraries/STM32F4xx_StdPeriph_Driver/src/stm32f4xx_dma.c ****   *  
  89:App/STM32F4-Discovery/Libraries/STM32F4xx_StdPeriph_Driver/src/stm32f4xx_dma.c ****   * @note   The FIFO is used mainly to reduce bus usage and to allow data packing/unpacking: it is
  90:App/STM32F4-Discovery/Libraries/STM32F4xx_StdPeriph_Driver/src/stm32f4xx_dma.c ****   *         possible to set different Data Sizes for the Peripheral and the Memory (ie. you can set
  91:App/STM32F4-Discovery/Libraries/STM32F4xx_StdPeriph_Driver/src/stm32f4xx_dma.c ****   *         Half-Word data size for the peripheral to access its data register and set Word data si
  92:App/STM32F4-Discovery/Libraries/STM32F4xx_StdPeriph_Driver/src/stm32f4xx_dma.c ****   *         for the Memory to gain in access time. Each two Half-words will be packed and written i
  93:App/STM32F4-Discovery/Libraries/STM32F4xx_StdPeriph_Driver/src/stm32f4xx_dma.c ****   *         a single access to a Word in the Memory).
  94:App/STM32F4-Discovery/Libraries/STM32F4xx_StdPeriph_Driver/src/stm32f4xx_dma.c ****   *    
  95:App/STM32F4-Discovery/Libraries/STM32F4xx_StdPeriph_Driver/src/stm32f4xx_dma.c ****   * @note  When FIFO is disabled, it is not allowed to configure different Data Sizes for Source
  96:App/STM32F4-Discovery/Libraries/STM32F4xx_StdPeriph_Driver/src/stm32f4xx_dma.c ****   *        and Destination. In this case the Peripheral Data Size will be applied to both Source
  97:App/STM32F4-Discovery/Libraries/STM32F4xx_StdPeriph_Driver/src/stm32f4xx_dma.c ****   *        and Destination.               
  98:App/STM32F4-Discovery/Libraries/STM32F4xx_StdPeriph_Driver/src/stm32f4xx_dma.c ****   *
  99:App/STM32F4-Discovery/Libraries/STM32F4xx_StdPeriph_Driver/src/stm32f4xx_dma.c ****   *  @endverbatim
 100:App/STM32F4-Discovery/Libraries/STM32F4xx_StdPeriph_Driver/src/stm32f4xx_dma.c ****   *                                  
 101:App/STM32F4-Discovery/Libraries/STM32F4xx_StdPeriph_Driver/src/stm32f4xx_dma.c ****   ******************************************************************************
 102:App/STM32F4-Discovery/Libraries/STM32F4xx_StdPeriph_Driver/src/stm32f4xx_dma.c ****   * @attention
 103:App/STM32F4-Discovery/Libraries/STM32F4xx_StdPeriph_Driver/src/stm32f4xx_dma.c ****   *
 104:App/STM32F4-Discovery/Libraries/STM32F4xx_StdPeriph_Driver/src/stm32f4xx_dma.c ****   * THE PRESENT FIRMWARE WHICH IS FOR GUIDANCE ONLY AIMS AT PROVIDING CUSTOMERS
 105:App/STM32F4-Discovery/Libraries/STM32F4xx_StdPeriph_Driver/src/stm32f4xx_dma.c ****   * WITH CODING INFORMATION REGARDING THEIR PRODUCTS IN ORDER FOR THEM TO SAVE
 106:App/STM32F4-Discovery/Libraries/STM32F4xx_StdPeriph_Driver/src/stm32f4xx_dma.c ****   * TIME. AS A RESULT, STMICROELECTRONICS SHALL NOT BE HELD LIABLE FOR ANY
 107:App/STM32F4-Discovery/Libraries/STM32F4xx_StdPeriph_Driver/src/stm32f4xx_dma.c ****   * DIRECT, INDIRECT OR CONSEQUENTIAL DAMAGES WITH RESPECT TO ANY CLAIMS ARISING
 108:App/STM32F4-Discovery/Libraries/STM32F4xx_StdPeriph_Driver/src/stm32f4xx_dma.c ****   * FROM THE CONTENT OF SUCH FIRMWARE AND/OR THE USE MADE BY CUSTOMERS OF THE
 109:App/STM32F4-Discovery/Libraries/STM32F4xx_StdPeriph_Driver/src/stm32f4xx_dma.c ****   * CODING INFORMATION CONTAINED HEREIN IN CONNECTION WITH THEIR PRODUCTS.
 110:App/STM32F4-Discovery/Libraries/STM32F4xx_StdPeriph_Driver/src/stm32f4xx_dma.c ****   *
 111:App/STM32F4-Discovery/Libraries/STM32F4xx_StdPeriph_Driver/src/stm32f4xx_dma.c ****   * <h2><center>&copy; COPYRIGHT 2011 STMicroelectronics</center></h2>
 112:App/STM32F4-Discovery/Libraries/STM32F4xx_StdPeriph_Driver/src/stm32f4xx_dma.c ****   ******************************************************************************  
 113:App/STM32F4-Discovery/Libraries/STM32F4xx_StdPeriph_Driver/src/stm32f4xx_dma.c ****   */ 
 114:App/STM32F4-Discovery/Libraries/STM32F4xx_StdPeriph_Driver/src/stm32f4xx_dma.c **** 
 115:App/STM32F4-Discovery/Libraries/STM32F4xx_StdPeriph_Driver/src/stm32f4xx_dma.c **** /* Includes ------------------------------------------------------------------*/
 116:App/STM32F4-Discovery/Libraries/STM32F4xx_StdPeriph_Driver/src/stm32f4xx_dma.c **** #include "stm32f4xx_dma.h"
 117:App/STM32F4-Discovery/Libraries/STM32F4xx_StdPeriph_Driver/src/stm32f4xx_dma.c **** #include "stm32f4xx_rcc.h"
 118:App/STM32F4-Discovery/Libraries/STM32F4xx_StdPeriph_Driver/src/stm32f4xx_dma.c **** 
 119:App/STM32F4-Discovery/Libraries/STM32F4xx_StdPeriph_Driver/src/stm32f4xx_dma.c **** /** @addtogroup STM32F4xx_StdPeriph_Driver
 120:App/STM32F4-Discovery/Libraries/STM32F4xx_StdPeriph_Driver/src/stm32f4xx_dma.c ****   * @{
 121:App/STM32F4-Discovery/Libraries/STM32F4xx_StdPeriph_Driver/src/stm32f4xx_dma.c ****   */
 122:App/STM32F4-Discovery/Libraries/STM32F4xx_StdPeriph_Driver/src/stm32f4xx_dma.c **** 
 123:App/STM32F4-Discovery/Libraries/STM32F4xx_StdPeriph_Driver/src/stm32f4xx_dma.c **** /** @defgroup DMA 
 124:App/STM32F4-Discovery/Libraries/STM32F4xx_StdPeriph_Driver/src/stm32f4xx_dma.c ****   * @brief DMA driver modules
 125:App/STM32F4-Discovery/Libraries/STM32F4xx_StdPeriph_Driver/src/stm32f4xx_dma.c ****   * @{
 126:App/STM32F4-Discovery/Libraries/STM32F4xx_StdPeriph_Driver/src/stm32f4xx_dma.c ****   */ 
 127:App/STM32F4-Discovery/Libraries/STM32F4xx_StdPeriph_Driver/src/stm32f4xx_dma.c **** 
 128:App/STM32F4-Discovery/Libraries/STM32F4xx_StdPeriph_Driver/src/stm32f4xx_dma.c **** /* Private typedef -----------------------------------------------------------*/
 129:App/STM32F4-Discovery/Libraries/STM32F4xx_StdPeriph_Driver/src/stm32f4xx_dma.c **** /* Private define ------------------------------------------------------------*/
 130:App/STM32F4-Discovery/Libraries/STM32F4xx_StdPeriph_Driver/src/stm32f4xx_dma.c **** 
 131:App/STM32F4-Discovery/Libraries/STM32F4xx_StdPeriph_Driver/src/stm32f4xx_dma.c **** /* Masks Definition */
 132:App/STM32F4-Discovery/Libraries/STM32F4xx_StdPeriph_Driver/src/stm32f4xx_dma.c **** #define TRANSFER_IT_ENABLE_MASK (uint32_t)(DMA_SxCR_TCIE | DMA_SxCR_HTIE | \
 133:App/STM32F4-Discovery/Libraries/STM32F4xx_StdPeriph_Driver/src/stm32f4xx_dma.c ****                                            DMA_SxCR_TEIE | DMA_SxCR_DMEIE)
 134:App/STM32F4-Discovery/Libraries/STM32F4xx_StdPeriph_Driver/src/stm32f4xx_dma.c **** 
 135:App/STM32F4-Discovery/Libraries/STM32F4xx_StdPeriph_Driver/src/stm32f4xx_dma.c **** #define DMA_Stream0_IT_MASK     (uint32_t)(DMA_LISR_FEIF0 | DMA_LISR_DMEIF0 | \
 136:App/STM32F4-Discovery/Libraries/STM32F4xx_StdPeriph_Driver/src/stm32f4xx_dma.c ****                                            DMA_LISR_TEIF0 | DMA_LISR_HTIF0 | \
 137:App/STM32F4-Discovery/Libraries/STM32F4xx_StdPeriph_Driver/src/stm32f4xx_dma.c ****                                            DMA_LISR_TCIF0)
 138:App/STM32F4-Discovery/Libraries/STM32F4xx_StdPeriph_Driver/src/stm32f4xx_dma.c **** 
 139:App/STM32F4-Discovery/Libraries/STM32F4xx_StdPeriph_Driver/src/stm32f4xx_dma.c **** #define DMA_Stream1_IT_MASK     (uint32_t)(DMA_Stream0_IT_MASK << 6)
 140:App/STM32F4-Discovery/Libraries/STM32F4xx_StdPeriph_Driver/src/stm32f4xx_dma.c **** #define DMA_Stream2_IT_MASK     (uint32_t)(DMA_Stream0_IT_MASK << 16)
 141:App/STM32F4-Discovery/Libraries/STM32F4xx_StdPeriph_Driver/src/stm32f4xx_dma.c **** #define DMA_Stream3_IT_MASK     (uint32_t)(DMA_Stream0_IT_MASK << 22)
 142:App/STM32F4-Discovery/Libraries/STM32F4xx_StdPeriph_Driver/src/stm32f4xx_dma.c **** #define DMA_Stream4_IT_MASK     (uint32_t)(DMA_Stream0_IT_MASK | (uint32_t)0x20000000)
 143:App/STM32F4-Discovery/Libraries/STM32F4xx_StdPeriph_Driver/src/stm32f4xx_dma.c **** #define DMA_Stream5_IT_MASK     (uint32_t)(DMA_Stream1_IT_MASK | (uint32_t)0x20000000)
 144:App/STM32F4-Discovery/Libraries/STM32F4xx_StdPeriph_Driver/src/stm32f4xx_dma.c **** #define DMA_Stream6_IT_MASK     (uint32_t)(DMA_Stream2_IT_MASK | (uint32_t)0x20000000)
 145:App/STM32F4-Discovery/Libraries/STM32F4xx_StdPeriph_Driver/src/stm32f4xx_dma.c **** #define DMA_Stream7_IT_MASK     (uint32_t)(DMA_Stream3_IT_MASK | (uint32_t)0x20000000)
 146:App/STM32F4-Discovery/Libraries/STM32F4xx_StdPeriph_Driver/src/stm32f4xx_dma.c **** #define TRANSFER_IT_MASK        (uint32_t)0x0F3C0F3C
 147:App/STM32F4-Discovery/Libraries/STM32F4xx_StdPeriph_Driver/src/stm32f4xx_dma.c **** #define HIGH_ISR_MASK           (uint32_t)0x20000000
 148:App/STM32F4-Discovery/Libraries/STM32F4xx_StdPeriph_Driver/src/stm32f4xx_dma.c **** #define RESERVED_MASK           (uint32_t)0x0F7D0F7D  
 149:App/STM32F4-Discovery/Libraries/STM32F4xx_StdPeriph_Driver/src/stm32f4xx_dma.c **** 
 150:App/STM32F4-Discovery/Libraries/STM32F4xx_StdPeriph_Driver/src/stm32f4xx_dma.c **** /* Private macro -------------------------------------------------------------*/
 151:App/STM32F4-Discovery/Libraries/STM32F4xx_StdPeriph_Driver/src/stm32f4xx_dma.c **** /* Private variables ---------------------------------------------------------*/
 152:App/STM32F4-Discovery/Libraries/STM32F4xx_StdPeriph_Driver/src/stm32f4xx_dma.c **** /* Private function prototypes -----------------------------------------------*/
 153:App/STM32F4-Discovery/Libraries/STM32F4xx_StdPeriph_Driver/src/stm32f4xx_dma.c **** /* Private functions ---------------------------------------------------------*/
 154:App/STM32F4-Discovery/Libraries/STM32F4xx_StdPeriph_Driver/src/stm32f4xx_dma.c **** 
 155:App/STM32F4-Discovery/Libraries/STM32F4xx_StdPeriph_Driver/src/stm32f4xx_dma.c **** 
 156:App/STM32F4-Discovery/Libraries/STM32F4xx_StdPeriph_Driver/src/stm32f4xx_dma.c **** /** @defgroup DMA_Private_Functions
 157:App/STM32F4-Discovery/Libraries/STM32F4xx_StdPeriph_Driver/src/stm32f4xx_dma.c ****   * @{
 158:App/STM32F4-Discovery/Libraries/STM32F4xx_StdPeriph_Driver/src/stm32f4xx_dma.c ****   */
 159:App/STM32F4-Discovery/Libraries/STM32F4xx_StdPeriph_Driver/src/stm32f4xx_dma.c **** 
 160:App/STM32F4-Discovery/Libraries/STM32F4xx_StdPeriph_Driver/src/stm32f4xx_dma.c **** /** @defgroup DMA_Group1 Initialization and Configuration functions
 161:App/STM32F4-Discovery/Libraries/STM32F4xx_StdPeriph_Driver/src/stm32f4xx_dma.c ****  *  @brief   Initialization and Configuration functions
 162:App/STM32F4-Discovery/Libraries/STM32F4xx_StdPeriph_Driver/src/stm32f4xx_dma.c ****  *
 163:App/STM32F4-Discovery/Libraries/STM32F4xx_StdPeriph_Driver/src/stm32f4xx_dma.c **** @verbatim   
 164:App/STM32F4-Discovery/Libraries/STM32F4xx_StdPeriph_Driver/src/stm32f4xx_dma.c ****  ===============================================================================
 165:App/STM32F4-Discovery/Libraries/STM32F4xx_StdPeriph_Driver/src/stm32f4xx_dma.c ****                  Initialization and Configuration functions
 166:App/STM32F4-Discovery/Libraries/STM32F4xx_StdPeriph_Driver/src/stm32f4xx_dma.c ****  ===============================================================================  
 167:App/STM32F4-Discovery/Libraries/STM32F4xx_StdPeriph_Driver/src/stm32f4xx_dma.c **** 
 168:App/STM32F4-Discovery/Libraries/STM32F4xx_StdPeriph_Driver/src/stm32f4xx_dma.c ****   This subsection provides functions allowing to initialize the DMA Stream source
 169:App/STM32F4-Discovery/Libraries/STM32F4xx_StdPeriph_Driver/src/stm32f4xx_dma.c ****   and destination addresses, incrementation and data sizes, transfer direction, 
 170:App/STM32F4-Discovery/Libraries/STM32F4xx_StdPeriph_Driver/src/stm32f4xx_dma.c ****   buffer size, circular/normal mode selection, memory-to-memory mode selection 
 171:App/STM32F4-Discovery/Libraries/STM32F4xx_StdPeriph_Driver/src/stm32f4xx_dma.c ****   and Stream priority value.
 172:App/STM32F4-Discovery/Libraries/STM32F4xx_StdPeriph_Driver/src/stm32f4xx_dma.c ****   
 173:App/STM32F4-Discovery/Libraries/STM32F4xx_StdPeriph_Driver/src/stm32f4xx_dma.c ****   The DMA_Init() function follows the DMA configuration procedures as described in
 174:App/STM32F4-Discovery/Libraries/STM32F4xx_StdPeriph_Driver/src/stm32f4xx_dma.c ****   reference manual (RM0090) except the first point: waiting on EN bit to be reset.
 175:App/STM32F4-Discovery/Libraries/STM32F4xx_StdPeriph_Driver/src/stm32f4xx_dma.c ****   This condition should be checked by user application using the function DMA_GetCmdStatus()
 176:App/STM32F4-Discovery/Libraries/STM32F4xx_StdPeriph_Driver/src/stm32f4xx_dma.c ****   before calling the DMA_Init() function.
 177:App/STM32F4-Discovery/Libraries/STM32F4xx_StdPeriph_Driver/src/stm32f4xx_dma.c **** 
 178:App/STM32F4-Discovery/Libraries/STM32F4xx_StdPeriph_Driver/src/stm32f4xx_dma.c **** @endverbatim
 179:App/STM32F4-Discovery/Libraries/STM32F4xx_StdPeriph_Driver/src/stm32f4xx_dma.c ****   * @{
 180:App/STM32F4-Discovery/Libraries/STM32F4xx_StdPeriph_Driver/src/stm32f4xx_dma.c ****   */
 181:App/STM32F4-Discovery/Libraries/STM32F4xx_StdPeriph_Driver/src/stm32f4xx_dma.c **** 
 182:App/STM32F4-Discovery/Libraries/STM32F4xx_StdPeriph_Driver/src/stm32f4xx_dma.c **** /**
 183:App/STM32F4-Discovery/Libraries/STM32F4xx_StdPeriph_Driver/src/stm32f4xx_dma.c ****   * @brief  Deinitialize the DMAy Streamx registers to their default reset values.
 184:App/STM32F4-Discovery/Libraries/STM32F4xx_StdPeriph_Driver/src/stm32f4xx_dma.c ****   * @param  DMAy_Streamx: where y can be 1 or 2 to select the DMA and x can be 0
 185:App/STM32F4-Discovery/Libraries/STM32F4xx_StdPeriph_Driver/src/stm32f4xx_dma.c ****   *         to 7 to select the DMA Stream.
 186:App/STM32F4-Discovery/Libraries/STM32F4xx_StdPeriph_Driver/src/stm32f4xx_dma.c ****   * @retval None
 187:App/STM32F4-Discovery/Libraries/STM32F4xx_StdPeriph_Driver/src/stm32f4xx_dma.c ****   */
 188:App/STM32F4-Discovery/Libraries/STM32F4xx_StdPeriph_Driver/src/stm32f4xx_dma.c **** void DMA_DeInit(DMA_Stream_TypeDef* DMAy_Streamx)
 189:App/STM32F4-Discovery/Libraries/STM32F4xx_StdPeriph_Driver/src/stm32f4xx_dma.c **** {
  33              		.loc 1 189 0
  34              		.cfi_startproc
  35              		@ args = 0, pretend = 0, frame = 8
  36              		@ frame_needed = 1, uses_anonymous_args = 0
  37 0000 80B5     		push	{r7, lr}
  38              	.LCFI0:
  39              		.cfi_def_cfa_offset 8
  40              		.cfi_offset 7, -8
  41              		.cfi_offset 14, -4
  42 0002 82B0     		sub	sp, sp, #8
  43              	.LCFI1:
  44              		.cfi_def_cfa_offset 16
  45 0004 00AF     		add	r7, sp, #0
  46              	.LCFI2:
  47              		.cfi_def_cfa_register 7
  48 0006 7860     		str	r0, [r7, #4]
 190:App/STM32F4-Discovery/Libraries/STM32F4xx_StdPeriph_Driver/src/stm32f4xx_dma.c ****   /* Check the parameters */
 191:App/STM32F4-Discovery/Libraries/STM32F4xx_StdPeriph_Driver/src/stm32f4xx_dma.c ****   assert_param(IS_DMA_ALL_PERIPH(DMAy_Streamx));
  49              		.loc 1 191 0
  50 0008 7A68     		ldr	r2, [r7, #4]
  51 000a 46F21003 		movw	r3, #24592
  52 000e C4F20203 		movt	r3, 16386
  53 0012 9A42     		cmp	r2, r3
  54 0014 70D0     		beq	.L2
  55              		.loc 1 191 0 is_stmt 0 discriminator 1
  56 0016 7A68     		ldr	r2, [r7, #4]
  57 0018 46F22803 		movw	r3, #24616
  58 001c C4F20203 		movt	r3, 16386
  59 0020 9A42     		cmp	r2, r3
  60 0022 69D0     		beq	.L2
  61              		.loc 1 191 0 discriminator 2
  62 0024 7A68     		ldr	r2, [r7, #4]
  63 0026 46F24003 		movw	r3, #24640
  64 002a C4F20203 		movt	r3, 16386
  65 002e 9A42     		cmp	r2, r3
  66 0030 62D0     		beq	.L2
  67              		.loc 1 191 0 discriminator 3
  68 0032 7A68     		ldr	r2, [r7, #4]
  69 0034 46F25803 		movw	r3, #24664
  70 0038 C4F20203 		movt	r3, 16386
  71 003c 9A42     		cmp	r2, r3
  72 003e 5BD0     		beq	.L2
  73              		.loc 1 191 0 discriminator 4
  74 0040 7A68     		ldr	r2, [r7, #4]
  75 0042 46F27003 		movw	r3, #24688
  76 0046 C4F20203 		movt	r3, 16386
  77 004a 9A42     		cmp	r2, r3
  78 004c 54D0     		beq	.L2
  79              		.loc 1 191 0 discriminator 5
  80 004e 7A68     		ldr	r2, [r7, #4]
  81 0050 46F28803 		movw	r3, #24712
  82 0054 C4F20203 		movt	r3, 16386
  83 0058 9A42     		cmp	r2, r3
  84 005a 4DD0     		beq	.L2
  85              		.loc 1 191 0 discriminator 6
  86 005c 7A68     		ldr	r2, [r7, #4]
  87 005e 46F2A003 		movw	r3, #24736
  88 0062 C4F20203 		movt	r3, 16386
  89 0066 9A42     		cmp	r2, r3
  90 0068 46D0     		beq	.L2
  91              		.loc 1 191 0 discriminator 7
  92 006a 7A68     		ldr	r2, [r7, #4]
  93 006c 46F2B803 		movw	r3, #24760
  94 0070 C4F20203 		movt	r3, 16386
  95 0074 9A42     		cmp	r2, r3
  96 0076 3FD0     		beq	.L2
  97              		.loc 1 191 0 discriminator 8
  98 0078 7A68     		ldr	r2, [r7, #4]
  99 007a 46F21043 		movw	r3, #25616
 100 007e C4F20203 		movt	r3, 16386
 101 0082 9A42     		cmp	r2, r3
 102 0084 38D0     		beq	.L2
 103              		.loc 1 191 0 discriminator 9
 104 0086 7A68     		ldr	r2, [r7, #4]
 105 0088 46F22843 		movw	r3, #25640
 106 008c C4F20203 		movt	r3, 16386
 107 0090 9A42     		cmp	r2, r3
 108 0092 31D0     		beq	.L2
 109              		.loc 1 191 0 discriminator 10
 110 0094 7A68     		ldr	r2, [r7, #4]
 111 0096 46F24043 		movw	r3, #25664
 112 009a C4F20203 		movt	r3, 16386
 113 009e 9A42     		cmp	r2, r3
 114 00a0 2AD0     		beq	.L2
 115              		.loc 1 191 0 discriminator 11
 116 00a2 7A68     		ldr	r2, [r7, #4]
 117 00a4 46F25843 		movw	r3, #25688
 118 00a8 C4F20203 		movt	r3, 16386
 119 00ac 9A42     		cmp	r2, r3
 120 00ae 23D0     		beq	.L2
 121              		.loc 1 191 0 discriminator 12
 122 00b0 7A68     		ldr	r2, [r7, #4]
 123 00b2 46F27043 		movw	r3, #25712
 124 00b6 C4F20203 		movt	r3, 16386
 125 00ba 9A42     		cmp	r2, r3
 126 00bc 1CD0     		beq	.L2
 127              		.loc 1 191 0 discriminator 13
 128 00be 7A68     		ldr	r2, [r7, #4]
 129 00c0 46F28843 		movw	r3, #25736
 130 00c4 C4F20203 		movt	r3, 16386
 131 00c8 9A42     		cmp	r2, r3
 132 00ca 15D0     		beq	.L2
 133              		.loc 1 191 0 discriminator 14
 134 00cc 7A68     		ldr	r2, [r7, #4]
 135 00ce 46F2A043 		movw	r3, #25760
 136 00d2 C4F20203 		movt	r3, 16386
 137 00d6 9A42     		cmp	r2, r3
 138 00d8 0ED0     		beq	.L2
 139              		.loc 1 191 0 discriminator 15
 140 00da 7A68     		ldr	r2, [r7, #4]
 141 00dc 46F2B843 		movw	r3, #25784
 142 00e0 C4F20203 		movt	r3, 16386
 143 00e4 9A42     		cmp	r2, r3
 144 00e6 07D0     		beq	.L2
 145              		.loc 1 191 0 discriminator 16
 146 00e8 40F20000 		movw	r0, #:lower16:.LC0
 147 00ec C0F20000 		movt	r0, #:upper16:.LC0
 148 00f0 4FF0BF01 		mov	r1, #191
 149 00f4 FFF7FEFF 		bl	assert_failed
 150              	.L2:
 192:App/STM32F4-Discovery/Libraries/STM32F4xx_StdPeriph_Driver/src/stm32f4xx_dma.c **** 
 193:App/STM32F4-Discovery/Libraries/STM32F4xx_StdPeriph_Driver/src/stm32f4xx_dma.c ****   /* Disable the selected DMAy Streamx */
 194:App/STM32F4-Discovery/Libraries/STM32F4xx_StdPeriph_Driver/src/stm32f4xx_dma.c ****   DMAy_Streamx->CR &= ~((uint32_t)DMA_SxCR_EN);
 151              		.loc 1 194 0 is_stmt 1
 152 00f8 7B68     		ldr	r3, [r7, #4]
 153 00fa 1B68     		ldr	r3, [r3, #0]
 154 00fc 23F00102 		bic	r2, r3, #1
 155 0100 7B68     		ldr	r3, [r7, #4]
 156 0102 1A60     		str	r2, [r3, #0]
 195:App/STM32F4-Discovery/Libraries/STM32F4xx_StdPeriph_Driver/src/stm32f4xx_dma.c **** 
 196:App/STM32F4-Discovery/Libraries/STM32F4xx_StdPeriph_Driver/src/stm32f4xx_dma.c ****   /* Reset DMAy Streamx control register */
 197:App/STM32F4-Discovery/Libraries/STM32F4xx_StdPeriph_Driver/src/stm32f4xx_dma.c ****   DMAy_Streamx->CR  = 0;
 157              		.loc 1 197 0
 158 0104 7B68     		ldr	r3, [r7, #4]
 159 0106 4FF00002 		mov	r2, #0
 160 010a 1A60     		str	r2, [r3, #0]
 198:App/STM32F4-Discovery/Libraries/STM32F4xx_StdPeriph_Driver/src/stm32f4xx_dma.c ****   
 199:App/STM32F4-Discovery/Libraries/STM32F4xx_StdPeriph_Driver/src/stm32f4xx_dma.c ****   /* Reset DMAy Streamx Number of Data to Transfer register */
 200:App/STM32F4-Discovery/Libraries/STM32F4xx_StdPeriph_Driver/src/stm32f4xx_dma.c ****   DMAy_Streamx->NDTR = 0;
 161              		.loc 1 200 0
 162 010c 7B68     		ldr	r3, [r7, #4]
 163 010e 4FF00002 		mov	r2, #0
 164 0112 5A60     		str	r2, [r3, #4]
 201:App/STM32F4-Discovery/Libraries/STM32F4xx_StdPeriph_Driver/src/stm32f4xx_dma.c ****   
 202:App/STM32F4-Discovery/Libraries/STM32F4xx_StdPeriph_Driver/src/stm32f4xx_dma.c ****   /* Reset DMAy Streamx peripheral address register */
 203:App/STM32F4-Discovery/Libraries/STM32F4xx_StdPeriph_Driver/src/stm32f4xx_dma.c ****   DMAy_Streamx->PAR  = 0;
 165              		.loc 1 203 0
 166 0114 7B68     		ldr	r3, [r7, #4]
 167 0116 4FF00002 		mov	r2, #0
 168 011a 9A60     		str	r2, [r3, #8]
 204:App/STM32F4-Discovery/Libraries/STM32F4xx_StdPeriph_Driver/src/stm32f4xx_dma.c ****   
 205:App/STM32F4-Discovery/Libraries/STM32F4xx_StdPeriph_Driver/src/stm32f4xx_dma.c ****   /* Reset DMAy Streamx memory 0 address register */
 206:App/STM32F4-Discovery/Libraries/STM32F4xx_StdPeriph_Driver/src/stm32f4xx_dma.c ****   DMAy_Streamx->M0AR = 0;
 169              		.loc 1 206 0
 170 011c 7B68     		ldr	r3, [r7, #4]
 171 011e 4FF00002 		mov	r2, #0
 172 0122 DA60     		str	r2, [r3, #12]
 207:App/STM32F4-Discovery/Libraries/STM32F4xx_StdPeriph_Driver/src/stm32f4xx_dma.c **** 
 208:App/STM32F4-Discovery/Libraries/STM32F4xx_StdPeriph_Driver/src/stm32f4xx_dma.c ****   /* Reset DMAy Streamx memory 1 address register */
 209:App/STM32F4-Discovery/Libraries/STM32F4xx_StdPeriph_Driver/src/stm32f4xx_dma.c ****   DMAy_Streamx->M1AR = 0;
 173              		.loc 1 209 0
 174 0124 7B68     		ldr	r3, [r7, #4]
 175 0126 4FF00002 		mov	r2, #0
 176 012a 1A61     		str	r2, [r3, #16]
 210:App/STM32F4-Discovery/Libraries/STM32F4xx_StdPeriph_Driver/src/stm32f4xx_dma.c **** 
 211:App/STM32F4-Discovery/Libraries/STM32F4xx_StdPeriph_Driver/src/stm32f4xx_dma.c ****   /* Reset DMAy Streamx FIFO control register */
 212:App/STM32F4-Discovery/Libraries/STM32F4xx_StdPeriph_Driver/src/stm32f4xx_dma.c ****   DMAy_Streamx->FCR = (uint32_t)0x00000021; 
 177              		.loc 1 212 0
 178 012c 7B68     		ldr	r3, [r7, #4]
 179 012e 4FF02102 		mov	r2, #33
 180 0132 5A61     		str	r2, [r3, #20]
 213:App/STM32F4-Discovery/Libraries/STM32F4xx_StdPeriph_Driver/src/stm32f4xx_dma.c **** 
 214:App/STM32F4-Discovery/Libraries/STM32F4xx_StdPeriph_Driver/src/stm32f4xx_dma.c ****   /* Reset interrupt pending bits for the selected stream */
 215:App/STM32F4-Discovery/Libraries/STM32F4xx_StdPeriph_Driver/src/stm32f4xx_dma.c ****   if (DMAy_Streamx == DMA1_Stream0)
 181              		.loc 1 215 0
 182 0134 7A68     		ldr	r2, [r7, #4]
 183 0136 46F21003 		movw	r3, #24592
 184 013a C4F20203 		movt	r3, 16386
 185 013e 9A42     		cmp	r2, r3
 186 0140 07D1     		bne	.L3
 216:App/STM32F4-Discovery/Libraries/STM32F4xx_StdPeriph_Driver/src/stm32f4xx_dma.c ****   {
 217:App/STM32F4-Discovery/Libraries/STM32F4xx_StdPeriph_Driver/src/stm32f4xx_dma.c ****     /* Reset interrupt pending bits for DMA1 Stream0 */
 218:App/STM32F4-Discovery/Libraries/STM32F4xx_StdPeriph_Driver/src/stm32f4xx_dma.c ****     DMA1->LIFCR = DMA_Stream0_IT_MASK;
 187              		.loc 1 218 0
 188 0142 4FF4C043 		mov	r3, #24576
 189 0146 C4F20203 		movt	r3, 16386
 190 014a 4FF03D02 		mov	r2, #61
 191 014e 9A60     		str	r2, [r3, #8]
 192 0150 EBE0     		b	.L1
 193              	.L3:
 219:App/STM32F4-Discovery/Libraries/STM32F4xx_StdPeriph_Driver/src/stm32f4xx_dma.c ****   }
 220:App/STM32F4-Discovery/Libraries/STM32F4xx_StdPeriph_Driver/src/stm32f4xx_dma.c ****   else if (DMAy_Streamx == DMA1_Stream1)
 194              		.loc 1 220 0
 195 0152 7A68     		ldr	r2, [r7, #4]
 196 0154 46F22803 		movw	r3, #24616
 197 0158 C4F20203 		movt	r3, 16386
 198 015c 9A42     		cmp	r2, r3
 199 015e 07D1     		bne	.L5
 221:App/STM32F4-Discovery/Libraries/STM32F4xx_StdPeriph_Driver/src/stm32f4xx_dma.c ****   {
 222:App/STM32F4-Discovery/Libraries/STM32F4xx_StdPeriph_Driver/src/stm32f4xx_dma.c ****     /* Reset interrupt pending bits for DMA1 Stream1 */
 223:App/STM32F4-Discovery/Libraries/STM32F4xx_StdPeriph_Driver/src/stm32f4xx_dma.c ****     DMA1->LIFCR = DMA_Stream1_IT_MASK;
 200              		.loc 1 223 0
 201 0160 4FF4C043 		mov	r3, #24576
 202 0164 C4F20203 		movt	r3, 16386
 203 0168 4FF47462 		mov	r2, #3904
 204 016c 9A60     		str	r2, [r3, #8]
 205 016e DCE0     		b	.L1
 206              	.L5:
 224:App/STM32F4-Discovery/Libraries/STM32F4xx_StdPeriph_Driver/src/stm32f4xx_dma.c ****   }
 225:App/STM32F4-Discovery/Libraries/STM32F4xx_StdPeriph_Driver/src/stm32f4xx_dma.c ****   else if (DMAy_Streamx == DMA1_Stream2)
 207              		.loc 1 225 0
 208 0170 7A68     		ldr	r2, [r7, #4]
 209 0172 46F24003 		movw	r3, #24640
 210 0176 C4F20203 		movt	r3, 16386
 211 017a 9A42     		cmp	r2, r3
 212 017c 07D1     		bne	.L6
 226:App/STM32F4-Discovery/Libraries/STM32F4xx_StdPeriph_Driver/src/stm32f4xx_dma.c ****   {
 227:App/STM32F4-Discovery/Libraries/STM32F4xx_StdPeriph_Driver/src/stm32f4xx_dma.c ****     /* Reset interrupt pending bits for DMA1 Stream2 */
 228:App/STM32F4-Discovery/Libraries/STM32F4xx_StdPeriph_Driver/src/stm32f4xx_dma.c ****     DMA1->LIFCR = DMA_Stream2_IT_MASK;
 213              		.loc 1 228 0
 214 017e 4FF4C043 		mov	r3, #24576
 215 0182 C4F20203 		movt	r3, 16386
 216 0186 4FF47412 		mov	r2, #3997696
 217 018a 9A60     		str	r2, [r3, #8]
 218 018c CDE0     		b	.L1
 219              	.L6:
 229:App/STM32F4-Discovery/Libraries/STM32F4xx_StdPeriph_Driver/src/stm32f4xx_dma.c ****   }
 230:App/STM32F4-Discovery/Libraries/STM32F4xx_StdPeriph_Driver/src/stm32f4xx_dma.c ****   else if (DMAy_Streamx == DMA1_Stream3)
 220              		.loc 1 230 0
 221 018e 7A68     		ldr	r2, [r7, #4]
 222 0190 46F25803 		movw	r3, #24664
 223 0194 C4F20203 		movt	r3, 16386
 224 0198 9A42     		cmp	r2, r3
 225 019a 07D1     		bne	.L7
 231:App/STM32F4-Discovery/Libraries/STM32F4xx_StdPeriph_Driver/src/stm32f4xx_dma.c ****   {
 232:App/STM32F4-Discovery/Libraries/STM32F4xx_StdPeriph_Driver/src/stm32f4xx_dma.c ****     /* Reset interrupt pending bits for DMA1 Stream3 */
 233:App/STM32F4-Discovery/Libraries/STM32F4xx_StdPeriph_Driver/src/stm32f4xx_dma.c ****     DMA1->LIFCR = DMA_Stream3_IT_MASK;
 226              		.loc 1 233 0
 227 019c 4FF4C043 		mov	r3, #24576
 228 01a0 C4F20203 		movt	r3, 16386
 229 01a4 4FF07462 		mov	r2, #255852544
 230 01a8 9A60     		str	r2, [r3, #8]
 231 01aa BEE0     		b	.L1
 232              	.L7:
 234:App/STM32F4-Discovery/Libraries/STM32F4xx_StdPeriph_Driver/src/stm32f4xx_dma.c ****   }
 235:App/STM32F4-Discovery/Libraries/STM32F4xx_StdPeriph_Driver/src/stm32f4xx_dma.c ****   else if (DMAy_Streamx == DMA1_Stream4)
 233              		.loc 1 235 0
 234 01ac 7A68     		ldr	r2, [r7, #4]
 235 01ae 46F27003 		movw	r3, #24688
 236 01b2 C4F20203 		movt	r3, 16386
 237 01b6 9A42     		cmp	r2, r3
 238 01b8 09D1     		bne	.L8
 236:App/STM32F4-Discovery/Libraries/STM32F4xx_StdPeriph_Driver/src/stm32f4xx_dma.c ****   {
 237:App/STM32F4-Discovery/Libraries/STM32F4xx_StdPeriph_Driver/src/stm32f4xx_dma.c ****     /* Reset interrupt pending bits for DMA1 Stream4 */
 238:App/STM32F4-Discovery/Libraries/STM32F4xx_StdPeriph_Driver/src/stm32f4xx_dma.c ****     DMA1->HIFCR = DMA_Stream4_IT_MASK;
 239              		.loc 1 238 0
 240 01ba 4FF4C043 		mov	r3, #24576
 241 01be C4F20203 		movt	r3, 16386
 242 01c2 4FF03D02 		mov	r2, #61
 243 01c6 C2F20002 		movt	r2, 8192
 244 01ca DA60     		str	r2, [r3, #12]
 245 01cc ADE0     		b	.L1
 246              	.L8:
 239:App/STM32F4-Discovery/Libraries/STM32F4xx_StdPeriph_Driver/src/stm32f4xx_dma.c ****   }
 240:App/STM32F4-Discovery/Libraries/STM32F4xx_StdPeriph_Driver/src/stm32f4xx_dma.c ****   else if (DMAy_Streamx == DMA1_Stream5)
 247              		.loc 1 240 0
 248 01ce 7A68     		ldr	r2, [r7, #4]
 249 01d0 46F28803 		movw	r3, #24712
 250 01d4 C4F20203 		movt	r3, 16386
 251 01d8 9A42     		cmp	r2, r3
 252 01da 09D1     		bne	.L9
 241:App/STM32F4-Discovery/Libraries/STM32F4xx_StdPeriph_Driver/src/stm32f4xx_dma.c ****   {
 242:App/STM32F4-Discovery/Libraries/STM32F4xx_StdPeriph_Driver/src/stm32f4xx_dma.c ****     /* Reset interrupt pending bits for DMA1 Stream5 */
 243:App/STM32F4-Discovery/Libraries/STM32F4xx_StdPeriph_Driver/src/stm32f4xx_dma.c ****     DMA1->HIFCR = DMA_Stream5_IT_MASK;
 253              		.loc 1 243 0
 254 01dc 4FF4C043 		mov	r3, #24576
 255 01e0 C4F20203 		movt	r3, 16386
 256 01e4 4FF47462 		mov	r2, #3904
 257 01e8 C2F20002 		movt	r2, 8192
 258 01ec DA60     		str	r2, [r3, #12]
 259 01ee 9CE0     		b	.L1
 260              	.L9:
 244:App/STM32F4-Discovery/Libraries/STM32F4xx_StdPeriph_Driver/src/stm32f4xx_dma.c ****   }
 245:App/STM32F4-Discovery/Libraries/STM32F4xx_StdPeriph_Driver/src/stm32f4xx_dma.c ****   else if (DMAy_Streamx == DMA1_Stream6)
 261              		.loc 1 245 0
 262 01f0 7A68     		ldr	r2, [r7, #4]
 263 01f2 46F2A003 		movw	r3, #24736
 264 01f6 C4F20203 		movt	r3, 16386
 265 01fa 9A42     		cmp	r2, r3
 266 01fc 09D1     		bne	.L10
 246:App/STM32F4-Discovery/Libraries/STM32F4xx_StdPeriph_Driver/src/stm32f4xx_dma.c ****   {
 247:App/STM32F4-Discovery/Libraries/STM32F4xx_StdPeriph_Driver/src/stm32f4xx_dma.c ****     /* Reset interrupt pending bits for DMA1 Stream6 */
 248:App/STM32F4-Discovery/Libraries/STM32F4xx_StdPeriph_Driver/src/stm32f4xx_dma.c ****     DMA1->HIFCR = (uint32_t)DMA_Stream6_IT_MASK;
 267              		.loc 1 248 0
 268 01fe 4FF4C043 		mov	r3, #24576
 269 0202 C4F20203 		movt	r3, 16386
 270 0206 4FF00002 		mov	r2, #0
 271 020a C2F23D02 		movt	r2, 8253
 272 020e DA60     		str	r2, [r3, #12]
 273 0210 8BE0     		b	.L1
 274              	.L10:
 249:App/STM32F4-Discovery/Libraries/STM32F4xx_StdPeriph_Driver/src/stm32f4xx_dma.c ****   }
 250:App/STM32F4-Discovery/Libraries/STM32F4xx_StdPeriph_Driver/src/stm32f4xx_dma.c ****   else if (DMAy_Streamx == DMA1_Stream7)
 275              		.loc 1 250 0
 276 0212 7A68     		ldr	r2, [r7, #4]
 277 0214 46F2B803 		movw	r3, #24760
 278 0218 C4F20203 		movt	r3, 16386
 279 021c 9A42     		cmp	r2, r3
 280 021e 07D1     		bne	.L11
 251:App/STM32F4-Discovery/Libraries/STM32F4xx_StdPeriph_Driver/src/stm32f4xx_dma.c ****   {
 252:App/STM32F4-Discovery/Libraries/STM32F4xx_StdPeriph_Driver/src/stm32f4xx_dma.c ****     /* Reset interrupt pending bits for DMA1 Stream7 */
 253:App/STM32F4-Discovery/Libraries/STM32F4xx_StdPeriph_Driver/src/stm32f4xx_dma.c ****     DMA1->HIFCR = DMA_Stream7_IT_MASK;
 281              		.loc 1 253 0
 282 0220 4FF4C043 		mov	r3, #24576
 283 0224 C4F20203 		movt	r3, 16386
 284 0228 4FF03D52 		mov	r2, #792723456
 285 022c DA60     		str	r2, [r3, #12]
 286 022e 7CE0     		b	.L1
 287              	.L11:
 254:App/STM32F4-Discovery/Libraries/STM32F4xx_StdPeriph_Driver/src/stm32f4xx_dma.c ****   }
 255:App/STM32F4-Discovery/Libraries/STM32F4xx_StdPeriph_Driver/src/stm32f4xx_dma.c ****   else if (DMAy_Streamx == DMA2_Stream0)
 288              		.loc 1 255 0
 289 0230 7A68     		ldr	r2, [r7, #4]
 290 0232 46F21043 		movw	r3, #25616
 291 0236 C4F20203 		movt	r3, 16386
 292 023a 9A42     		cmp	r2, r3
 293 023c 07D1     		bne	.L12
 256:App/STM32F4-Discovery/Libraries/STM32F4xx_StdPeriph_Driver/src/stm32f4xx_dma.c ****   {
 257:App/STM32F4-Discovery/Libraries/STM32F4xx_StdPeriph_Driver/src/stm32f4xx_dma.c ****     /* Reset interrupt pending bits for DMA2 Stream0 */
 258:App/STM32F4-Discovery/Libraries/STM32F4xx_StdPeriph_Driver/src/stm32f4xx_dma.c ****     DMA2->LIFCR = DMA_Stream0_IT_MASK;
 294              		.loc 1 258 0
 295 023e 4FF4C843 		mov	r3, #25600
 296 0242 C4F20203 		movt	r3, 16386
 297 0246 4FF03D02 		mov	r2, #61
 298 024a 9A60     		str	r2, [r3, #8]
 299 024c 6DE0     		b	.L1
 300              	.L12:
 259:App/STM32F4-Discovery/Libraries/STM32F4xx_StdPeriph_Driver/src/stm32f4xx_dma.c ****   }
 260:App/STM32F4-Discovery/Libraries/STM32F4xx_StdPeriph_Driver/src/stm32f4xx_dma.c ****   else if (DMAy_Streamx == DMA2_Stream1)
 301              		.loc 1 260 0
 302 024e 7A68     		ldr	r2, [r7, #4]
 303 0250 46F22843 		movw	r3, #25640
 304 0254 C4F20203 		movt	r3, 16386
 305 0258 9A42     		cmp	r2, r3
 306 025a 07D1     		bne	.L13
 261:App/STM32F4-Discovery/Libraries/STM32F4xx_StdPeriph_Driver/src/stm32f4xx_dma.c ****   {
 262:App/STM32F4-Discovery/Libraries/STM32F4xx_StdPeriph_Driver/src/stm32f4xx_dma.c ****     /* Reset interrupt pending bits for DMA2 Stream1 */
 263:App/STM32F4-Discovery/Libraries/STM32F4xx_StdPeriph_Driver/src/stm32f4xx_dma.c ****     DMA2->LIFCR = DMA_Stream1_IT_MASK;
 307              		.loc 1 263 0
 308 025c 4FF4C843 		mov	r3, #25600
 309 0260 C4F20203 		movt	r3, 16386
 310 0264 4FF47462 		mov	r2, #3904
 311 0268 9A60     		str	r2, [r3, #8]
 312 026a 5EE0     		b	.L1
 313              	.L13:
 264:App/STM32F4-Discovery/Libraries/STM32F4xx_StdPeriph_Driver/src/stm32f4xx_dma.c ****   }
 265:App/STM32F4-Discovery/Libraries/STM32F4xx_StdPeriph_Driver/src/stm32f4xx_dma.c ****   else if (DMAy_Streamx == DMA2_Stream2)
 314              		.loc 1 265 0
 315 026c 7A68     		ldr	r2, [r7, #4]
 316 026e 46F24043 		movw	r3, #25664
 317 0272 C4F20203 		movt	r3, 16386
 318 0276 9A42     		cmp	r2, r3
 319 0278 07D1     		bne	.L14
 266:App/STM32F4-Discovery/Libraries/STM32F4xx_StdPeriph_Driver/src/stm32f4xx_dma.c ****   {
 267:App/STM32F4-Discovery/Libraries/STM32F4xx_StdPeriph_Driver/src/stm32f4xx_dma.c ****     /* Reset interrupt pending bits for DMA2 Stream2 */
 268:App/STM32F4-Discovery/Libraries/STM32F4xx_StdPeriph_Driver/src/stm32f4xx_dma.c ****     DMA2->LIFCR = DMA_Stream2_IT_MASK;
 320              		.loc 1 268 0
 321 027a 4FF4C843 		mov	r3, #25600
 322 027e C4F20203 		movt	r3, 16386
 323 0282 4FF47412 		mov	r2, #3997696
 324 0286 9A60     		str	r2, [r3, #8]
 325 0288 4FE0     		b	.L1
 326              	.L14:
 269:App/STM32F4-Discovery/Libraries/STM32F4xx_StdPeriph_Driver/src/stm32f4xx_dma.c ****   }
 270:App/STM32F4-Discovery/Libraries/STM32F4xx_StdPeriph_Driver/src/stm32f4xx_dma.c ****   else if (DMAy_Streamx == DMA2_Stream3)
 327              		.loc 1 270 0
 328 028a 7A68     		ldr	r2, [r7, #4]
 329 028c 46F25843 		movw	r3, #25688
 330 0290 C4F20203 		movt	r3, 16386
 331 0294 9A42     		cmp	r2, r3
 332 0296 07D1     		bne	.L15
 271:App/STM32F4-Discovery/Libraries/STM32F4xx_StdPeriph_Driver/src/stm32f4xx_dma.c ****   {
 272:App/STM32F4-Discovery/Libraries/STM32F4xx_StdPeriph_Driver/src/stm32f4xx_dma.c ****     /* Reset interrupt pending bits for DMA2 Stream3 */
 273:App/STM32F4-Discovery/Libraries/STM32F4xx_StdPeriph_Driver/src/stm32f4xx_dma.c ****     DMA2->LIFCR = DMA_Stream3_IT_MASK;
 333              		.loc 1 273 0
 334 0298 4FF4C843 		mov	r3, #25600
 335 029c C4F20203 		movt	r3, 16386
 336 02a0 4FF07462 		mov	r2, #255852544
 337 02a4 9A60     		str	r2, [r3, #8]
 338 02a6 40E0     		b	.L1
 339              	.L15:
 274:App/STM32F4-Discovery/Libraries/STM32F4xx_StdPeriph_Driver/src/stm32f4xx_dma.c ****   }
 275:App/STM32F4-Discovery/Libraries/STM32F4xx_StdPeriph_Driver/src/stm32f4xx_dma.c ****   else if (DMAy_Streamx == DMA2_Stream4)
 340              		.loc 1 275 0
 341 02a8 7A68     		ldr	r2, [r7, #4]
 342 02aa 46F27043 		movw	r3, #25712
 343 02ae C4F20203 		movt	r3, 16386
 344 02b2 9A42     		cmp	r2, r3
 345 02b4 09D1     		bne	.L16
 276:App/STM32F4-Discovery/Libraries/STM32F4xx_StdPeriph_Driver/src/stm32f4xx_dma.c ****   {
 277:App/STM32F4-Discovery/Libraries/STM32F4xx_StdPeriph_Driver/src/stm32f4xx_dma.c ****     /* Reset interrupt pending bits for DMA2 Stream4 */
 278:App/STM32F4-Discovery/Libraries/STM32F4xx_StdPeriph_Driver/src/stm32f4xx_dma.c ****     DMA2->HIFCR = DMA_Stream4_IT_MASK;
 346              		.loc 1 278 0
 347 02b6 4FF4C843 		mov	r3, #25600
 348 02ba C4F20203 		movt	r3, 16386
 349 02be 4FF03D02 		mov	r2, #61
 350 02c2 C2F20002 		movt	r2, 8192
 351 02c6 DA60     		str	r2, [r3, #12]
 352 02c8 2FE0     		b	.L1
 353              	.L16:
 279:App/STM32F4-Discovery/Libraries/STM32F4xx_StdPeriph_Driver/src/stm32f4xx_dma.c ****   }
 280:App/STM32F4-Discovery/Libraries/STM32F4xx_StdPeriph_Driver/src/stm32f4xx_dma.c ****   else if (DMAy_Streamx == DMA2_Stream5)
 354              		.loc 1 280 0
 355 02ca 7A68     		ldr	r2, [r7, #4]
 356 02cc 46F28843 		movw	r3, #25736
 357 02d0 C4F20203 		movt	r3, 16386
 358 02d4 9A42     		cmp	r2, r3
 359 02d6 09D1     		bne	.L17
 281:App/STM32F4-Discovery/Libraries/STM32F4xx_StdPeriph_Driver/src/stm32f4xx_dma.c ****   {
 282:App/STM32F4-Discovery/Libraries/STM32F4xx_StdPeriph_Driver/src/stm32f4xx_dma.c ****     /* Reset interrupt pending bits for DMA2 Stream5 */
 283:App/STM32F4-Discovery/Libraries/STM32F4xx_StdPeriph_Driver/src/stm32f4xx_dma.c ****     DMA2->HIFCR = DMA_Stream5_IT_MASK;
 360              		.loc 1 283 0
 361 02d8 4FF4C843 		mov	r3, #25600
 362 02dc C4F20203 		movt	r3, 16386
 363 02e0 4FF47462 		mov	r2, #3904
 364 02e4 C2F20002 		movt	r2, 8192
 365 02e8 DA60     		str	r2, [r3, #12]
 366 02ea 1EE0     		b	.L1
 367              	.L17:
 284:App/STM32F4-Discovery/Libraries/STM32F4xx_StdPeriph_Driver/src/stm32f4xx_dma.c ****   }
 285:App/STM32F4-Discovery/Libraries/STM32F4xx_StdPeriph_Driver/src/stm32f4xx_dma.c ****   else if (DMAy_Streamx == DMA2_Stream6)
 368              		.loc 1 285 0
 369 02ec 7A68     		ldr	r2, [r7, #4]
 370 02ee 46F2A043 		movw	r3, #25760
 371 02f2 C4F20203 		movt	r3, 16386
 372 02f6 9A42     		cmp	r2, r3
 373 02f8 09D1     		bne	.L18
 286:App/STM32F4-Discovery/Libraries/STM32F4xx_StdPeriph_Driver/src/stm32f4xx_dma.c ****   {
 287:App/STM32F4-Discovery/Libraries/STM32F4xx_StdPeriph_Driver/src/stm32f4xx_dma.c ****     /* Reset interrupt pending bits for DMA2 Stream6 */
 288:App/STM32F4-Discovery/Libraries/STM32F4xx_StdPeriph_Driver/src/stm32f4xx_dma.c ****     DMA2->HIFCR = DMA_Stream6_IT_MASK;
 374              		.loc 1 288 0
 375 02fa 4FF4C843 		mov	r3, #25600
 376 02fe C4F20203 		movt	r3, 16386
 377 0302 4FF00002 		mov	r2, #0
 378 0306 C2F23D02 		movt	r2, 8253
 379 030a DA60     		str	r2, [r3, #12]
 380 030c 0DE0     		b	.L1
 381              	.L18:
 289:App/STM32F4-Discovery/Libraries/STM32F4xx_StdPeriph_Driver/src/stm32f4xx_dma.c ****   }
 290:App/STM32F4-Discovery/Libraries/STM32F4xx_StdPeriph_Driver/src/stm32f4xx_dma.c ****   else 
 291:App/STM32F4-Discovery/Libraries/STM32F4xx_StdPeriph_Driver/src/stm32f4xx_dma.c ****   {
 292:App/STM32F4-Discovery/Libraries/STM32F4xx_StdPeriph_Driver/src/stm32f4xx_dma.c ****     if (DMAy_Streamx == DMA2_Stream7)
 382              		.loc 1 292 0
 383 030e 7A68     		ldr	r2, [r7, #4]
 384 0310 46F2B843 		movw	r3, #25784
 385 0314 C4F20203 		movt	r3, 16386
 386 0318 9A42     		cmp	r2, r3
 387 031a 06D1     		bne	.L1
 293:App/STM32F4-Discovery/Libraries/STM32F4xx_StdPeriph_Driver/src/stm32f4xx_dma.c ****     {
 294:App/STM32F4-Discovery/Libraries/STM32F4xx_StdPeriph_Driver/src/stm32f4xx_dma.c ****       /* Reset interrupt pending bits for DMA2 Stream7 */
 295:App/STM32F4-Discovery/Libraries/STM32F4xx_StdPeriph_Driver/src/stm32f4xx_dma.c ****       DMA2->HIFCR = DMA_Stream7_IT_MASK;
 388              		.loc 1 295 0
 389 031c 4FF4C843 		mov	r3, #25600
 390 0320 C4F20203 		movt	r3, 16386
 391 0324 4FF03D52 		mov	r2, #792723456
 392 0328 DA60     		str	r2, [r3, #12]
 393              	.L1:
 296:App/STM32F4-Discovery/Libraries/STM32F4xx_StdPeriph_Driver/src/stm32f4xx_dma.c ****     }
 297:App/STM32F4-Discovery/Libraries/STM32F4xx_StdPeriph_Driver/src/stm32f4xx_dma.c ****   }
 298:App/STM32F4-Discovery/Libraries/STM32F4xx_StdPeriph_Driver/src/stm32f4xx_dma.c **** }
 394              		.loc 1 298 0
 395 032a 07F10807 		add	r7, r7, #8
 396 032e BD46     		mov	sp, r7
 397 0330 80BD     		pop	{r7, pc}
 398              		.cfi_endproc
 399              	.LFE110:
 401              		.section	.text.DMA_Init,"ax",%progbits
 402              		.align	2
 403              		.global	DMA_Init
 404              		.thumb
 405              		.thumb_func
 407              	DMA_Init:
 408              	.LFB111:
 299:App/STM32F4-Discovery/Libraries/STM32F4xx_StdPeriph_Driver/src/stm32f4xx_dma.c **** 
 300:App/STM32F4-Discovery/Libraries/STM32F4xx_StdPeriph_Driver/src/stm32f4xx_dma.c **** /**
 301:App/STM32F4-Discovery/Libraries/STM32F4xx_StdPeriph_Driver/src/stm32f4xx_dma.c ****   * @brief  Initializes the DMAy Streamx according to the specified parameters in 
 302:App/STM32F4-Discovery/Libraries/STM32F4xx_StdPeriph_Driver/src/stm32f4xx_dma.c ****   *         the DMA_InitStruct structure.
 303:App/STM32F4-Discovery/Libraries/STM32F4xx_StdPeriph_Driver/src/stm32f4xx_dma.c ****   * @note   Before calling this function, it is recommended to check that the Stream 
 304:App/STM32F4-Discovery/Libraries/STM32F4xx_StdPeriph_Driver/src/stm32f4xx_dma.c ****   *         is actually disabled using the function DMA_GetCmdStatus().  
 305:App/STM32F4-Discovery/Libraries/STM32F4xx_StdPeriph_Driver/src/stm32f4xx_dma.c ****   * @param  DMAy_Streamx: where y can be 1 or 2 to select the DMA and x can be 0
 306:App/STM32F4-Discovery/Libraries/STM32F4xx_StdPeriph_Driver/src/stm32f4xx_dma.c ****   *         to 7 to select the DMA Stream.
 307:App/STM32F4-Discovery/Libraries/STM32F4xx_StdPeriph_Driver/src/stm32f4xx_dma.c ****   * @param  DMA_InitStruct: pointer to a DMA_InitTypeDef structure that contains
 308:App/STM32F4-Discovery/Libraries/STM32F4xx_StdPeriph_Driver/src/stm32f4xx_dma.c ****   *         the configuration information for the specified DMA Stream.  
 309:App/STM32F4-Discovery/Libraries/STM32F4xx_StdPeriph_Driver/src/stm32f4xx_dma.c ****   * @retval None
 310:App/STM32F4-Discovery/Libraries/STM32F4xx_StdPeriph_Driver/src/stm32f4xx_dma.c ****   */
 311:App/STM32F4-Discovery/Libraries/STM32F4xx_StdPeriph_Driver/src/stm32f4xx_dma.c **** void DMA_Init(DMA_Stream_TypeDef* DMAy_Streamx, DMA_InitTypeDef* DMA_InitStruct)
 312:App/STM32F4-Discovery/Libraries/STM32F4xx_StdPeriph_Driver/src/stm32f4xx_dma.c **** {
 409              		.loc 1 312 0
 410              		.cfi_startproc
 411              		@ args = 0, pretend = 0, frame = 16
 412              		@ frame_needed = 1, uses_anonymous_args = 0
 413 0000 80B5     		push	{r7, lr}
 414              	.LCFI3:
 415              		.cfi_def_cfa_offset 8
 416              		.cfi_offset 7, -8
 417              		.cfi_offset 14, -4
 418 0002 84B0     		sub	sp, sp, #16
 419              	.LCFI4:
 420              		.cfi_def_cfa_offset 24
 421 0004 00AF     		add	r7, sp, #0
 422              	.LCFI5:
 423              		.cfi_def_cfa_register 7
 424 0006 7860     		str	r0, [r7, #4]
 425 0008 3960     		str	r1, [r7, #0]
 313:App/STM32F4-Discovery/Libraries/STM32F4xx_StdPeriph_Driver/src/stm32f4xx_dma.c ****   uint32_t tmpreg = 0;
 426              		.loc 1 313 0
 427 000a 4FF00003 		mov	r3, #0
 428 000e FB60     		str	r3, [r7, #12]
 314:App/STM32F4-Discovery/Libraries/STM32F4xx_StdPeriph_Driver/src/stm32f4xx_dma.c **** 
 315:App/STM32F4-Discovery/Libraries/STM32F4xx_StdPeriph_Driver/src/stm32f4xx_dma.c ****   /* Check the parameters */
 316:App/STM32F4-Discovery/Libraries/STM32F4xx_StdPeriph_Driver/src/stm32f4xx_dma.c ****   assert_param(IS_DMA_ALL_PERIPH(DMAy_Streamx));
 429              		.loc 1 316 0
 430 0010 7A68     		ldr	r2, [r7, #4]
 431 0012 46F21003 		movw	r3, #24592
 432 0016 C4F20203 		movt	r3, 16386
 433 001a 9A42     		cmp	r2, r3
 434 001c 70D0     		beq	.L20
 435              		.loc 1 316 0 is_stmt 0 discriminator 1
 436 001e 7A68     		ldr	r2, [r7, #4]
 437 0020 46F22803 		movw	r3, #24616
 438 0024 C4F20203 		movt	r3, 16386
 439 0028 9A42     		cmp	r2, r3
 440 002a 69D0     		beq	.L20
 441              		.loc 1 316 0 discriminator 2
 442 002c 7A68     		ldr	r2, [r7, #4]
 443 002e 46F24003 		movw	r3, #24640
 444 0032 C4F20203 		movt	r3, 16386
 445 0036 9A42     		cmp	r2, r3
 446 0038 62D0     		beq	.L20
 447              		.loc 1 316 0 discriminator 3
 448 003a 7A68     		ldr	r2, [r7, #4]
 449 003c 46F25803 		movw	r3, #24664
 450 0040 C4F20203 		movt	r3, 16386
 451 0044 9A42     		cmp	r2, r3
 452 0046 5BD0     		beq	.L20
 453              		.loc 1 316 0 discriminator 4
 454 0048 7A68     		ldr	r2, [r7, #4]
 455 004a 46F27003 		movw	r3, #24688
 456 004e C4F20203 		movt	r3, 16386
 457 0052 9A42     		cmp	r2, r3
 458 0054 54D0     		beq	.L20
 459              		.loc 1 316 0 discriminator 5
 460 0056 7A68     		ldr	r2, [r7, #4]
 461 0058 46F28803 		movw	r3, #24712
 462 005c C4F20203 		movt	r3, 16386
 463 0060 9A42     		cmp	r2, r3
 464 0062 4DD0     		beq	.L20
 465              		.loc 1 316 0 discriminator 6
 466 0064 7A68     		ldr	r2, [r7, #4]
 467 0066 46F2A003 		movw	r3, #24736
 468 006a C4F20203 		movt	r3, 16386
 469 006e 9A42     		cmp	r2, r3
 470 0070 46D0     		beq	.L20
 471              		.loc 1 316 0 discriminator 7
 472 0072 7A68     		ldr	r2, [r7, #4]
 473 0074 46F2B803 		movw	r3, #24760
 474 0078 C4F20203 		movt	r3, 16386
 475 007c 9A42     		cmp	r2, r3
 476 007e 3FD0     		beq	.L20
 477              		.loc 1 316 0 discriminator 8
 478 0080 7A68     		ldr	r2, [r7, #4]
 479 0082 46F21043 		movw	r3, #25616
 480 0086 C4F20203 		movt	r3, 16386
 481 008a 9A42     		cmp	r2, r3
 482 008c 38D0     		beq	.L20
 483              		.loc 1 316 0 discriminator 9
 484 008e 7A68     		ldr	r2, [r7, #4]
 485 0090 46F22843 		movw	r3, #25640
 486 0094 C4F20203 		movt	r3, 16386
 487 0098 9A42     		cmp	r2, r3
 488 009a 31D0     		beq	.L20
 489              		.loc 1 316 0 discriminator 10
 490 009c 7A68     		ldr	r2, [r7, #4]
 491 009e 46F24043 		movw	r3, #25664
 492 00a2 C4F20203 		movt	r3, 16386
 493 00a6 9A42     		cmp	r2, r3
 494 00a8 2AD0     		beq	.L20
 495              		.loc 1 316 0 discriminator 11
 496 00aa 7A68     		ldr	r2, [r7, #4]
 497 00ac 46F25843 		movw	r3, #25688
 498 00b0 C4F20203 		movt	r3, 16386
 499 00b4 9A42     		cmp	r2, r3
 500 00b6 23D0     		beq	.L20
 501              		.loc 1 316 0 discriminator 12
 502 00b8 7A68     		ldr	r2, [r7, #4]
 503 00ba 46F27043 		movw	r3, #25712
 504 00be C4F20203 		movt	r3, 16386
 505 00c2 9A42     		cmp	r2, r3
 506 00c4 1CD0     		beq	.L20
 507              		.loc 1 316 0 discriminator 13
 508 00c6 7A68     		ldr	r2, [r7, #4]
 509 00c8 46F28843 		movw	r3, #25736
 510 00cc C4F20203 		movt	r3, 16386
 511 00d0 9A42     		cmp	r2, r3
 512 00d2 15D0     		beq	.L20
 513              		.loc 1 316 0 discriminator 14
 514 00d4 7A68     		ldr	r2, [r7, #4]
 515 00d6 46F2A043 		movw	r3, #25760
 516 00da C4F20203 		movt	r3, 16386
 517 00de 9A42     		cmp	r2, r3
 518 00e0 0ED0     		beq	.L20
 519              		.loc 1 316 0 discriminator 15
 520 00e2 7A68     		ldr	r2, [r7, #4]
 521 00e4 46F2B843 		movw	r3, #25784
 522 00e8 C4F20203 		movt	r3, 16386
 523 00ec 9A42     		cmp	r2, r3
 524 00ee 07D0     		beq	.L20
 525              		.loc 1 316 0 discriminator 16
 526 00f0 40F20000 		movw	r0, #:lower16:.LC0
 527 00f4 C0F20000 		movt	r0, #:upper16:.LC0
 528 00f8 4FF49E71 		mov	r1, #316
 529 00fc FFF7FEFF 		bl	assert_failed
 530              	.L20:
 317:App/STM32F4-Discovery/Libraries/STM32F4xx_StdPeriph_Driver/src/stm32f4xx_dma.c ****   assert_param(IS_DMA_CHANNEL(DMA_InitStruct->DMA_Channel));
 531              		.loc 1 317 0 is_stmt 1
 532 0100 3B68     		ldr	r3, [r7, #0]
 533 0102 1B68     		ldr	r3, [r3, #0]
 534 0104 002B     		cmp	r3, #0
 535 0106 2AD0     		beq	.L21
 536              		.loc 1 317 0 is_stmt 0 discriminator 1
 537 0108 3B68     		ldr	r3, [r7, #0]
 538 010a 1B68     		ldr	r3, [r3, #0]
 539 010c B3F1007F 		cmp	r3, #33554432
 540 0110 25D0     		beq	.L21
 541              		.loc 1 317 0 discriminator 2
 542 0112 3B68     		ldr	r3, [r7, #0]
 543 0114 1B68     		ldr	r3, [r3, #0]
 544 0116 B3F1806F 		cmp	r3, #67108864
 545 011a 20D0     		beq	.L21
 546              		.loc 1 317 0 discriminator 3
 547 011c 3B68     		ldr	r3, [r7, #0]
 548 011e 1B68     		ldr	r3, [r3, #0]
 549 0120 B3F1C06F 		cmp	r3, #100663296
 550 0124 1BD0     		beq	.L21
 551              		.loc 1 317 0 discriminator 4
 552 0126 3B68     		ldr	r3, [r7, #0]
 553 0128 1B68     		ldr	r3, [r3, #0]
 554 012a B3F1006F 		cmp	r3, #134217728
 555 012e 16D0     		beq	.L21
 556              		.loc 1 317 0 discriminator 5
 557 0130 3B68     		ldr	r3, [r7, #0]
 558 0132 1B68     		ldr	r3, [r3, #0]
 559 0134 B3F1206F 		cmp	r3, #167772160
 560 0138 11D0     		beq	.L21
 561              		.loc 1 317 0 discriminator 6
 562 013a 3B68     		ldr	r3, [r7, #0]
 563 013c 1B68     		ldr	r3, [r3, #0]
 564 013e B3F1406F 		cmp	r3, #201326592
 565 0142 0CD0     		beq	.L21
 566              		.loc 1 317 0 discriminator 7
 567 0144 3B68     		ldr	r3, [r7, #0]
 568 0146 1B68     		ldr	r3, [r3, #0]
 569 0148 B3F1606F 		cmp	r3, #234881024
 570 014c 07D0     		beq	.L21
 571              		.loc 1 317 0 discriminator 8
 572 014e 40F20000 		movw	r0, #:lower16:.LC0
 573 0152 C0F20000 		movt	r0, #:upper16:.LC0
 574 0156 40F23D11 		movw	r1, #317
 575 015a FFF7FEFF 		bl	assert_failed
 576              	.L21:
 318:App/STM32F4-Discovery/Libraries/STM32F4xx_StdPeriph_Driver/src/stm32f4xx_dma.c ****   assert_param(IS_DMA_DIRECTION(DMA_InitStruct->DMA_DIR));
 577              		.loc 1 318 0 is_stmt 1
 578 015e 3B68     		ldr	r3, [r7, #0]
 579 0160 DB68     		ldr	r3, [r3, #12]
 580 0162 002B     		cmp	r3, #0
 581 0164 0FD0     		beq	.L22
 582              		.loc 1 318 0 is_stmt 0 discriminator 1
 583 0166 3B68     		ldr	r3, [r7, #0]
 584 0168 DB68     		ldr	r3, [r3, #12]
 585 016a 402B     		cmp	r3, #64
 586 016c 0BD0     		beq	.L22
 587              		.loc 1 318 0 discriminator 2
 588 016e 3B68     		ldr	r3, [r7, #0]
 589 0170 DB68     		ldr	r3, [r3, #12]
 590 0172 802B     		cmp	r3, #128
 591 0174 07D0     		beq	.L22
 592              		.loc 1 318 0 discriminator 3
 593 0176 40F20000 		movw	r0, #:lower16:.LC0
 594 017a C0F20000 		movt	r0, #:upper16:.LC0
 595 017e 4FF49F71 		mov	r1, #318
 596 0182 FFF7FEFF 		bl	assert_failed
 597              	.L22:
 319:App/STM32F4-Discovery/Libraries/STM32F4xx_StdPeriph_Driver/src/stm32f4xx_dma.c ****   assert_param(IS_DMA_BUFFER_SIZE(DMA_InitStruct->DMA_BufferSize));
 598              		.loc 1 319 0 is_stmt 1
 599 0186 3B68     		ldr	r3, [r7, #0]
 600 0188 1B69     		ldr	r3, [r3, #16]
 601 018a 002B     		cmp	r3, #0
 602 018c 05D0     		beq	.L23
 603              		.loc 1 319 0 is_stmt 0 discriminator 2
 604 018e 3B68     		ldr	r3, [r7, #0]
 605 0190 1A69     		ldr	r2, [r3, #16]
 606 0192 4FF6FF73 		movw	r3, #65535
 607 0196 9A42     		cmp	r2, r3
 608 0198 07D9     		bls	.L24
 609              	.L23:
 610              		.loc 1 319 0 discriminator 1
 611 019a 40F20000 		movw	r0, #:lower16:.LC0
 612 019e C0F20000 		movt	r0, #:upper16:.LC0
 613 01a2 40F23F11 		movw	r1, #319
 614 01a6 FFF7FEFF 		bl	assert_failed
 615              	.L24:
 320:App/STM32F4-Discovery/Libraries/STM32F4xx_StdPeriph_Driver/src/stm32f4xx_dma.c ****   assert_param(IS_DMA_PERIPHERAL_INC_STATE(DMA_InitStruct->DMA_PeripheralInc));
 616              		.loc 1 320 0 is_stmt 1
 617 01aa 3B68     		ldr	r3, [r7, #0]
 618 01ac 5B69     		ldr	r3, [r3, #20]
 619 01ae B3F5007F 		cmp	r3, #512
 620 01b2 0BD0     		beq	.L25
 621              		.loc 1 320 0 is_stmt 0 discriminator 1
 622 01b4 3B68     		ldr	r3, [r7, #0]
 623 01b6 5B69     		ldr	r3, [r3, #20]
 624 01b8 002B     		cmp	r3, #0
 625 01ba 07D0     		beq	.L25
 626              		.loc 1 320 0 discriminator 2
 627 01bc 40F20000 		movw	r0, #:lower16:.LC0
 628 01c0 C0F20000 		movt	r0, #:upper16:.LC0
 629 01c4 4FF4A071 		mov	r1, #320
 630 01c8 FFF7FEFF 		bl	assert_failed
 631              	.L25:
 321:App/STM32F4-Discovery/Libraries/STM32F4xx_StdPeriph_Driver/src/stm32f4xx_dma.c ****   assert_param(IS_DMA_MEMORY_INC_STATE(DMA_InitStruct->DMA_MemoryInc));
 632              		.loc 1 321 0 is_stmt 1
 633 01cc 3B68     		ldr	r3, [r7, #0]
 634 01ce 9B69     		ldr	r3, [r3, #24]
 635 01d0 B3F5806F 		cmp	r3, #1024
 636 01d4 0BD0     		beq	.L26
 637              		.loc 1 321 0 is_stmt 0 discriminator 1
 638 01d6 3B68     		ldr	r3, [r7, #0]
 639 01d8 9B69     		ldr	r3, [r3, #24]
 640 01da 002B     		cmp	r3, #0
 641 01dc 07D0     		beq	.L26
 642              		.loc 1 321 0 discriminator 2
 643 01de 40F20000 		movw	r0, #:lower16:.LC0
 644 01e2 C0F20000 		movt	r0, #:upper16:.LC0
 645 01e6 40F24111 		movw	r1, #321
 646 01ea FFF7FEFF 		bl	assert_failed
 647              	.L26:
 322:App/STM32F4-Discovery/Libraries/STM32F4xx_StdPeriph_Driver/src/stm32f4xx_dma.c ****   assert_param(IS_DMA_PERIPHERAL_DATA_SIZE(DMA_InitStruct->DMA_PeripheralDataSize));
 648              		.loc 1 322 0 is_stmt 1
 649 01ee 3B68     		ldr	r3, [r7, #0]
 650 01f0 DB69     		ldr	r3, [r3, #28]
 651 01f2 002B     		cmp	r3, #0
 652 01f4 11D0     		beq	.L27
 653              		.loc 1 322 0 is_stmt 0 discriminator 1
 654 01f6 3B68     		ldr	r3, [r7, #0]
 655 01f8 DB69     		ldr	r3, [r3, #28]
 656 01fa B3F5006F 		cmp	r3, #2048
 657 01fe 0CD0     		beq	.L27
 658              		.loc 1 322 0 discriminator 2
 659 0200 3B68     		ldr	r3, [r7, #0]
 660 0202 DB69     		ldr	r3, [r3, #28]
 661 0204 B3F5805F 		cmp	r3, #4096
 662 0208 07D0     		beq	.L27
 663              		.loc 1 322 0 discriminator 3
 664 020a 40F20000 		movw	r0, #:lower16:.LC0
 665 020e C0F20000 		movt	r0, #:upper16:.LC0
 666 0212 4FF4A171 		mov	r1, #322
 667 0216 FFF7FEFF 		bl	assert_failed
 668              	.L27:
 323:App/STM32F4-Discovery/Libraries/STM32F4xx_StdPeriph_Driver/src/stm32f4xx_dma.c ****   assert_param(IS_DMA_MEMORY_DATA_SIZE(DMA_InitStruct->DMA_MemoryDataSize));
 669              		.loc 1 323 0 is_stmt 1
 670 021a 3B68     		ldr	r3, [r7, #0]
 671 021c 1B6A     		ldr	r3, [r3, #32]
 672 021e 002B     		cmp	r3, #0
 673 0220 11D0     		beq	.L28
 674              		.loc 1 323 0 is_stmt 0 discriminator 1
 675 0222 3B68     		ldr	r3, [r7, #0]
 676 0224 1B6A     		ldr	r3, [r3, #32]
 677 0226 B3F5005F 		cmp	r3, #8192
 678 022a 0CD0     		beq	.L28
 679              		.loc 1 323 0 discriminator 2
 680 022c 3B68     		ldr	r3, [r7, #0]
 681 022e 1B6A     		ldr	r3, [r3, #32]
 682 0230 B3F5804F 		cmp	r3, #16384
 683 0234 07D0     		beq	.L28
 684              		.loc 1 323 0 discriminator 3
 685 0236 40F20000 		movw	r0, #:lower16:.LC0
 686 023a C0F20000 		movt	r0, #:upper16:.LC0
 687 023e 40F24311 		movw	r1, #323
 688 0242 FFF7FEFF 		bl	assert_failed
 689              	.L28:
 324:App/STM32F4-Discovery/Libraries/STM32F4xx_StdPeriph_Driver/src/stm32f4xx_dma.c ****   assert_param(IS_DMA_MODE(DMA_InitStruct->DMA_Mode));
 690              		.loc 1 324 0 is_stmt 1
 691 0246 3B68     		ldr	r3, [r7, #0]
 692 0248 5B6A     		ldr	r3, [r3, #36]
 693 024a 002B     		cmp	r3, #0
 694 024c 0CD0     		beq	.L29
 695              		.loc 1 324 0 is_stmt 0 discriminator 1
 696 024e 3B68     		ldr	r3, [r7, #0]
 697 0250 5B6A     		ldr	r3, [r3, #36]
 698 0252 B3F5807F 		cmp	r3, #256
 699 0256 07D0     		beq	.L29
 700              		.loc 1 324 0 discriminator 2
 701 0258 40F20000 		movw	r0, #:lower16:.LC0
 702 025c C0F20000 		movt	r0, #:upper16:.LC0
 703 0260 4FF4A271 		mov	r1, #324
 704 0264 FFF7FEFF 		bl	assert_failed
 705              	.L29:
 325:App/STM32F4-Discovery/Libraries/STM32F4xx_StdPeriph_Driver/src/stm32f4xx_dma.c ****   assert_param(IS_DMA_PRIORITY(DMA_InitStruct->DMA_Priority));
 706              		.loc 1 325 0 is_stmt 1
 707 0268 3B68     		ldr	r3, [r7, #0]
 708 026a 9B6A     		ldr	r3, [r3, #40]
 709 026c 002B     		cmp	r3, #0
 710 026e 16D0     		beq	.L30
 711              		.loc 1 325 0 is_stmt 0 discriminator 1
 712 0270 3B68     		ldr	r3, [r7, #0]
 713 0272 9B6A     		ldr	r3, [r3, #40]
 714 0274 B3F5803F 		cmp	r3, #65536
 715 0278 11D0     		beq	.L30
 716              		.loc 1 325 0 discriminator 2
 717 027a 3B68     		ldr	r3, [r7, #0]
 718 027c 9B6A     		ldr	r3, [r3, #40]
 719 027e B3F5003F 		cmp	r3, #131072
 720 0282 0CD0     		beq	.L30
 721              		.loc 1 325 0 discriminator 3
 722 0284 3B68     		ldr	r3, [r7, #0]
 723 0286 9B6A     		ldr	r3, [r3, #40]
 724 0288 B3F5403F 		cmp	r3, #196608
 725 028c 07D0     		beq	.L30
 726              		.loc 1 325 0 discriminator 4
 727 028e 40F20000 		movw	r0, #:lower16:.LC0
 728 0292 C0F20000 		movt	r0, #:upper16:.LC0
 729 0296 40F24511 		movw	r1, #325
 730 029a FFF7FEFF 		bl	assert_failed
 731              	.L30:
 326:App/STM32F4-Discovery/Libraries/STM32F4xx_StdPeriph_Driver/src/stm32f4xx_dma.c ****   assert_param(IS_DMA_FIFO_MODE_STATE(DMA_InitStruct->DMA_FIFOMode));
 732              		.loc 1 326 0 is_stmt 1
 733 029e 3B68     		ldr	r3, [r7, #0]
 734 02a0 DB6A     		ldr	r3, [r3, #44]
 735 02a2 002B     		cmp	r3, #0
 736 02a4 0BD0     		beq	.L31
 737              		.loc 1 326 0 is_stmt 0 discriminator 1
 738 02a6 3B68     		ldr	r3, [r7, #0]
 739 02a8 DB6A     		ldr	r3, [r3, #44]
 740 02aa 042B     		cmp	r3, #4
 741 02ac 07D0     		beq	.L31
 742              		.loc 1 326 0 discriminator 2
 743 02ae 40F20000 		movw	r0, #:lower16:.LC0
 744 02b2 C0F20000 		movt	r0, #:upper16:.LC0
 745 02b6 4FF4A371 		mov	r1, #326
 746 02ba FFF7FEFF 		bl	assert_failed
 747              	.L31:
 327:App/STM32F4-Discovery/Libraries/STM32F4xx_StdPeriph_Driver/src/stm32f4xx_dma.c ****   assert_param(IS_DMA_FIFO_THRESHOLD(DMA_InitStruct->DMA_FIFOThreshold));
 748              		.loc 1 327 0 is_stmt 1
 749 02be 3B68     		ldr	r3, [r7, #0]
 750 02c0 1B6B     		ldr	r3, [r3, #48]
 751 02c2 002B     		cmp	r3, #0
 752 02c4 13D0     		beq	.L32
 753              		.loc 1 327 0 is_stmt 0 discriminator 1
 754 02c6 3B68     		ldr	r3, [r7, #0]
 755 02c8 1B6B     		ldr	r3, [r3, #48]
 756 02ca 012B     		cmp	r3, #1
 757 02cc 0FD0     		beq	.L32
 758              		.loc 1 327 0 discriminator 2
 759 02ce 3B68     		ldr	r3, [r7, #0]
 760 02d0 1B6B     		ldr	r3, [r3, #48]
 761 02d2 022B     		cmp	r3, #2
 762 02d4 0BD0     		beq	.L32
 763              		.loc 1 327 0 discriminator 3
 764 02d6 3B68     		ldr	r3, [r7, #0]
 765 02d8 1B6B     		ldr	r3, [r3, #48]
 766 02da 032B     		cmp	r3, #3
 767 02dc 07D0     		beq	.L32
 768              		.loc 1 327 0 discriminator 4
 769 02de 40F20000 		movw	r0, #:lower16:.LC0
 770 02e2 C0F20000 		movt	r0, #:upper16:.LC0
 771 02e6 40F24711 		movw	r1, #327
 772 02ea FFF7FEFF 		bl	assert_failed
 773              	.L32:
 328:App/STM32F4-Discovery/Libraries/STM32F4xx_StdPeriph_Driver/src/stm32f4xx_dma.c ****   assert_param(IS_DMA_MEMORY_BURST(DMA_InitStruct->DMA_MemoryBurst));
 774              		.loc 1 328 0 is_stmt 1
 775 02ee 3B68     		ldr	r3, [r7, #0]
 776 02f0 5B6B     		ldr	r3, [r3, #52]
 777 02f2 002B     		cmp	r3, #0
 778 02f4 16D0     		beq	.L33
 779              		.loc 1 328 0 is_stmt 0 discriminator 1
 780 02f6 3B68     		ldr	r3, [r7, #0]
 781 02f8 5B6B     		ldr	r3, [r3, #52]
 782 02fa B3F5000F 		cmp	r3, #8388608
 783 02fe 11D0     		beq	.L33
 784              		.loc 1 328 0 discriminator 2
 785 0300 3B68     		ldr	r3, [r7, #0]
 786 0302 5B6B     		ldr	r3, [r3, #52]
 787 0304 B3F1807F 		cmp	r3, #16777216
 788 0308 0CD0     		beq	.L33
 789              		.loc 1 328 0 discriminator 3
 790 030a 3B68     		ldr	r3, [r7, #0]
 791 030c 5B6B     		ldr	r3, [r3, #52]
 792 030e B3F1C07F 		cmp	r3, #25165824
 793 0312 07D0     		beq	.L33
 794              		.loc 1 328 0 discriminator 4
 795 0314 40F20000 		movw	r0, #:lower16:.LC0
 796 0318 C0F20000 		movt	r0, #:upper16:.LC0
 797 031c 4FF4A471 		mov	r1, #328
 798 0320 FFF7FEFF 		bl	assert_failed
 799              	.L33:
 329:App/STM32F4-Discovery/Libraries/STM32F4xx_StdPeriph_Driver/src/stm32f4xx_dma.c ****   assert_param(IS_DMA_PERIPHERAL_BURST(DMA_InitStruct->DMA_PeripheralBurst));
 800              		.loc 1 329 0 is_stmt 1
 801 0324 3B68     		ldr	r3, [r7, #0]
 802 0326 9B6B     		ldr	r3, [r3, #56]
 803 0328 002B     		cmp	r3, #0
 804 032a 16D0     		beq	.L34
 805              		.loc 1 329 0 is_stmt 0 discriminator 1
 806 032c 3B68     		ldr	r3, [r7, #0]
 807 032e 9B6B     		ldr	r3, [r3, #56]
 808 0330 B3F5001F 		cmp	r3, #2097152
 809 0334 11D0     		beq	.L34
 810              		.loc 1 329 0 discriminator 2
 811 0336 3B68     		ldr	r3, [r7, #0]
 812 0338 9B6B     		ldr	r3, [r3, #56]
 813 033a B3F5800F 		cmp	r3, #4194304
 814 033e 0CD0     		beq	.L34
 815              		.loc 1 329 0 discriminator 3
 816 0340 3B68     		ldr	r3, [r7, #0]
 817 0342 9B6B     		ldr	r3, [r3, #56]
 818 0344 B3F5C00F 		cmp	r3, #6291456
 819 0348 07D0     		beq	.L34
 820              		.loc 1 329 0 discriminator 4
 821 034a 40F20000 		movw	r0, #:lower16:.LC0
 822 034e C0F20000 		movt	r0, #:upper16:.LC0
 823 0352 40F24911 		movw	r1, #329
 824 0356 FFF7FEFF 		bl	assert_failed
 825              	.L34:
 330:App/STM32F4-Discovery/Libraries/STM32F4xx_StdPeriph_Driver/src/stm32f4xx_dma.c **** 
 331:App/STM32F4-Discovery/Libraries/STM32F4xx_StdPeriph_Driver/src/stm32f4xx_dma.c ****   /*------------------------- DMAy Streamx CR Configuration ------------------*/
 332:App/STM32F4-Discovery/Libraries/STM32F4xx_StdPeriph_Driver/src/stm32f4xx_dma.c ****   /* Get the DMAy_Streamx CR value */
 333:App/STM32F4-Discovery/Libraries/STM32F4xx_StdPeriph_Driver/src/stm32f4xx_dma.c ****   tmpreg = DMAy_Streamx->CR;
 826              		.loc 1 333 0 is_stmt 1
 827 035a 7B68     		ldr	r3, [r7, #4]
 828 035c 1B68     		ldr	r3, [r3, #0]
 829 035e FB60     		str	r3, [r7, #12]
 334:App/STM32F4-Discovery/Libraries/STM32F4xx_StdPeriph_Driver/src/stm32f4xx_dma.c **** 
 335:App/STM32F4-Discovery/Libraries/STM32F4xx_StdPeriph_Driver/src/stm32f4xx_dma.c ****   /* Clear CHSEL, MBURST, PBURST, PL, MSIZE, PSIZE, MINC, PINC, CIRC and DIR bits */
 336:App/STM32F4-Discovery/Libraries/STM32F4xx_StdPeriph_Driver/src/stm32f4xx_dma.c ****   tmpreg &= ((uint32_t)~(DMA_SxCR_CHSEL | DMA_SxCR_MBURST | DMA_SxCR_PBURST | \
 830              		.loc 1 336 0
 831 0360 FA68     		ldr	r2, [r7, #12]
 832 0362 48F23F03 		movw	r3, #32831
 833 0366 CFF21C03 		movt	r3, 61468
 834 036a 1340     		ands	r3, r3, r2
 835 036c FB60     		str	r3, [r7, #12]
 337:App/STM32F4-Discovery/Libraries/STM32F4xx_StdPeriph_Driver/src/stm32f4xx_dma.c ****                          DMA_SxCR_PL | DMA_SxCR_MSIZE | DMA_SxCR_PSIZE | \
 338:App/STM32F4-Discovery/Libraries/STM32F4xx_StdPeriph_Driver/src/stm32f4xx_dma.c ****                          DMA_SxCR_MINC | DMA_SxCR_PINC | DMA_SxCR_CIRC | \
 339:App/STM32F4-Discovery/Libraries/STM32F4xx_StdPeriph_Driver/src/stm32f4xx_dma.c ****                          DMA_SxCR_DIR));
 340:App/STM32F4-Discovery/Libraries/STM32F4xx_StdPeriph_Driver/src/stm32f4xx_dma.c **** 
 341:App/STM32F4-Discovery/Libraries/STM32F4xx_StdPeriph_Driver/src/stm32f4xx_dma.c ****   /* Configure DMAy Streamx: */
 342:App/STM32F4-Discovery/Libraries/STM32F4xx_StdPeriph_Driver/src/stm32f4xx_dma.c ****   /* Set CHSEL bits according to DMA_CHSEL value */
 343:App/STM32F4-Discovery/Libraries/STM32F4xx_StdPeriph_Driver/src/stm32f4xx_dma.c ****   /* Set DIR bits according to DMA_DIR value */
 344:App/STM32F4-Discovery/Libraries/STM32F4xx_StdPeriph_Driver/src/stm32f4xx_dma.c ****   /* Set PINC bit according to DMA_PeripheralInc value */
 345:App/STM32F4-Discovery/Libraries/STM32F4xx_StdPeriph_Driver/src/stm32f4xx_dma.c ****   /* Set MINC bit according to DMA_MemoryInc value */
 346:App/STM32F4-Discovery/Libraries/STM32F4xx_StdPeriph_Driver/src/stm32f4xx_dma.c ****   /* Set PSIZE bits according to DMA_PeripheralDataSize value */
 347:App/STM32F4-Discovery/Libraries/STM32F4xx_StdPeriph_Driver/src/stm32f4xx_dma.c ****   /* Set MSIZE bits according to DMA_MemoryDataSize value */
 348:App/STM32F4-Discovery/Libraries/STM32F4xx_StdPeriph_Driver/src/stm32f4xx_dma.c ****   /* Set CIRC bit according to DMA_Mode value */
 349:App/STM32F4-Discovery/Libraries/STM32F4xx_StdPeriph_Driver/src/stm32f4xx_dma.c ****   /* Set PL bits according to DMA_Priority value */
 350:App/STM32F4-Discovery/Libraries/STM32F4xx_StdPeriph_Driver/src/stm32f4xx_dma.c ****   /* Set MBURST bits according to DMA_MemoryBurst value */
 351:App/STM32F4-Discovery/Libraries/STM32F4xx_StdPeriph_Driver/src/stm32f4xx_dma.c ****   /* Set PBURST bits according to DMA_PeripheralBurst value */
 352:App/STM32F4-Discovery/Libraries/STM32F4xx_StdPeriph_Driver/src/stm32f4xx_dma.c ****   tmpreg |= DMA_InitStruct->DMA_Channel | DMA_InitStruct->DMA_DIR |
 836              		.loc 1 352 0
 837 036e 3B68     		ldr	r3, [r7, #0]
 838 0370 1A68     		ldr	r2, [r3, #0]
 839 0372 3B68     		ldr	r3, [r7, #0]
 840 0374 DB68     		ldr	r3, [r3, #12]
 841 0376 1A43     		orrs	r2, r2, r3
 353:App/STM32F4-Discovery/Libraries/STM32F4xx_StdPeriph_Driver/src/stm32f4xx_dma.c ****             DMA_InitStruct->DMA_PeripheralInc | DMA_InitStruct->DMA_MemoryInc |
 842              		.loc 1 353 0
 843 0378 3B68     		ldr	r3, [r7, #0]
 844 037a 5B69     		ldr	r3, [r3, #20]
 352:App/STM32F4-Discovery/Libraries/STM32F4xx_StdPeriph_Driver/src/stm32f4xx_dma.c ****   tmpreg |= DMA_InitStruct->DMA_Channel | DMA_InitStruct->DMA_DIR |
 845              		.loc 1 352 0
 846 037c 1A43     		orrs	r2, r2, r3
 847              		.loc 1 353 0
 848 037e 3B68     		ldr	r3, [r7, #0]
 849 0380 9B69     		ldr	r3, [r3, #24]
 850 0382 1A43     		orrs	r2, r2, r3
 354:App/STM32F4-Discovery/Libraries/STM32F4xx_StdPeriph_Driver/src/stm32f4xx_dma.c ****             DMA_InitStruct->DMA_PeripheralDataSize | DMA_InitStruct->DMA_MemoryDataSize |
 851              		.loc 1 354 0
 852 0384 3B68     		ldr	r3, [r7, #0]
 853 0386 DB69     		ldr	r3, [r3, #28]
 353:App/STM32F4-Discovery/Libraries/STM32F4xx_StdPeriph_Driver/src/stm32f4xx_dma.c ****             DMA_InitStruct->DMA_PeripheralInc | DMA_InitStruct->DMA_MemoryInc |
 854              		.loc 1 353 0
 855 0388 1A43     		orrs	r2, r2, r3
 856              		.loc 1 354 0
 857 038a 3B68     		ldr	r3, [r7, #0]
 858 038c 1B6A     		ldr	r3, [r3, #32]
 859 038e 1A43     		orrs	r2, r2, r3
 355:App/STM32F4-Discovery/Libraries/STM32F4xx_StdPeriph_Driver/src/stm32f4xx_dma.c ****             DMA_InitStruct->DMA_Mode | DMA_InitStruct->DMA_Priority |
 860              		.loc 1 355 0
 861 0390 3B68     		ldr	r3, [r7, #0]
 862 0392 5B6A     		ldr	r3, [r3, #36]
 354:App/STM32F4-Discovery/Libraries/STM32F4xx_StdPeriph_Driver/src/stm32f4xx_dma.c ****             DMA_InitStruct->DMA_PeripheralDataSize | DMA_InitStruct->DMA_MemoryDataSize |
 863              		.loc 1 354 0
 864 0394 1A43     		orrs	r2, r2, r3
 865              		.loc 1 355 0
 866 0396 3B68     		ldr	r3, [r7, #0]
 867 0398 9B6A     		ldr	r3, [r3, #40]
 868 039a 1A43     		orrs	r2, r2, r3
 356:App/STM32F4-Discovery/Libraries/STM32F4xx_StdPeriph_Driver/src/stm32f4xx_dma.c ****             DMA_InitStruct->DMA_MemoryBurst | DMA_InitStruct->DMA_PeripheralBurst;
 869              		.loc 1 356 0
 870 039c 3B68     		ldr	r3, [r7, #0]
 871 039e 5B6B     		ldr	r3, [r3, #52]
 355:App/STM32F4-Discovery/Libraries/STM32F4xx_StdPeriph_Driver/src/stm32f4xx_dma.c ****             DMA_InitStruct->DMA_Mode | DMA_InitStruct->DMA_Priority |
 872              		.loc 1 355 0
 873 03a0 1A43     		orrs	r2, r2, r3
 874              		.loc 1 356 0
 875 03a2 3B68     		ldr	r3, [r7, #0]
 876 03a4 9B6B     		ldr	r3, [r3, #56]
 877 03a6 1343     		orrs	r3, r3, r2
 352:App/STM32F4-Discovery/Libraries/STM32F4xx_StdPeriph_Driver/src/stm32f4xx_dma.c ****   tmpreg |= DMA_InitStruct->DMA_Channel | DMA_InitStruct->DMA_DIR |
 878              		.loc 1 352 0
 879 03a8 FA68     		ldr	r2, [r7, #12]
 880 03aa 1343     		orrs	r3, r3, r2
 881 03ac FB60     		str	r3, [r7, #12]
 357:App/STM32F4-Discovery/Libraries/STM32F4xx_StdPeriph_Driver/src/stm32f4xx_dma.c **** 
 358:App/STM32F4-Discovery/Libraries/STM32F4xx_StdPeriph_Driver/src/stm32f4xx_dma.c ****   /* Write to DMAy Streamx CR register */
 359:App/STM32F4-Discovery/Libraries/STM32F4xx_StdPeriph_Driver/src/stm32f4xx_dma.c ****   DMAy_Streamx->CR = tmpreg;
 882              		.loc 1 359 0
 883 03ae 7B68     		ldr	r3, [r7, #4]
 884 03b0 FA68     		ldr	r2, [r7, #12]
 885 03b2 1A60     		str	r2, [r3, #0]
 360:App/STM32F4-Discovery/Libraries/STM32F4xx_StdPeriph_Driver/src/stm32f4xx_dma.c **** 
 361:App/STM32F4-Discovery/Libraries/STM32F4xx_StdPeriph_Driver/src/stm32f4xx_dma.c ****   /*------------------------- DMAy Streamx FCR Configuration -----------------*/
 362:App/STM32F4-Discovery/Libraries/STM32F4xx_StdPeriph_Driver/src/stm32f4xx_dma.c ****   /* Get the DMAy_Streamx FCR value */
 363:App/STM32F4-Discovery/Libraries/STM32F4xx_StdPeriph_Driver/src/stm32f4xx_dma.c ****   tmpreg = DMAy_Streamx->FCR;
 886              		.loc 1 363 0
 887 03b4 7B68     		ldr	r3, [r7, #4]
 888 03b6 5B69     		ldr	r3, [r3, #20]
 889 03b8 FB60     		str	r3, [r7, #12]
 364:App/STM32F4-Discovery/Libraries/STM32F4xx_StdPeriph_Driver/src/stm32f4xx_dma.c **** 
 365:App/STM32F4-Discovery/Libraries/STM32F4xx_StdPeriph_Driver/src/stm32f4xx_dma.c ****   /* Clear DMDIS and FTH bits */
 366:App/STM32F4-Discovery/Libraries/STM32F4xx_StdPeriph_Driver/src/stm32f4xx_dma.c ****   tmpreg &= (uint32_t)~(DMA_SxFCR_DMDIS | DMA_SxFCR_FTH);
 890              		.loc 1 366 0
 891 03ba FB68     		ldr	r3, [r7, #12]
 892 03bc 23F00703 		bic	r3, r3, #7
 893 03c0 FB60     		str	r3, [r7, #12]
 367:App/STM32F4-Discovery/Libraries/STM32F4xx_StdPeriph_Driver/src/stm32f4xx_dma.c **** 
 368:App/STM32F4-Discovery/Libraries/STM32F4xx_StdPeriph_Driver/src/stm32f4xx_dma.c ****   /* Configure DMAy Streamx FIFO: 
 369:App/STM32F4-Discovery/Libraries/STM32F4xx_StdPeriph_Driver/src/stm32f4xx_dma.c ****     Set DMDIS bits according to DMA_FIFOMode value 
 370:App/STM32F4-Discovery/Libraries/STM32F4xx_StdPeriph_Driver/src/stm32f4xx_dma.c ****     Set FTH bits according to DMA_FIFOThreshold value */
 371:App/STM32F4-Discovery/Libraries/STM32F4xx_StdPeriph_Driver/src/stm32f4xx_dma.c ****   tmpreg |= DMA_InitStruct->DMA_FIFOMode | DMA_InitStruct->DMA_FIFOThreshold;
 894              		.loc 1 371 0
 895 03c2 3B68     		ldr	r3, [r7, #0]
 896 03c4 DA6A     		ldr	r2, [r3, #44]
 897 03c6 3B68     		ldr	r3, [r7, #0]
 898 03c8 1B6B     		ldr	r3, [r3, #48]
 899 03ca 1343     		orrs	r3, r3, r2
 900 03cc FA68     		ldr	r2, [r7, #12]
 901 03ce 1343     		orrs	r3, r3, r2
 902 03d0 FB60     		str	r3, [r7, #12]
 372:App/STM32F4-Discovery/Libraries/STM32F4xx_StdPeriph_Driver/src/stm32f4xx_dma.c **** 
 373:App/STM32F4-Discovery/Libraries/STM32F4xx_StdPeriph_Driver/src/stm32f4xx_dma.c ****   /* Write to DMAy Streamx CR */
 374:App/STM32F4-Discovery/Libraries/STM32F4xx_StdPeriph_Driver/src/stm32f4xx_dma.c ****   DMAy_Streamx->FCR = tmpreg;
 903              		.loc 1 374 0
 904 03d2 7B68     		ldr	r3, [r7, #4]
 905 03d4 FA68     		ldr	r2, [r7, #12]
 906 03d6 5A61     		str	r2, [r3, #20]
 375:App/STM32F4-Discovery/Libraries/STM32F4xx_StdPeriph_Driver/src/stm32f4xx_dma.c **** 
 376:App/STM32F4-Discovery/Libraries/STM32F4xx_StdPeriph_Driver/src/stm32f4xx_dma.c ****   /*------------------------- DMAy Streamx NDTR Configuration ----------------*/
 377:App/STM32F4-Discovery/Libraries/STM32F4xx_StdPeriph_Driver/src/stm32f4xx_dma.c ****   /* Write to DMAy Streamx NDTR register */
 378:App/STM32F4-Discovery/Libraries/STM32F4xx_StdPeriph_Driver/src/stm32f4xx_dma.c ****   DMAy_Streamx->NDTR = DMA_InitStruct->DMA_BufferSize;
 907              		.loc 1 378 0
 908 03d8 3B68     		ldr	r3, [r7, #0]
 909 03da 1A69     		ldr	r2, [r3, #16]
 910 03dc 7B68     		ldr	r3, [r7, #4]
 911 03de 5A60     		str	r2, [r3, #4]
 379:App/STM32F4-Discovery/Libraries/STM32F4xx_StdPeriph_Driver/src/stm32f4xx_dma.c **** 
 380:App/STM32F4-Discovery/Libraries/STM32F4xx_StdPeriph_Driver/src/stm32f4xx_dma.c ****   /*------------------------- DMAy Streamx PAR Configuration -----------------*/
 381:App/STM32F4-Discovery/Libraries/STM32F4xx_StdPeriph_Driver/src/stm32f4xx_dma.c ****   /* Write to DMAy Streamx PAR */
 382:App/STM32F4-Discovery/Libraries/STM32F4xx_StdPeriph_Driver/src/stm32f4xx_dma.c ****   DMAy_Streamx->PAR = DMA_InitStruct->DMA_PeripheralBaseAddr;
 912              		.loc 1 382 0
 913 03e0 3B68     		ldr	r3, [r7, #0]
 914 03e2 5A68     		ldr	r2, [r3, #4]
 915 03e4 7B68     		ldr	r3, [r7, #4]
 916 03e6 9A60     		str	r2, [r3, #8]
 383:App/STM32F4-Discovery/Libraries/STM32F4xx_StdPeriph_Driver/src/stm32f4xx_dma.c **** 
 384:App/STM32F4-Discovery/Libraries/STM32F4xx_StdPeriph_Driver/src/stm32f4xx_dma.c ****   /*------------------------- DMAy Streamx M0AR Configuration ----------------*/
 385:App/STM32F4-Discovery/Libraries/STM32F4xx_StdPeriph_Driver/src/stm32f4xx_dma.c ****   /* Write to DMAy Streamx M0AR */
 386:App/STM32F4-Discovery/Libraries/STM32F4xx_StdPeriph_Driver/src/stm32f4xx_dma.c ****   DMAy_Streamx->M0AR = DMA_InitStruct->DMA_Memory0BaseAddr;
 917              		.loc 1 386 0
 918 03e8 3B68     		ldr	r3, [r7, #0]
 919 03ea 9A68     		ldr	r2, [r3, #8]
 920 03ec 7B68     		ldr	r3, [r7, #4]
 921 03ee DA60     		str	r2, [r3, #12]
 387:App/STM32F4-Discovery/Libraries/STM32F4xx_StdPeriph_Driver/src/stm32f4xx_dma.c **** }
 922              		.loc 1 387 0
 923 03f0 07F11007 		add	r7, r7, #16
 924 03f4 BD46     		mov	sp, r7
 925 03f6 80BD     		pop	{r7, pc}
 926              		.cfi_endproc
 927              	.LFE111:
 929              		.section	.text.DMA_StructInit,"ax",%progbits
 930              		.align	2
 931              		.global	DMA_StructInit
 932              		.thumb
 933              		.thumb_func
 935              	DMA_StructInit:
 936              	.LFB112:
 388:App/STM32F4-Discovery/Libraries/STM32F4xx_StdPeriph_Driver/src/stm32f4xx_dma.c **** 
 389:App/STM32F4-Discovery/Libraries/STM32F4xx_StdPeriph_Driver/src/stm32f4xx_dma.c **** /**
 390:App/STM32F4-Discovery/Libraries/STM32F4xx_StdPeriph_Driver/src/stm32f4xx_dma.c ****   * @brief  Fills each DMA_InitStruct member with its default value.
 391:App/STM32F4-Discovery/Libraries/STM32F4xx_StdPeriph_Driver/src/stm32f4xx_dma.c ****   * @param  DMA_InitStruct : pointer to a DMA_InitTypeDef structure which will 
 392:App/STM32F4-Discovery/Libraries/STM32F4xx_StdPeriph_Driver/src/stm32f4xx_dma.c ****   *         be initialized.
 393:App/STM32F4-Discovery/Libraries/STM32F4xx_StdPeriph_Driver/src/stm32f4xx_dma.c ****   * @retval None
 394:App/STM32F4-Discovery/Libraries/STM32F4xx_StdPeriph_Driver/src/stm32f4xx_dma.c ****   */
 395:App/STM32F4-Discovery/Libraries/STM32F4xx_StdPeriph_Driver/src/stm32f4xx_dma.c **** void DMA_StructInit(DMA_InitTypeDef* DMA_InitStruct)
 396:App/STM32F4-Discovery/Libraries/STM32F4xx_StdPeriph_Driver/src/stm32f4xx_dma.c **** {
 937              		.loc 1 396 0
 938              		.cfi_startproc
 939              		@ args = 0, pretend = 0, frame = 8
 940              		@ frame_needed = 1, uses_anonymous_args = 0
 941              		@ link register save eliminated.
 942 0000 80B4     		push	{r7}
 943              	.LCFI6:
 944              		.cfi_def_cfa_offset 4
 945              		.cfi_offset 7, -4
 946 0002 83B0     		sub	sp, sp, #12
 947              	.LCFI7:
 948              		.cfi_def_cfa_offset 16
 949 0004 00AF     		add	r7, sp, #0
 950              	.LCFI8:
 951              		.cfi_def_cfa_register 7
 952 0006 7860     		str	r0, [r7, #4]
 397:App/STM32F4-Discovery/Libraries/STM32F4xx_StdPeriph_Driver/src/stm32f4xx_dma.c ****   /*-------------- Reset DMA init structure parameters values ----------------*/
 398:App/STM32F4-Discovery/Libraries/STM32F4xx_StdPeriph_Driver/src/stm32f4xx_dma.c ****   /* Initialize the DMA_Channel member */
 399:App/STM32F4-Discovery/Libraries/STM32F4xx_StdPeriph_Driver/src/stm32f4xx_dma.c ****   DMA_InitStruct->DMA_Channel = 0;
 953              		.loc 1 399 0
 954 0008 7B68     		ldr	r3, [r7, #4]
 955 000a 4FF00002 		mov	r2, #0
 956 000e 1A60     		str	r2, [r3, #0]
 400:App/STM32F4-Discovery/Libraries/STM32F4xx_StdPeriph_Driver/src/stm32f4xx_dma.c **** 
 401:App/STM32F4-Discovery/Libraries/STM32F4xx_StdPeriph_Driver/src/stm32f4xx_dma.c ****   /* Initialize the DMA_PeripheralBaseAddr member */
 402:App/STM32F4-Discovery/Libraries/STM32F4xx_StdPeriph_Driver/src/stm32f4xx_dma.c ****   DMA_InitStruct->DMA_PeripheralBaseAddr = 0;
 957              		.loc 1 402 0
 958 0010 7B68     		ldr	r3, [r7, #4]
 959 0012 4FF00002 		mov	r2, #0
 960 0016 5A60     		str	r2, [r3, #4]
 403:App/STM32F4-Discovery/Libraries/STM32F4xx_StdPeriph_Driver/src/stm32f4xx_dma.c **** 
 404:App/STM32F4-Discovery/Libraries/STM32F4xx_StdPeriph_Driver/src/stm32f4xx_dma.c ****   /* Initialize the DMA_Memory0BaseAddr member */
 405:App/STM32F4-Discovery/Libraries/STM32F4xx_StdPeriph_Driver/src/stm32f4xx_dma.c ****   DMA_InitStruct->DMA_Memory0BaseAddr = 0;
 961              		.loc 1 405 0
 962 0018 7B68     		ldr	r3, [r7, #4]
 963 001a 4FF00002 		mov	r2, #0
 964 001e 9A60     		str	r2, [r3, #8]
 406:App/STM32F4-Discovery/Libraries/STM32F4xx_StdPeriph_Driver/src/stm32f4xx_dma.c **** 
 407:App/STM32F4-Discovery/Libraries/STM32F4xx_StdPeriph_Driver/src/stm32f4xx_dma.c ****   /* Initialize the DMA_DIR member */
 408:App/STM32F4-Discovery/Libraries/STM32F4xx_StdPeriph_Driver/src/stm32f4xx_dma.c ****   DMA_InitStruct->DMA_DIR = DMA_DIR_PeripheralToMemory;
 965              		.loc 1 408 0
 966 0020 7B68     		ldr	r3, [r7, #4]
 967 0022 4FF00002 		mov	r2, #0
 968 0026 DA60     		str	r2, [r3, #12]
 409:App/STM32F4-Discovery/Libraries/STM32F4xx_StdPeriph_Driver/src/stm32f4xx_dma.c **** 
 410:App/STM32F4-Discovery/Libraries/STM32F4xx_StdPeriph_Driver/src/stm32f4xx_dma.c ****   /* Initialize the DMA_BufferSize member */
 411:App/STM32F4-Discovery/Libraries/STM32F4xx_StdPeriph_Driver/src/stm32f4xx_dma.c ****   DMA_InitStruct->DMA_BufferSize = 0;
 969              		.loc 1 411 0
 970 0028 7B68     		ldr	r3, [r7, #4]
 971 002a 4FF00002 		mov	r2, #0
 972 002e 1A61     		str	r2, [r3, #16]
 412:App/STM32F4-Discovery/Libraries/STM32F4xx_StdPeriph_Driver/src/stm32f4xx_dma.c **** 
 413:App/STM32F4-Discovery/Libraries/STM32F4xx_StdPeriph_Driver/src/stm32f4xx_dma.c ****   /* Initialize the DMA_PeripheralInc member */
 414:App/STM32F4-Discovery/Libraries/STM32F4xx_StdPeriph_Driver/src/stm32f4xx_dma.c ****   DMA_InitStruct->DMA_PeripheralInc = DMA_PeripheralInc_Disable;
 973              		.loc 1 414 0
 974 0030 7B68     		ldr	r3, [r7, #4]
 975 0032 4FF00002 		mov	r2, #0
 976 0036 5A61     		str	r2, [r3, #20]
 415:App/STM32F4-Discovery/Libraries/STM32F4xx_StdPeriph_Driver/src/stm32f4xx_dma.c **** 
 416:App/STM32F4-Discovery/Libraries/STM32F4xx_StdPeriph_Driver/src/stm32f4xx_dma.c ****   /* Initialize the DMA_MemoryInc member */
 417:App/STM32F4-Discovery/Libraries/STM32F4xx_StdPeriph_Driver/src/stm32f4xx_dma.c ****   DMA_InitStruct->DMA_MemoryInc = DMA_MemoryInc_Disable;
 977              		.loc 1 417 0
 978 0038 7B68     		ldr	r3, [r7, #4]
 979 003a 4FF00002 		mov	r2, #0
 980 003e 9A61     		str	r2, [r3, #24]
 418:App/STM32F4-Discovery/Libraries/STM32F4xx_StdPeriph_Driver/src/stm32f4xx_dma.c **** 
 419:App/STM32F4-Discovery/Libraries/STM32F4xx_StdPeriph_Driver/src/stm32f4xx_dma.c ****   /* Initialize the DMA_PeripheralDataSize member */
 420:App/STM32F4-Discovery/Libraries/STM32F4xx_StdPeriph_Driver/src/stm32f4xx_dma.c ****   DMA_InitStruct->DMA_PeripheralDataSize = DMA_PeripheralDataSize_Byte;
 981              		.loc 1 420 0
 982 0040 7B68     		ldr	r3, [r7, #4]
 983 0042 4FF00002 		mov	r2, #0
 984 0046 DA61     		str	r2, [r3, #28]
 421:App/STM32F4-Discovery/Libraries/STM32F4xx_StdPeriph_Driver/src/stm32f4xx_dma.c **** 
 422:App/STM32F4-Discovery/Libraries/STM32F4xx_StdPeriph_Driver/src/stm32f4xx_dma.c ****   /* Initialize the DMA_MemoryDataSize member */
 423:App/STM32F4-Discovery/Libraries/STM32F4xx_StdPeriph_Driver/src/stm32f4xx_dma.c ****   DMA_InitStruct->DMA_MemoryDataSize = DMA_MemoryDataSize_Byte;
 985              		.loc 1 423 0
 986 0048 7B68     		ldr	r3, [r7, #4]
 987 004a 4FF00002 		mov	r2, #0
 988 004e 1A62     		str	r2, [r3, #32]
 424:App/STM32F4-Discovery/Libraries/STM32F4xx_StdPeriph_Driver/src/stm32f4xx_dma.c **** 
 425:App/STM32F4-Discovery/Libraries/STM32F4xx_StdPeriph_Driver/src/stm32f4xx_dma.c ****   /* Initialize the DMA_Mode member */
 426:App/STM32F4-Discovery/Libraries/STM32F4xx_StdPeriph_Driver/src/stm32f4xx_dma.c ****   DMA_InitStruct->DMA_Mode = DMA_Mode_Normal;
 989              		.loc 1 426 0
 990 0050 7B68     		ldr	r3, [r7, #4]
 991 0052 4FF00002 		mov	r2, #0
 992 0056 5A62     		str	r2, [r3, #36]
 427:App/STM32F4-Discovery/Libraries/STM32F4xx_StdPeriph_Driver/src/stm32f4xx_dma.c **** 
 428:App/STM32F4-Discovery/Libraries/STM32F4xx_StdPeriph_Driver/src/stm32f4xx_dma.c ****   /* Initialize the DMA_Priority member */
 429:App/STM32F4-Discovery/Libraries/STM32F4xx_StdPeriph_Driver/src/stm32f4xx_dma.c ****   DMA_InitStruct->DMA_Priority = DMA_Priority_Low;
 993              		.loc 1 429 0
 994 0058 7B68     		ldr	r3, [r7, #4]
 995 005a 4FF00002 		mov	r2, #0
 996 005e 9A62     		str	r2, [r3, #40]
 430:App/STM32F4-Discovery/Libraries/STM32F4xx_StdPeriph_Driver/src/stm32f4xx_dma.c **** 
 431:App/STM32F4-Discovery/Libraries/STM32F4xx_StdPeriph_Driver/src/stm32f4xx_dma.c ****   /* Initialize the DMA_FIFOMode member */
 432:App/STM32F4-Discovery/Libraries/STM32F4xx_StdPeriph_Driver/src/stm32f4xx_dma.c ****   DMA_InitStruct->DMA_FIFOMode = DMA_FIFOMode_Disable;
 997              		.loc 1 432 0
 998 0060 7B68     		ldr	r3, [r7, #4]
 999 0062 4FF00002 		mov	r2, #0
 1000 0066 DA62     		str	r2, [r3, #44]
 433:App/STM32F4-Discovery/Libraries/STM32F4xx_StdPeriph_Driver/src/stm32f4xx_dma.c **** 
 434:App/STM32F4-Discovery/Libraries/STM32F4xx_StdPeriph_Driver/src/stm32f4xx_dma.c ****   /* Initialize the DMA_FIFOThreshold member */
 435:App/STM32F4-Discovery/Libraries/STM32F4xx_StdPeriph_Driver/src/stm32f4xx_dma.c ****   DMA_InitStruct->DMA_FIFOThreshold = DMA_FIFOThreshold_1QuarterFull;
 1001              		.loc 1 435 0
 1002 0068 7B68     		ldr	r3, [r7, #4]
 1003 006a 4FF00002 		mov	r2, #0
 1004 006e 1A63     		str	r2, [r3, #48]
 436:App/STM32F4-Discovery/Libraries/STM32F4xx_StdPeriph_Driver/src/stm32f4xx_dma.c **** 
 437:App/STM32F4-Discovery/Libraries/STM32F4xx_StdPeriph_Driver/src/stm32f4xx_dma.c ****   /* Initialize the DMA_MemoryBurst member */
 438:App/STM32F4-Discovery/Libraries/STM32F4xx_StdPeriph_Driver/src/stm32f4xx_dma.c ****   DMA_InitStruct->DMA_MemoryBurst = DMA_MemoryBurst_Single;
 1005              		.loc 1 438 0
 1006 0070 7B68     		ldr	r3, [r7, #4]
 1007 0072 4FF00002 		mov	r2, #0
 1008 0076 5A63     		str	r2, [r3, #52]
 439:App/STM32F4-Discovery/Libraries/STM32F4xx_StdPeriph_Driver/src/stm32f4xx_dma.c **** 
 440:App/STM32F4-Discovery/Libraries/STM32F4xx_StdPeriph_Driver/src/stm32f4xx_dma.c ****   /* Initialize the DMA_PeripheralBurst member */
 441:App/STM32F4-Discovery/Libraries/STM32F4xx_StdPeriph_Driver/src/stm32f4xx_dma.c ****   DMA_InitStruct->DMA_PeripheralBurst = DMA_PeripheralBurst_Single;
 1009              		.loc 1 441 0
 1010 0078 7B68     		ldr	r3, [r7, #4]
 1011 007a 4FF00002 		mov	r2, #0
 1012 007e 9A63     		str	r2, [r3, #56]
 442:App/STM32F4-Discovery/Libraries/STM32F4xx_StdPeriph_Driver/src/stm32f4xx_dma.c **** }
 1013              		.loc 1 442 0
 1014 0080 07F10C07 		add	r7, r7, #12
 1015 0084 BD46     		mov	sp, r7
 1016 0086 80BC     		pop	{r7}
 1017 0088 7047     		bx	lr
 1018              		.cfi_endproc
 1019              	.LFE112:
 1021 008a 00BF     		.section	.text.DMA_Cmd,"ax",%progbits
 1022              		.align	2
 1023              		.global	DMA_Cmd
 1024              		.thumb
 1025              		.thumb_func
 1027              	DMA_Cmd:
 1028              	.LFB113:
 443:App/STM32F4-Discovery/Libraries/STM32F4xx_StdPeriph_Driver/src/stm32f4xx_dma.c **** 
 444:App/STM32F4-Discovery/Libraries/STM32F4xx_StdPeriph_Driver/src/stm32f4xx_dma.c **** /**
 445:App/STM32F4-Discovery/Libraries/STM32F4xx_StdPeriph_Driver/src/stm32f4xx_dma.c ****   * @brief  Enables or disables the specified DMAy Streamx.
 446:App/STM32F4-Discovery/Libraries/STM32F4xx_StdPeriph_Driver/src/stm32f4xx_dma.c ****   * @param  DMAy_Streamx: where y can be 1 or 2 to select the DMA and x can be 0
 447:App/STM32F4-Discovery/Libraries/STM32F4xx_StdPeriph_Driver/src/stm32f4xx_dma.c ****   *         to 7 to select the DMA Stream.
 448:App/STM32F4-Discovery/Libraries/STM32F4xx_StdPeriph_Driver/src/stm32f4xx_dma.c ****   * @param  NewState: new state of the DMAy Streamx. 
 449:App/STM32F4-Discovery/Libraries/STM32F4xx_StdPeriph_Driver/src/stm32f4xx_dma.c ****   *          This parameter can be: ENABLE or DISABLE.
 450:App/STM32F4-Discovery/Libraries/STM32F4xx_StdPeriph_Driver/src/stm32f4xx_dma.c ****   *
 451:App/STM32F4-Discovery/Libraries/STM32F4xx_StdPeriph_Driver/src/stm32f4xx_dma.c ****   * @note  This function may be used to perform Pause-Resume operation. When a
 452:App/STM32F4-Discovery/Libraries/STM32F4xx_StdPeriph_Driver/src/stm32f4xx_dma.c ****   *        transfer is ongoing, calling this function to disable the Stream will
 453:App/STM32F4-Discovery/Libraries/STM32F4xx_StdPeriph_Driver/src/stm32f4xx_dma.c ****   *        cause the transfer to be paused. All configuration registers and the
 454:App/STM32F4-Discovery/Libraries/STM32F4xx_StdPeriph_Driver/src/stm32f4xx_dma.c ****   *        number of remaining data will be preserved. When calling again this
 455:App/STM32F4-Discovery/Libraries/STM32F4xx_StdPeriph_Driver/src/stm32f4xx_dma.c ****   *        function to re-enable the Stream, the transfer will be resumed from
 456:App/STM32F4-Discovery/Libraries/STM32F4xx_StdPeriph_Driver/src/stm32f4xx_dma.c ****   *        the point where it was paused.          
 457:App/STM32F4-Discovery/Libraries/STM32F4xx_StdPeriph_Driver/src/stm32f4xx_dma.c ****   *    
 458:App/STM32F4-Discovery/Libraries/STM32F4xx_StdPeriph_Driver/src/stm32f4xx_dma.c ****   * @note  After configuring the DMA Stream (DMA_Init() function) and enabling the
 459:App/STM32F4-Discovery/Libraries/STM32F4xx_StdPeriph_Driver/src/stm32f4xx_dma.c ****   *        stream, it is recommended to check (or wait until) the DMA Stream is
 460:App/STM32F4-Discovery/Libraries/STM32F4xx_StdPeriph_Driver/src/stm32f4xx_dma.c ****   *        effectively enabled. A Stream may remain disabled if a configuration 
 461:App/STM32F4-Discovery/Libraries/STM32F4xx_StdPeriph_Driver/src/stm32f4xx_dma.c ****   *        parameter is wrong.
 462:App/STM32F4-Discovery/Libraries/STM32F4xx_StdPeriph_Driver/src/stm32f4xx_dma.c ****   *        After disabling a DMA Stream, it is also recommended to check (or wait
 463:App/STM32F4-Discovery/Libraries/STM32F4xx_StdPeriph_Driver/src/stm32f4xx_dma.c ****   *        until) the DMA Stream is effectively disabled. If a Stream is disabled 
 464:App/STM32F4-Discovery/Libraries/STM32F4xx_StdPeriph_Driver/src/stm32f4xx_dma.c ****   *        while a data transfer is ongoing, the current data will be transferred
 465:App/STM32F4-Discovery/Libraries/STM32F4xx_StdPeriph_Driver/src/stm32f4xx_dma.c ****   *        and the Stream will be effectively disabled only after the transfer of
 466:App/STM32F4-Discovery/Libraries/STM32F4xx_StdPeriph_Driver/src/stm32f4xx_dma.c ****   *        this single data is finished.            
 467:App/STM32F4-Discovery/Libraries/STM32F4xx_StdPeriph_Driver/src/stm32f4xx_dma.c ****   *    
 468:App/STM32F4-Discovery/Libraries/STM32F4xx_StdPeriph_Driver/src/stm32f4xx_dma.c ****   * @retval None
 469:App/STM32F4-Discovery/Libraries/STM32F4xx_StdPeriph_Driver/src/stm32f4xx_dma.c ****   */
 470:App/STM32F4-Discovery/Libraries/STM32F4xx_StdPeriph_Driver/src/stm32f4xx_dma.c **** void DMA_Cmd(DMA_Stream_TypeDef* DMAy_Streamx, FunctionalState NewState)
 471:App/STM32F4-Discovery/Libraries/STM32F4xx_StdPeriph_Driver/src/stm32f4xx_dma.c **** {
 1029              		.loc 1 471 0
 1030              		.cfi_startproc
 1031              		@ args = 0, pretend = 0, frame = 8
 1032              		@ frame_needed = 1, uses_anonymous_args = 0
 1033 0000 80B5     		push	{r7, lr}
 1034              	.LCFI9:
 1035              		.cfi_def_cfa_offset 8
 1036              		.cfi_offset 7, -8
 1037              		.cfi_offset 14, -4
 1038 0002 82B0     		sub	sp, sp, #8
 1039              	.LCFI10:
 1040              		.cfi_def_cfa_offset 16
 1041 0004 00AF     		add	r7, sp, #0
 1042              	.LCFI11:
 1043              		.cfi_def_cfa_register 7
 1044 0006 7860     		str	r0, [r7, #4]
 1045 0008 0B46     		mov	r3, r1
 1046 000a FB70     		strb	r3, [r7, #3]
 472:App/STM32F4-Discovery/Libraries/STM32F4xx_StdPeriph_Driver/src/stm32f4xx_dma.c ****   /* Check the parameters */
 473:App/STM32F4-Discovery/Libraries/STM32F4xx_StdPeriph_Driver/src/stm32f4xx_dma.c ****   assert_param(IS_DMA_ALL_PERIPH(DMAy_Streamx));
 1047              		.loc 1 473 0
 1048 000c 7A68     		ldr	r2, [r7, #4]
 1049 000e 46F21003 		movw	r3, #24592
 1050 0012 C4F20203 		movt	r3, 16386
 1051 0016 9A42     		cmp	r2, r3
 1052 0018 70D0     		beq	.L37
 1053              		.loc 1 473 0 is_stmt 0 discriminator 1
 1054 001a 7A68     		ldr	r2, [r7, #4]
 1055 001c 46F22803 		movw	r3, #24616
 1056 0020 C4F20203 		movt	r3, 16386
 1057 0024 9A42     		cmp	r2, r3
 1058 0026 69D0     		beq	.L37
 1059              		.loc 1 473 0 discriminator 2
 1060 0028 7A68     		ldr	r2, [r7, #4]
 1061 002a 46F24003 		movw	r3, #24640
 1062 002e C4F20203 		movt	r3, 16386
 1063 0032 9A42     		cmp	r2, r3
 1064 0034 62D0     		beq	.L37
 1065              		.loc 1 473 0 discriminator 3
 1066 0036 7A68     		ldr	r2, [r7, #4]
 1067 0038 46F25803 		movw	r3, #24664
 1068 003c C4F20203 		movt	r3, 16386
 1069 0040 9A42     		cmp	r2, r3
 1070 0042 5BD0     		beq	.L37
 1071              		.loc 1 473 0 discriminator 4
 1072 0044 7A68     		ldr	r2, [r7, #4]
 1073 0046 46F27003 		movw	r3, #24688
 1074 004a C4F20203 		movt	r3, 16386
 1075 004e 9A42     		cmp	r2, r3
 1076 0050 54D0     		beq	.L37
 1077              		.loc 1 473 0 discriminator 5
 1078 0052 7A68     		ldr	r2, [r7, #4]
 1079 0054 46F28803 		movw	r3, #24712
 1080 0058 C4F20203 		movt	r3, 16386
 1081 005c 9A42     		cmp	r2, r3
 1082 005e 4DD0     		beq	.L37
 1083              		.loc 1 473 0 discriminator 6
 1084 0060 7A68     		ldr	r2, [r7, #4]
 1085 0062 46F2A003 		movw	r3, #24736
 1086 0066 C4F20203 		movt	r3, 16386
 1087 006a 9A42     		cmp	r2, r3
 1088 006c 46D0     		beq	.L37
 1089              		.loc 1 473 0 discriminator 7
 1090 006e 7A68     		ldr	r2, [r7, #4]
 1091 0070 46F2B803 		movw	r3, #24760
 1092 0074 C4F20203 		movt	r3, 16386
 1093 0078 9A42     		cmp	r2, r3
 1094 007a 3FD0     		beq	.L37
 1095              		.loc 1 473 0 discriminator 8
 1096 007c 7A68     		ldr	r2, [r7, #4]
 1097 007e 46F21043 		movw	r3, #25616
 1098 0082 C4F20203 		movt	r3, 16386
 1099 0086 9A42     		cmp	r2, r3
 1100 0088 38D0     		beq	.L37
 1101              		.loc 1 473 0 discriminator 9
 1102 008a 7A68     		ldr	r2, [r7, #4]
 1103 008c 46F22843 		movw	r3, #25640
 1104 0090 C4F20203 		movt	r3, 16386
 1105 0094 9A42     		cmp	r2, r3
 1106 0096 31D0     		beq	.L37
 1107              		.loc 1 473 0 discriminator 10
 1108 0098 7A68     		ldr	r2, [r7, #4]
 1109 009a 46F24043 		movw	r3, #25664
 1110 009e C4F20203 		movt	r3, 16386
 1111 00a2 9A42     		cmp	r2, r3
 1112 00a4 2AD0     		beq	.L37
 1113              		.loc 1 473 0 discriminator 11
 1114 00a6 7A68     		ldr	r2, [r7, #4]
 1115 00a8 46F25843 		movw	r3, #25688
 1116 00ac C4F20203 		movt	r3, 16386
 1117 00b0 9A42     		cmp	r2, r3
 1118 00b2 23D0     		beq	.L37
 1119              		.loc 1 473 0 discriminator 12
 1120 00b4 7A68     		ldr	r2, [r7, #4]
 1121 00b6 46F27043 		movw	r3, #25712
 1122 00ba C4F20203 		movt	r3, 16386
 1123 00be 9A42     		cmp	r2, r3
 1124 00c0 1CD0     		beq	.L37
 1125              		.loc 1 473 0 discriminator 13
 1126 00c2 7A68     		ldr	r2, [r7, #4]
 1127 00c4 46F28843 		movw	r3, #25736
 1128 00c8 C4F20203 		movt	r3, 16386
 1129 00cc 9A42     		cmp	r2, r3
 1130 00ce 15D0     		beq	.L37
 1131              		.loc 1 473 0 discriminator 14
 1132 00d0 7A68     		ldr	r2, [r7, #4]
 1133 00d2 46F2A043 		movw	r3, #25760
 1134 00d6 C4F20203 		movt	r3, 16386
 1135 00da 9A42     		cmp	r2, r3
 1136 00dc 0ED0     		beq	.L37
 1137              		.loc 1 473 0 discriminator 15
 1138 00de 7A68     		ldr	r2, [r7, #4]
 1139 00e0 46F2B843 		movw	r3, #25784
 1140 00e4 C4F20203 		movt	r3, 16386
 1141 00e8 9A42     		cmp	r2, r3
 1142 00ea 07D0     		beq	.L37
 1143              		.loc 1 473 0 discriminator 16
 1144 00ec 40F20000 		movw	r0, #:lower16:.LC0
 1145 00f0 C0F20000 		movt	r0, #:upper16:.LC0
 1146 00f4 40F2D911 		movw	r1, #473
 1147 00f8 FFF7FEFF 		bl	assert_failed
 1148              	.L37:
 474:App/STM32F4-Discovery/Libraries/STM32F4xx_StdPeriph_Driver/src/stm32f4xx_dma.c ****   assert_param(IS_FUNCTIONAL_STATE(NewState));
 1149              		.loc 1 474 0 is_stmt 1
 1150 00fc FB78     		ldrb	r3, [r7, #3]	@ zero_extendqisi2
 1151 00fe 002B     		cmp	r3, #0
 1152 0100 0AD0     		beq	.L38
 1153              		.loc 1 474 0 is_stmt 0 discriminator 1
 1154 0102 FB78     		ldrb	r3, [r7, #3]	@ zero_extendqisi2
 1155 0104 012B     		cmp	r3, #1
 1156 0106 07D0     		beq	.L38
 1157              		.loc 1 474 0 discriminator 2
 1158 0108 40F20000 		movw	r0, #:lower16:.LC0
 1159 010c C0F20000 		movt	r0, #:upper16:.LC0
 1160 0110 4FF4ED71 		mov	r1, #474
 1161 0114 FFF7FEFF 		bl	assert_failed
 1162              	.L38:
 475:App/STM32F4-Discovery/Libraries/STM32F4xx_StdPeriph_Driver/src/stm32f4xx_dma.c **** 
 476:App/STM32F4-Discovery/Libraries/STM32F4xx_StdPeriph_Driver/src/stm32f4xx_dma.c ****   if (NewState != DISABLE)
 1163              		.loc 1 476 0 is_stmt 1
 1164 0118 FB78     		ldrb	r3, [r7, #3]	@ zero_extendqisi2
 1165 011a 002B     		cmp	r3, #0
 1166 011c 06D0     		beq	.L39
 477:App/STM32F4-Discovery/Libraries/STM32F4xx_StdPeriph_Driver/src/stm32f4xx_dma.c ****   {
 478:App/STM32F4-Discovery/Libraries/STM32F4xx_StdPeriph_Driver/src/stm32f4xx_dma.c ****     /* Enable the selected DMAy Streamx by setting EN bit */
 479:App/STM32F4-Discovery/Libraries/STM32F4xx_StdPeriph_Driver/src/stm32f4xx_dma.c ****     DMAy_Streamx->CR |= (uint32_t)DMA_SxCR_EN;
 1167              		.loc 1 479 0
 1168 011e 7B68     		ldr	r3, [r7, #4]
 1169 0120 1B68     		ldr	r3, [r3, #0]
 1170 0122 43F00102 		orr	r2, r3, #1
 1171 0126 7B68     		ldr	r3, [r7, #4]
 1172 0128 1A60     		str	r2, [r3, #0]
 1173 012a 05E0     		b	.L36
 1174              	.L39:
 480:App/STM32F4-Discovery/Libraries/STM32F4xx_StdPeriph_Driver/src/stm32f4xx_dma.c ****   }
 481:App/STM32F4-Discovery/Libraries/STM32F4xx_StdPeriph_Driver/src/stm32f4xx_dma.c ****   else
 482:App/STM32F4-Discovery/Libraries/STM32F4xx_StdPeriph_Driver/src/stm32f4xx_dma.c ****   {
 483:App/STM32F4-Discovery/Libraries/STM32F4xx_StdPeriph_Driver/src/stm32f4xx_dma.c ****     /* Disable the selected DMAy Streamx by clearing EN bit */
 484:App/STM32F4-Discovery/Libraries/STM32F4xx_StdPeriph_Driver/src/stm32f4xx_dma.c ****     DMAy_Streamx->CR &= ~(uint32_t)DMA_SxCR_EN;
 1175              		.loc 1 484 0
 1176 012c 7B68     		ldr	r3, [r7, #4]
 1177 012e 1B68     		ldr	r3, [r3, #0]
 1178 0130 23F00102 		bic	r2, r3, #1
 1179 0134 7B68     		ldr	r3, [r7, #4]
 1180 0136 1A60     		str	r2, [r3, #0]
 1181              	.L36:
 485:App/STM32F4-Discovery/Libraries/STM32F4xx_StdPeriph_Driver/src/stm32f4xx_dma.c ****   }
 486:App/STM32F4-Discovery/Libraries/STM32F4xx_StdPeriph_Driver/src/stm32f4xx_dma.c **** }
 1182              		.loc 1 486 0
 1183 0138 07F10807 		add	r7, r7, #8
 1184 013c BD46     		mov	sp, r7
 1185 013e 80BD     		pop	{r7, pc}
 1186              		.cfi_endproc
 1187              	.LFE113:
 1189              		.section	.text.DMA_PeriphIncOffsetSizeConfig,"ax",%progbits
 1190              		.align	2
 1191              		.global	DMA_PeriphIncOffsetSizeConfig
 1192              		.thumb
 1193              		.thumb_func
 1195              	DMA_PeriphIncOffsetSizeConfig:
 1196              	.LFB114:
 487:App/STM32F4-Discovery/Libraries/STM32F4xx_StdPeriph_Driver/src/stm32f4xx_dma.c **** 
 488:App/STM32F4-Discovery/Libraries/STM32F4xx_StdPeriph_Driver/src/stm32f4xx_dma.c **** /**
 489:App/STM32F4-Discovery/Libraries/STM32F4xx_StdPeriph_Driver/src/stm32f4xx_dma.c ****   * @brief  Configures, when the PINC (Peripheral Increment address mode) bit is
 490:App/STM32F4-Discovery/Libraries/STM32F4xx_StdPeriph_Driver/src/stm32f4xx_dma.c ****   *         set, if the peripheral address should be incremented with the data 
 491:App/STM32F4-Discovery/Libraries/STM32F4xx_StdPeriph_Driver/src/stm32f4xx_dma.c ****   *         size (configured with PSIZE bits) or by a fixed offset equal to 4
 492:App/STM32F4-Discovery/Libraries/STM32F4xx_StdPeriph_Driver/src/stm32f4xx_dma.c ****   *         (32-bit aligned addresses).
 493:App/STM32F4-Discovery/Libraries/STM32F4xx_StdPeriph_Driver/src/stm32f4xx_dma.c ****   *   
 494:App/STM32F4-Discovery/Libraries/STM32F4xx_StdPeriph_Driver/src/stm32f4xx_dma.c ****   * @note   This function has no effect if the Peripheral Increment mode is disabled.
 495:App/STM32F4-Discovery/Libraries/STM32F4xx_StdPeriph_Driver/src/stm32f4xx_dma.c ****   *     
 496:App/STM32F4-Discovery/Libraries/STM32F4xx_StdPeriph_Driver/src/stm32f4xx_dma.c ****   * @param  DMAy_Streamx: where y can be 1 or 2 to select the DMA and x can be 0
 497:App/STM32F4-Discovery/Libraries/STM32F4xx_StdPeriph_Driver/src/stm32f4xx_dma.c ****   *          to 7 to select the DMA Stream.
 498:App/STM32F4-Discovery/Libraries/STM32F4xx_StdPeriph_Driver/src/stm32f4xx_dma.c ****   * @param  DMA_Pincos: specifies the Peripheral increment offset size.
 499:App/STM32F4-Discovery/Libraries/STM32F4xx_StdPeriph_Driver/src/stm32f4xx_dma.c ****   *          This parameter can be one of the following values:
 500:App/STM32F4-Discovery/Libraries/STM32F4xx_StdPeriph_Driver/src/stm32f4xx_dma.c ****   *            @arg DMA_PINCOS_Psize: Peripheral address increment is done  
 501:App/STM32F4-Discovery/Libraries/STM32F4xx_StdPeriph_Driver/src/stm32f4xx_dma.c ****   *                                   accordingly to PSIZE parameter.
 502:App/STM32F4-Discovery/Libraries/STM32F4xx_StdPeriph_Driver/src/stm32f4xx_dma.c ****   *            @arg DMA_PINCOS_WordAligned: Peripheral address increment offset is 
 503:App/STM32F4-Discovery/Libraries/STM32F4xx_StdPeriph_Driver/src/stm32f4xx_dma.c ****   *                                         fixed to 4 (32-bit aligned addresses). 
 504:App/STM32F4-Discovery/Libraries/STM32F4xx_StdPeriph_Driver/src/stm32f4xx_dma.c ****   * @retval None
 505:App/STM32F4-Discovery/Libraries/STM32F4xx_StdPeriph_Driver/src/stm32f4xx_dma.c ****   */
 506:App/STM32F4-Discovery/Libraries/STM32F4xx_StdPeriph_Driver/src/stm32f4xx_dma.c **** void DMA_PeriphIncOffsetSizeConfig(DMA_Stream_TypeDef* DMAy_Streamx, uint32_t DMA_Pincos)
 507:App/STM32F4-Discovery/Libraries/STM32F4xx_StdPeriph_Driver/src/stm32f4xx_dma.c **** {
 1197              		.loc 1 507 0
 1198              		.cfi_startproc
 1199              		@ args = 0, pretend = 0, frame = 8
 1200              		@ frame_needed = 1, uses_anonymous_args = 0
 1201 0000 80B5     		push	{r7, lr}
 1202              	.LCFI12:
 1203              		.cfi_def_cfa_offset 8
 1204              		.cfi_offset 7, -8
 1205              		.cfi_offset 14, -4
 1206 0002 82B0     		sub	sp, sp, #8
 1207              	.LCFI13:
 1208              		.cfi_def_cfa_offset 16
 1209 0004 00AF     		add	r7, sp, #0
 1210              	.LCFI14:
 1211              		.cfi_def_cfa_register 7
 1212 0006 7860     		str	r0, [r7, #4]
 1213 0008 3960     		str	r1, [r7, #0]
 508:App/STM32F4-Discovery/Libraries/STM32F4xx_StdPeriph_Driver/src/stm32f4xx_dma.c ****   /* Check the parameters */
 509:App/STM32F4-Discovery/Libraries/STM32F4xx_StdPeriph_Driver/src/stm32f4xx_dma.c ****   assert_param(IS_DMA_ALL_PERIPH(DMAy_Streamx));
 1214              		.loc 1 509 0
 1215 000a 7A68     		ldr	r2, [r7, #4]
 1216 000c 46F21003 		movw	r3, #24592
 1217 0010 C4F20203 		movt	r3, 16386
 1218 0014 9A42     		cmp	r2, r3
 1219 0016 70D0     		beq	.L42
 1220              		.loc 1 509 0 is_stmt 0 discriminator 1
 1221 0018 7A68     		ldr	r2, [r7, #4]
 1222 001a 46F22803 		movw	r3, #24616
 1223 001e C4F20203 		movt	r3, 16386
 1224 0022 9A42     		cmp	r2, r3
 1225 0024 69D0     		beq	.L42
 1226              		.loc 1 509 0 discriminator 2
 1227 0026 7A68     		ldr	r2, [r7, #4]
 1228 0028 46F24003 		movw	r3, #24640
 1229 002c C4F20203 		movt	r3, 16386
 1230 0030 9A42     		cmp	r2, r3
 1231 0032 62D0     		beq	.L42
 1232              		.loc 1 509 0 discriminator 3
 1233 0034 7A68     		ldr	r2, [r7, #4]
 1234 0036 46F25803 		movw	r3, #24664
 1235 003a C4F20203 		movt	r3, 16386
 1236 003e 9A42     		cmp	r2, r3
 1237 0040 5BD0     		beq	.L42
 1238              		.loc 1 509 0 discriminator 4
 1239 0042 7A68     		ldr	r2, [r7, #4]
 1240 0044 46F27003 		movw	r3, #24688
 1241 0048 C4F20203 		movt	r3, 16386
 1242 004c 9A42     		cmp	r2, r3
 1243 004e 54D0     		beq	.L42
 1244              		.loc 1 509 0 discriminator 5
 1245 0050 7A68     		ldr	r2, [r7, #4]
 1246 0052 46F28803 		movw	r3, #24712
 1247 0056 C4F20203 		movt	r3, 16386
 1248 005a 9A42     		cmp	r2, r3
 1249 005c 4DD0     		beq	.L42
 1250              		.loc 1 509 0 discriminator 6
 1251 005e 7A68     		ldr	r2, [r7, #4]
 1252 0060 46F2A003 		movw	r3, #24736
 1253 0064 C4F20203 		movt	r3, 16386
 1254 0068 9A42     		cmp	r2, r3
 1255 006a 46D0     		beq	.L42
 1256              		.loc 1 509 0 discriminator 7
 1257 006c 7A68     		ldr	r2, [r7, #4]
 1258 006e 46F2B803 		movw	r3, #24760
 1259 0072 C4F20203 		movt	r3, 16386
 1260 0076 9A42     		cmp	r2, r3
 1261 0078 3FD0     		beq	.L42
 1262              		.loc 1 509 0 discriminator 8
 1263 007a 7A68     		ldr	r2, [r7, #4]
 1264 007c 46F21043 		movw	r3, #25616
 1265 0080 C4F20203 		movt	r3, 16386
 1266 0084 9A42     		cmp	r2, r3
 1267 0086 38D0     		beq	.L42
 1268              		.loc 1 509 0 discriminator 9
 1269 0088 7A68     		ldr	r2, [r7, #4]
 1270 008a 46F22843 		movw	r3, #25640
 1271 008e C4F20203 		movt	r3, 16386
 1272 0092 9A42     		cmp	r2, r3
 1273 0094 31D0     		beq	.L42
 1274              		.loc 1 509 0 discriminator 10
 1275 0096 7A68     		ldr	r2, [r7, #4]
 1276 0098 46F24043 		movw	r3, #25664
 1277 009c C4F20203 		movt	r3, 16386
 1278 00a0 9A42     		cmp	r2, r3
 1279 00a2 2AD0     		beq	.L42
 1280              		.loc 1 509 0 discriminator 11
 1281 00a4 7A68     		ldr	r2, [r7, #4]
 1282 00a6 46F25843 		movw	r3, #25688
 1283 00aa C4F20203 		movt	r3, 16386
 1284 00ae 9A42     		cmp	r2, r3
 1285 00b0 23D0     		beq	.L42
 1286              		.loc 1 509 0 discriminator 12
 1287 00b2 7A68     		ldr	r2, [r7, #4]
 1288 00b4 46F27043 		movw	r3, #25712
 1289 00b8 C4F20203 		movt	r3, 16386
 1290 00bc 9A42     		cmp	r2, r3
 1291 00be 1CD0     		beq	.L42
 1292              		.loc 1 509 0 discriminator 13
 1293 00c0 7A68     		ldr	r2, [r7, #4]
 1294 00c2 46F28843 		movw	r3, #25736
 1295 00c6 C4F20203 		movt	r3, 16386
 1296 00ca 9A42     		cmp	r2, r3
 1297 00cc 15D0     		beq	.L42
 1298              		.loc 1 509 0 discriminator 14
 1299 00ce 7A68     		ldr	r2, [r7, #4]
 1300 00d0 46F2A043 		movw	r3, #25760
 1301 00d4 C4F20203 		movt	r3, 16386
 1302 00d8 9A42     		cmp	r2, r3
 1303 00da 0ED0     		beq	.L42
 1304              		.loc 1 509 0 discriminator 15
 1305 00dc 7A68     		ldr	r2, [r7, #4]
 1306 00de 46F2B843 		movw	r3, #25784
 1307 00e2 C4F20203 		movt	r3, 16386
 1308 00e6 9A42     		cmp	r2, r3
 1309 00e8 07D0     		beq	.L42
 1310              		.loc 1 509 0 discriminator 16
 1311 00ea 40F20000 		movw	r0, #:lower16:.LC0
 1312 00ee C0F20000 		movt	r0, #:upper16:.LC0
 1313 00f2 40F2FD11 		movw	r1, #509
 1314 00f6 FFF7FEFF 		bl	assert_failed
 1315              	.L42:
 510:App/STM32F4-Discovery/Libraries/STM32F4xx_StdPeriph_Driver/src/stm32f4xx_dma.c ****   assert_param(IS_DMA_PINCOS_SIZE(DMA_Pincos));
 1316              		.loc 1 510 0 is_stmt 1
 1317 00fa 3B68     		ldr	r3, [r7, #0]
 1318 00fc 002B     		cmp	r3, #0
 1319 00fe 0BD0     		beq	.L43
 1320              		.loc 1 510 0 is_stmt 0 discriminator 1
 1321 0100 3B68     		ldr	r3, [r7, #0]
 1322 0102 B3F5004F 		cmp	r3, #32768
 1323 0106 07D0     		beq	.L43
 1324              		.loc 1 510 0 discriminator 2
 1325 0108 40F20000 		movw	r0, #:lower16:.LC0
 1326 010c C0F20000 		movt	r0, #:upper16:.LC0
 1327 0110 4FF4FF71 		mov	r1, #510
 1328 0114 FFF7FEFF 		bl	assert_failed
 1329              	.L43:
 511:App/STM32F4-Discovery/Libraries/STM32F4xx_StdPeriph_Driver/src/stm32f4xx_dma.c **** 
 512:App/STM32F4-Discovery/Libraries/STM32F4xx_StdPeriph_Driver/src/stm32f4xx_dma.c ****   /* Check the needed Peripheral increment offset */
 513:App/STM32F4-Discovery/Libraries/STM32F4xx_StdPeriph_Driver/src/stm32f4xx_dma.c ****   if(DMA_Pincos != DMA_PINCOS_Psize)
 1330              		.loc 1 513 0 is_stmt 1
 1331 0118 3B68     		ldr	r3, [r7, #0]
 1332 011a 002B     		cmp	r3, #0
 1333 011c 06D0     		beq	.L44
 514:App/STM32F4-Discovery/Libraries/STM32F4xx_StdPeriph_Driver/src/stm32f4xx_dma.c ****   {
 515:App/STM32F4-Discovery/Libraries/STM32F4xx_StdPeriph_Driver/src/stm32f4xx_dma.c ****     /* Configure DMA_SxCR_PINCOS bit with the input parameter */
 516:App/STM32F4-Discovery/Libraries/STM32F4xx_StdPeriph_Driver/src/stm32f4xx_dma.c ****     DMAy_Streamx->CR |= (uint32_t)DMA_SxCR_PINCOS;     
 1334              		.loc 1 516 0
 1335 011e 7B68     		ldr	r3, [r7, #4]
 1336 0120 1B68     		ldr	r3, [r3, #0]
 1337 0122 43F40042 		orr	r2, r3, #32768
 1338 0126 7B68     		ldr	r3, [r7, #4]
 1339 0128 1A60     		str	r2, [r3, #0]
 1340 012a 05E0     		b	.L41
 1341              	.L44:
 517:App/STM32F4-Discovery/Libraries/STM32F4xx_StdPeriph_Driver/src/stm32f4xx_dma.c ****   }
 518:App/STM32F4-Discovery/Libraries/STM32F4xx_StdPeriph_Driver/src/stm32f4xx_dma.c ****   else
 519:App/STM32F4-Discovery/Libraries/STM32F4xx_StdPeriph_Driver/src/stm32f4xx_dma.c ****   {
 520:App/STM32F4-Discovery/Libraries/STM32F4xx_StdPeriph_Driver/src/stm32f4xx_dma.c ****     /* Clear the PINCOS bit: Peripheral address incremented according to PSIZE */
 521:App/STM32F4-Discovery/Libraries/STM32F4xx_StdPeriph_Driver/src/stm32f4xx_dma.c ****     DMAy_Streamx->CR &= ~(uint32_t)DMA_SxCR_PINCOS;    
 1342              		.loc 1 521 0
 1343 012c 7B68     		ldr	r3, [r7, #4]
 1344 012e 1B68     		ldr	r3, [r3, #0]
 1345 0130 23F40042 		bic	r2, r3, #32768
 1346 0134 7B68     		ldr	r3, [r7, #4]
 1347 0136 1A60     		str	r2, [r3, #0]
 1348              	.L41:
 522:App/STM32F4-Discovery/Libraries/STM32F4xx_StdPeriph_Driver/src/stm32f4xx_dma.c ****   }
 523:App/STM32F4-Discovery/Libraries/STM32F4xx_StdPeriph_Driver/src/stm32f4xx_dma.c **** }
 1349              		.loc 1 523 0
 1350 0138 07F10807 		add	r7, r7, #8
 1351 013c BD46     		mov	sp, r7
 1352 013e 80BD     		pop	{r7, pc}
 1353              		.cfi_endproc
 1354              	.LFE114:
 1356              		.section	.text.DMA_FlowControllerConfig,"ax",%progbits
 1357              		.align	2
 1358              		.global	DMA_FlowControllerConfig
 1359              		.thumb
 1360              		.thumb_func
 1362              	DMA_FlowControllerConfig:
 1363              	.LFB115:
 524:App/STM32F4-Discovery/Libraries/STM32F4xx_StdPeriph_Driver/src/stm32f4xx_dma.c **** 
 525:App/STM32F4-Discovery/Libraries/STM32F4xx_StdPeriph_Driver/src/stm32f4xx_dma.c **** /**
 526:App/STM32F4-Discovery/Libraries/STM32F4xx_StdPeriph_Driver/src/stm32f4xx_dma.c ****   * @brief  Configures, when the DMAy Streamx is disabled, the flow controller for
 527:App/STM32F4-Discovery/Libraries/STM32F4xx_StdPeriph_Driver/src/stm32f4xx_dma.c ****   *         the next transactions (Peripheral or Memory).
 528:App/STM32F4-Discovery/Libraries/STM32F4xx_StdPeriph_Driver/src/stm32f4xx_dma.c ****   *       
 529:App/STM32F4-Discovery/Libraries/STM32F4xx_StdPeriph_Driver/src/stm32f4xx_dma.c ****   * @note   Before enabling this feature, check if the used peripheral supports 
 530:App/STM32F4-Discovery/Libraries/STM32F4xx_StdPeriph_Driver/src/stm32f4xx_dma.c ****   *         the Flow Controller mode or not.    
 531:App/STM32F4-Discovery/Libraries/STM32F4xx_StdPeriph_Driver/src/stm32f4xx_dma.c ****   *  
 532:App/STM32F4-Discovery/Libraries/STM32F4xx_StdPeriph_Driver/src/stm32f4xx_dma.c ****   * @param  DMAy_Streamx: where y can be 1 or 2 to select the DMA and x can be 0
 533:App/STM32F4-Discovery/Libraries/STM32F4xx_StdPeriph_Driver/src/stm32f4xx_dma.c ****   *          to 7 to select the DMA Stream.
 534:App/STM32F4-Discovery/Libraries/STM32F4xx_StdPeriph_Driver/src/stm32f4xx_dma.c ****   * @param  DMA_FlowCtrl: specifies the DMA flow controller.
 535:App/STM32F4-Discovery/Libraries/STM32F4xx_StdPeriph_Driver/src/stm32f4xx_dma.c ****   *          This parameter can be one of the following values:
 536:App/STM32F4-Discovery/Libraries/STM32F4xx_StdPeriph_Driver/src/stm32f4xx_dma.c ****   *            @arg DMA_FlowCtrl_Memory: DMAy_Streamx transactions flow controller is 
 537:App/STM32F4-Discovery/Libraries/STM32F4xx_StdPeriph_Driver/src/stm32f4xx_dma.c ****   *                                      the DMA controller.
 538:App/STM32F4-Discovery/Libraries/STM32F4xx_StdPeriph_Driver/src/stm32f4xx_dma.c ****   *            @arg DMA_FlowCtrl_Peripheral: DMAy_Streamx transactions flow controller 
 539:App/STM32F4-Discovery/Libraries/STM32F4xx_StdPeriph_Driver/src/stm32f4xx_dma.c ****   *                                          is the peripheral.    
 540:App/STM32F4-Discovery/Libraries/STM32F4xx_StdPeriph_Driver/src/stm32f4xx_dma.c ****   * @retval None
 541:App/STM32F4-Discovery/Libraries/STM32F4xx_StdPeriph_Driver/src/stm32f4xx_dma.c ****   */
 542:App/STM32F4-Discovery/Libraries/STM32F4xx_StdPeriph_Driver/src/stm32f4xx_dma.c **** void DMA_FlowControllerConfig(DMA_Stream_TypeDef* DMAy_Streamx, uint32_t DMA_FlowCtrl)
 543:App/STM32F4-Discovery/Libraries/STM32F4xx_StdPeriph_Driver/src/stm32f4xx_dma.c **** {
 1364              		.loc 1 543 0
 1365              		.cfi_startproc
 1366              		@ args = 0, pretend = 0, frame = 8
 1367              		@ frame_needed = 1, uses_anonymous_args = 0
 1368 0000 80B5     		push	{r7, lr}
 1369              	.LCFI15:
 1370              		.cfi_def_cfa_offset 8
 1371              		.cfi_offset 7, -8
 1372              		.cfi_offset 14, -4
 1373 0002 82B0     		sub	sp, sp, #8
 1374              	.LCFI16:
 1375              		.cfi_def_cfa_offset 16
 1376 0004 00AF     		add	r7, sp, #0
 1377              	.LCFI17:
 1378              		.cfi_def_cfa_register 7
 1379 0006 7860     		str	r0, [r7, #4]
 1380 0008 3960     		str	r1, [r7, #0]
 544:App/STM32F4-Discovery/Libraries/STM32F4xx_StdPeriph_Driver/src/stm32f4xx_dma.c ****   /* Check the parameters */
 545:App/STM32F4-Discovery/Libraries/STM32F4xx_StdPeriph_Driver/src/stm32f4xx_dma.c ****   assert_param(IS_DMA_ALL_PERIPH(DMAy_Streamx));
 1381              		.loc 1 545 0
 1382 000a 7A68     		ldr	r2, [r7, #4]
 1383 000c 46F21003 		movw	r3, #24592
 1384 0010 C4F20203 		movt	r3, 16386
 1385 0014 9A42     		cmp	r2, r3
 1386 0016 70D0     		beq	.L47
 1387              		.loc 1 545 0 is_stmt 0 discriminator 1
 1388 0018 7A68     		ldr	r2, [r7, #4]
 1389 001a 46F22803 		movw	r3, #24616
 1390 001e C4F20203 		movt	r3, 16386
 1391 0022 9A42     		cmp	r2, r3
 1392 0024 69D0     		beq	.L47
 1393              		.loc 1 545 0 discriminator 2
 1394 0026 7A68     		ldr	r2, [r7, #4]
 1395 0028 46F24003 		movw	r3, #24640
 1396 002c C4F20203 		movt	r3, 16386
 1397 0030 9A42     		cmp	r2, r3
 1398 0032 62D0     		beq	.L47
 1399              		.loc 1 545 0 discriminator 3
 1400 0034 7A68     		ldr	r2, [r7, #4]
 1401 0036 46F25803 		movw	r3, #24664
 1402 003a C4F20203 		movt	r3, 16386
 1403 003e 9A42     		cmp	r2, r3
 1404 0040 5BD0     		beq	.L47
 1405              		.loc 1 545 0 discriminator 4
 1406 0042 7A68     		ldr	r2, [r7, #4]
 1407 0044 46F27003 		movw	r3, #24688
 1408 0048 C4F20203 		movt	r3, 16386
 1409 004c 9A42     		cmp	r2, r3
 1410 004e 54D0     		beq	.L47
 1411              		.loc 1 545 0 discriminator 5
 1412 0050 7A68     		ldr	r2, [r7, #4]
 1413 0052 46F28803 		movw	r3, #24712
 1414 0056 C4F20203 		movt	r3, 16386
 1415 005a 9A42     		cmp	r2, r3
 1416 005c 4DD0     		beq	.L47
 1417              		.loc 1 545 0 discriminator 6
 1418 005e 7A68     		ldr	r2, [r7, #4]
 1419 0060 46F2A003 		movw	r3, #24736
 1420 0064 C4F20203 		movt	r3, 16386
 1421 0068 9A42     		cmp	r2, r3
 1422 006a 46D0     		beq	.L47
 1423              		.loc 1 545 0 discriminator 7
 1424 006c 7A68     		ldr	r2, [r7, #4]
 1425 006e 46F2B803 		movw	r3, #24760
 1426 0072 C4F20203 		movt	r3, 16386
 1427 0076 9A42     		cmp	r2, r3
 1428 0078 3FD0     		beq	.L47
 1429              		.loc 1 545 0 discriminator 8
 1430 007a 7A68     		ldr	r2, [r7, #4]
 1431 007c 46F21043 		movw	r3, #25616
 1432 0080 C4F20203 		movt	r3, 16386
 1433 0084 9A42     		cmp	r2, r3
 1434 0086 38D0     		beq	.L47
 1435              		.loc 1 545 0 discriminator 9
 1436 0088 7A68     		ldr	r2, [r7, #4]
 1437 008a 46F22843 		movw	r3, #25640
 1438 008e C4F20203 		movt	r3, 16386
 1439 0092 9A42     		cmp	r2, r3
 1440 0094 31D0     		beq	.L47
 1441              		.loc 1 545 0 discriminator 10
 1442 0096 7A68     		ldr	r2, [r7, #4]
 1443 0098 46F24043 		movw	r3, #25664
 1444 009c C4F20203 		movt	r3, 16386
 1445 00a0 9A42     		cmp	r2, r3
 1446 00a2 2AD0     		beq	.L47
 1447              		.loc 1 545 0 discriminator 11
 1448 00a4 7A68     		ldr	r2, [r7, #4]
 1449 00a6 46F25843 		movw	r3, #25688
 1450 00aa C4F20203 		movt	r3, 16386
 1451 00ae 9A42     		cmp	r2, r3
 1452 00b0 23D0     		beq	.L47
 1453              		.loc 1 545 0 discriminator 12
 1454 00b2 7A68     		ldr	r2, [r7, #4]
 1455 00b4 46F27043 		movw	r3, #25712
 1456 00b8 C4F20203 		movt	r3, 16386
 1457 00bc 9A42     		cmp	r2, r3
 1458 00be 1CD0     		beq	.L47
 1459              		.loc 1 545 0 discriminator 13
 1460 00c0 7A68     		ldr	r2, [r7, #4]
 1461 00c2 46F28843 		movw	r3, #25736
 1462 00c6 C4F20203 		movt	r3, 16386
 1463 00ca 9A42     		cmp	r2, r3
 1464 00cc 15D0     		beq	.L47
 1465              		.loc 1 545 0 discriminator 14
 1466 00ce 7A68     		ldr	r2, [r7, #4]
 1467 00d0 46F2A043 		movw	r3, #25760
 1468 00d4 C4F20203 		movt	r3, 16386
 1469 00d8 9A42     		cmp	r2, r3
 1470 00da 0ED0     		beq	.L47
 1471              		.loc 1 545 0 discriminator 15
 1472 00dc 7A68     		ldr	r2, [r7, #4]
 1473 00de 46F2B843 		movw	r3, #25784
 1474 00e2 C4F20203 		movt	r3, 16386
 1475 00e6 9A42     		cmp	r2, r3
 1476 00e8 07D0     		beq	.L47
 1477              		.loc 1 545 0 discriminator 16
 1478 00ea 40F20000 		movw	r0, #:lower16:.LC0
 1479 00ee C0F20000 		movt	r0, #:upper16:.LC0
 1480 00f2 40F22121 		movw	r1, #545
 1481 00f6 FFF7FEFF 		bl	assert_failed
 1482              	.L47:
 546:App/STM32F4-Discovery/Libraries/STM32F4xx_StdPeriph_Driver/src/stm32f4xx_dma.c ****   assert_param(IS_DMA_FLOW_CTRL(DMA_FlowCtrl));
 1483              		.loc 1 546 0 is_stmt 1
 1484 00fa 3B68     		ldr	r3, [r7, #0]
 1485 00fc 002B     		cmp	r3, #0
 1486 00fe 0AD0     		beq	.L48
 1487              		.loc 1 546 0 is_stmt 0 discriminator 1
 1488 0100 3B68     		ldr	r3, [r7, #0]
 1489 0102 202B     		cmp	r3, #32
 1490 0104 07D0     		beq	.L48
 1491              		.loc 1 546 0 discriminator 2
 1492 0106 40F20000 		movw	r0, #:lower16:.LC0
 1493 010a C0F20000 		movt	r0, #:upper16:.LC0
 1494 010e 40F22221 		movw	r1, #546
 1495 0112 FFF7FEFF 		bl	assert_failed
 1496              	.L48:
 547:App/STM32F4-Discovery/Libraries/STM32F4xx_StdPeriph_Driver/src/stm32f4xx_dma.c **** 
 548:App/STM32F4-Discovery/Libraries/STM32F4xx_StdPeriph_Driver/src/stm32f4xx_dma.c ****   /* Check the needed flow controller  */
 549:App/STM32F4-Discovery/Libraries/STM32F4xx_StdPeriph_Driver/src/stm32f4xx_dma.c ****   if(DMA_FlowCtrl != DMA_FlowCtrl_Memory)
 1497              		.loc 1 549 0 is_stmt 1
 1498 0116 3B68     		ldr	r3, [r7, #0]
 1499 0118 002B     		cmp	r3, #0
 1500 011a 06D0     		beq	.L49
 550:App/STM32F4-Discovery/Libraries/STM32F4xx_StdPeriph_Driver/src/stm32f4xx_dma.c ****   {
 551:App/STM32F4-Discovery/Libraries/STM32F4xx_StdPeriph_Driver/src/stm32f4xx_dma.c ****     /* Configure DMA_SxCR_PFCTRL bit with the input parameter */
 552:App/STM32F4-Discovery/Libraries/STM32F4xx_StdPeriph_Driver/src/stm32f4xx_dma.c ****     DMAy_Streamx->CR |= (uint32_t)DMA_SxCR_PFCTRL;   
 1501              		.loc 1 552 0
 1502 011c 7B68     		ldr	r3, [r7, #4]
 1503 011e 1B68     		ldr	r3, [r3, #0]
 1504 0120 43F02002 		orr	r2, r3, #32
 1505 0124 7B68     		ldr	r3, [r7, #4]
 1506 0126 1A60     		str	r2, [r3, #0]
 1507 0128 05E0     		b	.L46
 1508              	.L49:
 553:App/STM32F4-Discovery/Libraries/STM32F4xx_StdPeriph_Driver/src/stm32f4xx_dma.c ****   }
 554:App/STM32F4-Discovery/Libraries/STM32F4xx_StdPeriph_Driver/src/stm32f4xx_dma.c ****   else
 555:App/STM32F4-Discovery/Libraries/STM32F4xx_StdPeriph_Driver/src/stm32f4xx_dma.c ****   {
 556:App/STM32F4-Discovery/Libraries/STM32F4xx_StdPeriph_Driver/src/stm32f4xx_dma.c ****     /* Clear the PFCTRL bit: Memory is the flow controller */
 557:App/STM32F4-Discovery/Libraries/STM32F4xx_StdPeriph_Driver/src/stm32f4xx_dma.c ****     DMAy_Streamx->CR &= ~(uint32_t)DMA_SxCR_PFCTRL;    
 1509              		.loc 1 557 0
 1510 012a 7B68     		ldr	r3, [r7, #4]
 1511 012c 1B68     		ldr	r3, [r3, #0]
 1512 012e 23F02002 		bic	r2, r3, #32
 1513 0132 7B68     		ldr	r3, [r7, #4]
 1514 0134 1A60     		str	r2, [r3, #0]
 1515              	.L46:
 558:App/STM32F4-Discovery/Libraries/STM32F4xx_StdPeriph_Driver/src/stm32f4xx_dma.c ****   }
 559:App/STM32F4-Discovery/Libraries/STM32F4xx_StdPeriph_Driver/src/stm32f4xx_dma.c **** }
 1516              		.loc 1 559 0
 1517 0136 07F10807 		add	r7, r7, #8
 1518 013a BD46     		mov	sp, r7
 1519 013c 80BD     		pop	{r7, pc}
 1520              		.cfi_endproc
 1521              	.LFE115:
 1523 013e 00BF     		.section	.text.DMA_SetCurrDataCounter,"ax",%progbits
 1524              		.align	2
 1525              		.global	DMA_SetCurrDataCounter
 1526              		.thumb
 1527              		.thumb_func
 1529              	DMA_SetCurrDataCounter:
 1530              	.LFB116:
 560:App/STM32F4-Discovery/Libraries/STM32F4xx_StdPeriph_Driver/src/stm32f4xx_dma.c **** /**
 561:App/STM32F4-Discovery/Libraries/STM32F4xx_StdPeriph_Driver/src/stm32f4xx_dma.c ****   * @}
 562:App/STM32F4-Discovery/Libraries/STM32F4xx_StdPeriph_Driver/src/stm32f4xx_dma.c ****   */
 563:App/STM32F4-Discovery/Libraries/STM32F4xx_StdPeriph_Driver/src/stm32f4xx_dma.c **** 
 564:App/STM32F4-Discovery/Libraries/STM32F4xx_StdPeriph_Driver/src/stm32f4xx_dma.c **** /** @defgroup DMA_Group2 Data Counter functions
 565:App/STM32F4-Discovery/Libraries/STM32F4xx_StdPeriph_Driver/src/stm32f4xx_dma.c ****  *  @brief   Data Counter functions 
 566:App/STM32F4-Discovery/Libraries/STM32F4xx_StdPeriph_Driver/src/stm32f4xx_dma.c ****  *
 567:App/STM32F4-Discovery/Libraries/STM32F4xx_StdPeriph_Driver/src/stm32f4xx_dma.c **** @verbatim   
 568:App/STM32F4-Discovery/Libraries/STM32F4xx_StdPeriph_Driver/src/stm32f4xx_dma.c ****  ===============================================================================
 569:App/STM32F4-Discovery/Libraries/STM32F4xx_StdPeriph_Driver/src/stm32f4xx_dma.c ****                            Data Counter functions
 570:App/STM32F4-Discovery/Libraries/STM32F4xx_StdPeriph_Driver/src/stm32f4xx_dma.c ****  ===============================================================================  
 571:App/STM32F4-Discovery/Libraries/STM32F4xx_StdPeriph_Driver/src/stm32f4xx_dma.c **** 
 572:App/STM32F4-Discovery/Libraries/STM32F4xx_StdPeriph_Driver/src/stm32f4xx_dma.c ****   This subsection provides function allowing to configure and read the buffer size
 573:App/STM32F4-Discovery/Libraries/STM32F4xx_StdPeriph_Driver/src/stm32f4xx_dma.c ****   (number of data to be transferred). 
 574:App/STM32F4-Discovery/Libraries/STM32F4xx_StdPeriph_Driver/src/stm32f4xx_dma.c **** 
 575:App/STM32F4-Discovery/Libraries/STM32F4xx_StdPeriph_Driver/src/stm32f4xx_dma.c ****   The DMA data counter can be written only when the DMA Stream is disabled 
 576:App/STM32F4-Discovery/Libraries/STM32F4xx_StdPeriph_Driver/src/stm32f4xx_dma.c ****   (ie. after transfer complete event).
 577:App/STM32F4-Discovery/Libraries/STM32F4xx_StdPeriph_Driver/src/stm32f4xx_dma.c **** 
 578:App/STM32F4-Discovery/Libraries/STM32F4xx_StdPeriph_Driver/src/stm32f4xx_dma.c ****   The following function can be used to write the Stream data counter value:
 579:App/STM32F4-Discovery/Libraries/STM32F4xx_StdPeriph_Driver/src/stm32f4xx_dma.c ****     - void DMA_SetCurrDataCounter(DMA_Stream_TypeDef* DMAy_Streamx, uint16_t Counter);
 580:App/STM32F4-Discovery/Libraries/STM32F4xx_StdPeriph_Driver/src/stm32f4xx_dma.c **** 
 581:App/STM32F4-Discovery/Libraries/STM32F4xx_StdPeriph_Driver/src/stm32f4xx_dma.c **** @note It is advised to use this function rather than DMA_Init() in situations where
 582:App/STM32F4-Discovery/Libraries/STM32F4xx_StdPeriph_Driver/src/stm32f4xx_dma.c ****       only the Data buffer needs to be reloaded.
 583:App/STM32F4-Discovery/Libraries/STM32F4xx_StdPeriph_Driver/src/stm32f4xx_dma.c **** 
 584:App/STM32F4-Discovery/Libraries/STM32F4xx_StdPeriph_Driver/src/stm32f4xx_dma.c **** @note If the Source and Destination Data Sizes are different, then the value written in
 585:App/STM32F4-Discovery/Libraries/STM32F4xx_StdPeriph_Driver/src/stm32f4xx_dma.c ****       data counter, expressing the number of transfers, is relative to the number of 
 586:App/STM32F4-Discovery/Libraries/STM32F4xx_StdPeriph_Driver/src/stm32f4xx_dma.c ****       transfers from the Peripheral point of view.
 587:App/STM32F4-Discovery/Libraries/STM32F4xx_StdPeriph_Driver/src/stm32f4xx_dma.c ****       ie. If Memory data size is Word, Peripheral data size is Half-Words, then the value
 588:App/STM32F4-Discovery/Libraries/STM32F4xx_StdPeriph_Driver/src/stm32f4xx_dma.c ****       to be configured in the data counter is the number of Half-Words to be transferred
 589:App/STM32F4-Discovery/Libraries/STM32F4xx_StdPeriph_Driver/src/stm32f4xx_dma.c ****       from/to the peripheral.
 590:App/STM32F4-Discovery/Libraries/STM32F4xx_StdPeriph_Driver/src/stm32f4xx_dma.c **** 
 591:App/STM32F4-Discovery/Libraries/STM32F4xx_StdPeriph_Driver/src/stm32f4xx_dma.c ****   The DMA data counter can be read to indicate the number of remaining transfers for
 592:App/STM32F4-Discovery/Libraries/STM32F4xx_StdPeriph_Driver/src/stm32f4xx_dma.c ****   the relative DMA Stream. This counter is decremented at the end of each data 
 593:App/STM32F4-Discovery/Libraries/STM32F4xx_StdPeriph_Driver/src/stm32f4xx_dma.c ****   transfer and when the transfer is complete: 
 594:App/STM32F4-Discovery/Libraries/STM32F4xx_StdPeriph_Driver/src/stm32f4xx_dma.c ****    - If Normal mode is selected: the counter is set to 0.
 595:App/STM32F4-Discovery/Libraries/STM32F4xx_StdPeriph_Driver/src/stm32f4xx_dma.c ****    - If Circular mode is selected: the counter is reloaded with the initial value
 596:App/STM32F4-Discovery/Libraries/STM32F4xx_StdPeriph_Driver/src/stm32f4xx_dma.c ****      (configured before enabling the DMA Stream)
 597:App/STM32F4-Discovery/Libraries/STM32F4xx_StdPeriph_Driver/src/stm32f4xx_dma.c ****    
 598:App/STM32F4-Discovery/Libraries/STM32F4xx_StdPeriph_Driver/src/stm32f4xx_dma.c ****   The following function can be used to read the Stream data counter value:
 599:App/STM32F4-Discovery/Libraries/STM32F4xx_StdPeriph_Driver/src/stm32f4xx_dma.c ****      - uint16_t DMA_GetCurrDataCounter(DMA_Stream_TypeDef* DMAy_Streamx);
 600:App/STM32F4-Discovery/Libraries/STM32F4xx_StdPeriph_Driver/src/stm32f4xx_dma.c **** 
 601:App/STM32F4-Discovery/Libraries/STM32F4xx_StdPeriph_Driver/src/stm32f4xx_dma.c **** @endverbatim
 602:App/STM32F4-Discovery/Libraries/STM32F4xx_StdPeriph_Driver/src/stm32f4xx_dma.c ****   * @{
 603:App/STM32F4-Discovery/Libraries/STM32F4xx_StdPeriph_Driver/src/stm32f4xx_dma.c ****   */
 604:App/STM32F4-Discovery/Libraries/STM32F4xx_StdPeriph_Driver/src/stm32f4xx_dma.c **** 
 605:App/STM32F4-Discovery/Libraries/STM32F4xx_StdPeriph_Driver/src/stm32f4xx_dma.c **** /**
 606:App/STM32F4-Discovery/Libraries/STM32F4xx_StdPeriph_Driver/src/stm32f4xx_dma.c ****   * @brief  Writes the number of data units to be transferred on the DMAy Streamx.
 607:App/STM32F4-Discovery/Libraries/STM32F4xx_StdPeriph_Driver/src/stm32f4xx_dma.c ****   * @param  DMAy_Streamx: where y can be 1 or 2 to select the DMA and x can be 0
 608:App/STM32F4-Discovery/Libraries/STM32F4xx_StdPeriph_Driver/src/stm32f4xx_dma.c ****   *          to 7 to select the DMA Stream.
 609:App/STM32F4-Discovery/Libraries/STM32F4xx_StdPeriph_Driver/src/stm32f4xx_dma.c ****   * @param  Counter: Number of data units to be transferred (from 0 to 65535) 
 610:App/STM32F4-Discovery/Libraries/STM32F4xx_StdPeriph_Driver/src/stm32f4xx_dma.c ****   *          Number of data items depends only on the Peripheral data format.
 611:App/STM32F4-Discovery/Libraries/STM32F4xx_StdPeriph_Driver/src/stm32f4xx_dma.c ****   *            
 612:App/STM32F4-Discovery/Libraries/STM32F4xx_StdPeriph_Driver/src/stm32f4xx_dma.c ****   * @note   If Peripheral data format is Bytes: number of data units is equal 
 613:App/STM32F4-Discovery/Libraries/STM32F4xx_StdPeriph_Driver/src/stm32f4xx_dma.c ****   *         to total number of bytes to be transferred.
 614:App/STM32F4-Discovery/Libraries/STM32F4xx_StdPeriph_Driver/src/stm32f4xx_dma.c ****   *           
 615:App/STM32F4-Discovery/Libraries/STM32F4xx_StdPeriph_Driver/src/stm32f4xx_dma.c ****   * @note   If Peripheral data format is Half-Word: number of data units is  
 616:App/STM32F4-Discovery/Libraries/STM32F4xx_StdPeriph_Driver/src/stm32f4xx_dma.c ****   *         equal to total number of bytes to be transferred / 2.
 617:App/STM32F4-Discovery/Libraries/STM32F4xx_StdPeriph_Driver/src/stm32f4xx_dma.c ****   *           
 618:App/STM32F4-Discovery/Libraries/STM32F4xx_StdPeriph_Driver/src/stm32f4xx_dma.c ****   * @note   If Peripheral data format is Word: number of data units is equal 
 619:App/STM32F4-Discovery/Libraries/STM32F4xx_StdPeriph_Driver/src/stm32f4xx_dma.c ****   *         to total  number of bytes to be transferred / 4.
 620:App/STM32F4-Discovery/Libraries/STM32F4xx_StdPeriph_Driver/src/stm32f4xx_dma.c ****   *      
 621:App/STM32F4-Discovery/Libraries/STM32F4xx_StdPeriph_Driver/src/stm32f4xx_dma.c ****   * @note   In Memory-to-Memory transfer mode, the memory buffer pointed by 
 622:App/STM32F4-Discovery/Libraries/STM32F4xx_StdPeriph_Driver/src/stm32f4xx_dma.c ****   *         DMAy_SxPAR register is considered as Peripheral.
 623:App/STM32F4-Discovery/Libraries/STM32F4xx_StdPeriph_Driver/src/stm32f4xx_dma.c ****   *      
 624:App/STM32F4-Discovery/Libraries/STM32F4xx_StdPeriph_Driver/src/stm32f4xx_dma.c ****   * @retval The number of remaining data units in the current DMAy Streamx transfer.
 625:App/STM32F4-Discovery/Libraries/STM32F4xx_StdPeriph_Driver/src/stm32f4xx_dma.c ****   */
 626:App/STM32F4-Discovery/Libraries/STM32F4xx_StdPeriph_Driver/src/stm32f4xx_dma.c **** void DMA_SetCurrDataCounter(DMA_Stream_TypeDef* DMAy_Streamx, uint16_t Counter)
 627:App/STM32F4-Discovery/Libraries/STM32F4xx_StdPeriph_Driver/src/stm32f4xx_dma.c **** {
 1531              		.loc 1 627 0
 1532              		.cfi_startproc
 1533              		@ args = 0, pretend = 0, frame = 8
 1534              		@ frame_needed = 1, uses_anonymous_args = 0
 1535 0000 80B5     		push	{r7, lr}
 1536              	.LCFI18:
 1537              		.cfi_def_cfa_offset 8
 1538              		.cfi_offset 7, -8
 1539              		.cfi_offset 14, -4
 1540 0002 82B0     		sub	sp, sp, #8
 1541              	.LCFI19:
 1542              		.cfi_def_cfa_offset 16
 1543 0004 00AF     		add	r7, sp, #0
 1544              	.LCFI20:
 1545              		.cfi_def_cfa_register 7
 1546 0006 7860     		str	r0, [r7, #4]
 1547 0008 0B46     		mov	r3, r1
 1548 000a 7B80     		strh	r3, [r7, #2]	@ movhi
 628:App/STM32F4-Discovery/Libraries/STM32F4xx_StdPeriph_Driver/src/stm32f4xx_dma.c ****   /* Check the parameters */
 629:App/STM32F4-Discovery/Libraries/STM32F4xx_StdPeriph_Driver/src/stm32f4xx_dma.c ****   assert_param(IS_DMA_ALL_PERIPH(DMAy_Streamx));
 1549              		.loc 1 629 0
 1550 000c 7A68     		ldr	r2, [r7, #4]
 1551 000e 46F21003 		movw	r3, #24592
 1552 0012 C4F20203 		movt	r3, 16386
 1553 0016 9A42     		cmp	r2, r3
 1554 0018 70D0     		beq	.L52
 1555              		.loc 1 629 0 is_stmt 0 discriminator 1
 1556 001a 7A68     		ldr	r2, [r7, #4]
 1557 001c 46F22803 		movw	r3, #24616
 1558 0020 C4F20203 		movt	r3, 16386
 1559 0024 9A42     		cmp	r2, r3
 1560 0026 69D0     		beq	.L52
 1561              		.loc 1 629 0 discriminator 2
 1562 0028 7A68     		ldr	r2, [r7, #4]
 1563 002a 46F24003 		movw	r3, #24640
 1564 002e C4F20203 		movt	r3, 16386
 1565 0032 9A42     		cmp	r2, r3
 1566 0034 62D0     		beq	.L52
 1567              		.loc 1 629 0 discriminator 3
 1568 0036 7A68     		ldr	r2, [r7, #4]
 1569 0038 46F25803 		movw	r3, #24664
 1570 003c C4F20203 		movt	r3, 16386
 1571 0040 9A42     		cmp	r2, r3
 1572 0042 5BD0     		beq	.L52
 1573              		.loc 1 629 0 discriminator 4
 1574 0044 7A68     		ldr	r2, [r7, #4]
 1575 0046 46F27003 		movw	r3, #24688
 1576 004a C4F20203 		movt	r3, 16386
 1577 004e 9A42     		cmp	r2, r3
 1578 0050 54D0     		beq	.L52
 1579              		.loc 1 629 0 discriminator 5
 1580 0052 7A68     		ldr	r2, [r7, #4]
 1581 0054 46F28803 		movw	r3, #24712
 1582 0058 C4F20203 		movt	r3, 16386
 1583 005c 9A42     		cmp	r2, r3
 1584 005e 4DD0     		beq	.L52
 1585              		.loc 1 629 0 discriminator 6
 1586 0060 7A68     		ldr	r2, [r7, #4]
 1587 0062 46F2A003 		movw	r3, #24736
 1588 0066 C4F20203 		movt	r3, 16386
 1589 006a 9A42     		cmp	r2, r3
 1590 006c 46D0     		beq	.L52
 1591              		.loc 1 629 0 discriminator 7
 1592 006e 7A68     		ldr	r2, [r7, #4]
 1593 0070 46F2B803 		movw	r3, #24760
 1594 0074 C4F20203 		movt	r3, 16386
 1595 0078 9A42     		cmp	r2, r3
 1596 007a 3FD0     		beq	.L52
 1597              		.loc 1 629 0 discriminator 8
 1598 007c 7A68     		ldr	r2, [r7, #4]
 1599 007e 46F21043 		movw	r3, #25616
 1600 0082 C4F20203 		movt	r3, 16386
 1601 0086 9A42     		cmp	r2, r3
 1602 0088 38D0     		beq	.L52
 1603              		.loc 1 629 0 discriminator 9
 1604 008a 7A68     		ldr	r2, [r7, #4]
 1605 008c 46F22843 		movw	r3, #25640
 1606 0090 C4F20203 		movt	r3, 16386
 1607 0094 9A42     		cmp	r2, r3
 1608 0096 31D0     		beq	.L52
 1609              		.loc 1 629 0 discriminator 10
 1610 0098 7A68     		ldr	r2, [r7, #4]
 1611 009a 46F24043 		movw	r3, #25664
 1612 009e C4F20203 		movt	r3, 16386
 1613 00a2 9A42     		cmp	r2, r3
 1614 00a4 2AD0     		beq	.L52
 1615              		.loc 1 629 0 discriminator 11
 1616 00a6 7A68     		ldr	r2, [r7, #4]
 1617 00a8 46F25843 		movw	r3, #25688
 1618 00ac C4F20203 		movt	r3, 16386
 1619 00b0 9A42     		cmp	r2, r3
 1620 00b2 23D0     		beq	.L52
 1621              		.loc 1 629 0 discriminator 12
 1622 00b4 7A68     		ldr	r2, [r7, #4]
 1623 00b6 46F27043 		movw	r3, #25712
 1624 00ba C4F20203 		movt	r3, 16386
 1625 00be 9A42     		cmp	r2, r3
 1626 00c0 1CD0     		beq	.L52
 1627              		.loc 1 629 0 discriminator 13
 1628 00c2 7A68     		ldr	r2, [r7, #4]
 1629 00c4 46F28843 		movw	r3, #25736
 1630 00c8 C4F20203 		movt	r3, 16386
 1631 00cc 9A42     		cmp	r2, r3
 1632 00ce 15D0     		beq	.L52
 1633              		.loc 1 629 0 discriminator 14
 1634 00d0 7A68     		ldr	r2, [r7, #4]
 1635 00d2 46F2A043 		movw	r3, #25760
 1636 00d6 C4F20203 		movt	r3, 16386
 1637 00da 9A42     		cmp	r2, r3
 1638 00dc 0ED0     		beq	.L52
 1639              		.loc 1 629 0 discriminator 15
 1640 00de 7A68     		ldr	r2, [r7, #4]
 1641 00e0 46F2B843 		movw	r3, #25784
 1642 00e4 C4F20203 		movt	r3, 16386
 1643 00e8 9A42     		cmp	r2, r3
 1644 00ea 07D0     		beq	.L52
 1645              		.loc 1 629 0 discriminator 16
 1646 00ec 40F20000 		movw	r0, #:lower16:.LC0
 1647 00f0 C0F20000 		movt	r0, #:upper16:.LC0
 1648 00f4 40F27521 		movw	r1, #629
 1649 00f8 FFF7FEFF 		bl	assert_failed
 1650              	.L52:
 630:App/STM32F4-Discovery/Libraries/STM32F4xx_StdPeriph_Driver/src/stm32f4xx_dma.c **** 
 631:App/STM32F4-Discovery/Libraries/STM32F4xx_StdPeriph_Driver/src/stm32f4xx_dma.c ****   /* Write the number of data units to be transferred */
 632:App/STM32F4-Discovery/Libraries/STM32F4xx_StdPeriph_Driver/src/stm32f4xx_dma.c ****   DMAy_Streamx->NDTR = (uint16_t)Counter;
 1651              		.loc 1 632 0 is_stmt 1
 1652 00fc 7A88     		ldrh	r2, [r7, #2]
 1653 00fe 7B68     		ldr	r3, [r7, #4]
 1654 0100 5A60     		str	r2, [r3, #4]
 633:App/STM32F4-Discovery/Libraries/STM32F4xx_StdPeriph_Driver/src/stm32f4xx_dma.c **** }
 1655              		.loc 1 633 0
 1656 0102 07F10807 		add	r7, r7, #8
 1657 0106 BD46     		mov	sp, r7
 1658 0108 80BD     		pop	{r7, pc}
 1659              		.cfi_endproc
 1660              	.LFE116:
 1662 010a 00BF     		.section	.text.DMA_GetCurrDataCounter,"ax",%progbits
 1663              		.align	2
 1664              		.global	DMA_GetCurrDataCounter
 1665              		.thumb
 1666              		.thumb_func
 1668              	DMA_GetCurrDataCounter:
 1669              	.LFB117:
 634:App/STM32F4-Discovery/Libraries/STM32F4xx_StdPeriph_Driver/src/stm32f4xx_dma.c **** 
 635:App/STM32F4-Discovery/Libraries/STM32F4xx_StdPeriph_Driver/src/stm32f4xx_dma.c **** /**
 636:App/STM32F4-Discovery/Libraries/STM32F4xx_StdPeriph_Driver/src/stm32f4xx_dma.c ****   * @brief  Returns the number of remaining data units in the current DMAy Streamx transfer.
 637:App/STM32F4-Discovery/Libraries/STM32F4xx_StdPeriph_Driver/src/stm32f4xx_dma.c ****   * @param  DMAy_Streamx: where y can be 1 or 2 to select the DMA and x can be 0
 638:App/STM32F4-Discovery/Libraries/STM32F4xx_StdPeriph_Driver/src/stm32f4xx_dma.c ****   *          to 7 to select the DMA Stream.
 639:App/STM32F4-Discovery/Libraries/STM32F4xx_StdPeriph_Driver/src/stm32f4xx_dma.c ****   * @retval The number of remaining data units in the current DMAy Streamx transfer.
 640:App/STM32F4-Discovery/Libraries/STM32F4xx_StdPeriph_Driver/src/stm32f4xx_dma.c ****   */
 641:App/STM32F4-Discovery/Libraries/STM32F4xx_StdPeriph_Driver/src/stm32f4xx_dma.c **** uint16_t DMA_GetCurrDataCounter(DMA_Stream_TypeDef* DMAy_Streamx)
 642:App/STM32F4-Discovery/Libraries/STM32F4xx_StdPeriph_Driver/src/stm32f4xx_dma.c **** {
 1670              		.loc 1 642 0
 1671              		.cfi_startproc
 1672              		@ args = 0, pretend = 0, frame = 8
 1673              		@ frame_needed = 1, uses_anonymous_args = 0
 1674 0000 80B5     		push	{r7, lr}
 1675              	.LCFI21:
 1676              		.cfi_def_cfa_offset 8
 1677              		.cfi_offset 7, -8
 1678              		.cfi_offset 14, -4
 1679 0002 82B0     		sub	sp, sp, #8
 1680              	.LCFI22:
 1681              		.cfi_def_cfa_offset 16
 1682 0004 00AF     		add	r7, sp, #0
 1683              	.LCFI23:
 1684              		.cfi_def_cfa_register 7
 1685 0006 7860     		str	r0, [r7, #4]
 643:App/STM32F4-Discovery/Libraries/STM32F4xx_StdPeriph_Driver/src/stm32f4xx_dma.c ****   /* Check the parameters */
 644:App/STM32F4-Discovery/Libraries/STM32F4xx_StdPeriph_Driver/src/stm32f4xx_dma.c ****   assert_param(IS_DMA_ALL_PERIPH(DMAy_Streamx));
 1686              		.loc 1 644 0
 1687 0008 7A68     		ldr	r2, [r7, #4]
 1688 000a 46F21003 		movw	r3, #24592
 1689 000e C4F20203 		movt	r3, 16386
 1690 0012 9A42     		cmp	r2, r3
 1691 0014 70D0     		beq	.L54
 1692              		.loc 1 644 0 is_stmt 0 discriminator 1
 1693 0016 7A68     		ldr	r2, [r7, #4]
 1694 0018 46F22803 		movw	r3, #24616
 1695 001c C4F20203 		movt	r3, 16386
 1696 0020 9A42     		cmp	r2, r3
 1697 0022 69D0     		beq	.L54
 1698              		.loc 1 644 0 discriminator 2
 1699 0024 7A68     		ldr	r2, [r7, #4]
 1700 0026 46F24003 		movw	r3, #24640
 1701 002a C4F20203 		movt	r3, 16386
 1702 002e 9A42     		cmp	r2, r3
 1703 0030 62D0     		beq	.L54
 1704              		.loc 1 644 0 discriminator 3
 1705 0032 7A68     		ldr	r2, [r7, #4]
 1706 0034 46F25803 		movw	r3, #24664
 1707 0038 C4F20203 		movt	r3, 16386
 1708 003c 9A42     		cmp	r2, r3
 1709 003e 5BD0     		beq	.L54
 1710              		.loc 1 644 0 discriminator 4
 1711 0040 7A68     		ldr	r2, [r7, #4]
 1712 0042 46F27003 		movw	r3, #24688
 1713 0046 C4F20203 		movt	r3, 16386
 1714 004a 9A42     		cmp	r2, r3
 1715 004c 54D0     		beq	.L54
 1716              		.loc 1 644 0 discriminator 5
 1717 004e 7A68     		ldr	r2, [r7, #4]
 1718 0050 46F28803 		movw	r3, #24712
 1719 0054 C4F20203 		movt	r3, 16386
 1720 0058 9A42     		cmp	r2, r3
 1721 005a 4DD0     		beq	.L54
 1722              		.loc 1 644 0 discriminator 6
 1723 005c 7A68     		ldr	r2, [r7, #4]
 1724 005e 46F2A003 		movw	r3, #24736
 1725 0062 C4F20203 		movt	r3, 16386
 1726 0066 9A42     		cmp	r2, r3
 1727 0068 46D0     		beq	.L54
 1728              		.loc 1 644 0 discriminator 7
 1729 006a 7A68     		ldr	r2, [r7, #4]
 1730 006c 46F2B803 		movw	r3, #24760
 1731 0070 C4F20203 		movt	r3, 16386
 1732 0074 9A42     		cmp	r2, r3
 1733 0076 3FD0     		beq	.L54
 1734              		.loc 1 644 0 discriminator 8
 1735 0078 7A68     		ldr	r2, [r7, #4]
 1736 007a 46F21043 		movw	r3, #25616
 1737 007e C4F20203 		movt	r3, 16386
 1738 0082 9A42     		cmp	r2, r3
 1739 0084 38D0     		beq	.L54
 1740              		.loc 1 644 0 discriminator 9
 1741 0086 7A68     		ldr	r2, [r7, #4]
 1742 0088 46F22843 		movw	r3, #25640
 1743 008c C4F20203 		movt	r3, 16386
 1744 0090 9A42     		cmp	r2, r3
 1745 0092 31D0     		beq	.L54
 1746              		.loc 1 644 0 discriminator 10
 1747 0094 7A68     		ldr	r2, [r7, #4]
 1748 0096 46F24043 		movw	r3, #25664
 1749 009a C4F20203 		movt	r3, 16386
 1750 009e 9A42     		cmp	r2, r3
 1751 00a0 2AD0     		beq	.L54
 1752              		.loc 1 644 0 discriminator 11
 1753 00a2 7A68     		ldr	r2, [r7, #4]
 1754 00a4 46F25843 		movw	r3, #25688
 1755 00a8 C4F20203 		movt	r3, 16386
 1756 00ac 9A42     		cmp	r2, r3
 1757 00ae 23D0     		beq	.L54
 1758              		.loc 1 644 0 discriminator 12
 1759 00b0 7A68     		ldr	r2, [r7, #4]
 1760 00b2 46F27043 		movw	r3, #25712
 1761 00b6 C4F20203 		movt	r3, 16386
 1762 00ba 9A42     		cmp	r2, r3
 1763 00bc 1CD0     		beq	.L54
 1764              		.loc 1 644 0 discriminator 13
 1765 00be 7A68     		ldr	r2, [r7, #4]
 1766 00c0 46F28843 		movw	r3, #25736
 1767 00c4 C4F20203 		movt	r3, 16386
 1768 00c8 9A42     		cmp	r2, r3
 1769 00ca 15D0     		beq	.L54
 1770              		.loc 1 644 0 discriminator 14
 1771 00cc 7A68     		ldr	r2, [r7, #4]
 1772 00ce 46F2A043 		movw	r3, #25760
 1773 00d2 C4F20203 		movt	r3, 16386
 1774 00d6 9A42     		cmp	r2, r3
 1775 00d8 0ED0     		beq	.L54
 1776              		.loc 1 644 0 discriminator 15
 1777 00da 7A68     		ldr	r2, [r7, #4]
 1778 00dc 46F2B843 		movw	r3, #25784
 1779 00e0 C4F20203 		movt	r3, 16386
 1780 00e4 9A42     		cmp	r2, r3
 1781 00e6 07D0     		beq	.L54
 1782              		.loc 1 644 0 discriminator 16
 1783 00e8 40F20000 		movw	r0, #:lower16:.LC0
 1784 00ec C0F20000 		movt	r0, #:upper16:.LC0
 1785 00f0 4FF42171 		mov	r1, #644
 1786 00f4 FFF7FEFF 		bl	assert_failed
 1787              	.L54:
 645:App/STM32F4-Discovery/Libraries/STM32F4xx_StdPeriph_Driver/src/stm32f4xx_dma.c **** 
 646:App/STM32F4-Discovery/Libraries/STM32F4xx_StdPeriph_Driver/src/stm32f4xx_dma.c ****   /* Return the number of remaining data units for DMAy Streamx */
 647:App/STM32F4-Discovery/Libraries/STM32F4xx_StdPeriph_Driver/src/stm32f4xx_dma.c ****   return ((uint16_t)(DMAy_Streamx->NDTR));
 1788              		.loc 1 647 0 is_stmt 1
 1789 00f8 7B68     		ldr	r3, [r7, #4]
 1790 00fa 5B68     		ldr	r3, [r3, #4]
 1791 00fc 9BB2     		uxth	r3, r3
 648:App/STM32F4-Discovery/Libraries/STM32F4xx_StdPeriph_Driver/src/stm32f4xx_dma.c **** }
 1792              		.loc 1 648 0
 1793 00fe 1846     		mov	r0, r3
 1794 0100 07F10807 		add	r7, r7, #8
 1795 0104 BD46     		mov	sp, r7
 1796 0106 80BD     		pop	{r7, pc}
 1797              		.cfi_endproc
 1798              	.LFE117:
 1800              		.section	.text.DMA_DoubleBufferModeConfig,"ax",%progbits
 1801              		.align	2
 1802              		.global	DMA_DoubleBufferModeConfig
 1803              		.thumb
 1804              		.thumb_func
 1806              	DMA_DoubleBufferModeConfig:
 1807              	.LFB118:
 649:App/STM32F4-Discovery/Libraries/STM32F4xx_StdPeriph_Driver/src/stm32f4xx_dma.c **** /**
 650:App/STM32F4-Discovery/Libraries/STM32F4xx_StdPeriph_Driver/src/stm32f4xx_dma.c ****   * @}
 651:App/STM32F4-Discovery/Libraries/STM32F4xx_StdPeriph_Driver/src/stm32f4xx_dma.c ****   */
 652:App/STM32F4-Discovery/Libraries/STM32F4xx_StdPeriph_Driver/src/stm32f4xx_dma.c **** 
 653:App/STM32F4-Discovery/Libraries/STM32F4xx_StdPeriph_Driver/src/stm32f4xx_dma.c **** /** @defgroup DMA_Group3 Double Buffer mode functions
 654:App/STM32F4-Discovery/Libraries/STM32F4xx_StdPeriph_Driver/src/stm32f4xx_dma.c ****  *  @brief   Double Buffer mode functions 
 655:App/STM32F4-Discovery/Libraries/STM32F4xx_StdPeriph_Driver/src/stm32f4xx_dma.c ****  *
 656:App/STM32F4-Discovery/Libraries/STM32F4xx_StdPeriph_Driver/src/stm32f4xx_dma.c **** @verbatim   
 657:App/STM32F4-Discovery/Libraries/STM32F4xx_StdPeriph_Driver/src/stm32f4xx_dma.c ****  ===============================================================================
 658:App/STM32F4-Discovery/Libraries/STM32F4xx_StdPeriph_Driver/src/stm32f4xx_dma.c ****                          Double Buffer mode functions
 659:App/STM32F4-Discovery/Libraries/STM32F4xx_StdPeriph_Driver/src/stm32f4xx_dma.c ****  ===============================================================================  
 660:App/STM32F4-Discovery/Libraries/STM32F4xx_StdPeriph_Driver/src/stm32f4xx_dma.c **** 
 661:App/STM32F4-Discovery/Libraries/STM32F4xx_StdPeriph_Driver/src/stm32f4xx_dma.c ****   This subsection provides function allowing to configure and control the double 
 662:App/STM32F4-Discovery/Libraries/STM32F4xx_StdPeriph_Driver/src/stm32f4xx_dma.c ****   buffer mode parameters.
 663:App/STM32F4-Discovery/Libraries/STM32F4xx_StdPeriph_Driver/src/stm32f4xx_dma.c ****   
 664:App/STM32F4-Discovery/Libraries/STM32F4xx_StdPeriph_Driver/src/stm32f4xx_dma.c ****   The Double Buffer mode can be used only when Circular mode is enabled.
 665:App/STM32F4-Discovery/Libraries/STM32F4xx_StdPeriph_Driver/src/stm32f4xx_dma.c ****   The Double Buffer mode cannot be used when transferring data from Memory to Memory.
 666:App/STM32F4-Discovery/Libraries/STM32F4xx_StdPeriph_Driver/src/stm32f4xx_dma.c ****   
 667:App/STM32F4-Discovery/Libraries/STM32F4xx_StdPeriph_Driver/src/stm32f4xx_dma.c ****   The Double Buffer mode allows to set two different Memory addresses from/to which
 668:App/STM32F4-Discovery/Libraries/STM32F4xx_StdPeriph_Driver/src/stm32f4xx_dma.c ****   the DMA controller will access alternatively (after completing transfer to/from target
 669:App/STM32F4-Discovery/Libraries/STM32F4xx_StdPeriph_Driver/src/stm32f4xx_dma.c ****   memory 0, it will start transfer to/from target memory 1).
 670:App/STM32F4-Discovery/Libraries/STM32F4xx_StdPeriph_Driver/src/stm32f4xx_dma.c ****   This allows to reduce software overhead for double buffering and reduce the CPU
 671:App/STM32F4-Discovery/Libraries/STM32F4xx_StdPeriph_Driver/src/stm32f4xx_dma.c ****   access time.
 672:App/STM32F4-Discovery/Libraries/STM32F4xx_StdPeriph_Driver/src/stm32f4xx_dma.c **** 
 673:App/STM32F4-Discovery/Libraries/STM32F4xx_StdPeriph_Driver/src/stm32f4xx_dma.c ****   Two functions must be called before calling the DMA_Init() function:
 674:App/STM32F4-Discovery/Libraries/STM32F4xx_StdPeriph_Driver/src/stm32f4xx_dma.c ****    - void DMA_DoubleBufferModeConfig(DMA_Stream_TypeDef* DMAy_Streamx, uint32_t Memory1BaseAddr,
 675:App/STM32F4-Discovery/Libraries/STM32F4xx_StdPeriph_Driver/src/stm32f4xx_dma.c ****                                 uint32_t DMA_CurrentMemory);
 676:App/STM32F4-Discovery/Libraries/STM32F4xx_StdPeriph_Driver/src/stm32f4xx_dma.c ****    - void DMA_DoubleBufferModeCmd(DMA_Stream_TypeDef* DMAy_Streamx, FunctionalState NewState);
 677:App/STM32F4-Discovery/Libraries/STM32F4xx_StdPeriph_Driver/src/stm32f4xx_dma.c ****    
 678:App/STM32F4-Discovery/Libraries/STM32F4xx_StdPeriph_Driver/src/stm32f4xx_dma.c ****   DMA_DoubleBufferModeConfig() is called to configure the Memory 1 base address and the first
 679:App/STM32F4-Discovery/Libraries/STM32F4xx_StdPeriph_Driver/src/stm32f4xx_dma.c ****   Memory target from/to which the transfer will start after enabling the DMA Stream.
 680:App/STM32F4-Discovery/Libraries/STM32F4xx_StdPeriph_Driver/src/stm32f4xx_dma.c ****   Then DMA_DoubleBufferModeCmd() must be called to enable the Double Buffer mode (or disable 
 681:App/STM32F4-Discovery/Libraries/STM32F4xx_StdPeriph_Driver/src/stm32f4xx_dma.c ****   it when it should not be used).
 682:App/STM32F4-Discovery/Libraries/STM32F4xx_StdPeriph_Driver/src/stm32f4xx_dma.c ****   
 683:App/STM32F4-Discovery/Libraries/STM32F4xx_StdPeriph_Driver/src/stm32f4xx_dma.c ****    
 684:App/STM32F4-Discovery/Libraries/STM32F4xx_StdPeriph_Driver/src/stm32f4xx_dma.c ****   Two functions can be called dynamically when the transfer is ongoing (or when the DMA Stream is 
 685:App/STM32F4-Discovery/Libraries/STM32F4xx_StdPeriph_Driver/src/stm32f4xx_dma.c ****   stopped) to modify on of the target Memories addresses or to check wich Memory target is currentl
 686:App/STM32F4-Discovery/Libraries/STM32F4xx_StdPeriph_Driver/src/stm32f4xx_dma.c ****    used:
 687:App/STM32F4-Discovery/Libraries/STM32F4xx_StdPeriph_Driver/src/stm32f4xx_dma.c ****     - void DMA_MemoryTargetConfig(DMA_Stream_TypeDef* DMAy_Streamx, uint32_t MemoryBaseAddr,
 688:App/STM32F4-Discovery/Libraries/STM32F4xx_StdPeriph_Driver/src/stm32f4xx_dma.c ****                             uint32_t DMA_MemoryTarget);
 689:App/STM32F4-Discovery/Libraries/STM32F4xx_StdPeriph_Driver/src/stm32f4xx_dma.c ****     - uint32_t DMA_GetCurrentMemoryTarget(DMA_Stream_TypeDef* DMAy_Streamx);
 690:App/STM32F4-Discovery/Libraries/STM32F4xx_StdPeriph_Driver/src/stm32f4xx_dma.c **** 
 691:App/STM32F4-Discovery/Libraries/STM32F4xx_StdPeriph_Driver/src/stm32f4xx_dma.c ****   DMA_MemoryTargetConfig() can be called to modify the base address of one of the two target Memori
 692:App/STM32F4-Discovery/Libraries/STM32F4xx_StdPeriph_Driver/src/stm32f4xx_dma.c ****   The Memory of which the base address will be modified must not be currently be used by the DMA St
 693:App/STM32F4-Discovery/Libraries/STM32F4xx_StdPeriph_Driver/src/stm32f4xx_dma.c ****   (ie. if the DMA Stream is currently transferring from Memory 1 then you can only modify base addr
 694:App/STM32F4-Discovery/Libraries/STM32F4xx_StdPeriph_Driver/src/stm32f4xx_dma.c ****   of target Memory 0 and vice versa).
 695:App/STM32F4-Discovery/Libraries/STM32F4xx_StdPeriph_Driver/src/stm32f4xx_dma.c ****   To check this condition, it is recommended to use the function DMA_GetCurrentMemoryTarget() which
 696:App/STM32F4-Discovery/Libraries/STM32F4xx_StdPeriph_Driver/src/stm32f4xx_dma.c ****   returns the index of the Memory target currently in use by the DMA Stream.
 697:App/STM32F4-Discovery/Libraries/STM32F4xx_StdPeriph_Driver/src/stm32f4xx_dma.c **** 
 698:App/STM32F4-Discovery/Libraries/STM32F4xx_StdPeriph_Driver/src/stm32f4xx_dma.c **** @endverbatim
 699:App/STM32F4-Discovery/Libraries/STM32F4xx_StdPeriph_Driver/src/stm32f4xx_dma.c ****   * @{
 700:App/STM32F4-Discovery/Libraries/STM32F4xx_StdPeriph_Driver/src/stm32f4xx_dma.c ****   */
 701:App/STM32F4-Discovery/Libraries/STM32F4xx_StdPeriph_Driver/src/stm32f4xx_dma.c ****   
 702:App/STM32F4-Discovery/Libraries/STM32F4xx_StdPeriph_Driver/src/stm32f4xx_dma.c **** /**
 703:App/STM32F4-Discovery/Libraries/STM32F4xx_StdPeriph_Driver/src/stm32f4xx_dma.c ****   * @brief  Configures, when the DMAy Streamx is disabled, the double buffer mode 
 704:App/STM32F4-Discovery/Libraries/STM32F4xx_StdPeriph_Driver/src/stm32f4xx_dma.c ****   *         and the current memory target.
 705:App/STM32F4-Discovery/Libraries/STM32F4xx_StdPeriph_Driver/src/stm32f4xx_dma.c ****   * @param  DMAy_Streamx: where y can be 1 or 2 to select the DMA and x can be 0
 706:App/STM32F4-Discovery/Libraries/STM32F4xx_StdPeriph_Driver/src/stm32f4xx_dma.c ****   *          to 7 to select the DMA Stream.
 707:App/STM32F4-Discovery/Libraries/STM32F4xx_StdPeriph_Driver/src/stm32f4xx_dma.c ****   * @param  Memory1BaseAddr: the base address of the second buffer (Memory 1)  
 708:App/STM32F4-Discovery/Libraries/STM32F4xx_StdPeriph_Driver/src/stm32f4xx_dma.c ****   * @param  DMA_CurrentMemory: specifies which memory will be first buffer for
 709:App/STM32F4-Discovery/Libraries/STM32F4xx_StdPeriph_Driver/src/stm32f4xx_dma.c ****   *         the transactions when the Stream will be enabled. 
 710:App/STM32F4-Discovery/Libraries/STM32F4xx_StdPeriph_Driver/src/stm32f4xx_dma.c ****   *          This parameter can be one of the following values:
 711:App/STM32F4-Discovery/Libraries/STM32F4xx_StdPeriph_Driver/src/stm32f4xx_dma.c ****   *            @arg DMA_Memory_0: Memory 0 is the current buffer.
 712:App/STM32F4-Discovery/Libraries/STM32F4xx_StdPeriph_Driver/src/stm32f4xx_dma.c ****   *            @arg DMA_Memory_1: Memory 1 is the current buffer.  
 713:App/STM32F4-Discovery/Libraries/STM32F4xx_StdPeriph_Driver/src/stm32f4xx_dma.c ****   *       
 714:App/STM32F4-Discovery/Libraries/STM32F4xx_StdPeriph_Driver/src/stm32f4xx_dma.c ****   * @note   Memory0BaseAddr is set by the DMA structure configuration in DMA_Init().
 715:App/STM32F4-Discovery/Libraries/STM32F4xx_StdPeriph_Driver/src/stm32f4xx_dma.c ****   *   
 716:App/STM32F4-Discovery/Libraries/STM32F4xx_StdPeriph_Driver/src/stm32f4xx_dma.c ****   * @retval None
 717:App/STM32F4-Discovery/Libraries/STM32F4xx_StdPeriph_Driver/src/stm32f4xx_dma.c ****   */
 718:App/STM32F4-Discovery/Libraries/STM32F4xx_StdPeriph_Driver/src/stm32f4xx_dma.c **** void DMA_DoubleBufferModeConfig(DMA_Stream_TypeDef* DMAy_Streamx, uint32_t Memory1BaseAddr,
 719:App/STM32F4-Discovery/Libraries/STM32F4xx_StdPeriph_Driver/src/stm32f4xx_dma.c ****                                 uint32_t DMA_CurrentMemory)
 720:App/STM32F4-Discovery/Libraries/STM32F4xx_StdPeriph_Driver/src/stm32f4xx_dma.c **** {  
 1808              		.loc 1 720 0
 1809              		.cfi_startproc
 1810              		@ args = 0, pretend = 0, frame = 16
 1811              		@ frame_needed = 1, uses_anonymous_args = 0
 1812 0000 80B5     		push	{r7, lr}
 1813              	.LCFI24:
 1814              		.cfi_def_cfa_offset 8
 1815              		.cfi_offset 7, -8
 1816              		.cfi_offset 14, -4
 1817 0002 84B0     		sub	sp, sp, #16
 1818              	.LCFI25:
 1819              		.cfi_def_cfa_offset 24
 1820 0004 00AF     		add	r7, sp, #0
 1821              	.LCFI26:
 1822              		.cfi_def_cfa_register 7
 1823 0006 F860     		str	r0, [r7, #12]
 1824 0008 B960     		str	r1, [r7, #8]
 1825 000a 7A60     		str	r2, [r7, #4]
 721:App/STM32F4-Discovery/Libraries/STM32F4xx_StdPeriph_Driver/src/stm32f4xx_dma.c ****   /* Check the parameters */
 722:App/STM32F4-Discovery/Libraries/STM32F4xx_StdPeriph_Driver/src/stm32f4xx_dma.c ****   assert_param(IS_DMA_ALL_PERIPH(DMAy_Streamx));
 1826              		.loc 1 722 0
 1827 000c FA68     		ldr	r2, [r7, #12]
 1828 000e 46F21003 		movw	r3, #24592
 1829 0012 C4F20203 		movt	r3, 16386
 1830 0016 9A42     		cmp	r2, r3
 1831 0018 70D0     		beq	.L57
 1832              		.loc 1 722 0 is_stmt 0 discriminator 1
 1833 001a FA68     		ldr	r2, [r7, #12]
 1834 001c 46F22803 		movw	r3, #24616
 1835 0020 C4F20203 		movt	r3, 16386
 1836 0024 9A42     		cmp	r2, r3
 1837 0026 69D0     		beq	.L57
 1838              		.loc 1 722 0 discriminator 2
 1839 0028 FA68     		ldr	r2, [r7, #12]
 1840 002a 46F24003 		movw	r3, #24640
 1841 002e C4F20203 		movt	r3, 16386
 1842 0032 9A42     		cmp	r2, r3
 1843 0034 62D0     		beq	.L57
 1844              		.loc 1 722 0 discriminator 3
 1845 0036 FA68     		ldr	r2, [r7, #12]
 1846 0038 46F25803 		movw	r3, #24664
 1847 003c C4F20203 		movt	r3, 16386
 1848 0040 9A42     		cmp	r2, r3
 1849 0042 5BD0     		beq	.L57
 1850              		.loc 1 722 0 discriminator 4
 1851 0044 FA68     		ldr	r2, [r7, #12]
 1852 0046 46F27003 		movw	r3, #24688
 1853 004a C4F20203 		movt	r3, 16386
 1854 004e 9A42     		cmp	r2, r3
 1855 0050 54D0     		beq	.L57
 1856              		.loc 1 722 0 discriminator 5
 1857 0052 FA68     		ldr	r2, [r7, #12]
 1858 0054 46F28803 		movw	r3, #24712
 1859 0058 C4F20203 		movt	r3, 16386
 1860 005c 9A42     		cmp	r2, r3
 1861 005e 4DD0     		beq	.L57
 1862              		.loc 1 722 0 discriminator 6
 1863 0060 FA68     		ldr	r2, [r7, #12]
 1864 0062 46F2A003 		movw	r3, #24736
 1865 0066 C4F20203 		movt	r3, 16386
 1866 006a 9A42     		cmp	r2, r3
 1867 006c 46D0     		beq	.L57
 1868              		.loc 1 722 0 discriminator 7
 1869 006e FA68     		ldr	r2, [r7, #12]
 1870 0070 46F2B803 		movw	r3, #24760
 1871 0074 C4F20203 		movt	r3, 16386
 1872 0078 9A42     		cmp	r2, r3
 1873 007a 3FD0     		beq	.L57
 1874              		.loc 1 722 0 discriminator 8
 1875 007c FA68     		ldr	r2, [r7, #12]
 1876 007e 46F21043 		movw	r3, #25616
 1877 0082 C4F20203 		movt	r3, 16386
 1878 0086 9A42     		cmp	r2, r3
 1879 0088 38D0     		beq	.L57
 1880              		.loc 1 722 0 discriminator 9
 1881 008a FA68     		ldr	r2, [r7, #12]
 1882 008c 46F22843 		movw	r3, #25640
 1883 0090 C4F20203 		movt	r3, 16386
 1884 0094 9A42     		cmp	r2, r3
 1885 0096 31D0     		beq	.L57
 1886              		.loc 1 722 0 discriminator 10
 1887 0098 FA68     		ldr	r2, [r7, #12]
 1888 009a 46F24043 		movw	r3, #25664
 1889 009e C4F20203 		movt	r3, 16386
 1890 00a2 9A42     		cmp	r2, r3
 1891 00a4 2AD0     		beq	.L57
 1892              		.loc 1 722 0 discriminator 11
 1893 00a6 FA68     		ldr	r2, [r7, #12]
 1894 00a8 46F25843 		movw	r3, #25688
 1895 00ac C4F20203 		movt	r3, 16386
 1896 00b0 9A42     		cmp	r2, r3
 1897 00b2 23D0     		beq	.L57
 1898              		.loc 1 722 0 discriminator 12
 1899 00b4 FA68     		ldr	r2, [r7, #12]
 1900 00b6 46F27043 		movw	r3, #25712
 1901 00ba C4F20203 		movt	r3, 16386
 1902 00be 9A42     		cmp	r2, r3
 1903 00c0 1CD0     		beq	.L57
 1904              		.loc 1 722 0 discriminator 13
 1905 00c2 FA68     		ldr	r2, [r7, #12]
 1906 00c4 46F28843 		movw	r3, #25736
 1907 00c8 C4F20203 		movt	r3, 16386
 1908 00cc 9A42     		cmp	r2, r3
 1909 00ce 15D0     		beq	.L57
 1910              		.loc 1 722 0 discriminator 14
 1911 00d0 FA68     		ldr	r2, [r7, #12]
 1912 00d2 46F2A043 		movw	r3, #25760
 1913 00d6 C4F20203 		movt	r3, 16386
 1914 00da 9A42     		cmp	r2, r3
 1915 00dc 0ED0     		beq	.L57
 1916              		.loc 1 722 0 discriminator 15
 1917 00de FA68     		ldr	r2, [r7, #12]
 1918 00e0 46F2B843 		movw	r3, #25784
 1919 00e4 C4F20203 		movt	r3, 16386
 1920 00e8 9A42     		cmp	r2, r3
 1921 00ea 07D0     		beq	.L57
 1922              		.loc 1 722 0 discriminator 16
 1923 00ec 40F20000 		movw	r0, #:lower16:.LC0
 1924 00f0 C0F20000 		movt	r0, #:upper16:.LC0
 1925 00f4 40F2D221 		movw	r1, #722
 1926 00f8 FFF7FEFF 		bl	assert_failed
 1927              	.L57:
 723:App/STM32F4-Discovery/Libraries/STM32F4xx_StdPeriph_Driver/src/stm32f4xx_dma.c ****   assert_param(IS_DMA_CURRENT_MEM(DMA_CurrentMemory));
 1928              		.loc 1 723 0 is_stmt 1
 1929 00fc 7B68     		ldr	r3, [r7, #4]
 1930 00fe 002B     		cmp	r3, #0
 1931 0100 0BD0     		beq	.L58
 1932              		.loc 1 723 0 is_stmt 0 discriminator 1
 1933 0102 7B68     		ldr	r3, [r7, #4]
 1934 0104 B3F5002F 		cmp	r3, #524288
 1935 0108 07D0     		beq	.L58
 1936              		.loc 1 723 0 discriminator 2
 1937 010a 40F20000 		movw	r0, #:lower16:.LC0
 1938 010e C0F20000 		movt	r0, #:upper16:.LC0
 1939 0112 40F2D321 		movw	r1, #723
 1940 0116 FFF7FEFF 		bl	assert_failed
 1941              	.L58:
 724:App/STM32F4-Discovery/Libraries/STM32F4xx_StdPeriph_Driver/src/stm32f4xx_dma.c **** 
 725:App/STM32F4-Discovery/Libraries/STM32F4xx_StdPeriph_Driver/src/stm32f4xx_dma.c ****   if (DMA_CurrentMemory != DMA_Memory_0)
 1942              		.loc 1 725 0 is_stmt 1
 1943 011a 7B68     		ldr	r3, [r7, #4]
 1944 011c 002B     		cmp	r3, #0
 1945 011e 06D0     		beq	.L59
 726:App/STM32F4-Discovery/Libraries/STM32F4xx_StdPeriph_Driver/src/stm32f4xx_dma.c ****   {
 727:App/STM32F4-Discovery/Libraries/STM32F4xx_StdPeriph_Driver/src/stm32f4xx_dma.c ****     /* Set Memory 1 as current memory address */
 728:App/STM32F4-Discovery/Libraries/STM32F4xx_StdPeriph_Driver/src/stm32f4xx_dma.c ****     DMAy_Streamx->CR |= (uint32_t)(DMA_SxCR_CT);    
 1946              		.loc 1 728 0
 1947 0120 FB68     		ldr	r3, [r7, #12]
 1948 0122 1B68     		ldr	r3, [r3, #0]
 1949 0124 43F40022 		orr	r2, r3, #524288
 1950 0128 FB68     		ldr	r3, [r7, #12]
 1951 012a 1A60     		str	r2, [r3, #0]
 1952 012c 05E0     		b	.L60
 1953              	.L59:
 729:App/STM32F4-Discovery/Libraries/STM32F4xx_StdPeriph_Driver/src/stm32f4xx_dma.c ****   }
 730:App/STM32F4-Discovery/Libraries/STM32F4xx_StdPeriph_Driver/src/stm32f4xx_dma.c ****   else
 731:App/STM32F4-Discovery/Libraries/STM32F4xx_StdPeriph_Driver/src/stm32f4xx_dma.c ****   {
 732:App/STM32F4-Discovery/Libraries/STM32F4xx_StdPeriph_Driver/src/stm32f4xx_dma.c ****     /* Set Memory 0 as current memory address */
 733:App/STM32F4-Discovery/Libraries/STM32F4xx_StdPeriph_Driver/src/stm32f4xx_dma.c ****     DMAy_Streamx->CR &= ~(uint32_t)(DMA_SxCR_CT);    
 1954              		.loc 1 733 0
 1955 012e FB68     		ldr	r3, [r7, #12]
 1956 0130 1B68     		ldr	r3, [r3, #0]
 1957 0132 23F40022 		bic	r2, r3, #524288
 1958 0136 FB68     		ldr	r3, [r7, #12]
 1959 0138 1A60     		str	r2, [r3, #0]
 1960              	.L60:
 734:App/STM32F4-Discovery/Libraries/STM32F4xx_StdPeriph_Driver/src/stm32f4xx_dma.c ****   }
 735:App/STM32F4-Discovery/Libraries/STM32F4xx_StdPeriph_Driver/src/stm32f4xx_dma.c **** 
 736:App/STM32F4-Discovery/Libraries/STM32F4xx_StdPeriph_Driver/src/stm32f4xx_dma.c ****   /* Write to DMAy Streamx M1AR */
 737:App/STM32F4-Discovery/Libraries/STM32F4xx_StdPeriph_Driver/src/stm32f4xx_dma.c ****   DMAy_Streamx->M1AR = Memory1BaseAddr;
 1961              		.loc 1 737 0
 1962 013a FB68     		ldr	r3, [r7, #12]
 1963 013c BA68     		ldr	r2, [r7, #8]
 1964 013e 1A61     		str	r2, [r3, #16]
 738:App/STM32F4-Discovery/Libraries/STM32F4xx_StdPeriph_Driver/src/stm32f4xx_dma.c **** }
 1965              		.loc 1 738 0
 1966 0140 07F11007 		add	r7, r7, #16
 1967 0144 BD46     		mov	sp, r7
 1968 0146 80BD     		pop	{r7, pc}
 1969              		.cfi_endproc
 1970              	.LFE118:
 1972              		.section	.text.DMA_DoubleBufferModeCmd,"ax",%progbits
 1973              		.align	2
 1974              		.global	DMA_DoubleBufferModeCmd
 1975              		.thumb
 1976              		.thumb_func
 1978              	DMA_DoubleBufferModeCmd:
 1979              	.LFB119:
 739:App/STM32F4-Discovery/Libraries/STM32F4xx_StdPeriph_Driver/src/stm32f4xx_dma.c **** 
 740:App/STM32F4-Discovery/Libraries/STM32F4xx_StdPeriph_Driver/src/stm32f4xx_dma.c **** /**
 741:App/STM32F4-Discovery/Libraries/STM32F4xx_StdPeriph_Driver/src/stm32f4xx_dma.c ****   * @brief  Enables or disables the double buffer mode for the selected DMA stream.
 742:App/STM32F4-Discovery/Libraries/STM32F4xx_StdPeriph_Driver/src/stm32f4xx_dma.c ****   * @note   This function can be called only when the DMA Stream is disabled.  
 743:App/STM32F4-Discovery/Libraries/STM32F4xx_StdPeriph_Driver/src/stm32f4xx_dma.c ****   * @param  DMAy_Streamx: where y can be 1 or 2 to select the DMA and x can be 0
 744:App/STM32F4-Discovery/Libraries/STM32F4xx_StdPeriph_Driver/src/stm32f4xx_dma.c ****   *          to 7 to select the DMA Stream.
 745:App/STM32F4-Discovery/Libraries/STM32F4xx_StdPeriph_Driver/src/stm32f4xx_dma.c ****   * @param  NewState: new state of the DMAy Streamx double buffer mode. 
 746:App/STM32F4-Discovery/Libraries/STM32F4xx_StdPeriph_Driver/src/stm32f4xx_dma.c ****   *          This parameter can be: ENABLE or DISABLE.
 747:App/STM32F4-Discovery/Libraries/STM32F4xx_StdPeriph_Driver/src/stm32f4xx_dma.c ****   * @retval None
 748:App/STM32F4-Discovery/Libraries/STM32F4xx_StdPeriph_Driver/src/stm32f4xx_dma.c ****   */
 749:App/STM32F4-Discovery/Libraries/STM32F4xx_StdPeriph_Driver/src/stm32f4xx_dma.c **** void DMA_DoubleBufferModeCmd(DMA_Stream_TypeDef* DMAy_Streamx, FunctionalState NewState)
 750:App/STM32F4-Discovery/Libraries/STM32F4xx_StdPeriph_Driver/src/stm32f4xx_dma.c **** {  
 1980              		.loc 1 750 0
 1981              		.cfi_startproc
 1982              		@ args = 0, pretend = 0, frame = 8
 1983              		@ frame_needed = 1, uses_anonymous_args = 0
 1984 0000 80B5     		push	{r7, lr}
 1985              	.LCFI27:
 1986              		.cfi_def_cfa_offset 8
 1987              		.cfi_offset 7, -8
 1988              		.cfi_offset 14, -4
 1989 0002 82B0     		sub	sp, sp, #8
 1990              	.LCFI28:
 1991              		.cfi_def_cfa_offset 16
 1992 0004 00AF     		add	r7, sp, #0
 1993              	.LCFI29:
 1994              		.cfi_def_cfa_register 7
 1995 0006 7860     		str	r0, [r7, #4]
 1996 0008 0B46     		mov	r3, r1
 1997 000a FB70     		strb	r3, [r7, #3]
 751:App/STM32F4-Discovery/Libraries/STM32F4xx_StdPeriph_Driver/src/stm32f4xx_dma.c ****   /* Check the parameters */
 752:App/STM32F4-Discovery/Libraries/STM32F4xx_StdPeriph_Driver/src/stm32f4xx_dma.c ****   assert_param(IS_DMA_ALL_PERIPH(DMAy_Streamx));
 1998              		.loc 1 752 0
 1999 000c 7A68     		ldr	r2, [r7, #4]
 2000 000e 46F21003 		movw	r3, #24592
 2001 0012 C4F20203 		movt	r3, 16386
 2002 0016 9A42     		cmp	r2, r3
 2003 0018 70D0     		beq	.L62
 2004              		.loc 1 752 0 is_stmt 0 discriminator 1
 2005 001a 7A68     		ldr	r2, [r7, #4]
 2006 001c 46F22803 		movw	r3, #24616
 2007 0020 C4F20203 		movt	r3, 16386
 2008 0024 9A42     		cmp	r2, r3
 2009 0026 69D0     		beq	.L62
 2010              		.loc 1 752 0 discriminator 2
 2011 0028 7A68     		ldr	r2, [r7, #4]
 2012 002a 46F24003 		movw	r3, #24640
 2013 002e C4F20203 		movt	r3, 16386
 2014 0032 9A42     		cmp	r2, r3
 2015 0034 62D0     		beq	.L62
 2016              		.loc 1 752 0 discriminator 3
 2017 0036 7A68     		ldr	r2, [r7, #4]
 2018 0038 46F25803 		movw	r3, #24664
 2019 003c C4F20203 		movt	r3, 16386
 2020 0040 9A42     		cmp	r2, r3
 2021 0042 5BD0     		beq	.L62
 2022              		.loc 1 752 0 discriminator 4
 2023 0044 7A68     		ldr	r2, [r7, #4]
 2024 0046 46F27003 		movw	r3, #24688
 2025 004a C4F20203 		movt	r3, 16386
 2026 004e 9A42     		cmp	r2, r3
 2027 0050 54D0     		beq	.L62
 2028              		.loc 1 752 0 discriminator 5
 2029 0052 7A68     		ldr	r2, [r7, #4]
 2030 0054 46F28803 		movw	r3, #24712
 2031 0058 C4F20203 		movt	r3, 16386
 2032 005c 9A42     		cmp	r2, r3
 2033 005e 4DD0     		beq	.L62
 2034              		.loc 1 752 0 discriminator 6
 2035 0060 7A68     		ldr	r2, [r7, #4]
 2036 0062 46F2A003 		movw	r3, #24736
 2037 0066 C4F20203 		movt	r3, 16386
 2038 006a 9A42     		cmp	r2, r3
 2039 006c 46D0     		beq	.L62
 2040              		.loc 1 752 0 discriminator 7
 2041 006e 7A68     		ldr	r2, [r7, #4]
 2042 0070 46F2B803 		movw	r3, #24760
 2043 0074 C4F20203 		movt	r3, 16386
 2044 0078 9A42     		cmp	r2, r3
 2045 007a 3FD0     		beq	.L62
 2046              		.loc 1 752 0 discriminator 8
 2047 007c 7A68     		ldr	r2, [r7, #4]
 2048 007e 46F21043 		movw	r3, #25616
 2049 0082 C4F20203 		movt	r3, 16386
 2050 0086 9A42     		cmp	r2, r3
 2051 0088 38D0     		beq	.L62
 2052              		.loc 1 752 0 discriminator 9
 2053 008a 7A68     		ldr	r2, [r7, #4]
 2054 008c 46F22843 		movw	r3, #25640
 2055 0090 C4F20203 		movt	r3, 16386
 2056 0094 9A42     		cmp	r2, r3
 2057 0096 31D0     		beq	.L62
 2058              		.loc 1 752 0 discriminator 10
 2059 0098 7A68     		ldr	r2, [r7, #4]
 2060 009a 46F24043 		movw	r3, #25664
 2061 009e C4F20203 		movt	r3, 16386
 2062 00a2 9A42     		cmp	r2, r3
 2063 00a4 2AD0     		beq	.L62
 2064              		.loc 1 752 0 discriminator 11
 2065 00a6 7A68     		ldr	r2, [r7, #4]
 2066 00a8 46F25843 		movw	r3, #25688
 2067 00ac C4F20203 		movt	r3, 16386
 2068 00b0 9A42     		cmp	r2, r3
 2069 00b2 23D0     		beq	.L62
 2070              		.loc 1 752 0 discriminator 12
 2071 00b4 7A68     		ldr	r2, [r7, #4]
 2072 00b6 46F27043 		movw	r3, #25712
 2073 00ba C4F20203 		movt	r3, 16386
 2074 00be 9A42     		cmp	r2, r3
 2075 00c0 1CD0     		beq	.L62
 2076              		.loc 1 752 0 discriminator 13
 2077 00c2 7A68     		ldr	r2, [r7, #4]
 2078 00c4 46F28843 		movw	r3, #25736
 2079 00c8 C4F20203 		movt	r3, 16386
 2080 00cc 9A42     		cmp	r2, r3
 2081 00ce 15D0     		beq	.L62
 2082              		.loc 1 752 0 discriminator 14
 2083 00d0 7A68     		ldr	r2, [r7, #4]
 2084 00d2 46F2A043 		movw	r3, #25760
 2085 00d6 C4F20203 		movt	r3, 16386
 2086 00da 9A42     		cmp	r2, r3
 2087 00dc 0ED0     		beq	.L62
 2088              		.loc 1 752 0 discriminator 15
 2089 00de 7A68     		ldr	r2, [r7, #4]
 2090 00e0 46F2B843 		movw	r3, #25784
 2091 00e4 C4F20203 		movt	r3, 16386
 2092 00e8 9A42     		cmp	r2, r3
 2093 00ea 07D0     		beq	.L62
 2094              		.loc 1 752 0 discriminator 16
 2095 00ec 40F20000 		movw	r0, #:lower16:.LC0
 2096 00f0 C0F20000 		movt	r0, #:upper16:.LC0
 2097 00f4 4FF43C71 		mov	r1, #752
 2098 00f8 FFF7FEFF 		bl	assert_failed
 2099              	.L62:
 753:App/STM32F4-Discovery/Libraries/STM32F4xx_StdPeriph_Driver/src/stm32f4xx_dma.c ****   assert_param(IS_FUNCTIONAL_STATE(NewState));
 2100              		.loc 1 753 0 is_stmt 1
 2101 00fc FB78     		ldrb	r3, [r7, #3]	@ zero_extendqisi2
 2102 00fe 002B     		cmp	r3, #0
 2103 0100 0AD0     		beq	.L63
 2104              		.loc 1 753 0 is_stmt 0 discriminator 1
 2105 0102 FB78     		ldrb	r3, [r7, #3]	@ zero_extendqisi2
 2106 0104 012B     		cmp	r3, #1
 2107 0106 07D0     		beq	.L63
 2108              		.loc 1 753 0 discriminator 2
 2109 0108 40F20000 		movw	r0, #:lower16:.LC0
 2110 010c C0F20000 		movt	r0, #:upper16:.LC0
 2111 0110 40F2F121 		movw	r1, #753
 2112 0114 FFF7FEFF 		bl	assert_failed
 2113              	.L63:
 754:App/STM32F4-Discovery/Libraries/STM32F4xx_StdPeriph_Driver/src/stm32f4xx_dma.c **** 
 755:App/STM32F4-Discovery/Libraries/STM32F4xx_StdPeriph_Driver/src/stm32f4xx_dma.c ****   /* Configure the Double Buffer mode */
 756:App/STM32F4-Discovery/Libraries/STM32F4xx_StdPeriph_Driver/src/stm32f4xx_dma.c ****   if (NewState != DISABLE)
 2114              		.loc 1 756 0 is_stmt 1
 2115 0118 FB78     		ldrb	r3, [r7, #3]	@ zero_extendqisi2
 2116 011a 002B     		cmp	r3, #0
 2117 011c 06D0     		beq	.L64
 757:App/STM32F4-Discovery/Libraries/STM32F4xx_StdPeriph_Driver/src/stm32f4xx_dma.c ****   {
 758:App/STM32F4-Discovery/Libraries/STM32F4xx_StdPeriph_Driver/src/stm32f4xx_dma.c ****     /* Enable the Double buffer mode */
 759:App/STM32F4-Discovery/Libraries/STM32F4xx_StdPeriph_Driver/src/stm32f4xx_dma.c ****     DMAy_Streamx->CR |= (uint32_t)DMA_SxCR_DBM;
 2118              		.loc 1 759 0
 2119 011e 7B68     		ldr	r3, [r7, #4]
 2120 0120 1B68     		ldr	r3, [r3, #0]
 2121 0122 43F48022 		orr	r2, r3, #262144
 2122 0126 7B68     		ldr	r3, [r7, #4]
 2123 0128 1A60     		str	r2, [r3, #0]
 2124 012a 05E0     		b	.L61
 2125              	.L64:
 760:App/STM32F4-Discovery/Libraries/STM32F4xx_StdPeriph_Driver/src/stm32f4xx_dma.c ****   }
 761:App/STM32F4-Discovery/Libraries/STM32F4xx_StdPeriph_Driver/src/stm32f4xx_dma.c ****   else
 762:App/STM32F4-Discovery/Libraries/STM32F4xx_StdPeriph_Driver/src/stm32f4xx_dma.c ****   {
 763:App/STM32F4-Discovery/Libraries/STM32F4xx_StdPeriph_Driver/src/stm32f4xx_dma.c ****     /* Disable the Double buffer mode */
 764:App/STM32F4-Discovery/Libraries/STM32F4xx_StdPeriph_Driver/src/stm32f4xx_dma.c ****     DMAy_Streamx->CR &= ~(uint32_t)DMA_SxCR_DBM;
 2126              		.loc 1 764 0
 2127 012c 7B68     		ldr	r3, [r7, #4]
 2128 012e 1B68     		ldr	r3, [r3, #0]
 2129 0130 23F48022 		bic	r2, r3, #262144
 2130 0134 7B68     		ldr	r3, [r7, #4]
 2131 0136 1A60     		str	r2, [r3, #0]
 2132              	.L61:
 765:App/STM32F4-Discovery/Libraries/STM32F4xx_StdPeriph_Driver/src/stm32f4xx_dma.c ****   }
 766:App/STM32F4-Discovery/Libraries/STM32F4xx_StdPeriph_Driver/src/stm32f4xx_dma.c **** }
 2133              		.loc 1 766 0
 2134 0138 07F10807 		add	r7, r7, #8
 2135 013c BD46     		mov	sp, r7
 2136 013e 80BD     		pop	{r7, pc}
 2137              		.cfi_endproc
 2138              	.LFE119:
 2140              		.section	.text.DMA_MemoryTargetConfig,"ax",%progbits
 2141              		.align	2
 2142              		.global	DMA_MemoryTargetConfig
 2143              		.thumb
 2144              		.thumb_func
 2146              	DMA_MemoryTargetConfig:
 2147              	.LFB120:
 767:App/STM32F4-Discovery/Libraries/STM32F4xx_StdPeriph_Driver/src/stm32f4xx_dma.c **** 
 768:App/STM32F4-Discovery/Libraries/STM32F4xx_StdPeriph_Driver/src/stm32f4xx_dma.c **** /**
 769:App/STM32F4-Discovery/Libraries/STM32F4xx_StdPeriph_Driver/src/stm32f4xx_dma.c ****   * @brief  Configures the Memory address for the next buffer transfer in double
 770:App/STM32F4-Discovery/Libraries/STM32F4xx_StdPeriph_Driver/src/stm32f4xx_dma.c ****   *         buffer mode (for dynamic use). This function can be called when the
 771:App/STM32F4-Discovery/Libraries/STM32F4xx_StdPeriph_Driver/src/stm32f4xx_dma.c ****   *         DMA Stream is enabled and when the transfer is ongoing.  
 772:App/STM32F4-Discovery/Libraries/STM32F4xx_StdPeriph_Driver/src/stm32f4xx_dma.c ****   * @param  DMAy_Streamx: where y can be 1 or 2 to select the DMA and x can be 0
 773:App/STM32F4-Discovery/Libraries/STM32F4xx_StdPeriph_Driver/src/stm32f4xx_dma.c ****   *          to 7 to select the DMA Stream.
 774:App/STM32F4-Discovery/Libraries/STM32F4xx_StdPeriph_Driver/src/stm32f4xx_dma.c ****   * @param  MemoryBaseAddr: The base address of the target memory buffer
 775:App/STM32F4-Discovery/Libraries/STM32F4xx_StdPeriph_Driver/src/stm32f4xx_dma.c ****   * @param  DMA_MemoryTarget: Next memory target to be used. 
 776:App/STM32F4-Discovery/Libraries/STM32F4xx_StdPeriph_Driver/src/stm32f4xx_dma.c ****   *         This parameter can be one of the following values:
 777:App/STM32F4-Discovery/Libraries/STM32F4xx_StdPeriph_Driver/src/stm32f4xx_dma.c ****   *            @arg DMA_Memory_0: To use the memory address 0
 778:App/STM32F4-Discovery/Libraries/STM32F4xx_StdPeriph_Driver/src/stm32f4xx_dma.c ****   *            @arg DMA_Memory_1: To use the memory address 1
 779:App/STM32F4-Discovery/Libraries/STM32F4xx_StdPeriph_Driver/src/stm32f4xx_dma.c ****   * 
 780:App/STM32F4-Discovery/Libraries/STM32F4xx_StdPeriph_Driver/src/stm32f4xx_dma.c ****   * @note    It is not allowed to modify the Base Address of a target Memory when
 781:App/STM32F4-Discovery/Libraries/STM32F4xx_StdPeriph_Driver/src/stm32f4xx_dma.c ****   *          this target is involved in the current transfer. ie. If the DMA Stream
 782:App/STM32F4-Discovery/Libraries/STM32F4xx_StdPeriph_Driver/src/stm32f4xx_dma.c ****   *          is currently transferring to/from Memory 1, then it not possible to
 783:App/STM32F4-Discovery/Libraries/STM32F4xx_StdPeriph_Driver/src/stm32f4xx_dma.c ****   *          modify Base address of Memory 1, but it is possible to modify Base
 784:App/STM32F4-Discovery/Libraries/STM32F4xx_StdPeriph_Driver/src/stm32f4xx_dma.c ****   *          address of Memory 0.
 785:App/STM32F4-Discovery/Libraries/STM32F4xx_StdPeriph_Driver/src/stm32f4xx_dma.c ****   *          To know which Memory is currently used, you can use the function
 786:App/STM32F4-Discovery/Libraries/STM32F4xx_StdPeriph_Driver/src/stm32f4xx_dma.c ****   *          DMA_GetCurrentMemoryTarget().             
 787:App/STM32F4-Discovery/Libraries/STM32F4xx_StdPeriph_Driver/src/stm32f4xx_dma.c ****   *  
 788:App/STM32F4-Discovery/Libraries/STM32F4xx_StdPeriph_Driver/src/stm32f4xx_dma.c ****   * @retval None
 789:App/STM32F4-Discovery/Libraries/STM32F4xx_StdPeriph_Driver/src/stm32f4xx_dma.c ****   */
 790:App/STM32F4-Discovery/Libraries/STM32F4xx_StdPeriph_Driver/src/stm32f4xx_dma.c **** void DMA_MemoryTargetConfig(DMA_Stream_TypeDef* DMAy_Streamx, uint32_t MemoryBaseAddr,
 791:App/STM32F4-Discovery/Libraries/STM32F4xx_StdPeriph_Driver/src/stm32f4xx_dma.c ****                            uint32_t DMA_MemoryTarget)
 792:App/STM32F4-Discovery/Libraries/STM32F4xx_StdPeriph_Driver/src/stm32f4xx_dma.c **** {
 2148              		.loc 1 792 0
 2149              		.cfi_startproc
 2150              		@ args = 0, pretend = 0, frame = 16
 2151              		@ frame_needed = 1, uses_anonymous_args = 0
 2152 0000 80B5     		push	{r7, lr}
 2153              	.LCFI30:
 2154              		.cfi_def_cfa_offset 8
 2155              		.cfi_offset 7, -8
 2156              		.cfi_offset 14, -4
 2157 0002 84B0     		sub	sp, sp, #16
 2158              	.LCFI31:
 2159              		.cfi_def_cfa_offset 24
 2160 0004 00AF     		add	r7, sp, #0
 2161              	.LCFI32:
 2162              		.cfi_def_cfa_register 7
 2163 0006 F860     		str	r0, [r7, #12]
 2164 0008 B960     		str	r1, [r7, #8]
 2165 000a 7A60     		str	r2, [r7, #4]
 793:App/STM32F4-Discovery/Libraries/STM32F4xx_StdPeriph_Driver/src/stm32f4xx_dma.c ****   /* Check the parameters */
 794:App/STM32F4-Discovery/Libraries/STM32F4xx_StdPeriph_Driver/src/stm32f4xx_dma.c ****   assert_param(IS_DMA_ALL_PERIPH(DMAy_Streamx));
 2166              		.loc 1 794 0
 2167 000c FA68     		ldr	r2, [r7, #12]
 2168 000e 46F21003 		movw	r3, #24592
 2169 0012 C4F20203 		movt	r3, 16386
 2170 0016 9A42     		cmp	r2, r3
 2171 0018 70D0     		beq	.L67
 2172              		.loc 1 794 0 is_stmt 0 discriminator 1
 2173 001a FA68     		ldr	r2, [r7, #12]
 2174 001c 46F22803 		movw	r3, #24616
 2175 0020 C4F20203 		movt	r3, 16386
 2176 0024 9A42     		cmp	r2, r3
 2177 0026 69D0     		beq	.L67
 2178              		.loc 1 794 0 discriminator 2
 2179 0028 FA68     		ldr	r2, [r7, #12]
 2180 002a 46F24003 		movw	r3, #24640
 2181 002e C4F20203 		movt	r3, 16386
 2182 0032 9A42     		cmp	r2, r3
 2183 0034 62D0     		beq	.L67
 2184              		.loc 1 794 0 discriminator 3
 2185 0036 FA68     		ldr	r2, [r7, #12]
 2186 0038 46F25803 		movw	r3, #24664
 2187 003c C4F20203 		movt	r3, 16386
 2188 0040 9A42     		cmp	r2, r3
 2189 0042 5BD0     		beq	.L67
 2190              		.loc 1 794 0 discriminator 4
 2191 0044 FA68     		ldr	r2, [r7, #12]
 2192 0046 46F27003 		movw	r3, #24688
 2193 004a C4F20203 		movt	r3, 16386
 2194 004e 9A42     		cmp	r2, r3
 2195 0050 54D0     		beq	.L67
 2196              		.loc 1 794 0 discriminator 5
 2197 0052 FA68     		ldr	r2, [r7, #12]
 2198 0054 46F28803 		movw	r3, #24712
 2199 0058 C4F20203 		movt	r3, 16386
 2200 005c 9A42     		cmp	r2, r3
 2201 005e 4DD0     		beq	.L67
 2202              		.loc 1 794 0 discriminator 6
 2203 0060 FA68     		ldr	r2, [r7, #12]
 2204 0062 46F2A003 		movw	r3, #24736
 2205 0066 C4F20203 		movt	r3, 16386
 2206 006a 9A42     		cmp	r2, r3
 2207 006c 46D0     		beq	.L67
 2208              		.loc 1 794 0 discriminator 7
 2209 006e FA68     		ldr	r2, [r7, #12]
 2210 0070 46F2B803 		movw	r3, #24760
 2211 0074 C4F20203 		movt	r3, 16386
 2212 0078 9A42     		cmp	r2, r3
 2213 007a 3FD0     		beq	.L67
 2214              		.loc 1 794 0 discriminator 8
 2215 007c FA68     		ldr	r2, [r7, #12]
 2216 007e 46F21043 		movw	r3, #25616
 2217 0082 C4F20203 		movt	r3, 16386
 2218 0086 9A42     		cmp	r2, r3
 2219 0088 38D0     		beq	.L67
 2220              		.loc 1 794 0 discriminator 9
 2221 008a FA68     		ldr	r2, [r7, #12]
 2222 008c 46F22843 		movw	r3, #25640
 2223 0090 C4F20203 		movt	r3, 16386
 2224 0094 9A42     		cmp	r2, r3
 2225 0096 31D0     		beq	.L67
 2226              		.loc 1 794 0 discriminator 10
 2227 0098 FA68     		ldr	r2, [r7, #12]
 2228 009a 46F24043 		movw	r3, #25664
 2229 009e C4F20203 		movt	r3, 16386
 2230 00a2 9A42     		cmp	r2, r3
 2231 00a4 2AD0     		beq	.L67
 2232              		.loc 1 794 0 discriminator 11
 2233 00a6 FA68     		ldr	r2, [r7, #12]
 2234 00a8 46F25843 		movw	r3, #25688
 2235 00ac C4F20203 		movt	r3, 16386
 2236 00b0 9A42     		cmp	r2, r3
 2237 00b2 23D0     		beq	.L67
 2238              		.loc 1 794 0 discriminator 12
 2239 00b4 FA68     		ldr	r2, [r7, #12]
 2240 00b6 46F27043 		movw	r3, #25712
 2241 00ba C4F20203 		movt	r3, 16386
 2242 00be 9A42     		cmp	r2, r3
 2243 00c0 1CD0     		beq	.L67
 2244              		.loc 1 794 0 discriminator 13
 2245 00c2 FA68     		ldr	r2, [r7, #12]
 2246 00c4 46F28843 		movw	r3, #25736
 2247 00c8 C4F20203 		movt	r3, 16386
 2248 00cc 9A42     		cmp	r2, r3
 2249 00ce 15D0     		beq	.L67
 2250              		.loc 1 794 0 discriminator 14
 2251 00d0 FA68     		ldr	r2, [r7, #12]
 2252 00d2 46F2A043 		movw	r3, #25760
 2253 00d6 C4F20203 		movt	r3, 16386
 2254 00da 9A42     		cmp	r2, r3
 2255 00dc 0ED0     		beq	.L67
 2256              		.loc 1 794 0 discriminator 15
 2257 00de FA68     		ldr	r2, [r7, #12]
 2258 00e0 46F2B843 		movw	r3, #25784
 2259 00e4 C4F20203 		movt	r3, 16386
 2260 00e8 9A42     		cmp	r2, r3
 2261 00ea 07D0     		beq	.L67
 2262              		.loc 1 794 0 discriminator 16
 2263 00ec 40F20000 		movw	r0, #:lower16:.LC0
 2264 00f0 C0F20000 		movt	r0, #:upper16:.LC0
 2265 00f4 40F21A31 		movw	r1, #794
 2266 00f8 FFF7FEFF 		bl	assert_failed
 2267              	.L67:
 795:App/STM32F4-Discovery/Libraries/STM32F4xx_StdPeriph_Driver/src/stm32f4xx_dma.c ****   assert_param(IS_DMA_CURRENT_MEM(DMA_MemoryTarget));
 2268              		.loc 1 795 0 is_stmt 1
 2269 00fc 7B68     		ldr	r3, [r7, #4]
 2270 00fe 002B     		cmp	r3, #0
 2271 0100 0BD0     		beq	.L68
 2272              		.loc 1 795 0 is_stmt 0 discriminator 1
 2273 0102 7B68     		ldr	r3, [r7, #4]
 2274 0104 B3F5002F 		cmp	r3, #524288
 2275 0108 07D0     		beq	.L68
 2276              		.loc 1 795 0 discriminator 2
 2277 010a 40F20000 		movw	r0, #:lower16:.LC0
 2278 010e C0F20000 		movt	r0, #:upper16:.LC0
 2279 0112 40F21B31 		movw	r1, #795
 2280 0116 FFF7FEFF 		bl	assert_failed
 2281              	.L68:
 796:App/STM32F4-Discovery/Libraries/STM32F4xx_StdPeriph_Driver/src/stm32f4xx_dma.c ****     
 797:App/STM32F4-Discovery/Libraries/STM32F4xx_StdPeriph_Driver/src/stm32f4xx_dma.c ****   /* Check the Memory target to be configured */
 798:App/STM32F4-Discovery/Libraries/STM32F4xx_StdPeriph_Driver/src/stm32f4xx_dma.c ****   if (DMA_MemoryTarget != DMA_Memory_0)
 2282              		.loc 1 798 0 is_stmt 1
 2283 011a 7B68     		ldr	r3, [r7, #4]
 2284 011c 002B     		cmp	r3, #0
 2285 011e 03D0     		beq	.L69
 799:App/STM32F4-Discovery/Libraries/STM32F4xx_StdPeriph_Driver/src/stm32f4xx_dma.c ****   {
 800:App/STM32F4-Discovery/Libraries/STM32F4xx_StdPeriph_Driver/src/stm32f4xx_dma.c ****     /* Write to DMAy Streamx M1AR */
 801:App/STM32F4-Discovery/Libraries/STM32F4xx_StdPeriph_Driver/src/stm32f4xx_dma.c ****     DMAy_Streamx->M1AR = MemoryBaseAddr;    
 2286              		.loc 1 801 0
 2287 0120 FB68     		ldr	r3, [r7, #12]
 2288 0122 BA68     		ldr	r2, [r7, #8]
 2289 0124 1A61     		str	r2, [r3, #16]
 2290 0126 02E0     		b	.L66
 2291              	.L69:
 802:App/STM32F4-Discovery/Libraries/STM32F4xx_StdPeriph_Driver/src/stm32f4xx_dma.c ****   }  
 803:App/STM32F4-Discovery/Libraries/STM32F4xx_StdPeriph_Driver/src/stm32f4xx_dma.c ****   else
 804:App/STM32F4-Discovery/Libraries/STM32F4xx_StdPeriph_Driver/src/stm32f4xx_dma.c ****   {
 805:App/STM32F4-Discovery/Libraries/STM32F4xx_StdPeriph_Driver/src/stm32f4xx_dma.c ****     /* Write to DMAy Streamx M0AR */
 806:App/STM32F4-Discovery/Libraries/STM32F4xx_StdPeriph_Driver/src/stm32f4xx_dma.c ****     DMAy_Streamx->M0AR = MemoryBaseAddr;  
 2292              		.loc 1 806 0
 2293 0128 FB68     		ldr	r3, [r7, #12]
 2294 012a BA68     		ldr	r2, [r7, #8]
 2295 012c DA60     		str	r2, [r3, #12]
 2296              	.L66:
 807:App/STM32F4-Discovery/Libraries/STM32F4xx_StdPeriph_Driver/src/stm32f4xx_dma.c ****   }
 808:App/STM32F4-Discovery/Libraries/STM32F4xx_StdPeriph_Driver/src/stm32f4xx_dma.c **** }
 2297              		.loc 1 808 0
 2298 012e 07F11007 		add	r7, r7, #16
 2299 0132 BD46     		mov	sp, r7
 2300 0134 80BD     		pop	{r7, pc}
 2301              		.cfi_endproc
 2302              	.LFE120:
 2304 0136 00BF     		.section	.text.DMA_GetCurrentMemoryTarget,"ax",%progbits
 2305              		.align	2
 2306              		.global	DMA_GetCurrentMemoryTarget
 2307              		.thumb
 2308              		.thumb_func
 2310              	DMA_GetCurrentMemoryTarget:
 2311              	.LFB121:
 809:App/STM32F4-Discovery/Libraries/STM32F4xx_StdPeriph_Driver/src/stm32f4xx_dma.c **** 
 810:App/STM32F4-Discovery/Libraries/STM32F4xx_StdPeriph_Driver/src/stm32f4xx_dma.c **** /**
 811:App/STM32F4-Discovery/Libraries/STM32F4xx_StdPeriph_Driver/src/stm32f4xx_dma.c ****   * @brief  Returns the current memory target used by double buffer transfer.
 812:App/STM32F4-Discovery/Libraries/STM32F4xx_StdPeriph_Driver/src/stm32f4xx_dma.c ****   * @param  DMAy_Streamx: where y can be 1 or 2 to select the DMA and x can be 0
 813:App/STM32F4-Discovery/Libraries/STM32F4xx_StdPeriph_Driver/src/stm32f4xx_dma.c ****   *          to 7 to select the DMA Stream.
 814:App/STM32F4-Discovery/Libraries/STM32F4xx_StdPeriph_Driver/src/stm32f4xx_dma.c ****   * @retval The memory target number: 0 for Memory0 or 1 for Memory1. 
 815:App/STM32F4-Discovery/Libraries/STM32F4xx_StdPeriph_Driver/src/stm32f4xx_dma.c ****   */
 816:App/STM32F4-Discovery/Libraries/STM32F4xx_StdPeriph_Driver/src/stm32f4xx_dma.c **** uint32_t DMA_GetCurrentMemoryTarget(DMA_Stream_TypeDef* DMAy_Streamx)
 817:App/STM32F4-Discovery/Libraries/STM32F4xx_StdPeriph_Driver/src/stm32f4xx_dma.c **** {
 2312              		.loc 1 817 0
 2313              		.cfi_startproc
 2314              		@ args = 0, pretend = 0, frame = 16
 2315              		@ frame_needed = 1, uses_anonymous_args = 0
 2316 0000 80B5     		push	{r7, lr}
 2317              	.LCFI33:
 2318              		.cfi_def_cfa_offset 8
 2319              		.cfi_offset 7, -8
 2320              		.cfi_offset 14, -4
 2321 0002 84B0     		sub	sp, sp, #16
 2322              	.LCFI34:
 2323              		.cfi_def_cfa_offset 24
 2324 0004 00AF     		add	r7, sp, #0
 2325              	.LCFI35:
 2326              		.cfi_def_cfa_register 7
 2327 0006 7860     		str	r0, [r7, #4]
 818:App/STM32F4-Discovery/Libraries/STM32F4xx_StdPeriph_Driver/src/stm32f4xx_dma.c ****   uint32_t tmp = 0;
 2328              		.loc 1 818 0
 2329 0008 4FF00003 		mov	r3, #0
 2330 000c FB60     		str	r3, [r7, #12]
 819:App/STM32F4-Discovery/Libraries/STM32F4xx_StdPeriph_Driver/src/stm32f4xx_dma.c ****   
 820:App/STM32F4-Discovery/Libraries/STM32F4xx_StdPeriph_Driver/src/stm32f4xx_dma.c ****   /* Check the parameters */
 821:App/STM32F4-Discovery/Libraries/STM32F4xx_StdPeriph_Driver/src/stm32f4xx_dma.c ****   assert_param(IS_DMA_ALL_PERIPH(DMAy_Streamx));
 2331              		.loc 1 821 0
 2332 000e 7A68     		ldr	r2, [r7, #4]
 2333 0010 46F21003 		movw	r3, #24592
 2334 0014 C4F20203 		movt	r3, 16386
 2335 0018 9A42     		cmp	r2, r3
 2336 001a 70D0     		beq	.L72
 2337              		.loc 1 821 0 is_stmt 0 discriminator 1
 2338 001c 7A68     		ldr	r2, [r7, #4]
 2339 001e 46F22803 		movw	r3, #24616
 2340 0022 C4F20203 		movt	r3, 16386
 2341 0026 9A42     		cmp	r2, r3
 2342 0028 69D0     		beq	.L72
 2343              		.loc 1 821 0 discriminator 2
 2344 002a 7A68     		ldr	r2, [r7, #4]
 2345 002c 46F24003 		movw	r3, #24640
 2346 0030 C4F20203 		movt	r3, 16386
 2347 0034 9A42     		cmp	r2, r3
 2348 0036 62D0     		beq	.L72
 2349              		.loc 1 821 0 discriminator 3
 2350 0038 7A68     		ldr	r2, [r7, #4]
 2351 003a 46F25803 		movw	r3, #24664
 2352 003e C4F20203 		movt	r3, 16386
 2353 0042 9A42     		cmp	r2, r3
 2354 0044 5BD0     		beq	.L72
 2355              		.loc 1 821 0 discriminator 4
 2356 0046 7A68     		ldr	r2, [r7, #4]
 2357 0048 46F27003 		movw	r3, #24688
 2358 004c C4F20203 		movt	r3, 16386
 2359 0050 9A42     		cmp	r2, r3
 2360 0052 54D0     		beq	.L72
 2361              		.loc 1 821 0 discriminator 5
 2362 0054 7A68     		ldr	r2, [r7, #4]
 2363 0056 46F28803 		movw	r3, #24712
 2364 005a C4F20203 		movt	r3, 16386
 2365 005e 9A42     		cmp	r2, r3
 2366 0060 4DD0     		beq	.L72
 2367              		.loc 1 821 0 discriminator 6
 2368 0062 7A68     		ldr	r2, [r7, #4]
 2369 0064 46F2A003 		movw	r3, #24736
 2370 0068 C4F20203 		movt	r3, 16386
 2371 006c 9A42     		cmp	r2, r3
 2372 006e 46D0     		beq	.L72
 2373              		.loc 1 821 0 discriminator 7
 2374 0070 7A68     		ldr	r2, [r7, #4]
 2375 0072 46F2B803 		movw	r3, #24760
 2376 0076 C4F20203 		movt	r3, 16386
 2377 007a 9A42     		cmp	r2, r3
 2378 007c 3FD0     		beq	.L72
 2379              		.loc 1 821 0 discriminator 8
 2380 007e 7A68     		ldr	r2, [r7, #4]
 2381 0080 46F21043 		movw	r3, #25616
 2382 0084 C4F20203 		movt	r3, 16386
 2383 0088 9A42     		cmp	r2, r3
 2384 008a 38D0     		beq	.L72
 2385              		.loc 1 821 0 discriminator 9
 2386 008c 7A68     		ldr	r2, [r7, #4]
 2387 008e 46F22843 		movw	r3, #25640
 2388 0092 C4F20203 		movt	r3, 16386
 2389 0096 9A42     		cmp	r2, r3
 2390 0098 31D0     		beq	.L72
 2391              		.loc 1 821 0 discriminator 10
 2392 009a 7A68     		ldr	r2, [r7, #4]
 2393 009c 46F24043 		movw	r3, #25664
 2394 00a0 C4F20203 		movt	r3, 16386
 2395 00a4 9A42     		cmp	r2, r3
 2396 00a6 2AD0     		beq	.L72
 2397              		.loc 1 821 0 discriminator 11
 2398 00a8 7A68     		ldr	r2, [r7, #4]
 2399 00aa 46F25843 		movw	r3, #25688
 2400 00ae C4F20203 		movt	r3, 16386
 2401 00b2 9A42     		cmp	r2, r3
 2402 00b4 23D0     		beq	.L72
 2403              		.loc 1 821 0 discriminator 12
 2404 00b6 7A68     		ldr	r2, [r7, #4]
 2405 00b8 46F27043 		movw	r3, #25712
 2406 00bc C4F20203 		movt	r3, 16386
 2407 00c0 9A42     		cmp	r2, r3
 2408 00c2 1CD0     		beq	.L72
 2409              		.loc 1 821 0 discriminator 13
 2410 00c4 7A68     		ldr	r2, [r7, #4]
 2411 00c6 46F28843 		movw	r3, #25736
 2412 00ca C4F20203 		movt	r3, 16386
 2413 00ce 9A42     		cmp	r2, r3
 2414 00d0 15D0     		beq	.L72
 2415              		.loc 1 821 0 discriminator 14
 2416 00d2 7A68     		ldr	r2, [r7, #4]
 2417 00d4 46F2A043 		movw	r3, #25760
 2418 00d8 C4F20203 		movt	r3, 16386
 2419 00dc 9A42     		cmp	r2, r3
 2420 00de 0ED0     		beq	.L72
 2421              		.loc 1 821 0 discriminator 15
 2422 00e0 7A68     		ldr	r2, [r7, #4]
 2423 00e2 46F2B843 		movw	r3, #25784
 2424 00e6 C4F20203 		movt	r3, 16386
 2425 00ea 9A42     		cmp	r2, r3
 2426 00ec 07D0     		beq	.L72
 2427              		.loc 1 821 0 discriminator 16
 2428 00ee 40F20000 		movw	r0, #:lower16:.LC0
 2429 00f2 C0F20000 		movt	r0, #:upper16:.LC0
 2430 00f6 40F23531 		movw	r1, #821
 2431 00fa FFF7FEFF 		bl	assert_failed
 2432              	.L72:
 822:App/STM32F4-Discovery/Libraries/STM32F4xx_StdPeriph_Driver/src/stm32f4xx_dma.c **** 
 823:App/STM32F4-Discovery/Libraries/STM32F4xx_StdPeriph_Driver/src/stm32f4xx_dma.c ****   /* Get the current memory target */
 824:App/STM32F4-Discovery/Libraries/STM32F4xx_StdPeriph_Driver/src/stm32f4xx_dma.c ****   if ((DMAy_Streamx->CR & DMA_SxCR_CT) != 0)
 2433              		.loc 1 824 0 is_stmt 1
 2434 00fe 7B68     		ldr	r3, [r7, #4]
 2435 0100 1B68     		ldr	r3, [r3, #0]
 2436 0102 03F40023 		and	r3, r3, #524288
 2437 0106 002B     		cmp	r3, #0
 2438 0108 03D0     		beq	.L73
 825:App/STM32F4-Discovery/Libraries/STM32F4xx_StdPeriph_Driver/src/stm32f4xx_dma.c ****   {
 826:App/STM32F4-Discovery/Libraries/STM32F4xx_StdPeriph_Driver/src/stm32f4xx_dma.c ****     /* Current memory buffer used is Memory 1 */
 827:App/STM32F4-Discovery/Libraries/STM32F4xx_StdPeriph_Driver/src/stm32f4xx_dma.c ****     tmp = 1;
 2439              		.loc 1 827 0
 2440 010a 4FF00103 		mov	r3, #1
 2441 010e FB60     		str	r3, [r7, #12]
 2442 0110 02E0     		b	.L74
 2443              	.L73:
 828:App/STM32F4-Discovery/Libraries/STM32F4xx_StdPeriph_Driver/src/stm32f4xx_dma.c ****   }  
 829:App/STM32F4-Discovery/Libraries/STM32F4xx_StdPeriph_Driver/src/stm32f4xx_dma.c ****   else
 830:App/STM32F4-Discovery/Libraries/STM32F4xx_StdPeriph_Driver/src/stm32f4xx_dma.c ****   {
 831:App/STM32F4-Discovery/Libraries/STM32F4xx_StdPeriph_Driver/src/stm32f4xx_dma.c ****     /* Current memory buffer used is Memory 0 */
 832:App/STM32F4-Discovery/Libraries/STM32F4xx_StdPeriph_Driver/src/stm32f4xx_dma.c ****     tmp = 0;    
 2444              		.loc 1 832 0
 2445 0112 4FF00003 		mov	r3, #0
 2446 0116 FB60     		str	r3, [r7, #12]
 2447              	.L74:
 833:App/STM32F4-Discovery/Libraries/STM32F4xx_StdPeriph_Driver/src/stm32f4xx_dma.c ****   }
 834:App/STM32F4-Discovery/Libraries/STM32F4xx_StdPeriph_Driver/src/stm32f4xx_dma.c ****   return tmp;
 2448              		.loc 1 834 0
 2449 0118 FB68     		ldr	r3, [r7, #12]
 835:App/STM32F4-Discovery/Libraries/STM32F4xx_StdPeriph_Driver/src/stm32f4xx_dma.c **** }
 2450              		.loc 1 835 0
 2451 011a 1846     		mov	r0, r3
 2452 011c 07F11007 		add	r7, r7, #16
 2453 0120 BD46     		mov	sp, r7
 2454 0122 80BD     		pop	{r7, pc}
 2455              		.cfi_endproc
 2456              	.LFE121:
 2458              		.section	.text.DMA_GetCmdStatus,"ax",%progbits
 2459              		.align	2
 2460              		.global	DMA_GetCmdStatus
 2461              		.thumb
 2462              		.thumb_func
 2464              	DMA_GetCmdStatus:
 2465              	.LFB122:
 836:App/STM32F4-Discovery/Libraries/STM32F4xx_StdPeriph_Driver/src/stm32f4xx_dma.c **** /**
 837:App/STM32F4-Discovery/Libraries/STM32F4xx_StdPeriph_Driver/src/stm32f4xx_dma.c ****   * @}
 838:App/STM32F4-Discovery/Libraries/STM32F4xx_StdPeriph_Driver/src/stm32f4xx_dma.c ****   */
 839:App/STM32F4-Discovery/Libraries/STM32F4xx_StdPeriph_Driver/src/stm32f4xx_dma.c **** 
 840:App/STM32F4-Discovery/Libraries/STM32F4xx_StdPeriph_Driver/src/stm32f4xx_dma.c **** /** @defgroup DMA_Group4 Interrupts and flags management functions
 841:App/STM32F4-Discovery/Libraries/STM32F4xx_StdPeriph_Driver/src/stm32f4xx_dma.c ****  *  @brief   Interrupts and flags management functions 
 842:App/STM32F4-Discovery/Libraries/STM32F4xx_StdPeriph_Driver/src/stm32f4xx_dma.c ****  *
 843:App/STM32F4-Discovery/Libraries/STM32F4xx_StdPeriph_Driver/src/stm32f4xx_dma.c **** @verbatim   
 844:App/STM32F4-Discovery/Libraries/STM32F4xx_StdPeriph_Driver/src/stm32f4xx_dma.c ****  ===============================================================================
 845:App/STM32F4-Discovery/Libraries/STM32F4xx_StdPeriph_Driver/src/stm32f4xx_dma.c ****                   Interrupts and flags management functions
 846:App/STM32F4-Discovery/Libraries/STM32F4xx_StdPeriph_Driver/src/stm32f4xx_dma.c ****  ===============================================================================  
 847:App/STM32F4-Discovery/Libraries/STM32F4xx_StdPeriph_Driver/src/stm32f4xx_dma.c **** 
 848:App/STM32F4-Discovery/Libraries/STM32F4xx_StdPeriph_Driver/src/stm32f4xx_dma.c ****   This subsection provides functions allowing to
 849:App/STM32F4-Discovery/Libraries/STM32F4xx_StdPeriph_Driver/src/stm32f4xx_dma.c ****    - Check the DMA enable status
 850:App/STM32F4-Discovery/Libraries/STM32F4xx_StdPeriph_Driver/src/stm32f4xx_dma.c ****    - Check the FIFO status 
 851:App/STM32F4-Discovery/Libraries/STM32F4xx_StdPeriph_Driver/src/stm32f4xx_dma.c ****    - Configure the DMA Interrupts sources and check or clear the flags or pending bits status.   
 852:App/STM32F4-Discovery/Libraries/STM32F4xx_StdPeriph_Driver/src/stm32f4xx_dma.c ****    
 853:App/STM32F4-Discovery/Libraries/STM32F4xx_StdPeriph_Driver/src/stm32f4xx_dma.c ****  1. DMA Enable status:
 854:App/STM32F4-Discovery/Libraries/STM32F4xx_StdPeriph_Driver/src/stm32f4xx_dma.c ****    After configuring the DMA Stream (DMA_Init() function) and enabling the stream,
 855:App/STM32F4-Discovery/Libraries/STM32F4xx_StdPeriph_Driver/src/stm32f4xx_dma.c ****    it is recommended to check (or wait until) the DMA Stream is effectively enabled.
 856:App/STM32F4-Discovery/Libraries/STM32F4xx_StdPeriph_Driver/src/stm32f4xx_dma.c ****    A Stream may remain disabled if a configuration parameter is wrong.
 857:App/STM32F4-Discovery/Libraries/STM32F4xx_StdPeriph_Driver/src/stm32f4xx_dma.c ****    After disabling a DMA Stream, it is also recommended to check (or wait until) the DMA
 858:App/STM32F4-Discovery/Libraries/STM32F4xx_StdPeriph_Driver/src/stm32f4xx_dma.c ****    Stream is effectively disabled. If a Stream is disabled while a data transfer is ongoing, 
 859:App/STM32F4-Discovery/Libraries/STM32F4xx_StdPeriph_Driver/src/stm32f4xx_dma.c ****    the current data will be transferred and the Stream will be effectively disabled only after
 860:App/STM32F4-Discovery/Libraries/STM32F4xx_StdPeriph_Driver/src/stm32f4xx_dma.c ****    this data transfer completion.
 861:App/STM32F4-Discovery/Libraries/STM32F4xx_StdPeriph_Driver/src/stm32f4xx_dma.c ****    To monitor this state it is possible to use the following function:
 862:App/STM32F4-Discovery/Libraries/STM32F4xx_StdPeriph_Driver/src/stm32f4xx_dma.c ****      - FunctionalState DMA_GetCmdStatus(DMA_Stream_TypeDef* DMAy_Streamx); 
 863:App/STM32F4-Discovery/Libraries/STM32F4xx_StdPeriph_Driver/src/stm32f4xx_dma.c ****  
 864:App/STM32F4-Discovery/Libraries/STM32F4xx_StdPeriph_Driver/src/stm32f4xx_dma.c ****  2. FIFO Status:
 865:App/STM32F4-Discovery/Libraries/STM32F4xx_StdPeriph_Driver/src/stm32f4xx_dma.c ****    It is possible to monitor the FIFO status when a transfer is ongoing using the following 
 866:App/STM32F4-Discovery/Libraries/STM32F4xx_StdPeriph_Driver/src/stm32f4xx_dma.c ****    function:
 867:App/STM32F4-Discovery/Libraries/STM32F4xx_StdPeriph_Driver/src/stm32f4xx_dma.c ****      - uint32_t DMA_GetFIFOStatus(DMA_Stream_TypeDef* DMAy_Streamx); 
 868:App/STM32F4-Discovery/Libraries/STM32F4xx_StdPeriph_Driver/src/stm32f4xx_dma.c ****  
 869:App/STM32F4-Discovery/Libraries/STM32F4xx_StdPeriph_Driver/src/stm32f4xx_dma.c ****  3. DMA Interrupts and Flags:
 870:App/STM32F4-Discovery/Libraries/STM32F4xx_StdPeriph_Driver/src/stm32f4xx_dma.c ****   The user should identify which mode will be used in his application to manage the
 871:App/STM32F4-Discovery/Libraries/STM32F4xx_StdPeriph_Driver/src/stm32f4xx_dma.c ****   DMA controller events: Polling mode or Interrupt mode. 
 872:App/STM32F4-Discovery/Libraries/STM32F4xx_StdPeriph_Driver/src/stm32f4xx_dma.c ****     
 873:App/STM32F4-Discovery/Libraries/STM32F4xx_StdPeriph_Driver/src/stm32f4xx_dma.c ****   Polling Mode
 874:App/STM32F4-Discovery/Libraries/STM32F4xx_StdPeriph_Driver/src/stm32f4xx_dma.c ****   =============
 875:App/STM32F4-Discovery/Libraries/STM32F4xx_StdPeriph_Driver/src/stm32f4xx_dma.c ****     Each DMA stream can be managed through 4 event Flags:
 876:App/STM32F4-Discovery/Libraries/STM32F4xx_StdPeriph_Driver/src/stm32f4xx_dma.c ****     (x : DMA Stream number )
 877:App/STM32F4-Discovery/Libraries/STM32F4xx_StdPeriph_Driver/src/stm32f4xx_dma.c ****        1. DMA_FLAG_FEIFx  : to indicate that a FIFO Mode Transfer Error event occurred.
 878:App/STM32F4-Discovery/Libraries/STM32F4xx_StdPeriph_Driver/src/stm32f4xx_dma.c ****        2. DMA_FLAG_DMEIFx : to indicate that a Direct Mode Transfer Error event occurred.
 879:App/STM32F4-Discovery/Libraries/STM32F4xx_StdPeriph_Driver/src/stm32f4xx_dma.c ****        3. DMA_FLAG_TEIFx  : to indicate that a Transfer Error event occurred.
 880:App/STM32F4-Discovery/Libraries/STM32F4xx_StdPeriph_Driver/src/stm32f4xx_dma.c ****        4. DMA_FLAG_HTIFx  : to indicate that a Half-Transfer Complete event occurred.
 881:App/STM32F4-Discovery/Libraries/STM32F4xx_StdPeriph_Driver/src/stm32f4xx_dma.c ****        5. DMA_FLAG_TCIFx  : to indicate that a Transfer Complete event occurred .       
 882:App/STM32F4-Discovery/Libraries/STM32F4xx_StdPeriph_Driver/src/stm32f4xx_dma.c **** 
 883:App/STM32F4-Discovery/Libraries/STM32F4xx_StdPeriph_Driver/src/stm32f4xx_dma.c ****    In this Mode it is advised to use the following functions:
 884:App/STM32F4-Discovery/Libraries/STM32F4xx_StdPeriph_Driver/src/stm32f4xx_dma.c ****       - FlagStatus DMA_GetFlagStatus(DMA_Stream_TypeDef* DMAy_Streamx, uint32_t DMA_FLAG);
 885:App/STM32F4-Discovery/Libraries/STM32F4xx_StdPeriph_Driver/src/stm32f4xx_dma.c ****       - void DMA_ClearFlag(DMA_Stream_TypeDef* DMAy_Streamx, uint32_t DMA_FLAG);
 886:App/STM32F4-Discovery/Libraries/STM32F4xx_StdPeriph_Driver/src/stm32f4xx_dma.c **** 
 887:App/STM32F4-Discovery/Libraries/STM32F4xx_StdPeriph_Driver/src/stm32f4xx_dma.c ****   Interrupt Mode
 888:App/STM32F4-Discovery/Libraries/STM32F4xx_StdPeriph_Driver/src/stm32f4xx_dma.c ****   ===============
 889:App/STM32F4-Discovery/Libraries/STM32F4xx_StdPeriph_Driver/src/stm32f4xx_dma.c ****     Each DMA Stream can be managed through 4 Interrupts:
 890:App/STM32F4-Discovery/Libraries/STM32F4xx_StdPeriph_Driver/src/stm32f4xx_dma.c **** 
 891:App/STM32F4-Discovery/Libraries/STM32F4xx_StdPeriph_Driver/src/stm32f4xx_dma.c ****     Interrupt Source
 892:App/STM32F4-Discovery/Libraries/STM32F4xx_StdPeriph_Driver/src/stm32f4xx_dma.c ****     ----------------
 893:App/STM32F4-Discovery/Libraries/STM32F4xx_StdPeriph_Driver/src/stm32f4xx_dma.c ****        1. DMA_IT_FEIFx  : specifies the interrupt source for the  FIFO Mode Transfer Error event.
 894:App/STM32F4-Discovery/Libraries/STM32F4xx_StdPeriph_Driver/src/stm32f4xx_dma.c ****        2. DMA_IT_DMEIFx : specifies the interrupt source for the Direct Mode Transfer Error event.
 895:App/STM32F4-Discovery/Libraries/STM32F4xx_StdPeriph_Driver/src/stm32f4xx_dma.c ****        3. DMA_IT_TEIFx  : specifies the interrupt source for the Transfer Error event.
 896:App/STM32F4-Discovery/Libraries/STM32F4xx_StdPeriph_Driver/src/stm32f4xx_dma.c ****        4. DMA_IT_HTIFx  : specifies the interrupt source for the Half-Transfer Complete event.
 897:App/STM32F4-Discovery/Libraries/STM32F4xx_StdPeriph_Driver/src/stm32f4xx_dma.c ****        5. DMA_IT_TCIFx  : specifies the interrupt source for the a Transfer Complete event. 
 898:App/STM32F4-Discovery/Libraries/STM32F4xx_StdPeriph_Driver/src/stm32f4xx_dma.c ****      
 899:App/STM32F4-Discovery/Libraries/STM32F4xx_StdPeriph_Driver/src/stm32f4xx_dma.c ****   In this Mode it is advised to use the following functions:
 900:App/STM32F4-Discovery/Libraries/STM32F4xx_StdPeriph_Driver/src/stm32f4xx_dma.c ****      - void DMA_ITConfig(DMA_Stream_TypeDef* DMAy_Streamx, uint32_t DMA_IT, FunctionalState NewStat
 901:App/STM32F4-Discovery/Libraries/STM32F4xx_StdPeriph_Driver/src/stm32f4xx_dma.c ****      - ITStatus DMA_GetITStatus(DMA_Stream_TypeDef* DMAy_Streamx, uint32_t DMA_IT);
 902:App/STM32F4-Discovery/Libraries/STM32F4xx_StdPeriph_Driver/src/stm32f4xx_dma.c ****      - void DMA_ClearITPendingBit(DMA_Stream_TypeDef* DMAy_Streamx, uint32_t DMA_IT);
 903:App/STM32F4-Discovery/Libraries/STM32F4xx_StdPeriph_Driver/src/stm32f4xx_dma.c **** 
 904:App/STM32F4-Discovery/Libraries/STM32F4xx_StdPeriph_Driver/src/stm32f4xx_dma.c **** @endverbatim
 905:App/STM32F4-Discovery/Libraries/STM32F4xx_StdPeriph_Driver/src/stm32f4xx_dma.c ****   * @{
 906:App/STM32F4-Discovery/Libraries/STM32F4xx_StdPeriph_Driver/src/stm32f4xx_dma.c ****   */
 907:App/STM32F4-Discovery/Libraries/STM32F4xx_StdPeriph_Driver/src/stm32f4xx_dma.c **** 
 908:App/STM32F4-Discovery/Libraries/STM32F4xx_StdPeriph_Driver/src/stm32f4xx_dma.c **** /**
 909:App/STM32F4-Discovery/Libraries/STM32F4xx_StdPeriph_Driver/src/stm32f4xx_dma.c ****   * @brief  Returns the status of EN bit for the specified DMAy Streamx.
 910:App/STM32F4-Discovery/Libraries/STM32F4xx_StdPeriph_Driver/src/stm32f4xx_dma.c ****   * @param  DMAy_Streamx: where y can be 1 or 2 to select the DMA and x can be 0
 911:App/STM32F4-Discovery/Libraries/STM32F4xx_StdPeriph_Driver/src/stm32f4xx_dma.c ****   *          to 7 to select the DMA Stream.
 912:App/STM32F4-Discovery/Libraries/STM32F4xx_StdPeriph_Driver/src/stm32f4xx_dma.c ****   *   
 913:App/STM32F4-Discovery/Libraries/STM32F4xx_StdPeriph_Driver/src/stm32f4xx_dma.c ****   * @note    After configuring the DMA Stream (DMA_Init() function) and enabling
 914:App/STM32F4-Discovery/Libraries/STM32F4xx_StdPeriph_Driver/src/stm32f4xx_dma.c ****   *          the stream, it is recommended to check (or wait until) the DMA Stream
 915:App/STM32F4-Discovery/Libraries/STM32F4xx_StdPeriph_Driver/src/stm32f4xx_dma.c ****   *          is effectively enabled. A Stream may remain disabled if a configuration
 916:App/STM32F4-Discovery/Libraries/STM32F4xx_StdPeriph_Driver/src/stm32f4xx_dma.c ****   *          parameter is wrong.
 917:App/STM32F4-Discovery/Libraries/STM32F4xx_StdPeriph_Driver/src/stm32f4xx_dma.c ****   *          After disabling a DMA Stream, it is also recommended to check (or wait 
 918:App/STM32F4-Discovery/Libraries/STM32F4xx_StdPeriph_Driver/src/stm32f4xx_dma.c ****   *          until) the DMA Stream is effectively disabled. If a Stream is disabled
 919:App/STM32F4-Discovery/Libraries/STM32F4xx_StdPeriph_Driver/src/stm32f4xx_dma.c ****   *          while a data transfer is ongoing, the current data will be transferred
 920:App/STM32F4-Discovery/Libraries/STM32F4xx_StdPeriph_Driver/src/stm32f4xx_dma.c ****   *          and the Stream will be effectively disabled only after the transfer
 921:App/STM32F4-Discovery/Libraries/STM32F4xx_StdPeriph_Driver/src/stm32f4xx_dma.c ****   *          of this single data is finished.  
 922:App/STM32F4-Discovery/Libraries/STM32F4xx_StdPeriph_Driver/src/stm32f4xx_dma.c ****   *      
 923:App/STM32F4-Discovery/Libraries/STM32F4xx_StdPeriph_Driver/src/stm32f4xx_dma.c ****   * @retval Current state of the DMAy Streamx (ENABLE or DISABLE).
 924:App/STM32F4-Discovery/Libraries/STM32F4xx_StdPeriph_Driver/src/stm32f4xx_dma.c ****   */
 925:App/STM32F4-Discovery/Libraries/STM32F4xx_StdPeriph_Driver/src/stm32f4xx_dma.c **** FunctionalState DMA_GetCmdStatus(DMA_Stream_TypeDef* DMAy_Streamx)
 926:App/STM32F4-Discovery/Libraries/STM32F4xx_StdPeriph_Driver/src/stm32f4xx_dma.c **** {
 2466              		.loc 1 926 0
 2467              		.cfi_startproc
 2468              		@ args = 0, pretend = 0, frame = 16
 2469              		@ frame_needed = 1, uses_anonymous_args = 0
 2470 0000 80B5     		push	{r7, lr}
 2471              	.LCFI36:
 2472              		.cfi_def_cfa_offset 8
 2473              		.cfi_offset 7, -8
 2474              		.cfi_offset 14, -4
 2475 0002 84B0     		sub	sp, sp, #16
 2476              	.LCFI37:
 2477              		.cfi_def_cfa_offset 24
 2478 0004 00AF     		add	r7, sp, #0
 2479              	.LCFI38:
 2480              		.cfi_def_cfa_register 7
 2481 0006 7860     		str	r0, [r7, #4]
 927:App/STM32F4-Discovery/Libraries/STM32F4xx_StdPeriph_Driver/src/stm32f4xx_dma.c ****   FunctionalState state = DISABLE;
 2482              		.loc 1 927 0
 2483 0008 4FF00003 		mov	r3, #0
 2484 000c FB73     		strb	r3, [r7, #15]
 928:App/STM32F4-Discovery/Libraries/STM32F4xx_StdPeriph_Driver/src/stm32f4xx_dma.c **** 
 929:App/STM32F4-Discovery/Libraries/STM32F4xx_StdPeriph_Driver/src/stm32f4xx_dma.c ****   /* Check the parameters */
 930:App/STM32F4-Discovery/Libraries/STM32F4xx_StdPeriph_Driver/src/stm32f4xx_dma.c ****   assert_param(IS_DMA_ALL_PERIPH(DMAy_Streamx));
 2485              		.loc 1 930 0
 2486 000e 7A68     		ldr	r2, [r7, #4]
 2487 0010 46F21003 		movw	r3, #24592
 2488 0014 C4F20203 		movt	r3, 16386
 2489 0018 9A42     		cmp	r2, r3
 2490 001a 70D0     		beq	.L77
 2491              		.loc 1 930 0 is_stmt 0 discriminator 1
 2492 001c 7A68     		ldr	r2, [r7, #4]
 2493 001e 46F22803 		movw	r3, #24616
 2494 0022 C4F20203 		movt	r3, 16386
 2495 0026 9A42     		cmp	r2, r3
 2496 0028 69D0     		beq	.L77
 2497              		.loc 1 930 0 discriminator 2
 2498 002a 7A68     		ldr	r2, [r7, #4]
 2499 002c 46F24003 		movw	r3, #24640
 2500 0030 C4F20203 		movt	r3, 16386
 2501 0034 9A42     		cmp	r2, r3
 2502 0036 62D0     		beq	.L77
 2503              		.loc 1 930 0 discriminator 3
 2504 0038 7A68     		ldr	r2, [r7, #4]
 2505 003a 46F25803 		movw	r3, #24664
 2506 003e C4F20203 		movt	r3, 16386
 2507 0042 9A42     		cmp	r2, r3
 2508 0044 5BD0     		beq	.L77
 2509              		.loc 1 930 0 discriminator 4
 2510 0046 7A68     		ldr	r2, [r7, #4]
 2511 0048 46F27003 		movw	r3, #24688
 2512 004c C4F20203 		movt	r3, 16386
 2513 0050 9A42     		cmp	r2, r3
 2514 0052 54D0     		beq	.L77
 2515              		.loc 1 930 0 discriminator 5
 2516 0054 7A68     		ldr	r2, [r7, #4]
 2517 0056 46F28803 		movw	r3, #24712
 2518 005a C4F20203 		movt	r3, 16386
 2519 005e 9A42     		cmp	r2, r3
 2520 0060 4DD0     		beq	.L77
 2521              		.loc 1 930 0 discriminator 6
 2522 0062 7A68     		ldr	r2, [r7, #4]
 2523 0064 46F2A003 		movw	r3, #24736
 2524 0068 C4F20203 		movt	r3, 16386
 2525 006c 9A42     		cmp	r2, r3
 2526 006e 46D0     		beq	.L77
 2527              		.loc 1 930 0 discriminator 7
 2528 0070 7A68     		ldr	r2, [r7, #4]
 2529 0072 46F2B803 		movw	r3, #24760
 2530 0076 C4F20203 		movt	r3, 16386
 2531 007a 9A42     		cmp	r2, r3
 2532 007c 3FD0     		beq	.L77
 2533              		.loc 1 930 0 discriminator 8
 2534 007e 7A68     		ldr	r2, [r7, #4]
 2535 0080 46F21043 		movw	r3, #25616
 2536 0084 C4F20203 		movt	r3, 16386
 2537 0088 9A42     		cmp	r2, r3
 2538 008a 38D0     		beq	.L77
 2539              		.loc 1 930 0 discriminator 9
 2540 008c 7A68     		ldr	r2, [r7, #4]
 2541 008e 46F22843 		movw	r3, #25640
 2542 0092 C4F20203 		movt	r3, 16386
 2543 0096 9A42     		cmp	r2, r3
 2544 0098 31D0     		beq	.L77
 2545              		.loc 1 930 0 discriminator 10
 2546 009a 7A68     		ldr	r2, [r7, #4]
 2547 009c 46F24043 		movw	r3, #25664
 2548 00a0 C4F20203 		movt	r3, 16386
 2549 00a4 9A42     		cmp	r2, r3
 2550 00a6 2AD0     		beq	.L77
 2551              		.loc 1 930 0 discriminator 11
 2552 00a8 7A68     		ldr	r2, [r7, #4]
 2553 00aa 46F25843 		movw	r3, #25688
 2554 00ae C4F20203 		movt	r3, 16386
 2555 00b2 9A42     		cmp	r2, r3
 2556 00b4 23D0     		beq	.L77
 2557              		.loc 1 930 0 discriminator 12
 2558 00b6 7A68     		ldr	r2, [r7, #4]
 2559 00b8 46F27043 		movw	r3, #25712
 2560 00bc C4F20203 		movt	r3, 16386
 2561 00c0 9A42     		cmp	r2, r3
 2562 00c2 1CD0     		beq	.L77
 2563              		.loc 1 930 0 discriminator 13
 2564 00c4 7A68     		ldr	r2, [r7, #4]
 2565 00c6 46F28843 		movw	r3, #25736
 2566 00ca C4F20203 		movt	r3, 16386
 2567 00ce 9A42     		cmp	r2, r3
 2568 00d0 15D0     		beq	.L77
 2569              		.loc 1 930 0 discriminator 14
 2570 00d2 7A68     		ldr	r2, [r7, #4]
 2571 00d4 46F2A043 		movw	r3, #25760
 2572 00d8 C4F20203 		movt	r3, 16386
 2573 00dc 9A42     		cmp	r2, r3
 2574 00de 0ED0     		beq	.L77
 2575              		.loc 1 930 0 discriminator 15
 2576 00e0 7A68     		ldr	r2, [r7, #4]
 2577 00e2 46F2B843 		movw	r3, #25784
 2578 00e6 C4F20203 		movt	r3, 16386
 2579 00ea 9A42     		cmp	r2, r3
 2580 00ec 07D0     		beq	.L77
 2581              		.loc 1 930 0 discriminator 16
 2582 00ee 40F20000 		movw	r0, #:lower16:.LC0
 2583 00f2 C0F20000 		movt	r0, #:upper16:.LC0
 2584 00f6 40F2A231 		movw	r1, #930
 2585 00fa FFF7FEFF 		bl	assert_failed
 2586              	.L77:
 931:App/STM32F4-Discovery/Libraries/STM32F4xx_StdPeriph_Driver/src/stm32f4xx_dma.c **** 
 932:App/STM32F4-Discovery/Libraries/STM32F4xx_StdPeriph_Driver/src/stm32f4xx_dma.c ****   if ((DMAy_Streamx->CR & (uint32_t)DMA_SxCR_EN) != 0)
 2587              		.loc 1 932 0 is_stmt 1
 2588 00fe 7B68     		ldr	r3, [r7, #4]
 2589 0100 1B68     		ldr	r3, [r3, #0]
 2590 0102 03F00103 		and	r3, r3, #1
 2591 0106 002B     		cmp	r3, #0
 2592 0108 03D0     		beq	.L78
 933:App/STM32F4-Discovery/Libraries/STM32F4xx_StdPeriph_Driver/src/stm32f4xx_dma.c ****   {
 934:App/STM32F4-Discovery/Libraries/STM32F4xx_StdPeriph_Driver/src/stm32f4xx_dma.c ****     /* The selected DMAy Streamx EN bit is set (DMA is still transferring) */
 935:App/STM32F4-Discovery/Libraries/STM32F4xx_StdPeriph_Driver/src/stm32f4xx_dma.c ****     state = ENABLE;
 2593              		.loc 1 935 0
 2594 010a 4FF00103 		mov	r3, #1
 2595 010e FB73     		strb	r3, [r7, #15]
 2596 0110 02E0     		b	.L79
 2597              	.L78:
 936:App/STM32F4-Discovery/Libraries/STM32F4xx_StdPeriph_Driver/src/stm32f4xx_dma.c ****   }
 937:App/STM32F4-Discovery/Libraries/STM32F4xx_StdPeriph_Driver/src/stm32f4xx_dma.c ****   else
 938:App/STM32F4-Discovery/Libraries/STM32F4xx_StdPeriph_Driver/src/stm32f4xx_dma.c ****   {
 939:App/STM32F4-Discovery/Libraries/STM32F4xx_StdPeriph_Driver/src/stm32f4xx_dma.c ****     /* The selected DMAy Streamx EN bit is cleared (DMA is disabled and 
 940:App/STM32F4-Discovery/Libraries/STM32F4xx_StdPeriph_Driver/src/stm32f4xx_dma.c ****         all transfers are complete) */
 941:App/STM32F4-Discovery/Libraries/STM32F4xx_StdPeriph_Driver/src/stm32f4xx_dma.c ****     state = DISABLE;
 2598              		.loc 1 941 0
 2599 0112 4FF00003 		mov	r3, #0
 2600 0116 FB73     		strb	r3, [r7, #15]
 2601              	.L79:
 942:App/STM32F4-Discovery/Libraries/STM32F4xx_StdPeriph_Driver/src/stm32f4xx_dma.c ****   }
 943:App/STM32F4-Discovery/Libraries/STM32F4xx_StdPeriph_Driver/src/stm32f4xx_dma.c ****   return state;
 2602              		.loc 1 943 0
 2603 0118 FB7B     		ldrb	r3, [r7, #15]	@ zero_extendqisi2
 944:App/STM32F4-Discovery/Libraries/STM32F4xx_StdPeriph_Driver/src/stm32f4xx_dma.c **** }
 2604              		.loc 1 944 0
 2605 011a 1846     		mov	r0, r3
 2606 011c 07F11007 		add	r7, r7, #16
 2607 0120 BD46     		mov	sp, r7
 2608 0122 80BD     		pop	{r7, pc}
 2609              		.cfi_endproc
 2610              	.LFE122:
 2612              		.section	.text.DMA_GetFIFOStatus,"ax",%progbits
 2613              		.align	2
 2614              		.global	DMA_GetFIFOStatus
 2615              		.thumb
 2616              		.thumb_func
 2618              	DMA_GetFIFOStatus:
 2619              	.LFB123:
 945:App/STM32F4-Discovery/Libraries/STM32F4xx_StdPeriph_Driver/src/stm32f4xx_dma.c **** 
 946:App/STM32F4-Discovery/Libraries/STM32F4xx_StdPeriph_Driver/src/stm32f4xx_dma.c **** /**
 947:App/STM32F4-Discovery/Libraries/STM32F4xx_StdPeriph_Driver/src/stm32f4xx_dma.c ****   * @brief  Returns the current DMAy Streamx FIFO filled level.
 948:App/STM32F4-Discovery/Libraries/STM32F4xx_StdPeriph_Driver/src/stm32f4xx_dma.c ****   * @param  DMAy_Streamx: where y can be 1 or 2 to select the DMA and x can be 0 
 949:App/STM32F4-Discovery/Libraries/STM32F4xx_StdPeriph_Driver/src/stm32f4xx_dma.c ****   *         to 7 to select the DMA Stream.
 950:App/STM32F4-Discovery/Libraries/STM32F4xx_StdPeriph_Driver/src/stm32f4xx_dma.c ****   * @retval The FIFO filling state.
 951:App/STM32F4-Discovery/Libraries/STM32F4xx_StdPeriph_Driver/src/stm32f4xx_dma.c ****   *           - DMA_FIFOStatus_Less1QuarterFull: when FIFO is less than 1 quarter-full 
 952:App/STM32F4-Discovery/Libraries/STM32F4xx_StdPeriph_Driver/src/stm32f4xx_dma.c ****   *                                               and not empty.
 953:App/STM32F4-Discovery/Libraries/STM32F4xx_StdPeriph_Driver/src/stm32f4xx_dma.c ****   *           - DMA_FIFOStatus_1QuarterFull: if more than 1 quarter-full.
 954:App/STM32F4-Discovery/Libraries/STM32F4xx_StdPeriph_Driver/src/stm32f4xx_dma.c ****   *           - DMA_FIFOStatus_HalfFull: if more than 1 half-full.
 955:App/STM32F4-Discovery/Libraries/STM32F4xx_StdPeriph_Driver/src/stm32f4xx_dma.c ****   *           - DMA_FIFOStatus_3QuartersFull: if more than 3 quarters-full.
 956:App/STM32F4-Discovery/Libraries/STM32F4xx_StdPeriph_Driver/src/stm32f4xx_dma.c ****   *           - DMA_FIFOStatus_Empty: when FIFO is empty
 957:App/STM32F4-Discovery/Libraries/STM32F4xx_StdPeriph_Driver/src/stm32f4xx_dma.c ****   *           - DMA_FIFOStatus_Full: when FIFO is full
 958:App/STM32F4-Discovery/Libraries/STM32F4xx_StdPeriph_Driver/src/stm32f4xx_dma.c ****   */
 959:App/STM32F4-Discovery/Libraries/STM32F4xx_StdPeriph_Driver/src/stm32f4xx_dma.c **** uint32_t DMA_GetFIFOStatus(DMA_Stream_TypeDef* DMAy_Streamx)
 960:App/STM32F4-Discovery/Libraries/STM32F4xx_StdPeriph_Driver/src/stm32f4xx_dma.c **** {
 2620              		.loc 1 960 0
 2621              		.cfi_startproc
 2622              		@ args = 0, pretend = 0, frame = 16
 2623              		@ frame_needed = 1, uses_anonymous_args = 0
 2624 0000 80B5     		push	{r7, lr}
 2625              	.LCFI39:
 2626              		.cfi_def_cfa_offset 8
 2627              		.cfi_offset 7, -8
 2628              		.cfi_offset 14, -4
 2629 0002 84B0     		sub	sp, sp, #16
 2630              	.LCFI40:
 2631              		.cfi_def_cfa_offset 24
 2632 0004 00AF     		add	r7, sp, #0
 2633              	.LCFI41:
 2634              		.cfi_def_cfa_register 7
 2635 0006 7860     		str	r0, [r7, #4]
 961:App/STM32F4-Discovery/Libraries/STM32F4xx_StdPeriph_Driver/src/stm32f4xx_dma.c ****   uint32_t tmpreg = 0;
 2636              		.loc 1 961 0
 2637 0008 4FF00003 		mov	r3, #0
 2638 000c FB60     		str	r3, [r7, #12]
 962:App/STM32F4-Discovery/Libraries/STM32F4xx_StdPeriph_Driver/src/stm32f4xx_dma.c ****  
 963:App/STM32F4-Discovery/Libraries/STM32F4xx_StdPeriph_Driver/src/stm32f4xx_dma.c ****   /* Check the parameters */
 964:App/STM32F4-Discovery/Libraries/STM32F4xx_StdPeriph_Driver/src/stm32f4xx_dma.c ****   assert_param(IS_DMA_ALL_PERIPH(DMAy_Streamx));
 2639              		.loc 1 964 0
 2640 000e 7A68     		ldr	r2, [r7, #4]
 2641 0010 46F21003 		movw	r3, #24592
 2642 0014 C4F20203 		movt	r3, 16386
 2643 0018 9A42     		cmp	r2, r3
 2644 001a 70D0     		beq	.L82
 2645              		.loc 1 964 0 is_stmt 0 discriminator 1
 2646 001c 7A68     		ldr	r2, [r7, #4]
 2647 001e 46F22803 		movw	r3, #24616
 2648 0022 C4F20203 		movt	r3, 16386
 2649 0026 9A42     		cmp	r2, r3
 2650 0028 69D0     		beq	.L82
 2651              		.loc 1 964 0 discriminator 2
 2652 002a 7A68     		ldr	r2, [r7, #4]
 2653 002c 46F24003 		movw	r3, #24640
 2654 0030 C4F20203 		movt	r3, 16386
 2655 0034 9A42     		cmp	r2, r3
 2656 0036 62D0     		beq	.L82
 2657              		.loc 1 964 0 discriminator 3
 2658 0038 7A68     		ldr	r2, [r7, #4]
 2659 003a 46F25803 		movw	r3, #24664
 2660 003e C4F20203 		movt	r3, 16386
 2661 0042 9A42     		cmp	r2, r3
 2662 0044 5BD0     		beq	.L82
 2663              		.loc 1 964 0 discriminator 4
 2664 0046 7A68     		ldr	r2, [r7, #4]
 2665 0048 46F27003 		movw	r3, #24688
 2666 004c C4F20203 		movt	r3, 16386
 2667 0050 9A42     		cmp	r2, r3
 2668 0052 54D0     		beq	.L82
 2669              		.loc 1 964 0 discriminator 5
 2670 0054 7A68     		ldr	r2, [r7, #4]
 2671 0056 46F28803 		movw	r3, #24712
 2672 005a C4F20203 		movt	r3, 16386
 2673 005e 9A42     		cmp	r2, r3
 2674 0060 4DD0     		beq	.L82
 2675              		.loc 1 964 0 discriminator 6
 2676 0062 7A68     		ldr	r2, [r7, #4]
 2677 0064 46F2A003 		movw	r3, #24736
 2678 0068 C4F20203 		movt	r3, 16386
 2679 006c 9A42     		cmp	r2, r3
 2680 006e 46D0     		beq	.L82
 2681              		.loc 1 964 0 discriminator 7
 2682 0070 7A68     		ldr	r2, [r7, #4]
 2683 0072 46F2B803 		movw	r3, #24760
 2684 0076 C4F20203 		movt	r3, 16386
 2685 007a 9A42     		cmp	r2, r3
 2686 007c 3FD0     		beq	.L82
 2687              		.loc 1 964 0 discriminator 8
 2688 007e 7A68     		ldr	r2, [r7, #4]
 2689 0080 46F21043 		movw	r3, #25616
 2690 0084 C4F20203 		movt	r3, 16386
 2691 0088 9A42     		cmp	r2, r3
 2692 008a 38D0     		beq	.L82
 2693              		.loc 1 964 0 discriminator 9
 2694 008c 7A68     		ldr	r2, [r7, #4]
 2695 008e 46F22843 		movw	r3, #25640
 2696 0092 C4F20203 		movt	r3, 16386
 2697 0096 9A42     		cmp	r2, r3
 2698 0098 31D0     		beq	.L82
 2699              		.loc 1 964 0 discriminator 10
 2700 009a 7A68     		ldr	r2, [r7, #4]
 2701 009c 46F24043 		movw	r3, #25664
 2702 00a0 C4F20203 		movt	r3, 16386
 2703 00a4 9A42     		cmp	r2, r3
 2704 00a6 2AD0     		beq	.L82
 2705              		.loc 1 964 0 discriminator 11
 2706 00a8 7A68     		ldr	r2, [r7, #4]
 2707 00aa 46F25843 		movw	r3, #25688
 2708 00ae C4F20203 		movt	r3, 16386
 2709 00b2 9A42     		cmp	r2, r3
 2710 00b4 23D0     		beq	.L82
 2711              		.loc 1 964 0 discriminator 12
 2712 00b6 7A68     		ldr	r2, [r7, #4]
 2713 00b8 46F27043 		movw	r3, #25712
 2714 00bc C4F20203 		movt	r3, 16386
 2715 00c0 9A42     		cmp	r2, r3
 2716 00c2 1CD0     		beq	.L82
 2717              		.loc 1 964 0 discriminator 13
 2718 00c4 7A68     		ldr	r2, [r7, #4]
 2719 00c6 46F28843 		movw	r3, #25736
 2720 00ca C4F20203 		movt	r3, 16386
 2721 00ce 9A42     		cmp	r2, r3
 2722 00d0 15D0     		beq	.L82
 2723              		.loc 1 964 0 discriminator 14
 2724 00d2 7A68     		ldr	r2, [r7, #4]
 2725 00d4 46F2A043 		movw	r3, #25760
 2726 00d8 C4F20203 		movt	r3, 16386
 2727 00dc 9A42     		cmp	r2, r3
 2728 00de 0ED0     		beq	.L82
 2729              		.loc 1 964 0 discriminator 15
 2730 00e0 7A68     		ldr	r2, [r7, #4]
 2731 00e2 46F2B843 		movw	r3, #25784
 2732 00e6 C4F20203 		movt	r3, 16386
 2733 00ea 9A42     		cmp	r2, r3
 2734 00ec 07D0     		beq	.L82
 2735              		.loc 1 964 0 discriminator 16
 2736 00ee 40F20000 		movw	r0, #:lower16:.LC0
 2737 00f2 C0F20000 		movt	r0, #:upper16:.LC0
 2738 00f6 4FF47171 		mov	r1, #964
 2739 00fa FFF7FEFF 		bl	assert_failed
 2740              	.L82:
 965:App/STM32F4-Discovery/Libraries/STM32F4xx_StdPeriph_Driver/src/stm32f4xx_dma.c ****   
 966:App/STM32F4-Discovery/Libraries/STM32F4xx_StdPeriph_Driver/src/stm32f4xx_dma.c ****   /* Get the FIFO level bits */
 967:App/STM32F4-Discovery/Libraries/STM32F4xx_StdPeriph_Driver/src/stm32f4xx_dma.c ****   tmpreg = (uint32_t)((DMAy_Streamx->FCR & DMA_SxFCR_FS));
 2741              		.loc 1 967 0 is_stmt 1
 2742 00fe 7B68     		ldr	r3, [r7, #4]
 2743 0100 5B69     		ldr	r3, [r3, #20]
 2744 0102 03F03803 		and	r3, r3, #56
 2745 0106 FB60     		str	r3, [r7, #12]
 968:App/STM32F4-Discovery/Libraries/STM32F4xx_StdPeriph_Driver/src/stm32f4xx_dma.c ****   
 969:App/STM32F4-Discovery/Libraries/STM32F4xx_StdPeriph_Driver/src/stm32f4xx_dma.c ****   return tmpreg;
 2746              		.loc 1 969 0
 2747 0108 FB68     		ldr	r3, [r7, #12]
 970:App/STM32F4-Discovery/Libraries/STM32F4xx_StdPeriph_Driver/src/stm32f4xx_dma.c **** }
 2748              		.loc 1 970 0
 2749 010a 1846     		mov	r0, r3
 2750 010c 07F11007 		add	r7, r7, #16
 2751 0110 BD46     		mov	sp, r7
 2752 0112 80BD     		pop	{r7, pc}
 2753              		.cfi_endproc
 2754              	.LFE123:
 2756              		.section	.text.DMA_GetFlagStatus,"ax",%progbits
 2757              		.align	2
 2758              		.global	DMA_GetFlagStatus
 2759              		.thumb
 2760              		.thumb_func
 2762              	DMA_GetFlagStatus:
 2763              	.LFB124:
 971:App/STM32F4-Discovery/Libraries/STM32F4xx_StdPeriph_Driver/src/stm32f4xx_dma.c **** 
 972:App/STM32F4-Discovery/Libraries/STM32F4xx_StdPeriph_Driver/src/stm32f4xx_dma.c **** /**
 973:App/STM32F4-Discovery/Libraries/STM32F4xx_StdPeriph_Driver/src/stm32f4xx_dma.c ****   * @brief  Checks whether the specified DMAy Streamx flag is set or not.
 974:App/STM32F4-Discovery/Libraries/STM32F4xx_StdPeriph_Driver/src/stm32f4xx_dma.c ****   * @param  DMAy_Streamx: where y can be 1 or 2 to select the DMA and x can be 0
 975:App/STM32F4-Discovery/Libraries/STM32F4xx_StdPeriph_Driver/src/stm32f4xx_dma.c ****   *          to 7 to select the DMA Stream.
 976:App/STM32F4-Discovery/Libraries/STM32F4xx_StdPeriph_Driver/src/stm32f4xx_dma.c ****   * @param  DMA_FLAG: specifies the flag to check.
 977:App/STM32F4-Discovery/Libraries/STM32F4xx_StdPeriph_Driver/src/stm32f4xx_dma.c ****   *          This parameter can be one of the following values:
 978:App/STM32F4-Discovery/Libraries/STM32F4xx_StdPeriph_Driver/src/stm32f4xx_dma.c ****   *            @arg DMA_FLAG_TCIFx:  Streamx transfer complete flag
 979:App/STM32F4-Discovery/Libraries/STM32F4xx_StdPeriph_Driver/src/stm32f4xx_dma.c ****   *            @arg DMA_FLAG_HTIFx:  Streamx half transfer complete flag
 980:App/STM32F4-Discovery/Libraries/STM32F4xx_StdPeriph_Driver/src/stm32f4xx_dma.c ****   *            @arg DMA_FLAG_TEIFx:  Streamx transfer error flag
 981:App/STM32F4-Discovery/Libraries/STM32F4xx_StdPeriph_Driver/src/stm32f4xx_dma.c ****   *            @arg DMA_FLAG_DMEIFx: Streamx direct mode error flag
 982:App/STM32F4-Discovery/Libraries/STM32F4xx_StdPeriph_Driver/src/stm32f4xx_dma.c ****   *            @arg DMA_FLAG_FEIFx:  Streamx FIFO error flag
 983:App/STM32F4-Discovery/Libraries/STM32F4xx_StdPeriph_Driver/src/stm32f4xx_dma.c ****   *         Where x can be 0 to 7 to select the DMA Stream.
 984:App/STM32F4-Discovery/Libraries/STM32F4xx_StdPeriph_Driver/src/stm32f4xx_dma.c ****   * @retval The new state of DMA_FLAG (SET or RESET).
 985:App/STM32F4-Discovery/Libraries/STM32F4xx_StdPeriph_Driver/src/stm32f4xx_dma.c ****   */
 986:App/STM32F4-Discovery/Libraries/STM32F4xx_StdPeriph_Driver/src/stm32f4xx_dma.c **** FlagStatus DMA_GetFlagStatus(DMA_Stream_TypeDef* DMAy_Streamx, uint32_t DMA_FLAG)
 987:App/STM32F4-Discovery/Libraries/STM32F4xx_StdPeriph_Driver/src/stm32f4xx_dma.c **** {
 2764              		.loc 1 987 0
 2765              		.cfi_startproc
 2766              		@ args = 0, pretend = 0, frame = 24
 2767              		@ frame_needed = 1, uses_anonymous_args = 0
 2768 0000 80B5     		push	{r7, lr}
 2769              	.LCFI42:
 2770              		.cfi_def_cfa_offset 8
 2771              		.cfi_offset 7, -8
 2772              		.cfi_offset 14, -4
 2773 0002 86B0     		sub	sp, sp, #24
 2774              	.LCFI43:
 2775              		.cfi_def_cfa_offset 32
 2776 0004 00AF     		add	r7, sp, #0
 2777              	.LCFI44:
 2778              		.cfi_def_cfa_register 7
 2779 0006 7860     		str	r0, [r7, #4]
 2780 0008 3960     		str	r1, [r7, #0]
 988:App/STM32F4-Discovery/Libraries/STM32F4xx_StdPeriph_Driver/src/stm32f4xx_dma.c ****   FlagStatus bitstatus = RESET;
 2781              		.loc 1 988 0
 2782 000a 4FF00003 		mov	r3, #0
 2783 000e FB75     		strb	r3, [r7, #23]
 989:App/STM32F4-Discovery/Libraries/STM32F4xx_StdPeriph_Driver/src/stm32f4xx_dma.c ****   DMA_TypeDef* DMAy;
 990:App/STM32F4-Discovery/Libraries/STM32F4xx_StdPeriph_Driver/src/stm32f4xx_dma.c ****   uint32_t tmpreg = 0;
 2784              		.loc 1 990 0
 2785 0010 4FF00003 		mov	r3, #0
 2786 0014 FB60     		str	r3, [r7, #12]
 991:App/STM32F4-Discovery/Libraries/STM32F4xx_StdPeriph_Driver/src/stm32f4xx_dma.c **** 
 992:App/STM32F4-Discovery/Libraries/STM32F4xx_StdPeriph_Driver/src/stm32f4xx_dma.c ****   /* Check the parameters */
 993:App/STM32F4-Discovery/Libraries/STM32F4xx_StdPeriph_Driver/src/stm32f4xx_dma.c ****   assert_param(IS_DMA_ALL_PERIPH(DMAy_Streamx));
 2787              		.loc 1 993 0
 2788 0016 7A68     		ldr	r2, [r7, #4]
 2789 0018 46F21003 		movw	r3, #24592
 2790 001c C4F20203 		movt	r3, 16386
 2791 0020 9A42     		cmp	r2, r3
 2792 0022 70D0     		beq	.L85
 2793              		.loc 1 993 0 is_stmt 0 discriminator 1
 2794 0024 7A68     		ldr	r2, [r7, #4]
 2795 0026 46F22803 		movw	r3, #24616
 2796 002a C4F20203 		movt	r3, 16386
 2797 002e 9A42     		cmp	r2, r3
 2798 0030 69D0     		beq	.L85
 2799              		.loc 1 993 0 discriminator 2
 2800 0032 7A68     		ldr	r2, [r7, #4]
 2801 0034 46F24003 		movw	r3, #24640
 2802 0038 C4F20203 		movt	r3, 16386
 2803 003c 9A42     		cmp	r2, r3
 2804 003e 62D0     		beq	.L85
 2805              		.loc 1 993 0 discriminator 3
 2806 0040 7A68     		ldr	r2, [r7, #4]
 2807 0042 46F25803 		movw	r3, #24664
 2808 0046 C4F20203 		movt	r3, 16386
 2809 004a 9A42     		cmp	r2, r3
 2810 004c 5BD0     		beq	.L85
 2811              		.loc 1 993 0 discriminator 4
 2812 004e 7A68     		ldr	r2, [r7, #4]
 2813 0050 46F27003 		movw	r3, #24688
 2814 0054 C4F20203 		movt	r3, 16386
 2815 0058 9A42     		cmp	r2, r3
 2816 005a 54D0     		beq	.L85
 2817              		.loc 1 993 0 discriminator 5
 2818 005c 7A68     		ldr	r2, [r7, #4]
 2819 005e 46F28803 		movw	r3, #24712
 2820 0062 C4F20203 		movt	r3, 16386
 2821 0066 9A42     		cmp	r2, r3
 2822 0068 4DD0     		beq	.L85
 2823              		.loc 1 993 0 discriminator 6
 2824 006a 7A68     		ldr	r2, [r7, #4]
 2825 006c 46F2A003 		movw	r3, #24736
 2826 0070 C4F20203 		movt	r3, 16386
 2827 0074 9A42     		cmp	r2, r3
 2828 0076 46D0     		beq	.L85
 2829              		.loc 1 993 0 discriminator 7
 2830 0078 7A68     		ldr	r2, [r7, #4]
 2831 007a 46F2B803 		movw	r3, #24760
 2832 007e C4F20203 		movt	r3, 16386
 2833 0082 9A42     		cmp	r2, r3
 2834 0084 3FD0     		beq	.L85
 2835              		.loc 1 993 0 discriminator 8
 2836 0086 7A68     		ldr	r2, [r7, #4]
 2837 0088 46F21043 		movw	r3, #25616
 2838 008c C4F20203 		movt	r3, 16386
 2839 0090 9A42     		cmp	r2, r3
 2840 0092 38D0     		beq	.L85
 2841              		.loc 1 993 0 discriminator 9
 2842 0094 7A68     		ldr	r2, [r7, #4]
 2843 0096 46F22843 		movw	r3, #25640
 2844 009a C4F20203 		movt	r3, 16386
 2845 009e 9A42     		cmp	r2, r3
 2846 00a0 31D0     		beq	.L85
 2847              		.loc 1 993 0 discriminator 10
 2848 00a2 7A68     		ldr	r2, [r7, #4]
 2849 00a4 46F24043 		movw	r3, #25664
 2850 00a8 C4F20203 		movt	r3, 16386
 2851 00ac 9A42     		cmp	r2, r3
 2852 00ae 2AD0     		beq	.L85
 2853              		.loc 1 993 0 discriminator 11
 2854 00b0 7A68     		ldr	r2, [r7, #4]
 2855 00b2 46F25843 		movw	r3, #25688
 2856 00b6 C4F20203 		movt	r3, 16386
 2857 00ba 9A42     		cmp	r2, r3
 2858 00bc 23D0     		beq	.L85
 2859              		.loc 1 993 0 discriminator 12
 2860 00be 7A68     		ldr	r2, [r7, #4]
 2861 00c0 46F27043 		movw	r3, #25712
 2862 00c4 C4F20203 		movt	r3, 16386
 2863 00c8 9A42     		cmp	r2, r3
 2864 00ca 1CD0     		beq	.L85
 2865              		.loc 1 993 0 discriminator 13
 2866 00cc 7A68     		ldr	r2, [r7, #4]
 2867 00ce 46F28843 		movw	r3, #25736
 2868 00d2 C4F20203 		movt	r3, 16386
 2869 00d6 9A42     		cmp	r2, r3
 2870 00d8 15D0     		beq	.L85
 2871              		.loc 1 993 0 discriminator 14
 2872 00da 7A68     		ldr	r2, [r7, #4]
 2873 00dc 46F2A043 		movw	r3, #25760
 2874 00e0 C4F20203 		movt	r3, 16386
 2875 00e4 9A42     		cmp	r2, r3
 2876 00e6 0ED0     		beq	.L85
 2877              		.loc 1 993 0 discriminator 15
 2878 00e8 7A68     		ldr	r2, [r7, #4]
 2879 00ea 46F2B843 		movw	r3, #25784
 2880 00ee C4F20203 		movt	r3, 16386
 2881 00f2 9A42     		cmp	r2, r3
 2882 00f4 07D0     		beq	.L85
 2883              		.loc 1 993 0 discriminator 16
 2884 00f6 40F20000 		movw	r0, #:lower16:.LC0
 2885 00fa C0F20000 		movt	r0, #:upper16:.LC0
 2886 00fe 40F2E131 		movw	r1, #993
 2887 0102 FFF7FEFF 		bl	assert_failed
 2888              	.L85:
 994:App/STM32F4-Discovery/Libraries/STM32F4xx_StdPeriph_Driver/src/stm32f4xx_dma.c ****   assert_param(IS_DMA_GET_FLAG(DMA_FLAG));
 2889              		.loc 1 994 0 is_stmt 1
 2890 0106 3A68     		ldr	r2, [r7, #0]
 2891 0108 4FF02003 		mov	r3, #32
 2892 010c C1F20003 		movt	r3, 4096
 2893 0110 9A42     		cmp	r2, r3
 2894 0112 00F00B81 		beq	.L86
 2895              		.loc 1 994 0 is_stmt 0 discriminator 1
 2896 0116 3A68     		ldr	r2, [r7, #0]
 2897 0118 4FF01003 		mov	r3, #16
 2898 011c C1F20003 		movt	r3, 4096
 2899 0120 9A42     		cmp	r2, r3
 2900 0122 00F00381 		beq	.L86
 2901              		.loc 1 994 0 discriminator 2
 2902 0126 3A68     		ldr	r2, [r7, #0]
 2903 0128 4FF00803 		mov	r3, #8
 2904 012c C1F20003 		movt	r3, 4096
 2905 0130 9A42     		cmp	r2, r3
 2906 0132 00F0FB80 		beq	.L86
 2907              		.loc 1 994 0 discriminator 3
 2908 0136 3A68     		ldr	r2, [r7, #0]
 2909 0138 4FF00403 		mov	r3, #4
 2910 013c C1F28003 		movt	r3, 4224
 2911 0140 9A42     		cmp	r2, r3
 2912 0142 00F0F380 		beq	.L86
 2913              		.loc 1 994 0 discriminator 4
 2914 0146 3A68     		ldr	r2, [r7, #0]
 2915 0148 4FF00103 		mov	r3, #1
 2916 014c C1F28003 		movt	r3, 4224
 2917 0150 9A42     		cmp	r2, r3
 2918 0152 00F0EB80 		beq	.L86
 2919              		.loc 1 994 0 discriminator 5
 2920 0156 3A68     		ldr	r2, [r7, #0]
 2921 0158 4FF40063 		mov	r3, #2048
 2922 015c C1F20003 		movt	r3, 4096
 2923 0160 9A42     		cmp	r2, r3
 2924 0162 00F0E380 		beq	.L86
 2925              		.loc 1 994 0 discriminator 6
 2926 0166 3A68     		ldr	r2, [r7, #0]
 2927 0168 4FF48063 		mov	r3, #1024
 2928 016c C1F20003 		movt	r3, 4096
 2929 0170 9A42     		cmp	r2, r3
 2930 0172 00F0DB80 		beq	.L86
 2931              		.loc 1 994 0 discriminator 7
 2932 0176 3A68     		ldr	r2, [r7, #0]
 2933 0178 4FF40073 		mov	r3, #512
 2934 017c C1F20003 		movt	r3, 4096
 2935 0180 9A42     		cmp	r2, r3
 2936 0182 00F0D380 		beq	.L86
 2937              		.loc 1 994 0 discriminator 8
 2938 0186 3A68     		ldr	r2, [r7, #0]
 2939 0188 4FF48073 		mov	r3, #256
 2940 018c C1F20003 		movt	r3, 4096
 2941 0190 9A42     		cmp	r2, r3
 2942 0192 00F0CB80 		beq	.L86
 2943              		.loc 1 994 0 discriminator 9
 2944 0196 3A68     		ldr	r2, [r7, #0]
 2945 0198 4FF04003 		mov	r3, #64
 2946 019c C1F20003 		movt	r3, 4096
 2947 01a0 9A42     		cmp	r2, r3
 2948 01a2 00F0C380 		beq	.L86
 2949              		.loc 1 994 0 discriminator 10
 2950 01a6 3B68     		ldr	r3, [r7, #0]
 2951 01a8 B3F1815F 		cmp	r3, #270532608
 2952 01ac 00F0BE80 		beq	.L86
 2953              		.loc 1 994 0 discriminator 11
 2954 01b0 3A68     		ldr	r2, [r7, #0]
 2955 01b2 4FF00003 		mov	r3, #0
 2956 01b6 C1F21003 		movt	r3, 4112
 2957 01ba 9A42     		cmp	r2, r3
 2958 01bc 00F0B680 		beq	.L86
 2959              		.loc 1 994 0 discriminator 12
 2960 01c0 3A68     		ldr	r2, [r7, #0]
 2961 01c2 4FF00003 		mov	r3, #0
 2962 01c6 C1F20803 		movt	r3, 4104
 2963 01ca 9A42     		cmp	r2, r3
 2964 01cc 00F0AE80 		beq	.L86
 2965              		.loc 1 994 0 discriminator 13
 2966 01d0 3A68     		ldr	r2, [r7, #0]
 2967 01d2 4FF00003 		mov	r3, #0
 2968 01d6 C1F20403 		movt	r3, 4100
 2969 01da 9A42     		cmp	r2, r3
 2970 01dc 00F0A680 		beq	.L86
 2971              		.loc 1 994 0 discriminator 14
 2972 01e0 3A68     		ldr	r2, [r7, #0]
 2973 01e2 4FF00003 		mov	r3, #0
 2974 01e6 C1F20103 		movt	r3, 4097
 2975 01ea 9A42     		cmp	r2, r3
 2976 01ec 00F09E80 		beq	.L86
 2977              		.loc 1 994 0 discriminator 15
 2978 01f0 3B68     		ldr	r3, [r7, #0]
 2979 01f2 B3F1C05F 		cmp	r3, #402653184
 2980 01f6 00F09980 		beq	.L86
 2981              		.loc 1 994 0 discriminator 16
 2982 01fa 3B68     		ldr	r3, [r7, #0]
 2983 01fc B3F1A05F 		cmp	r3, #335544320
 2984 0200 00F09480 		beq	.L86
 2985              		.loc 1 994 0 discriminator 17
 2986 0204 3B68     		ldr	r3, [r7, #0]
 2987 0206 B3F1905F 		cmp	r3, #301989888
 2988 020a 00F08F80 		beq	.L86
 2989              		.loc 1 994 0 discriminator 18
 2990 020e 3B68     		ldr	r3, [r7, #0]
 2991 0210 B3F1885F 		cmp	r3, #285212672
 2992 0214 00F08A80 		beq	.L86
 2993              		.loc 1 994 0 discriminator 19
 2994 0218 3B68     		ldr	r3, [r7, #0]
 2995 021a B3F1825F 		cmp	r3, #272629760
 2996 021e 00F08580 		beq	.L86
 2997              		.loc 1 994 0 discriminator 20
 2998 0222 3A68     		ldr	r2, [r7, #0]
 2999 0224 4FF02003 		mov	r3, #32
 3000 0228 C2F20003 		movt	r3, 8192
 3001 022c 9A42     		cmp	r2, r3
 3002 022e 7DD0     		beq	.L86
 3003              		.loc 1 994 0 discriminator 21
 3004 0230 3A68     		ldr	r2, [r7, #0]
 3005 0232 4FF01003 		mov	r3, #16
 3006 0236 C2F20003 		movt	r3, 8192
 3007 023a 9A42     		cmp	r2, r3
 3008 023c 76D0     		beq	.L86
 3009              		.loc 1 994 0 discriminator 22
 3010 023e 3A68     		ldr	r2, [r7, #0]
 3011 0240 4FF00803 		mov	r3, #8
 3012 0244 C2F20003 		movt	r3, 8192
 3013 0248 9A42     		cmp	r2, r3
 3014 024a 6FD0     		beq	.L86
 3015              		.loc 1 994 0 discriminator 23
 3016 024c 3A68     		ldr	r2, [r7, #0]
 3017 024e 4FF00403 		mov	r3, #4
 3018 0252 C2F20003 		movt	r3, 8192
 3019 0256 9A42     		cmp	r2, r3
 3020 0258 68D0     		beq	.L86
 3021              		.loc 1 994 0 discriminator 24
 3022 025a 3A68     		ldr	r2, [r7, #0]
 3023 025c 4FF00103 		mov	r3, #1
 3024 0260 C2F20003 		movt	r3, 8192
 3025 0264 9A42     		cmp	r2, r3
 3026 0266 61D0     		beq	.L86
 3027              		.loc 1 994 0 discriminator 25
 3028 0268 3A68     		ldr	r2, [r7, #0]
 3029 026a 4FF40063 		mov	r3, #2048
 3030 026e C2F20003 		movt	r3, 8192
 3031 0272 9A42     		cmp	r2, r3
 3032 0274 5AD0     		beq	.L86
 3033              		.loc 1 994 0 discriminator 26
 3034 0276 3A68     		ldr	r2, [r7, #0]
 3035 0278 4FF48063 		mov	r3, #1024
 3036 027c C2F20003 		movt	r3, 8192
 3037 0280 9A42     		cmp	r2, r3
 3038 0282 53D0     		beq	.L86
 3039              		.loc 1 994 0 discriminator 27
 3040 0284 3A68     		ldr	r2, [r7, #0]
 3041 0286 4FF40073 		mov	r3, #512
 3042 028a C2F20003 		movt	r3, 8192
 3043 028e 9A42     		cmp	r2, r3
 3044 0290 4CD0     		beq	.L86
 3045              		.loc 1 994 0 discriminator 28
 3046 0292 3A68     		ldr	r2, [r7, #0]
 3047 0294 4FF48073 		mov	r3, #256
 3048 0298 C2F20003 		movt	r3, 8192
 3049 029c 9A42     		cmp	r2, r3
 3050 029e 45D0     		beq	.L86
 3051              		.loc 1 994 0 discriminator 29
 3052 02a0 3A68     		ldr	r2, [r7, #0]
 3053 02a2 4FF04003 		mov	r3, #64
 3054 02a6 C2F20003 		movt	r3, 8192
 3055 02aa 9A42     		cmp	r2, r3
 3056 02ac 3ED0     		beq	.L86
 3057              		.loc 1 994 0 discriminator 30
 3058 02ae 3A68     		ldr	r2, [r7, #0]
 3059 02b0 4FF00003 		mov	r3, #0
 3060 02b4 C2F22003 		movt	r3, 8224
 3061 02b8 9A42     		cmp	r2, r3
 3062 02ba 37D0     		beq	.L86
 3063              		.loc 1 994 0 discriminator 31
 3064 02bc 3A68     		ldr	r2, [r7, #0]
 3065 02be 4FF00003 		mov	r3, #0
 3066 02c2 C2F21003 		movt	r3, 8208
 3067 02c6 9A42     		cmp	r2, r3
 3068 02c8 30D0     		beq	.L86
 3069              		.loc 1 994 0 discriminator 32
 3070 02ca 3A68     		ldr	r2, [r7, #0]
 3071 02cc 4FF00003 		mov	r3, #0
 3072 02d0 C2F20803 		movt	r3, 8200
 3073 02d4 9A42     		cmp	r2, r3
 3074 02d6 29D0     		beq	.L86
 3075              		.loc 1 994 0 discriminator 33
 3076 02d8 3A68     		ldr	r2, [r7, #0]
 3077 02da 4FF00003 		mov	r3, #0
 3078 02de C2F20403 		movt	r3, 8196
 3079 02e2 9A42     		cmp	r2, r3
 3080 02e4 22D0     		beq	.L86
 3081              		.loc 1 994 0 discriminator 34
 3082 02e6 3A68     		ldr	r2, [r7, #0]
 3083 02e8 4FF00003 		mov	r3, #0
 3084 02ec C2F20103 		movt	r3, 8193
 3085 02f0 9A42     		cmp	r2, r3
 3086 02f2 1BD0     		beq	.L86
 3087              		.loc 1 994 0 discriminator 35
 3088 02f4 3B68     		ldr	r3, [r7, #0]
 3089 02f6 B3F1205F 		cmp	r3, #671088640
 3090 02fa 17D0     		beq	.L86
 3091              		.loc 1 994 0 discriminator 36
 3092 02fc 3B68     		ldr	r3, [r7, #0]
 3093 02fe B3F1105F 		cmp	r3, #603979776
 3094 0302 13D0     		beq	.L86
 3095              		.loc 1 994 0 discriminator 37
 3096 0304 3B68     		ldr	r3, [r7, #0]
 3097 0306 B3F1085F 		cmp	r3, #570425344
 3098 030a 0FD0     		beq	.L86
 3099              		.loc 1 994 0 discriminator 38
 3100 030c 3B68     		ldr	r3, [r7, #0]
 3101 030e B3F1045F 		cmp	r3, #553648128
 3102 0312 0BD0     		beq	.L86
 3103              		.loc 1 994 0 discriminator 39
 3104 0314 3B68     		ldr	r3, [r7, #0]
 3105 0316 B3F1015F 		cmp	r3, #541065216
 3106 031a 07D0     		beq	.L86
 3107              		.loc 1 994 0 discriminator 40
 3108 031c 40F20000 		movw	r0, #:lower16:.LC0
 3109 0320 C0F20000 		movt	r0, #:upper16:.LC0
 3110 0324 40F2E231 		movw	r1, #994
 3111 0328 FFF7FEFF 		bl	assert_failed
 3112              	.L86:
 995:App/STM32F4-Discovery/Libraries/STM32F4xx_StdPeriph_Driver/src/stm32f4xx_dma.c **** 
 996:App/STM32F4-Discovery/Libraries/STM32F4xx_StdPeriph_Driver/src/stm32f4xx_dma.c ****   /* Determine the DMA to which belongs the stream */
 997:App/STM32F4-Discovery/Libraries/STM32F4xx_StdPeriph_Driver/src/stm32f4xx_dma.c ****   if (DMAy_Streamx < DMA2_Stream0)
 3113              		.loc 1 997 0 is_stmt 1
 3114 032c 7A68     		ldr	r2, [r7, #4]
 3115 032e 46F20F43 		movw	r3, #25615
 3116 0332 C4F20203 		movt	r3, 16386
 3117 0336 9A42     		cmp	r2, r3
 3118 0338 05D8     		bhi	.L87
 998:App/STM32F4-Discovery/Libraries/STM32F4xx_StdPeriph_Driver/src/stm32f4xx_dma.c ****   {
 999:App/STM32F4-Discovery/Libraries/STM32F4xx_StdPeriph_Driver/src/stm32f4xx_dma.c ****     /* DMAy_Streamx belongs to DMA1 */
1000:App/STM32F4-Discovery/Libraries/STM32F4xx_StdPeriph_Driver/src/stm32f4xx_dma.c ****     DMAy = DMA1; 
 3119              		.loc 1 1000 0
 3120 033a 4FF4C043 		mov	r3, #24576
 3121 033e C4F20203 		movt	r3, 16386
 3122 0342 3B61     		str	r3, [r7, #16]
 3123 0344 04E0     		b	.L88
 3124              	.L87:
1001:App/STM32F4-Discovery/Libraries/STM32F4xx_StdPeriph_Driver/src/stm32f4xx_dma.c ****   } 
