   1              		.syntax unified
   2              		.cpu cortex-m4
   3              		.eabi_attribute 27, 3
   4              		.fpu fpv4-sp-d16
   5              		.eabi_attribute 20, 1
   6              		.eabi_attribute 21, 1
   7              		.eabi_attribute 23, 3
   8              		.eabi_attribute 24, 1
   9              		.eabi_attribute 25, 1
  10              		.eabi_attribute 26, 1
  11              		.eabi_attribute 30, 6
  12              		.eabi_attribute 34, 1
  13              		.eabi_attribute 18, 4
  14              		.thumb
  15              		.file	"stm32f4xx_tim.c"
  16              		.text
  17              	.Ltext0:
  18              		.cfi_sections	.debug_frame
  19              		.section	.rodata
  20              		.align	2
  21              	.LC0:
  22 0000 4170702F 		.ascii	"App/STM32F4-Discovery/Libraries/STM32F4xx_StdPeriph"
  22      53544D33 
  22      3246342D 
  22      44697363 
  22      6F766572 
  23 0033 5F447269 		.ascii	"_Driver/src/stm32f4xx_tim.c\000"
  23      7665722F 
  23      7372632F 
  23      73746D33 
  23      32663478 
  24 004f 00       		.section	.text.TIM_DeInit,"ax",%progbits
  25              		.align	2
  26              		.global	TIM_DeInit
  27              		.thumb
  28              		.thumb_func
  30              	TIM_DeInit:
  31              	.LFB110:
  32              		.file 1 "App/STM32F4-Discovery/Libraries/STM32F4xx_StdPeriph_Driver/src/stm32f4xx_tim.c"
   1:App/STM32F4-Discovery/Libraries/STM32F4xx_StdPeriph_Driver/src/stm32f4xx_tim.c **** /**
   2:App/STM32F4-Discovery/Libraries/STM32F4xx_StdPeriph_Driver/src/stm32f4xx_tim.c ****   ******************************************************************************
   3:App/STM32F4-Discovery/Libraries/STM32F4xx_StdPeriph_Driver/src/stm32f4xx_tim.c ****   * @file    stm32f4xx_tim.c
   4:App/STM32F4-Discovery/Libraries/STM32F4xx_StdPeriph_Driver/src/stm32f4xx_tim.c ****   * @author  MCD Application Team
   5:App/STM32F4-Discovery/Libraries/STM32F4xx_StdPeriph_Driver/src/stm32f4xx_tim.c ****   * @version V1.0.0
   6:App/STM32F4-Discovery/Libraries/STM32F4xx_StdPeriph_Driver/src/stm32f4xx_tim.c ****   * @date    30-September-2011
   7:App/STM32F4-Discovery/Libraries/STM32F4xx_StdPeriph_Driver/src/stm32f4xx_tim.c ****   * @brief   This file provides firmware functions to manage the following 
   8:App/STM32F4-Discovery/Libraries/STM32F4xx_StdPeriph_Driver/src/stm32f4xx_tim.c ****   *          functionalities of the TIM peripheral:
   9:App/STM32F4-Discovery/Libraries/STM32F4xx_StdPeriph_Driver/src/stm32f4xx_tim.c ****   *            - TimeBase management
  10:App/STM32F4-Discovery/Libraries/STM32F4xx_StdPeriph_Driver/src/stm32f4xx_tim.c ****   *            - Output Compare management
  11:App/STM32F4-Discovery/Libraries/STM32F4xx_StdPeriph_Driver/src/stm32f4xx_tim.c ****   *            - Input Capture management
  12:App/STM32F4-Discovery/Libraries/STM32F4xx_StdPeriph_Driver/src/stm32f4xx_tim.c ****   *            - Advanced-control timers (TIM1 and TIM8) specific features  
  13:App/STM32F4-Discovery/Libraries/STM32F4xx_StdPeriph_Driver/src/stm32f4xx_tim.c ****   *            - Interrupts, DMA and flags management
  14:App/STM32F4-Discovery/Libraries/STM32F4xx_StdPeriph_Driver/src/stm32f4xx_tim.c ****   *            - Clocks management
  15:App/STM32F4-Discovery/Libraries/STM32F4xx_StdPeriph_Driver/src/stm32f4xx_tim.c ****   *            - Synchronization management
  16:App/STM32F4-Discovery/Libraries/STM32F4xx_StdPeriph_Driver/src/stm32f4xx_tim.c ****   *            - Specific interface management
  17:App/STM32F4-Discovery/Libraries/STM32F4xx_StdPeriph_Driver/src/stm32f4xx_tim.c ****   *            - Specific remapping management      
  18:App/STM32F4-Discovery/Libraries/STM32F4xx_StdPeriph_Driver/src/stm32f4xx_tim.c ****   *              
  19:App/STM32F4-Discovery/Libraries/STM32F4xx_StdPeriph_Driver/src/stm32f4xx_tim.c ****   *  @verbatim
  20:App/STM32F4-Discovery/Libraries/STM32F4xx_StdPeriph_Driver/src/stm32f4xx_tim.c ****   *  
  21:App/STM32F4-Discovery/Libraries/STM32F4xx_StdPeriph_Driver/src/stm32f4xx_tim.c ****   *          ===================================================================
  22:App/STM32F4-Discovery/Libraries/STM32F4xx_StdPeriph_Driver/src/stm32f4xx_tim.c ****   *                                 How to use this driver
  23:App/STM32F4-Discovery/Libraries/STM32F4xx_StdPeriph_Driver/src/stm32f4xx_tim.c ****   *          ===================================================================
  24:App/STM32F4-Discovery/Libraries/STM32F4xx_StdPeriph_Driver/src/stm32f4xx_tim.c ****   *          This driver provides functions to configure and program the TIM 
  25:App/STM32F4-Discovery/Libraries/STM32F4xx_StdPeriph_Driver/src/stm32f4xx_tim.c ****   *          of all STM32F4xx devices.
  26:App/STM32F4-Discovery/Libraries/STM32F4xx_StdPeriph_Driver/src/stm32f4xx_tim.c ****   *          These functions are split in 9 groups: 
  27:App/STM32F4-Discovery/Libraries/STM32F4xx_StdPeriph_Driver/src/stm32f4xx_tim.c ****   *   
  28:App/STM32F4-Discovery/Libraries/STM32F4xx_StdPeriph_Driver/src/stm32f4xx_tim.c ****   *          1. TIM TimeBase management: this group includes all needed functions 
  29:App/STM32F4-Discovery/Libraries/STM32F4xx_StdPeriph_Driver/src/stm32f4xx_tim.c ****   *             to configure the TM Timebase unit:
  30:App/STM32F4-Discovery/Libraries/STM32F4xx_StdPeriph_Driver/src/stm32f4xx_tim.c ****   *                   - Set/Get Prescaler
  31:App/STM32F4-Discovery/Libraries/STM32F4xx_StdPeriph_Driver/src/stm32f4xx_tim.c ****   *                   - Set/Get Autoreload  
  32:App/STM32F4-Discovery/Libraries/STM32F4xx_StdPeriph_Driver/src/stm32f4xx_tim.c ****   *                   - Counter modes configuration
  33:App/STM32F4-Discovery/Libraries/STM32F4xx_StdPeriph_Driver/src/stm32f4xx_tim.c ****   *                   - Set Clock division  
  34:App/STM32F4-Discovery/Libraries/STM32F4xx_StdPeriph_Driver/src/stm32f4xx_tim.c ****   *                   - Select the One Pulse mode
  35:App/STM32F4-Discovery/Libraries/STM32F4xx_StdPeriph_Driver/src/stm32f4xx_tim.c ****   *                   - Update Request Configuration
  36:App/STM32F4-Discovery/Libraries/STM32F4xx_StdPeriph_Driver/src/stm32f4xx_tim.c ****   *                   - Update Disable Configuration
  37:App/STM32F4-Discovery/Libraries/STM32F4xx_StdPeriph_Driver/src/stm32f4xx_tim.c ****   *                   - Auto-Preload Configuration 
  38:App/STM32F4-Discovery/Libraries/STM32F4xx_StdPeriph_Driver/src/stm32f4xx_tim.c ****   *                   - Enable/Disable the counter     
  39:App/STM32F4-Discovery/Libraries/STM32F4xx_StdPeriph_Driver/src/stm32f4xx_tim.c ****   *                 
  40:App/STM32F4-Discovery/Libraries/STM32F4xx_StdPeriph_Driver/src/stm32f4xx_tim.c ****   *          2. TIM Output Compare management: this group includes all needed 
  41:App/STM32F4-Discovery/Libraries/STM32F4xx_StdPeriph_Driver/src/stm32f4xx_tim.c ****   *             functions to configure the Capture/Compare unit used in Output 
  42:App/STM32F4-Discovery/Libraries/STM32F4xx_StdPeriph_Driver/src/stm32f4xx_tim.c ****   *             compare mode: 
  43:App/STM32F4-Discovery/Libraries/STM32F4xx_StdPeriph_Driver/src/stm32f4xx_tim.c ****   *                   - Configure each channel, independently, in Output Compare mode
  44:App/STM32F4-Discovery/Libraries/STM32F4xx_StdPeriph_Driver/src/stm32f4xx_tim.c ****   *                   - Select the output compare modes
  45:App/STM32F4-Discovery/Libraries/STM32F4xx_StdPeriph_Driver/src/stm32f4xx_tim.c ****   *                   - Select the Polarities of each channel
  46:App/STM32F4-Discovery/Libraries/STM32F4xx_StdPeriph_Driver/src/stm32f4xx_tim.c ****   *                   - Set/Get the Capture/Compare register values
  47:App/STM32F4-Discovery/Libraries/STM32F4xx_StdPeriph_Driver/src/stm32f4xx_tim.c ****   *                   - Select the Output Compare Fast mode 
  48:App/STM32F4-Discovery/Libraries/STM32F4xx_StdPeriph_Driver/src/stm32f4xx_tim.c ****   *                   - Select the Output Compare Forced mode  
  49:App/STM32F4-Discovery/Libraries/STM32F4xx_StdPeriph_Driver/src/stm32f4xx_tim.c ****   *                   - Output Compare-Preload Configuration 
  50:App/STM32F4-Discovery/Libraries/STM32F4xx_StdPeriph_Driver/src/stm32f4xx_tim.c ****   *                   - Clear Output Compare Reference
  51:App/STM32F4-Discovery/Libraries/STM32F4xx_StdPeriph_Driver/src/stm32f4xx_tim.c ****   *                   - Select the OCREF Clear signal
  52:App/STM32F4-Discovery/Libraries/STM32F4xx_StdPeriph_Driver/src/stm32f4xx_tim.c ****   *                   - Enable/Disable the Capture/Compare Channels    
  53:App/STM32F4-Discovery/Libraries/STM32F4xx_StdPeriph_Driver/src/stm32f4xx_tim.c ****   *                   
  54:App/STM32F4-Discovery/Libraries/STM32F4xx_StdPeriph_Driver/src/stm32f4xx_tim.c ****   *          3. TIM Input Capture management: this group includes all needed 
  55:App/STM32F4-Discovery/Libraries/STM32F4xx_StdPeriph_Driver/src/stm32f4xx_tim.c ****   *             functions to configure the Capture/Compare unit used in 
  56:App/STM32F4-Discovery/Libraries/STM32F4xx_StdPeriph_Driver/src/stm32f4xx_tim.c ****   *             Input Capture mode:
  57:App/STM32F4-Discovery/Libraries/STM32F4xx_StdPeriph_Driver/src/stm32f4xx_tim.c ****   *                   - Configure each channel in input capture mode
  58:App/STM32F4-Discovery/Libraries/STM32F4xx_StdPeriph_Driver/src/stm32f4xx_tim.c ****   *                   - Configure Channel1/2 in PWM Input mode
  59:App/STM32F4-Discovery/Libraries/STM32F4xx_StdPeriph_Driver/src/stm32f4xx_tim.c ****   *                   - Set the Input Capture Prescaler
  60:App/STM32F4-Discovery/Libraries/STM32F4xx_StdPeriph_Driver/src/stm32f4xx_tim.c ****   *                   - Get the Capture/Compare values      
  61:App/STM32F4-Discovery/Libraries/STM32F4xx_StdPeriph_Driver/src/stm32f4xx_tim.c ****   *                   
  62:App/STM32F4-Discovery/Libraries/STM32F4xx_StdPeriph_Driver/src/stm32f4xx_tim.c ****   *          4. Advanced-control timers (TIM1 and TIM8) specific features
  63:App/STM32F4-Discovery/Libraries/STM32F4xx_StdPeriph_Driver/src/stm32f4xx_tim.c ****   *                   - Configures the Break input, dead time, Lock level, the OSSI,
  64:App/STM32F4-Discovery/Libraries/STM32F4xx_StdPeriph_Driver/src/stm32f4xx_tim.c ****   *                      the OSSR State and the AOE(automatic output enable)
  65:App/STM32F4-Discovery/Libraries/STM32F4xx_StdPeriph_Driver/src/stm32f4xx_tim.c ****   *                   - Enable/Disable the TIM peripheral Main Outputs
  66:App/STM32F4-Discovery/Libraries/STM32F4xx_StdPeriph_Driver/src/stm32f4xx_tim.c ****   *                   - Select the Commutation event
  67:App/STM32F4-Discovery/Libraries/STM32F4xx_StdPeriph_Driver/src/stm32f4xx_tim.c ****   *                   - Set/Reset the Capture Compare Preload Control bit
  68:App/STM32F4-Discovery/Libraries/STM32F4xx_StdPeriph_Driver/src/stm32f4xx_tim.c ****   *                              
  69:App/STM32F4-Discovery/Libraries/STM32F4xx_StdPeriph_Driver/src/stm32f4xx_tim.c ****   *          5. TIM interrupts, DMA and flags management
  70:App/STM32F4-Discovery/Libraries/STM32F4xx_StdPeriph_Driver/src/stm32f4xx_tim.c ****   *                   - Enable/Disable interrupt sources
  71:App/STM32F4-Discovery/Libraries/STM32F4xx_StdPeriph_Driver/src/stm32f4xx_tim.c ****   *                   - Get flags status
  72:App/STM32F4-Discovery/Libraries/STM32F4xx_StdPeriph_Driver/src/stm32f4xx_tim.c ****   *                   - Clear flags/ Pending bits
  73:App/STM32F4-Discovery/Libraries/STM32F4xx_StdPeriph_Driver/src/stm32f4xx_tim.c ****   *                   - Enable/Disable DMA requests 
  74:App/STM32F4-Discovery/Libraries/STM32F4xx_StdPeriph_Driver/src/stm32f4xx_tim.c ****   *                   - Configure DMA burst mode
  75:App/STM32F4-Discovery/Libraries/STM32F4xx_StdPeriph_Driver/src/stm32f4xx_tim.c ****   *                   - Select CaptureCompare DMA request  
  76:App/STM32F4-Discovery/Libraries/STM32F4xx_StdPeriph_Driver/src/stm32f4xx_tim.c ****   *              
  77:App/STM32F4-Discovery/Libraries/STM32F4xx_StdPeriph_Driver/src/stm32f4xx_tim.c ****   *          6. TIM clocks management: this group includes all needed functions 
  78:App/STM32F4-Discovery/Libraries/STM32F4xx_StdPeriph_Driver/src/stm32f4xx_tim.c ****   *             to configure the clock controller unit:
  79:App/STM32F4-Discovery/Libraries/STM32F4xx_StdPeriph_Driver/src/stm32f4xx_tim.c ****   *                   - Select internal/External clock
  80:App/STM32F4-Discovery/Libraries/STM32F4xx_StdPeriph_Driver/src/stm32f4xx_tim.c ****   *                   - Select the external clock mode: ETR(Mode1/Mode2), TIx or ITRx
  81:App/STM32F4-Discovery/Libraries/STM32F4xx_StdPeriph_Driver/src/stm32f4xx_tim.c ****   *         
  82:App/STM32F4-Discovery/Libraries/STM32F4xx_StdPeriph_Driver/src/stm32f4xx_tim.c ****   *          7. TIM synchronization management: this group includes all needed 
  83:App/STM32F4-Discovery/Libraries/STM32F4xx_StdPeriph_Driver/src/stm32f4xx_tim.c ****   *             functions to configure the Synchronization unit:
  84:App/STM32F4-Discovery/Libraries/STM32F4xx_StdPeriph_Driver/src/stm32f4xx_tim.c ****   *                   - Select Input Trigger  
  85:App/STM32F4-Discovery/Libraries/STM32F4xx_StdPeriph_Driver/src/stm32f4xx_tim.c ****   *                   - Select Output Trigger  
  86:App/STM32F4-Discovery/Libraries/STM32F4xx_StdPeriph_Driver/src/stm32f4xx_tim.c ****   *                   - Select Master Slave Mode 
  87:App/STM32F4-Discovery/Libraries/STM32F4xx_StdPeriph_Driver/src/stm32f4xx_tim.c ****   *                   - ETR Configuration when used as external trigger   
  88:App/STM32F4-Discovery/Libraries/STM32F4xx_StdPeriph_Driver/src/stm32f4xx_tim.c ****   *     
  89:App/STM32F4-Discovery/Libraries/STM32F4xx_StdPeriph_Driver/src/stm32f4xx_tim.c ****   *          8. TIM specific interface management, this group includes all 
  90:App/STM32F4-Discovery/Libraries/STM32F4xx_StdPeriph_Driver/src/stm32f4xx_tim.c ****   *             needed functions to use the specific TIM interface:
  91:App/STM32F4-Discovery/Libraries/STM32F4xx_StdPeriph_Driver/src/stm32f4xx_tim.c ****   *                   - Encoder Interface Configuration
  92:App/STM32F4-Discovery/Libraries/STM32F4xx_StdPeriph_Driver/src/stm32f4xx_tim.c ****   *                   - Select Hall Sensor   
  93:App/STM32F4-Discovery/Libraries/STM32F4xx_StdPeriph_Driver/src/stm32f4xx_tim.c ****   *         
  94:App/STM32F4-Discovery/Libraries/STM32F4xx_StdPeriph_Driver/src/stm32f4xx_tim.c ****   *          9. TIM specific remapping management includes the Remapping 
  95:App/STM32F4-Discovery/Libraries/STM32F4xx_StdPeriph_Driver/src/stm32f4xx_tim.c ****   *             configuration of specific timers               
  96:App/STM32F4-Discovery/Libraries/STM32F4xx_StdPeriph_Driver/src/stm32f4xx_tim.c ****   *   
  97:App/STM32F4-Discovery/Libraries/STM32F4xx_StdPeriph_Driver/src/stm32f4xx_tim.c ****   *  @endverbatim
  98:App/STM32F4-Discovery/Libraries/STM32F4xx_StdPeriph_Driver/src/stm32f4xx_tim.c ****   *    
  99:App/STM32F4-Discovery/Libraries/STM32F4xx_StdPeriph_Driver/src/stm32f4xx_tim.c ****   ******************************************************************************
 100:App/STM32F4-Discovery/Libraries/STM32F4xx_StdPeriph_Driver/src/stm32f4xx_tim.c ****   * @attention
 101:App/STM32F4-Discovery/Libraries/STM32F4xx_StdPeriph_Driver/src/stm32f4xx_tim.c ****   *
 102:App/STM32F4-Discovery/Libraries/STM32F4xx_StdPeriph_Driver/src/stm32f4xx_tim.c ****   * THE PRESENT FIRMWARE WHICH IS FOR GUIDANCE ONLY AIMS AT PROVIDING CUSTOMERS
 103:App/STM32F4-Discovery/Libraries/STM32F4xx_StdPeriph_Driver/src/stm32f4xx_tim.c ****   * WITH CODING INFORMATION REGARDING THEIR PRODUCTS IN ORDER FOR THEM TO SAVE
 104:App/STM32F4-Discovery/Libraries/STM32F4xx_StdPeriph_Driver/src/stm32f4xx_tim.c ****   * TIME. AS A RESULT, STMICROELECTRONICS SHALL NOT BE HELD LIABLE FOR ANY
 105:App/STM32F4-Discovery/Libraries/STM32F4xx_StdPeriph_Driver/src/stm32f4xx_tim.c ****   * DIRECT, INDIRECT OR CONSEQUENTIAL DAMAGES WITH RESPECT TO ANY CLAIMS ARISING
 106:App/STM32F4-Discovery/Libraries/STM32F4xx_StdPeriph_Driver/src/stm32f4xx_tim.c ****   * FROM THE CONTENT OF SUCH FIRMWARE AND/OR THE USE MADE BY CUSTOMERS OF THE
 107:App/STM32F4-Discovery/Libraries/STM32F4xx_StdPeriph_Driver/src/stm32f4xx_tim.c ****   * CODING INFORMATION CONTAINED HEREIN IN CONNECTION WITH THEIR PRODUCTS.
 108:App/STM32F4-Discovery/Libraries/STM32F4xx_StdPeriph_Driver/src/stm32f4xx_tim.c ****   *
 109:App/STM32F4-Discovery/Libraries/STM32F4xx_StdPeriph_Driver/src/stm32f4xx_tim.c ****   * <h2><center>&copy; COPYRIGHT 2011 STMicroelectronics</center></h2>
 110:App/STM32F4-Discovery/Libraries/STM32F4xx_StdPeriph_Driver/src/stm32f4xx_tim.c ****   ******************************************************************************
 111:App/STM32F4-Discovery/Libraries/STM32F4xx_StdPeriph_Driver/src/stm32f4xx_tim.c ****   */
 112:App/STM32F4-Discovery/Libraries/STM32F4xx_StdPeriph_Driver/src/stm32f4xx_tim.c **** 
 113:App/STM32F4-Discovery/Libraries/STM32F4xx_StdPeriph_Driver/src/stm32f4xx_tim.c **** /* Includes ------------------------------------------------------------------*/
 114:App/STM32F4-Discovery/Libraries/STM32F4xx_StdPeriph_Driver/src/stm32f4xx_tim.c **** #include "stm32f4xx_tim.h"
 115:App/STM32F4-Discovery/Libraries/STM32F4xx_StdPeriph_Driver/src/stm32f4xx_tim.c **** #include "stm32f4xx_rcc.h"
 116:App/STM32F4-Discovery/Libraries/STM32F4xx_StdPeriph_Driver/src/stm32f4xx_tim.c **** 
 117:App/STM32F4-Discovery/Libraries/STM32F4xx_StdPeriph_Driver/src/stm32f4xx_tim.c **** /** @addtogroup STM32F4xx_StdPeriph_Driver
 118:App/STM32F4-Discovery/Libraries/STM32F4xx_StdPeriph_Driver/src/stm32f4xx_tim.c ****   * @{
 119:App/STM32F4-Discovery/Libraries/STM32F4xx_StdPeriph_Driver/src/stm32f4xx_tim.c ****   */
 120:App/STM32F4-Discovery/Libraries/STM32F4xx_StdPeriph_Driver/src/stm32f4xx_tim.c **** 
 121:App/STM32F4-Discovery/Libraries/STM32F4xx_StdPeriph_Driver/src/stm32f4xx_tim.c **** /** @defgroup TIM 
 122:App/STM32F4-Discovery/Libraries/STM32F4xx_StdPeriph_Driver/src/stm32f4xx_tim.c ****   * @brief TIM driver modules
 123:App/STM32F4-Discovery/Libraries/STM32F4xx_StdPeriph_Driver/src/stm32f4xx_tim.c ****   * @{
 124:App/STM32F4-Discovery/Libraries/STM32F4xx_StdPeriph_Driver/src/stm32f4xx_tim.c ****   */
 125:App/STM32F4-Discovery/Libraries/STM32F4xx_StdPeriph_Driver/src/stm32f4xx_tim.c **** 
 126:App/STM32F4-Discovery/Libraries/STM32F4xx_StdPeriph_Driver/src/stm32f4xx_tim.c **** /* Private typedef -----------------------------------------------------------*/
 127:App/STM32F4-Discovery/Libraries/STM32F4xx_StdPeriph_Driver/src/stm32f4xx_tim.c **** /* Private define ------------------------------------------------------------*/
 128:App/STM32F4-Discovery/Libraries/STM32F4xx_StdPeriph_Driver/src/stm32f4xx_tim.c **** 
 129:App/STM32F4-Discovery/Libraries/STM32F4xx_StdPeriph_Driver/src/stm32f4xx_tim.c **** /* ---------------------- TIM registers bit mask ------------------------ */
 130:App/STM32F4-Discovery/Libraries/STM32F4xx_StdPeriph_Driver/src/stm32f4xx_tim.c **** #define SMCR_ETR_MASK      ((uint16_t)0x00FF) 
 131:App/STM32F4-Discovery/Libraries/STM32F4xx_StdPeriph_Driver/src/stm32f4xx_tim.c **** #define CCMR_OFFSET        ((uint16_t)0x0018)
 132:App/STM32F4-Discovery/Libraries/STM32F4xx_StdPeriph_Driver/src/stm32f4xx_tim.c **** #define CCER_CCE_SET       ((uint16_t)0x0001)  
 133:App/STM32F4-Discovery/Libraries/STM32F4xx_StdPeriph_Driver/src/stm32f4xx_tim.c **** #define	CCER_CCNE_SET      ((uint16_t)0x0004) 
 134:App/STM32F4-Discovery/Libraries/STM32F4xx_StdPeriph_Driver/src/stm32f4xx_tim.c **** #define CCMR_OC13M_MASK    ((uint16_t)0xFF8F)
 135:App/STM32F4-Discovery/Libraries/STM32F4xx_StdPeriph_Driver/src/stm32f4xx_tim.c **** #define CCMR_OC24M_MASK    ((uint16_t)0x8FFF) 
 136:App/STM32F4-Discovery/Libraries/STM32F4xx_StdPeriph_Driver/src/stm32f4xx_tim.c **** 
 137:App/STM32F4-Discovery/Libraries/STM32F4xx_StdPeriph_Driver/src/stm32f4xx_tim.c **** /* Private macro -------------------------------------------------------------*/
 138:App/STM32F4-Discovery/Libraries/STM32F4xx_StdPeriph_Driver/src/stm32f4xx_tim.c **** /* Private variables ---------------------------------------------------------*/
 139:App/STM32F4-Discovery/Libraries/STM32F4xx_StdPeriph_Driver/src/stm32f4xx_tim.c **** /* Private function prototypes -----------------------------------------------*/
 140:App/STM32F4-Discovery/Libraries/STM32F4xx_StdPeriph_Driver/src/stm32f4xx_tim.c **** static void TI1_Config(TIM_TypeDef* TIMx, uint16_t TIM_ICPolarity, uint16_t TIM_ICSelection,
 141:App/STM32F4-Discovery/Libraries/STM32F4xx_StdPeriph_Driver/src/stm32f4xx_tim.c ****                        uint16_t TIM_ICFilter);
 142:App/STM32F4-Discovery/Libraries/STM32F4xx_StdPeriph_Driver/src/stm32f4xx_tim.c **** static void TI2_Config(TIM_TypeDef* TIMx, uint16_t TIM_ICPolarity, uint16_t TIM_ICSelection,
 143:App/STM32F4-Discovery/Libraries/STM32F4xx_StdPeriph_Driver/src/stm32f4xx_tim.c ****                        uint16_t TIM_ICFilter);
 144:App/STM32F4-Discovery/Libraries/STM32F4xx_StdPeriph_Driver/src/stm32f4xx_tim.c **** static void TI3_Config(TIM_TypeDef* TIMx, uint16_t TIM_ICPolarity, uint16_t TIM_ICSelection,
 145:App/STM32F4-Discovery/Libraries/STM32F4xx_StdPeriph_Driver/src/stm32f4xx_tim.c ****                        uint16_t TIM_ICFilter);
 146:App/STM32F4-Discovery/Libraries/STM32F4xx_StdPeriph_Driver/src/stm32f4xx_tim.c **** static void TI4_Config(TIM_TypeDef* TIMx, uint16_t TIM_ICPolarity, uint16_t TIM_ICSelection,
 147:App/STM32F4-Discovery/Libraries/STM32F4xx_StdPeriph_Driver/src/stm32f4xx_tim.c ****                        uint16_t TIM_ICFilter);
 148:App/STM32F4-Discovery/Libraries/STM32F4xx_StdPeriph_Driver/src/stm32f4xx_tim.c **** 
 149:App/STM32F4-Discovery/Libraries/STM32F4xx_StdPeriph_Driver/src/stm32f4xx_tim.c **** /* Private functions ---------------------------------------------------------*/
 150:App/STM32F4-Discovery/Libraries/STM32F4xx_StdPeriph_Driver/src/stm32f4xx_tim.c **** 
 151:App/STM32F4-Discovery/Libraries/STM32F4xx_StdPeriph_Driver/src/stm32f4xx_tim.c **** /** @defgroup TIM_Private_Functions
 152:App/STM32F4-Discovery/Libraries/STM32F4xx_StdPeriph_Driver/src/stm32f4xx_tim.c ****   * @{
 153:App/STM32F4-Discovery/Libraries/STM32F4xx_StdPeriph_Driver/src/stm32f4xx_tim.c ****   */
 154:App/STM32F4-Discovery/Libraries/STM32F4xx_StdPeriph_Driver/src/stm32f4xx_tim.c **** 
 155:App/STM32F4-Discovery/Libraries/STM32F4xx_StdPeriph_Driver/src/stm32f4xx_tim.c **** /** @defgroup TIM_Group1 TimeBase management functions
 156:App/STM32F4-Discovery/Libraries/STM32F4xx_StdPeriph_Driver/src/stm32f4xx_tim.c ****  *  @brief   TimeBase management functions 
 157:App/STM32F4-Discovery/Libraries/STM32F4xx_StdPeriph_Driver/src/stm32f4xx_tim.c ****  *
 158:App/STM32F4-Discovery/Libraries/STM32F4xx_StdPeriph_Driver/src/stm32f4xx_tim.c **** @verbatim   
 159:App/STM32F4-Discovery/Libraries/STM32F4xx_StdPeriph_Driver/src/stm32f4xx_tim.c ****  ===============================================================================
 160:App/STM32F4-Discovery/Libraries/STM32F4xx_StdPeriph_Driver/src/stm32f4xx_tim.c ****                        TimeBase management functions
 161:App/STM32F4-Discovery/Libraries/STM32F4xx_StdPeriph_Driver/src/stm32f4xx_tim.c ****  ===============================================================================  
 162:App/STM32F4-Discovery/Libraries/STM32F4xx_StdPeriph_Driver/src/stm32f4xx_tim.c ****   
 163:App/STM32F4-Discovery/Libraries/STM32F4xx_StdPeriph_Driver/src/stm32f4xx_tim.c ****        ===================================================================      
 164:App/STM32F4-Discovery/Libraries/STM32F4xx_StdPeriph_Driver/src/stm32f4xx_tim.c ****               TIM Driver: how to use it in Timing(Time base) Mode
 165:App/STM32F4-Discovery/Libraries/STM32F4xx_StdPeriph_Driver/src/stm32f4xx_tim.c ****        =================================================================== 
 166:App/STM32F4-Discovery/Libraries/STM32F4xx_StdPeriph_Driver/src/stm32f4xx_tim.c ****        To use the Timer in Timing(Time base) mode, the following steps are mandatory:
 167:App/STM32F4-Discovery/Libraries/STM32F4xx_StdPeriph_Driver/src/stm32f4xx_tim.c ****        
 168:App/STM32F4-Discovery/Libraries/STM32F4xx_StdPeriph_Driver/src/stm32f4xx_tim.c ****        1. Enable TIM clock using RCC_APBxPeriphClockCmd(RCC_APBxPeriph_TIMx, ENABLE) function
 169:App/STM32F4-Discovery/Libraries/STM32F4xx_StdPeriph_Driver/src/stm32f4xx_tim.c ****                     
 170:App/STM32F4-Discovery/Libraries/STM32F4xx_StdPeriph_Driver/src/stm32f4xx_tim.c ****        2. Fill the TIM_TimeBaseInitStruct with the desired parameters.
 171:App/STM32F4-Discovery/Libraries/STM32F4xx_StdPeriph_Driver/src/stm32f4xx_tim.c ****        
 172:App/STM32F4-Discovery/Libraries/STM32F4xx_StdPeriph_Driver/src/stm32f4xx_tim.c ****        3. Call TIM_TimeBaseInit(TIMx, &TIM_TimeBaseInitStruct) to configure the Time Base unit
 173:App/STM32F4-Discovery/Libraries/STM32F4xx_StdPeriph_Driver/src/stm32f4xx_tim.c ****           with the corresponding configuration
 174:App/STM32F4-Discovery/Libraries/STM32F4xx_StdPeriph_Driver/src/stm32f4xx_tim.c ****           
 175:App/STM32F4-Discovery/Libraries/STM32F4xx_StdPeriph_Driver/src/stm32f4xx_tim.c ****        4. Enable the NVIC if you need to generate the update interrupt. 
 176:App/STM32F4-Discovery/Libraries/STM32F4xx_StdPeriph_Driver/src/stm32f4xx_tim.c ****           
 177:App/STM32F4-Discovery/Libraries/STM32F4xx_StdPeriph_Driver/src/stm32f4xx_tim.c ****        5. Enable the corresponding interrupt using the function TIM_ITConfig(TIMx, TIM_IT_Update) 
 178:App/STM32F4-Discovery/Libraries/STM32F4xx_StdPeriph_Driver/src/stm32f4xx_tim.c ****        
 179:App/STM32F4-Discovery/Libraries/STM32F4xx_StdPeriph_Driver/src/stm32f4xx_tim.c ****        6. Call the TIM_Cmd(ENABLE) function to enable the TIM counter.
 180:App/STM32F4-Discovery/Libraries/STM32F4xx_StdPeriph_Driver/src/stm32f4xx_tim.c ****              
 181:App/STM32F4-Discovery/Libraries/STM32F4xx_StdPeriph_Driver/src/stm32f4xx_tim.c ****        Note1: All other functions can be used separately to modify, if needed,
 182:App/STM32F4-Discovery/Libraries/STM32F4xx_StdPeriph_Driver/src/stm32f4xx_tim.c ****           a specific feature of the Timer. 
 183:App/STM32F4-Discovery/Libraries/STM32F4xx_StdPeriph_Driver/src/stm32f4xx_tim.c **** 
 184:App/STM32F4-Discovery/Libraries/STM32F4xx_StdPeriph_Driver/src/stm32f4xx_tim.c **** @endverbatim
 185:App/STM32F4-Discovery/Libraries/STM32F4xx_StdPeriph_Driver/src/stm32f4xx_tim.c ****   * @{
 186:App/STM32F4-Discovery/Libraries/STM32F4xx_StdPeriph_Driver/src/stm32f4xx_tim.c ****   */
 187:App/STM32F4-Discovery/Libraries/STM32F4xx_StdPeriph_Driver/src/stm32f4xx_tim.c ****   
 188:App/STM32F4-Discovery/Libraries/STM32F4xx_StdPeriph_Driver/src/stm32f4xx_tim.c **** /**
 189:App/STM32F4-Discovery/Libraries/STM32F4xx_StdPeriph_Driver/src/stm32f4xx_tim.c ****   * @brief  Deinitializes the TIMx peripheral registers to their default reset values.
 190:App/STM32F4-Discovery/Libraries/STM32F4xx_StdPeriph_Driver/src/stm32f4xx_tim.c ****   * @param  TIMx: where x can be 1 to 14 to select the TIM peripheral.
 191:App/STM32F4-Discovery/Libraries/STM32F4xx_StdPeriph_Driver/src/stm32f4xx_tim.c ****   * @retval None
 192:App/STM32F4-Discovery/Libraries/STM32F4xx_StdPeriph_Driver/src/stm32f4xx_tim.c **** 
 193:App/STM32F4-Discovery/Libraries/STM32F4xx_StdPeriph_Driver/src/stm32f4xx_tim.c ****   */
 194:App/STM32F4-Discovery/Libraries/STM32F4xx_StdPeriph_Driver/src/stm32f4xx_tim.c **** void TIM_DeInit(TIM_TypeDef* TIMx)
 195:App/STM32F4-Discovery/Libraries/STM32F4xx_StdPeriph_Driver/src/stm32f4xx_tim.c **** {
  33              		.loc 1 195 0
  34              		.cfi_startproc
  35              		@ args = 0, pretend = 0, frame = 8
  36              		@ frame_needed = 1, uses_anonymous_args = 0
  37 0000 80B5     		push	{r7, lr}
  38              	.LCFI0:
  39              		.cfi_def_cfa_offset 8
  40              		.cfi_offset 7, -8
  41              		.cfi_offset 14, -4
  42 0002 82B0     		sub	sp, sp, #8
  43              	.LCFI1:
  44              		.cfi_def_cfa_offset 16
  45 0004 00AF     		add	r7, sp, #0
  46              	.LCFI2:
  47              		.cfi_def_cfa_register 7
  48 0006 7860     		str	r0, [r7, #4]
 196:App/STM32F4-Discovery/Libraries/STM32F4xx_StdPeriph_Driver/src/stm32f4xx_tim.c ****   /* Check the parameters */
 197:App/STM32F4-Discovery/Libraries/STM32F4xx_StdPeriph_Driver/src/stm32f4xx_tim.c ****   assert_param(IS_TIM_ALL_PERIPH(TIMx)); 
  49              		.loc 1 197 0
  50 0008 7A68     		ldr	r2, [r7, #4]
  51 000a 4FF00003 		mov	r3, #0
  52 000e C4F20103 		movt	r3, 16385
  53 0012 9A42     		cmp	r2, r3
  54 0014 5FD0     		beq	.L2
  55              		.loc 1 197 0 is_stmt 0 discriminator 1
  56 0016 7B68     		ldr	r3, [r7, #4]
  57 0018 B3F1804F 		cmp	r3, #1073741824
  58 001c 5BD0     		beq	.L2
  59              		.loc 1 197 0 discriminator 2
  60 001e 7A68     		ldr	r2, [r7, #4]
  61 0020 4FF48063 		mov	r3, #1024
  62 0024 C4F20003 		movt	r3, 16384
  63 0028 9A42     		cmp	r2, r3
  64 002a 54D0     		beq	.L2
  65              		.loc 1 197 0 discriminator 3
  66 002c 7A68     		ldr	r2, [r7, #4]
  67 002e 4FF40063 		mov	r3, #2048
  68 0032 C4F20003 		movt	r3, 16384
  69 0036 9A42     		cmp	r2, r3
  70 0038 4DD0     		beq	.L2
  71              		.loc 1 197 0 discriminator 4
  72 003a 7A68     		ldr	r2, [r7, #4]
  73 003c 4FF44063 		mov	r3, #3072
  74 0040 C4F20003 		movt	r3, 16384
  75 0044 9A42     		cmp	r2, r3
  76 0046 46D0     		beq	.L2
  77              		.loc 1 197 0 discriminator 5
  78 0048 7A68     		ldr	r2, [r7, #4]
  79 004a 4FF48053 		mov	r3, #4096
  80 004e C4F20003 		movt	r3, 16384
  81 0052 9A42     		cmp	r2, r3
  82 0054 3FD0     		beq	.L2
  83              		.loc 1 197 0 discriminator 6
  84 0056 7A68     		ldr	r2, [r7, #4]
  85 0058 4FF4A053 		mov	r3, #5120
  86 005c C4F20003 		movt	r3, 16384
  87 0060 9A42     		cmp	r2, r3
  88 0062 38D0     		beq	.L2
  89              		.loc 1 197 0 discriminator 7
  90 0064 7A68     		ldr	r2, [r7, #4]
  91 0066 4FF48063 		mov	r3, #1024
  92 006a C4F20103 		movt	r3, 16385
  93 006e 9A42     		cmp	r2, r3
  94 0070 31D0     		beq	.L2
  95              		.loc 1 197 0 discriminator 8
  96 0072 7A68     		ldr	r2, [r7, #4]
  97 0074 4FF48043 		mov	r3, #16384
  98 0078 C4F20103 		movt	r3, 16385
  99 007c 9A42     		cmp	r2, r3
 100 007e 2AD0     		beq	.L2
 101              		.loc 1 197 0 discriminator 9
 102 0080 7A68     		ldr	r2, [r7, #4]
 103 0082 4FF48843 		mov	r3, #17408
 104 0086 C4F20103 		movt	r3, 16385
 105 008a 9A42     		cmp	r2, r3
 106 008c 23D0     		beq	.L2
 107              		.loc 1 197 0 discriminator 10
 108 008e 7A68     		ldr	r2, [r7, #4]
 109 0090 4FF49043 		mov	r3, #18432
 110 0094 C4F20103 		movt	r3, 16385
 111 0098 9A42     		cmp	r2, r3
 112 009a 1CD0     		beq	.L2
 113              		.loc 1 197 0 discriminator 11
 114 009c 7A68     		ldr	r2, [r7, #4]
 115 009e 4FF4C053 		mov	r3, #6144
 116 00a2 C4F20003 		movt	r3, 16384
 117 00a6 9A42     		cmp	r2, r3
 118 00a8 15D0     		beq	.L2
 119              		.loc 1 197 0 discriminator 12
 120 00aa 7A68     		ldr	r2, [r7, #4]
 121 00ac 4FF4E053 		mov	r3, #7168
 122 00b0 C4F20003 		movt	r3, 16384
 123 00b4 9A42     		cmp	r2, r3
 124 00b6 0ED0     		beq	.L2
 125              		.loc 1 197 0 discriminator 13
 126 00b8 7A68     		ldr	r2, [r7, #4]
 127 00ba 4FF40053 		mov	r3, #8192
 128 00be C4F20003 		movt	r3, 16384
 129 00c2 9A42     		cmp	r2, r3
 130 00c4 07D0     		beq	.L2
 131              		.loc 1 197 0 discriminator 14
 132 00c6 40F20000 		movw	r0, #:lower16:.LC0
 133 00ca C0F20000 		movt	r0, #:upper16:.LC0
 134 00ce 4FF0C501 		mov	r1, #197
 135 00d2 FFF7FEFF 		bl	assert_failed
 136              	.L2:
 198:App/STM32F4-Discovery/Libraries/STM32F4xx_StdPeriph_Driver/src/stm32f4xx_tim.c ****  
 199:App/STM32F4-Discovery/Libraries/STM32F4xx_StdPeriph_Driver/src/stm32f4xx_tim.c ****   if (TIMx == TIM1)
 137              		.loc 1 199 0 is_stmt 1
 138 00d6 7A68     		ldr	r2, [r7, #4]
 139 00d8 4FF00003 		mov	r3, #0
 140 00dc C4F20103 		movt	r3, 16385
 141 00e0 9A42     		cmp	r2, r3
 142 00e2 0CD1     		bne	.L3
 200:App/STM32F4-Discovery/Libraries/STM32F4xx_StdPeriph_Driver/src/stm32f4xx_tim.c ****   {
 201:App/STM32F4-Discovery/Libraries/STM32F4xx_StdPeriph_Driver/src/stm32f4xx_tim.c ****     RCC_APB2PeriphResetCmd(RCC_APB2Periph_TIM1, ENABLE);
 143              		.loc 1 201 0
 144 00e4 4FF00100 		mov	r0, #1
 145 00e8 4FF00101 		mov	r1, #1
 146 00ec FFF7FEFF 		bl	RCC_APB2PeriphResetCmd
 202:App/STM32F4-Discovery/Libraries/STM32F4xx_StdPeriph_Driver/src/stm32f4xx_tim.c ****     RCC_APB2PeriphResetCmd(RCC_APB2Periph_TIM1, DISABLE);  
 147              		.loc 1 202 0
 148 00f0 4FF00100 		mov	r0, #1
 149 00f4 4FF00001 		mov	r1, #0
 150 00f8 FFF7FEFF 		bl	RCC_APB2PeriphResetCmd
 151 00fc FFE0     		b	.L1
 152              	.L3:
 203:App/STM32F4-Discovery/Libraries/STM32F4xx_StdPeriph_Driver/src/stm32f4xx_tim.c ****   } 
 204:App/STM32F4-Discovery/Libraries/STM32F4xx_StdPeriph_Driver/src/stm32f4xx_tim.c ****   else if (TIMx == TIM2) 
 153              		.loc 1 204 0
 154 00fe 7B68     		ldr	r3, [r7, #4]
 155 0100 B3F1804F 		cmp	r3, #1073741824
 156 0104 0CD1     		bne	.L5
 205:App/STM32F4-Discovery/Libraries/STM32F4xx_StdPeriph_Driver/src/stm32f4xx_tim.c ****   {     
 206:App/STM32F4-Discovery/Libraries/STM32F4xx_StdPeriph_Driver/src/stm32f4xx_tim.c ****     RCC_APB1PeriphResetCmd(RCC_APB1Periph_TIM2, ENABLE);
 157              		.loc 1 206 0
 158 0106 4FF00100 		mov	r0, #1
 159 010a 4FF00101 		mov	r1, #1
 160 010e FFF7FEFF 		bl	RCC_APB1PeriphResetCmd
 207:App/STM32F4-Discovery/Libraries/STM32F4xx_StdPeriph_Driver/src/stm32f4xx_tim.c ****     RCC_APB1PeriphResetCmd(RCC_APB1Periph_TIM2, DISABLE);
 161              		.loc 1 207 0
 162 0112 4FF00100 		mov	r0, #1
 163 0116 4FF00001 		mov	r1, #0
 164 011a FFF7FEFF 		bl	RCC_APB1PeriphResetCmd
 165 011e EEE0     		b	.L1
 166              	.L5:
 208:App/STM32F4-Discovery/Libraries/STM32F4xx_StdPeriph_Driver/src/stm32f4xx_tim.c ****   }  
 209:App/STM32F4-Discovery/Libraries/STM32F4xx_StdPeriph_Driver/src/stm32f4xx_tim.c ****   else if (TIMx == TIM3)
 167              		.loc 1 209 0
 168 0120 7A68     		ldr	r2, [r7, #4]
 169 0122 4FF48063 		mov	r3, #1024
 170 0126 C4F20003 		movt	r3, 16384
 171 012a 9A42     		cmp	r2, r3
 172 012c 0CD1     		bne	.L6
 210:App/STM32F4-Discovery/Libraries/STM32F4xx_StdPeriph_Driver/src/stm32f4xx_tim.c ****   { 
 211:App/STM32F4-Discovery/Libraries/STM32F4xx_StdPeriph_Driver/src/stm32f4xx_tim.c ****     RCC_APB1PeriphResetCmd(RCC_APB1Periph_TIM3, ENABLE);
 173              		.loc 1 211 0
 174 012e 4FF00200 		mov	r0, #2
 175 0132 4FF00101 		mov	r1, #1
 176 0136 FFF7FEFF 		bl	RCC_APB1PeriphResetCmd
 212:App/STM32F4-Discovery/Libraries/STM32F4xx_StdPeriph_Driver/src/stm32f4xx_tim.c ****     RCC_APB1PeriphResetCmd(RCC_APB1Periph_TIM3, DISABLE);
 177              		.loc 1 212 0
 178 013a 4FF00200 		mov	r0, #2
 179 013e 4FF00001 		mov	r1, #0
 180 0142 FFF7FEFF 		bl	RCC_APB1PeriphResetCmd
 181 0146 DAE0     		b	.L1
 182              	.L6:
 213:App/STM32F4-Discovery/Libraries/STM32F4xx_StdPeriph_Driver/src/stm32f4xx_tim.c ****   }  
 214:App/STM32F4-Discovery/Libraries/STM32F4xx_StdPeriph_Driver/src/stm32f4xx_tim.c ****   else if (TIMx == TIM4)
 183              		.loc 1 214 0
 184 0148 7A68     		ldr	r2, [r7, #4]
 185 014a 4FF40063 		mov	r3, #2048
 186 014e C4F20003 		movt	r3, 16384
 187 0152 9A42     		cmp	r2, r3
 188 0154 0CD1     		bne	.L7
 215:App/STM32F4-Discovery/Libraries/STM32F4xx_StdPeriph_Driver/src/stm32f4xx_tim.c ****   { 
 216:App/STM32F4-Discovery/Libraries/STM32F4xx_StdPeriph_Driver/src/stm32f4xx_tim.c ****     RCC_APB1PeriphResetCmd(RCC_APB1Periph_TIM4, ENABLE);
 189              		.loc 1 216 0
 190 0156 4FF00400 		mov	r0, #4
 191 015a 4FF00101 		mov	r1, #1
 192 015e FFF7FEFF 		bl	RCC_APB1PeriphResetCmd
 217:App/STM32F4-Discovery/Libraries/STM32F4xx_StdPeriph_Driver/src/stm32f4xx_tim.c ****     RCC_APB1PeriphResetCmd(RCC_APB1Periph_TIM4, DISABLE);
 193              		.loc 1 217 0
 194 0162 4FF00400 		mov	r0, #4
 195 0166 4FF00001 		mov	r1, #0
 196 016a FFF7FEFF 		bl	RCC_APB1PeriphResetCmd
 197 016e C6E0     		b	.L1
 198              	.L7:
 218:App/STM32F4-Discovery/Libraries/STM32F4xx_StdPeriph_Driver/src/stm32f4xx_tim.c ****   }  
 219:App/STM32F4-Discovery/Libraries/STM32F4xx_StdPeriph_Driver/src/stm32f4xx_tim.c ****   else if (TIMx == TIM5)
 199              		.loc 1 219 0
 200 0170 7A68     		ldr	r2, [r7, #4]
 201 0172 4FF44063 		mov	r3, #3072
 202 0176 C4F20003 		movt	r3, 16384
 203 017a 9A42     		cmp	r2, r3
 204 017c 0CD1     		bne	.L8
 220:App/STM32F4-Discovery/Libraries/STM32F4xx_StdPeriph_Driver/src/stm32f4xx_tim.c ****   {      
 221:App/STM32F4-Discovery/Libraries/STM32F4xx_StdPeriph_Driver/src/stm32f4xx_tim.c ****     RCC_APB1PeriphResetCmd(RCC_APB1Periph_TIM5, ENABLE);
 205              		.loc 1 221 0
 206 017e 4FF00800 		mov	r0, #8
 207 0182 4FF00101 		mov	r1, #1
 208 0186 FFF7FEFF 		bl	RCC_APB1PeriphResetCmd
 222:App/STM32F4-Discovery/Libraries/STM32F4xx_StdPeriph_Driver/src/stm32f4xx_tim.c ****     RCC_APB1PeriphResetCmd(RCC_APB1Periph_TIM5, DISABLE);
 209              		.loc 1 222 0
 210 018a 4FF00800 		mov	r0, #8
 211 018e 4FF00001 		mov	r1, #0
 212 0192 FFF7FEFF 		bl	RCC_APB1PeriphResetCmd
 213 0196 B2E0     		b	.L1
 214              	.L8:
 223:App/STM32F4-Discovery/Libraries/STM32F4xx_StdPeriph_Driver/src/stm32f4xx_tim.c ****   }  
 224:App/STM32F4-Discovery/Libraries/STM32F4xx_StdPeriph_Driver/src/stm32f4xx_tim.c ****   else if (TIMx == TIM6)  
 215              		.loc 1 224 0
 216 0198 7A68     		ldr	r2, [r7, #4]
 217 019a 4FF48053 		mov	r3, #4096
 218 019e C4F20003 		movt	r3, 16384
 219 01a2 9A42     		cmp	r2, r3
 220 01a4 0CD1     		bne	.L9
 225:App/STM32F4-Discovery/Libraries/STM32F4xx_StdPeriph_Driver/src/stm32f4xx_tim.c ****   {    
 226:App/STM32F4-Discovery/Libraries/STM32F4xx_StdPeriph_Driver/src/stm32f4xx_tim.c ****     RCC_APB1PeriphResetCmd(RCC_APB1Periph_TIM6, ENABLE);
 221              		.loc 1 226 0
 222 01a6 4FF01000 		mov	r0, #16
 223 01aa 4FF00101 		mov	r1, #1
 224 01ae FFF7FEFF 		bl	RCC_APB1PeriphResetCmd
 227:App/STM32F4-Discovery/Libraries/STM32F4xx_StdPeriph_Driver/src/stm32f4xx_tim.c ****     RCC_APB1PeriphResetCmd(RCC_APB1Periph_TIM6, DISABLE);
 225              		.loc 1 227 0
 226 01b2 4FF01000 		mov	r0, #16
 227 01b6 4FF00001 		mov	r1, #0
 228 01ba FFF7FEFF 		bl	RCC_APB1PeriphResetCmd
 229 01be 9EE0     		b	.L1
 230              	.L9:
 228:App/STM32F4-Discovery/Libraries/STM32F4xx_StdPeriph_Driver/src/stm32f4xx_tim.c ****   }  
 229:App/STM32F4-Discovery/Libraries/STM32F4xx_StdPeriph_Driver/src/stm32f4xx_tim.c ****   else if (TIMx == TIM7)
 231              		.loc 1 229 0
 232 01c0 7A68     		ldr	r2, [r7, #4]
 233 01c2 4FF4A053 		mov	r3, #5120
 234 01c6 C4F20003 		movt	r3, 16384
 235 01ca 9A42     		cmp	r2, r3
 236 01cc 0CD1     		bne	.L10
 230:App/STM32F4-Discovery/Libraries/STM32F4xx_StdPeriph_Driver/src/stm32f4xx_tim.c ****   {      
 231:App/STM32F4-Discovery/Libraries/STM32F4xx_StdPeriph_Driver/src/stm32f4xx_tim.c ****     RCC_APB1PeriphResetCmd(RCC_APB1Periph_TIM7, ENABLE);
 237              		.loc 1 231 0
 238 01ce 4FF02000 		mov	r0, #32
 239 01d2 4FF00101 		mov	r1, #1
 240 01d6 FFF7FEFF 		bl	RCC_APB1PeriphResetCmd
 232:App/STM32F4-Discovery/Libraries/STM32F4xx_StdPeriph_Driver/src/stm32f4xx_tim.c ****     RCC_APB1PeriphResetCmd(RCC_APB1Periph_TIM7, DISABLE);
 241              		.loc 1 232 0
 242 01da 4FF02000 		mov	r0, #32
 243 01de 4FF00001 		mov	r1, #0
 244 01e2 FFF7FEFF 		bl	RCC_APB1PeriphResetCmd
 245 01e6 8AE0     		b	.L1
 246              	.L10:
 233:App/STM32F4-Discovery/Libraries/STM32F4xx_StdPeriph_Driver/src/stm32f4xx_tim.c ****   }  
 234:App/STM32F4-Discovery/Libraries/STM32F4xx_StdPeriph_Driver/src/stm32f4xx_tim.c ****   else if (TIMx == TIM8)
 247              		.loc 1 234 0
 248 01e8 7A68     		ldr	r2, [r7, #4]
 249 01ea 4FF48063 		mov	r3, #1024
 250 01ee C4F20103 		movt	r3, 16385
 251 01f2 9A42     		cmp	r2, r3
 252 01f4 0CD1     		bne	.L11
 235:App/STM32F4-Discovery/Libraries/STM32F4xx_StdPeriph_Driver/src/stm32f4xx_tim.c ****   {      
 236:App/STM32F4-Discovery/Libraries/STM32F4xx_StdPeriph_Driver/src/stm32f4xx_tim.c ****     RCC_APB2PeriphResetCmd(RCC_APB2Periph_TIM8, ENABLE);
 253              		.loc 1 236 0
 254 01f6 4FF00200 		mov	r0, #2
 255 01fa 4FF00101 		mov	r1, #1
 256 01fe FFF7FEFF 		bl	RCC_APB2PeriphResetCmd
 237:App/STM32F4-Discovery/Libraries/STM32F4xx_StdPeriph_Driver/src/stm32f4xx_tim.c ****     RCC_APB2PeriphResetCmd(RCC_APB2Periph_TIM8, DISABLE);  
 257              		.loc 1 237 0
 258 0202 4FF00200 		mov	r0, #2
 259 0206 4FF00001 		mov	r1, #0
 260 020a FFF7FEFF 		bl	RCC_APB2PeriphResetCmd
 261 020e 76E0     		b	.L1
 262              	.L11:
 238:App/STM32F4-Discovery/Libraries/STM32F4xx_StdPeriph_Driver/src/stm32f4xx_tim.c ****   }  
 239:App/STM32F4-Discovery/Libraries/STM32F4xx_StdPeriph_Driver/src/stm32f4xx_tim.c ****   else if (TIMx == TIM9)
 263              		.loc 1 239 0
 264 0210 7A68     		ldr	r2, [r7, #4]
 265 0212 4FF48043 		mov	r3, #16384
 266 0216 C4F20103 		movt	r3, 16385
 267 021a 9A42     		cmp	r2, r3
 268 021c 0CD1     		bne	.L12
 240:App/STM32F4-Discovery/Libraries/STM32F4xx_StdPeriph_Driver/src/stm32f4xx_tim.c ****   {      
 241:App/STM32F4-Discovery/Libraries/STM32F4xx_StdPeriph_Driver/src/stm32f4xx_tim.c ****     RCC_APB2PeriphResetCmd(RCC_APB2Periph_TIM9, ENABLE);
 269              		.loc 1 241 0
 270 021e 4FF48030 		mov	r0, #65536
 271 0222 4FF00101 		mov	r1, #1
 272 0226 FFF7FEFF 		bl	RCC_APB2PeriphResetCmd
 242:App/STM32F4-Discovery/Libraries/STM32F4xx_StdPeriph_Driver/src/stm32f4xx_tim.c ****     RCC_APB2PeriphResetCmd(RCC_APB2Periph_TIM9, DISABLE);  
 273              		.loc 1 242 0
 274 022a 4FF48030 		mov	r0, #65536
 275 022e 4FF00001 		mov	r1, #0
 276 0232 FFF7FEFF 		bl	RCC_APB2PeriphResetCmd
 277 0236 62E0     		b	.L1
 278              	.L12:
 243:App/STM32F4-Discovery/Libraries/STM32F4xx_StdPeriph_Driver/src/stm32f4xx_tim.c ****    }  
 244:App/STM32F4-Discovery/Libraries/STM32F4xx_StdPeriph_Driver/src/stm32f4xx_tim.c ****   else if (TIMx == TIM10)
 279              		.loc 1 244 0
 280 0238 7A68     		ldr	r2, [r7, #4]
 281 023a 4FF48843 		mov	r3, #17408
 282 023e C4F20103 		movt	r3, 16385
 283 0242 9A42     		cmp	r2, r3
 284 0244 0CD1     		bne	.L13
 245:App/STM32F4-Discovery/Libraries/STM32F4xx_StdPeriph_Driver/src/stm32f4xx_tim.c ****   {      
 246:App/STM32F4-Discovery/Libraries/STM32F4xx_StdPeriph_Driver/src/stm32f4xx_tim.c ****     RCC_APB2PeriphResetCmd(RCC_APB2Periph_TIM10, ENABLE);
 285              		.loc 1 246 0
 286 0246 4FF40030 		mov	r0, #131072
 287 024a 4FF00101 		mov	r1, #1
 288 024e FFF7FEFF 		bl	RCC_APB2PeriphResetCmd
 247:App/STM32F4-Discovery/Libraries/STM32F4xx_StdPeriph_Driver/src/stm32f4xx_tim.c ****     RCC_APB2PeriphResetCmd(RCC_APB2Periph_TIM10, DISABLE);  
 289              		.loc 1 247 0
 290 0252 4FF40030 		mov	r0, #131072
 291 0256 4FF00001 		mov	r1, #0
 292 025a FFF7FEFF 		bl	RCC_APB2PeriphResetCmd
 293 025e 4EE0     		b	.L1
 294              	.L13:
 248:App/STM32F4-Discovery/Libraries/STM32F4xx_StdPeriph_Driver/src/stm32f4xx_tim.c ****   }  
 249:App/STM32F4-Discovery/Libraries/STM32F4xx_StdPeriph_Driver/src/stm32f4xx_tim.c ****   else if (TIMx == TIM11) 
 295              		.loc 1 249 0
 296 0260 7A68     		ldr	r2, [r7, #4]
 297 0262 4FF49043 		mov	r3, #18432
 298 0266 C4F20103 		movt	r3, 16385
 299 026a 9A42     		cmp	r2, r3
 300 026c 0CD1     		bne	.L14
 250:App/STM32F4-Discovery/Libraries/STM32F4xx_StdPeriph_Driver/src/stm32f4xx_tim.c ****   {     
 251:App/STM32F4-Discovery/Libraries/STM32F4xx_StdPeriph_Driver/src/stm32f4xx_tim.c ****     RCC_APB2PeriphResetCmd(RCC_APB2Periph_TIM11, ENABLE);
 301              		.loc 1 251 0
 302 026e 4FF48020 		mov	r0, #262144
 303 0272 4FF00101 		mov	r1, #1
 304 0276 FFF7FEFF 		bl	RCC_APB2PeriphResetCmd
 252:App/STM32F4-Discovery/Libraries/STM32F4xx_StdPeriph_Driver/src/stm32f4xx_tim.c ****     RCC_APB2PeriphResetCmd(RCC_APB2Periph_TIM11, DISABLE);  
 305              		.loc 1 252 0
 306 027a 4FF48020 		mov	r0, #262144
 307 027e 4FF00001 		mov	r1, #0
 308 0282 FFF7FEFF 		bl	RCC_APB2PeriphResetCmd
 309 0286 3AE0     		b	.L1
 310              	.L14:
 253:App/STM32F4-Discovery/Libraries/STM32F4xx_StdPeriph_Driver/src/stm32f4xx_tim.c ****   }  
 254:App/STM32F4-Discovery/Libraries/STM32F4xx_StdPeriph_Driver/src/stm32f4xx_tim.c ****   else if (TIMx == TIM12)
 311              		.loc 1 254 0
 312 0288 7A68     		ldr	r2, [r7, #4]
 313 028a 4FF4C053 		mov	r3, #6144
 314 028e C4F20003 		movt	r3, 16384
 315 0292 9A42     		cmp	r2, r3
 316 0294 0CD1     		bne	.L15
 255:App/STM32F4-Discovery/Libraries/STM32F4xx_StdPeriph_Driver/src/stm32f4xx_tim.c ****   {      
 256:App/STM32F4-Discovery/Libraries/STM32F4xx_StdPeriph_Driver/src/stm32f4xx_tim.c ****     RCC_APB1PeriphResetCmd(RCC_APB1Periph_TIM12, ENABLE);
 317              		.loc 1 256 0
 318 0296 4FF04000 		mov	r0, #64
 319 029a 4FF00101 		mov	r1, #1
 320 029e FFF7FEFF 		bl	RCC_APB1PeriphResetCmd
 257:App/STM32F4-Discovery/Libraries/STM32F4xx_StdPeriph_Driver/src/stm32f4xx_tim.c ****     RCC_APB1PeriphResetCmd(RCC_APB1Periph_TIM12, DISABLE);  
 321              		.loc 1 257 0
 322 02a2 4FF04000 		mov	r0, #64
 323 02a6 4FF00001 		mov	r1, #0
 324 02aa FFF7FEFF 		bl	RCC_APB1PeriphResetCmd
 325 02ae 26E0     		b	.L1
 326              	.L15:
 258:App/STM32F4-Discovery/Libraries/STM32F4xx_StdPeriph_Driver/src/stm32f4xx_tim.c ****   }  
 259:App/STM32F4-Discovery/Libraries/STM32F4xx_StdPeriph_Driver/src/stm32f4xx_tim.c ****   else if (TIMx == TIM13) 
 327              		.loc 1 259 0
 328 02b0 7A68     		ldr	r2, [r7, #4]
 329 02b2 4FF4E053 		mov	r3, #7168
 330 02b6 C4F20003 		movt	r3, 16384
 331 02ba 9A42     		cmp	r2, r3
 332 02bc 0CD1     		bne	.L16
 260:App/STM32F4-Discovery/Libraries/STM32F4xx_StdPeriph_Driver/src/stm32f4xx_tim.c ****   {       
 261:App/STM32F4-Discovery/Libraries/STM32F4xx_StdPeriph_Driver/src/stm32f4xx_tim.c ****     RCC_APB1PeriphResetCmd(RCC_APB1Periph_TIM13, ENABLE);
 333              		.loc 1 261 0
 334 02be 4FF08000 		mov	r0, #128
 335 02c2 4FF00101 		mov	r1, #1
 336 02c6 FFF7FEFF 		bl	RCC_APB1PeriphResetCmd
 262:App/STM32F4-Discovery/Libraries/STM32F4xx_StdPeriph_Driver/src/stm32f4xx_tim.c ****     RCC_APB1PeriphResetCmd(RCC_APB1Periph_TIM13, DISABLE);  
 337              		.loc 1 262 0
 338 02ca 4FF08000 		mov	r0, #128
 339 02ce 4FF00001 		mov	r1, #0
 340 02d2 FFF7FEFF 		bl	RCC_APB1PeriphResetCmd
 341 02d6 12E0     		b	.L1
 342              	.L16:
 263:App/STM32F4-Discovery/Libraries/STM32F4xx_StdPeriph_Driver/src/stm32f4xx_tim.c ****   }  
 264:App/STM32F4-Discovery/Libraries/STM32F4xx_StdPeriph_Driver/src/stm32f4xx_tim.c ****   else
 265:App/STM32F4-Discovery/Libraries/STM32F4xx_StdPeriph_Driver/src/stm32f4xx_tim.c ****   { 
 266:App/STM32F4-Discovery/Libraries/STM32F4xx_StdPeriph_Driver/src/stm32f4xx_tim.c ****     if (TIMx == TIM14) 
 343              		.loc 1 266 0
 344 02d8 7A68     		ldr	r2, [r7, #4]
 345 02da 4FF40053 		mov	r3, #8192
 346 02de C4F20003 		movt	r3, 16384
 347 02e2 9A42     		cmp	r2, r3
 348 02e4 0BD1     		bne	.L1
 267:App/STM32F4-Discovery/Libraries/STM32F4xx_StdPeriph_Driver/src/stm32f4xx_tim.c ****     {     
 268:App/STM32F4-Discovery/Libraries/STM32F4xx_StdPeriph_Driver/src/stm32f4xx_tim.c ****       RCC_APB1PeriphResetCmd(RCC_APB1Periph_TIM14, ENABLE);
 349              		.loc 1 268 0
 350 02e6 4FF48070 		mov	r0, #256
 351 02ea 4FF00101 		mov	r1, #1
 352 02ee FFF7FEFF 		bl	RCC_APB1PeriphResetCmd
 269:App/STM32F4-Discovery/Libraries/STM32F4xx_StdPeriph_Driver/src/stm32f4xx_tim.c ****       RCC_APB1PeriphResetCmd(RCC_APB1Periph_TIM14, DISABLE); 
 353              		.loc 1 269 0
 354 02f2 4FF48070 		mov	r0, #256
 355 02f6 4FF00001 		mov	r1, #0
 356 02fa FFF7FEFF 		bl	RCC_APB1PeriphResetCmd
 357              	.L1:
 270:App/STM32F4-Discovery/Libraries/STM32F4xx_StdPeriph_Driver/src/stm32f4xx_tim.c ****     }   
 271:App/STM32F4-Discovery/Libraries/STM32F4xx_StdPeriph_Driver/src/stm32f4xx_tim.c ****   }
 272:App/STM32F4-Discovery/Libraries/STM32F4xx_StdPeriph_Driver/src/stm32f4xx_tim.c **** }
 358              		.loc 1 272 0
 359 02fe 07F10807 		add	r7, r7, #8
 360 0302 BD46     		mov	sp, r7
 361 0304 80BD     		pop	{r7, pc}
 362              		.cfi_endproc
 363              	.LFE110:
 365 0306 00BF     		.section	.text.TIM_TimeBaseInit,"ax",%progbits
 366              		.align	2
 367              		.global	TIM_TimeBaseInit
 368              		.thumb
 369              		.thumb_func
 371              	TIM_TimeBaseInit:
 372              	.LFB111:
 273:App/STM32F4-Discovery/Libraries/STM32F4xx_StdPeriph_Driver/src/stm32f4xx_tim.c **** 
 274:App/STM32F4-Discovery/Libraries/STM32F4xx_StdPeriph_Driver/src/stm32f4xx_tim.c **** /**
 275:App/STM32F4-Discovery/Libraries/STM32F4xx_StdPeriph_Driver/src/stm32f4xx_tim.c ****   * @brief  Initializes the TIMx Time Base Unit peripheral according to 
 276:App/STM32F4-Discovery/Libraries/STM32F4xx_StdPeriph_Driver/src/stm32f4xx_tim.c ****   *         the specified parameters in the TIM_TimeBaseInitStruct.
 277:App/STM32F4-Discovery/Libraries/STM32F4xx_StdPeriph_Driver/src/stm32f4xx_tim.c ****   * @param  TIMx: where x can be  1 to 14 to select the TIM peripheral.
 278:App/STM32F4-Discovery/Libraries/STM32F4xx_StdPeriph_Driver/src/stm32f4xx_tim.c ****   * @param  TIM_TimeBaseInitStruct: pointer to a TIM_TimeBaseInitTypeDef structure
 279:App/STM32F4-Discovery/Libraries/STM32F4xx_StdPeriph_Driver/src/stm32f4xx_tim.c ****   *         that contains the configuration information for the specified TIM peripheral.
 280:App/STM32F4-Discovery/Libraries/STM32F4xx_StdPeriph_Driver/src/stm32f4xx_tim.c ****   * @retval None
 281:App/STM32F4-Discovery/Libraries/STM32F4xx_StdPeriph_Driver/src/stm32f4xx_tim.c ****   */
 282:App/STM32F4-Discovery/Libraries/STM32F4xx_StdPeriph_Driver/src/stm32f4xx_tim.c **** void TIM_TimeBaseInit(TIM_TypeDef* TIMx, TIM_TimeBaseInitTypeDef* TIM_TimeBaseInitStruct)
 283:App/STM32F4-Discovery/Libraries/STM32F4xx_StdPeriph_Driver/src/stm32f4xx_tim.c **** {
 373              		.loc 1 283 0
 374              		.cfi_startproc
 375              		@ args = 0, pretend = 0, frame = 16
 376              		@ frame_needed = 1, uses_anonymous_args = 0
 377 0000 80B5     		push	{r7, lr}
 378              	.LCFI3:
 379              		.cfi_def_cfa_offset 8
 380              		.cfi_offset 7, -8
 381              		.cfi_offset 14, -4
 382 0002 84B0     		sub	sp, sp, #16
 383              	.LCFI4:
 384              		.cfi_def_cfa_offset 24
 385 0004 00AF     		add	r7, sp, #0
 386              	.LCFI5:
 387              		.cfi_def_cfa_register 7
 388 0006 7860     		str	r0, [r7, #4]
 389 0008 3960     		str	r1, [r7, #0]
 284:App/STM32F4-Discovery/Libraries/STM32F4xx_StdPeriph_Driver/src/stm32f4xx_tim.c ****   uint16_t tmpcr1 = 0;
 390              		.loc 1 284 0
 391 000a 4FF00003 		mov	r3, #0
 392 000e FB81     		strh	r3, [r7, #14]	@ movhi
 285:App/STM32F4-Discovery/Libraries/STM32F4xx_StdPeriph_Driver/src/stm32f4xx_tim.c **** 
 286:App/STM32F4-Discovery/Libraries/STM32F4xx_StdPeriph_Driver/src/stm32f4xx_tim.c ****   /* Check the parameters */
 287:App/STM32F4-Discovery/Libraries/STM32F4xx_StdPeriph_Driver/src/stm32f4xx_tim.c ****   assert_param(IS_TIM_ALL_PERIPH(TIMx)); 
 393              		.loc 1 287 0
 394 0010 7A68     		ldr	r2, [r7, #4]
 395 0012 4FF00003 		mov	r3, #0
 396 0016 C4F20103 		movt	r3, 16385
 397 001a 9A42     		cmp	r2, r3
 398 001c 5FD0     		beq	.L18
 399              		.loc 1 287 0 is_stmt 0 discriminator 1
 400 001e 7B68     		ldr	r3, [r7, #4]
 401 0020 B3F1804F 		cmp	r3, #1073741824
 402 0024 5BD0     		beq	.L18
 403              		.loc 1 287 0 discriminator 2
 404 0026 7A68     		ldr	r2, [r7, #4]
 405 0028 4FF48063 		mov	r3, #1024
 406 002c C4F20003 		movt	r3, 16384
 407 0030 9A42     		cmp	r2, r3
 408 0032 54D0     		beq	.L18
 409              		.loc 1 287 0 discriminator 3
 410 0034 7A68     		ldr	r2, [r7, #4]
 411 0036 4FF40063 		mov	r3, #2048
 412 003a C4F20003 		movt	r3, 16384
 413 003e 9A42     		cmp	r2, r3
 414 0040 4DD0     		beq	.L18
 415              		.loc 1 287 0 discriminator 4
 416 0042 7A68     		ldr	r2, [r7, #4]
 417 0044 4FF44063 		mov	r3, #3072
 418 0048 C4F20003 		movt	r3, 16384
 419 004c 9A42     		cmp	r2, r3
 420 004e 46D0     		beq	.L18
 421              		.loc 1 287 0 discriminator 5
 422 0050 7A68     		ldr	r2, [r7, #4]
 423 0052 4FF48053 		mov	r3, #4096
 424 0056 C4F20003 		movt	r3, 16384
 425 005a 9A42     		cmp	r2, r3
 426 005c 3FD0     		beq	.L18
 427              		.loc 1 287 0 discriminator 6
 428 005e 7A68     		ldr	r2, [r7, #4]
 429 0060 4FF4A053 		mov	r3, #5120
 430 0064 C4F20003 		movt	r3, 16384
 431 0068 9A42     		cmp	r2, r3
 432 006a 38D0     		beq	.L18
 433              		.loc 1 287 0 discriminator 7
 434 006c 7A68     		ldr	r2, [r7, #4]
 435 006e 4FF48063 		mov	r3, #1024
 436 0072 C4F20103 		movt	r3, 16385
 437 0076 9A42     		cmp	r2, r3
 438 0078 31D0     		beq	.L18
 439              		.loc 1 287 0 discriminator 8
 440 007a 7A68     		ldr	r2, [r7, #4]
 441 007c 4FF48043 		mov	r3, #16384
 442 0080 C4F20103 		movt	r3, 16385
 443 0084 9A42     		cmp	r2, r3
 444 0086 2AD0     		beq	.L18
 445              		.loc 1 287 0 discriminator 9
 446 0088 7A68     		ldr	r2, [r7, #4]
 447 008a 4FF48843 		mov	r3, #17408
 448 008e C4F20103 		movt	r3, 16385
 449 0092 9A42     		cmp	r2, r3
 450 0094 23D0     		beq	.L18
 451              		.loc 1 287 0 discriminator 10
 452 0096 7A68     		ldr	r2, [r7, #4]
 453 0098 4FF49043 		mov	r3, #18432
 454 009c C4F20103 		movt	r3, 16385
 455 00a0 9A42     		cmp	r2, r3
 456 00a2 1CD0     		beq	.L18
 457              		.loc 1 287 0 discriminator 11
 458 00a4 7A68     		ldr	r2, [r7, #4]
 459 00a6 4FF4C053 		mov	r3, #6144
 460 00aa C4F20003 		movt	r3, 16384
 461 00ae 9A42     		cmp	r2, r3
 462 00b0 15D0     		beq	.L18
 463              		.loc 1 287 0 discriminator 12
 464 00b2 7A68     		ldr	r2, [r7, #4]
 465 00b4 4FF4E053 		mov	r3, #7168
 466 00b8 C4F20003 		movt	r3, 16384
 467 00bc 9A42     		cmp	r2, r3
 468 00be 0ED0     		beq	.L18
 469              		.loc 1 287 0 discriminator 13
 470 00c0 7A68     		ldr	r2, [r7, #4]
 471 00c2 4FF40053 		mov	r3, #8192
 472 00c6 C4F20003 		movt	r3, 16384
 473 00ca 9A42     		cmp	r2, r3
 474 00cc 07D0     		beq	.L18
 475              		.loc 1 287 0 discriminator 14
 476 00ce 40F20000 		movw	r0, #:lower16:.LC0
 477 00d2 C0F20000 		movt	r0, #:upper16:.LC0
 478 00d6 40F21F11 		movw	r1, #287
 479 00da FFF7FEFF 		bl	assert_failed
 480              	.L18:
 288:App/STM32F4-Discovery/Libraries/STM32F4xx_StdPeriph_Driver/src/stm32f4xx_tim.c ****   assert_param(IS_TIM_COUNTER_MODE(TIM_TimeBaseInitStruct->TIM_CounterMode));
 481              		.loc 1 288 0 is_stmt 1
 482 00de 3B68     		ldr	r3, [r7, #0]
 483 00e0 5B88     		ldrh	r3, [r3, #2]
 484 00e2 002B     		cmp	r3, #0
 485 00e4 17D0     		beq	.L19
 486              		.loc 1 288 0 is_stmt 0 discriminator 1
 487 00e6 3B68     		ldr	r3, [r7, #0]
 488 00e8 5B88     		ldrh	r3, [r3, #2]
 489 00ea 102B     		cmp	r3, #16
 490 00ec 13D0     		beq	.L19
 491              		.loc 1 288 0 discriminator 2
 492 00ee 3B68     		ldr	r3, [r7, #0]
 493 00f0 5B88     		ldrh	r3, [r3, #2]
 494 00f2 202B     		cmp	r3, #32
 495 00f4 0FD0     		beq	.L19
 496              		.loc 1 288 0 discriminator 3
 497 00f6 3B68     		ldr	r3, [r7, #0]
 498 00f8 5B88     		ldrh	r3, [r3, #2]
 499 00fa 402B     		cmp	r3, #64
 500 00fc 0BD0     		beq	.L19
 501              		.loc 1 288 0 discriminator 4
 502 00fe 3B68     		ldr	r3, [r7, #0]
 503 0100 5B88     		ldrh	r3, [r3, #2]
 504 0102 602B     		cmp	r3, #96
 505 0104 07D0     		beq	.L19
 506              		.loc 1 288 0 discriminator 5
 507 0106 40F20000 		movw	r0, #:lower16:.LC0
 508 010a C0F20000 		movt	r0, #:upper16:.LC0
 509 010e 4FF49071 		mov	r1, #288
 510 0112 FFF7FEFF 		bl	assert_failed
 511              	.L19:
 289:App/STM32F4-Discovery/Libraries/STM32F4xx_StdPeriph_Driver/src/stm32f4xx_tim.c ****   assert_param(IS_TIM_CKD_DIV(TIM_TimeBaseInitStruct->TIM_ClockDivision));
 512              		.loc 1 289 0 is_stmt 1
 513 0116 3B68     		ldr	r3, [r7, #0]
 514 0118 1B89     		ldrh	r3, [r3, #8]
 515 011a 002B     		cmp	r3, #0
 516 011c 11D0     		beq	.L20
 517              		.loc 1 289 0 is_stmt 0 discriminator 1
 518 011e 3B68     		ldr	r3, [r7, #0]
 519 0120 1B89     		ldrh	r3, [r3, #8]
 520 0122 B3F5807F 		cmp	r3, #256
 521 0126 0CD0     		beq	.L20
 522              		.loc 1 289 0 discriminator 2
 523 0128 3B68     		ldr	r3, [r7, #0]
 524 012a 1B89     		ldrh	r3, [r3, #8]
 525 012c B3F5007F 		cmp	r3, #512
 526 0130 07D0     		beq	.L20
 527              		.loc 1 289 0 discriminator 3
 528 0132 40F20000 		movw	r0, #:lower16:.LC0
 529 0136 C0F20000 		movt	r0, #:upper16:.LC0
 530 013a 40F22111 		movw	r1, #289
 531 013e FFF7FEFF 		bl	assert_failed
 532              	.L20:
 290:App/STM32F4-Discovery/Libraries/STM32F4xx_StdPeriph_Driver/src/stm32f4xx_tim.c **** 
 291:App/STM32F4-Discovery/Libraries/STM32F4xx_StdPeriph_Driver/src/stm32f4xx_tim.c ****   tmpcr1 = TIMx->CR1;  
 533              		.loc 1 291 0 is_stmt 1
 534 0142 7B68     		ldr	r3, [r7, #4]
 535 0144 1B88     		ldrh	r3, [r3, #0]	@ movhi
 536 0146 FB81     		strh	r3, [r7, #14]	@ movhi
 292:App/STM32F4-Discovery/Libraries/STM32F4xx_StdPeriph_Driver/src/stm32f4xx_tim.c **** 
 293:App/STM32F4-Discovery/Libraries/STM32F4xx_StdPeriph_Driver/src/stm32f4xx_tim.c ****   if((TIMx == TIM1) || (TIMx == TIM8)||
 537              		.loc 1 293 0
 538 0148 7A68     		ldr	r2, [r7, #4]
 539 014a 4FF00003 		mov	r3, #0
 540 014e C4F20103 		movt	r3, 16385
 541 0152 9A42     		cmp	r2, r3
 542 0154 1FD0     		beq	.L21
 543              		.loc 1 293 0 is_stmt 0 discriminator 1
 544 0156 7A68     		ldr	r2, [r7, #4]
 545 0158 4FF48063 		mov	r3, #1024
 546 015c C4F20103 		movt	r3, 16385
 547 0160 9A42     		cmp	r2, r3
 548 0162 18D0     		beq	.L21
 549 0164 7B68     		ldr	r3, [r7, #4]
 550 0166 B3F1804F 		cmp	r3, #1073741824
 551 016a 14D0     		beq	.L21
 294:App/STM32F4-Discovery/Libraries/STM32F4xx_StdPeriph_Driver/src/stm32f4xx_tim.c ****      (TIMx == TIM2) || (TIMx == TIM3)||
 552              		.loc 1 294 0 is_stmt 1
 553 016c 7A68     		ldr	r2, [r7, #4]
 554 016e 4FF48063 		mov	r3, #1024
 555 0172 C4F20003 		movt	r3, 16384
 556 0176 9A42     		cmp	r2, r3
 557 0178 0DD0     		beq	.L21
 558              		.loc 1 294 0 is_stmt 0 discriminator 1
 559 017a 7A68     		ldr	r2, [r7, #4]
 560 017c 4FF40063 		mov	r3, #2048
 561 0180 C4F20003 		movt	r3, 16384
 562 0184 9A42     		cmp	r2, r3
 563 0186 06D0     		beq	.L21
 295:App/STM32F4-Discovery/Libraries/STM32F4xx_StdPeriph_Driver/src/stm32f4xx_tim.c ****      (TIMx == TIM4) || (TIMx == TIM5)) 
 564              		.loc 1 295 0 is_stmt 1
 565 0188 7A68     		ldr	r2, [r7, #4]
 566 018a 4FF44063 		mov	r3, #3072
 567 018e C4F20003 		movt	r3, 16384
 568 0192 9A42     		cmp	r2, r3
 569 0194 08D1     		bne	.L22
 570              	.L21:
 296:App/STM32F4-Discovery/Libraries/STM32F4xx_StdPeriph_Driver/src/stm32f4xx_tim.c ****   {
 297:App/STM32F4-Discovery/Libraries/STM32F4xx_StdPeriph_Driver/src/stm32f4xx_tim.c ****     /* Select the Counter Mode */
 298:App/STM32F4-Discovery/Libraries/STM32F4xx_StdPeriph_Driver/src/stm32f4xx_tim.c ****     tmpcr1 &= (uint16_t)(~(TIM_CR1_DIR | TIM_CR1_CMS));
 571              		.loc 1 298 0
 572 0196 FB89     		ldrh	r3, [r7, #14]	@ movhi
 573 0198 23F07003 		bic	r3, r3, #112
 574 019c FB81     		strh	r3, [r7, #14]	@ movhi
 299:App/STM32F4-Discovery/Libraries/STM32F4xx_StdPeriph_Driver/src/stm32f4xx_tim.c ****     tmpcr1 |= (uint32_t)TIM_TimeBaseInitStruct->TIM_CounterMode;
 575              		.loc 1 299 0
 576 019e 3B68     		ldr	r3, [r7, #0]
 577 01a0 5A88     		ldrh	r2, [r3, #2]
 578 01a2 FB89     		ldrh	r3, [r7, #14]	@ movhi
 579 01a4 1343     		orrs	r3, r3, r2
 580 01a6 FB81     		strh	r3, [r7, #14]	@ movhi
 581              	.L22:
 300:App/STM32F4-Discovery/Libraries/STM32F4xx_StdPeriph_Driver/src/stm32f4xx_tim.c ****   }
 301:App/STM32F4-Discovery/Libraries/STM32F4xx_StdPeriph_Driver/src/stm32f4xx_tim.c ****  
 302:App/STM32F4-Discovery/Libraries/STM32F4xx_StdPeriph_Driver/src/stm32f4xx_tim.c ****   if((TIMx != TIM6) && (TIMx != TIM7))
 582              		.loc 1 302 0
 583 01a8 7A68     		ldr	r2, [r7, #4]
 584 01aa 4FF48053 		mov	r3, #4096
 585 01ae C4F20003 		movt	r3, 16384
 586 01b2 9A42     		cmp	r2, r3
 587 01b4 0FD0     		beq	.L23
 588              		.loc 1 302 0 is_stmt 0 discriminator 1
 589 01b6 7A68     		ldr	r2, [r7, #4]
 590 01b8 4FF4A053 		mov	r3, #5120
 591 01bc C4F20003 		movt	r3, 16384
 592 01c0 9A42     		cmp	r2, r3
 593 01c2 08D0     		beq	.L23
 303:App/STM32F4-Discovery/Libraries/STM32F4xx_StdPeriph_Driver/src/stm32f4xx_tim.c ****   {
 304:App/STM32F4-Discovery/Libraries/STM32F4xx_StdPeriph_Driver/src/stm32f4xx_tim.c ****     /* Set the clock division */
 305:App/STM32F4-Discovery/Libraries/STM32F4xx_StdPeriph_Driver/src/stm32f4xx_tim.c ****     tmpcr1 &=  (uint16_t)(~TIM_CR1_CKD);
 594              		.loc 1 305 0 is_stmt 1
 595 01c4 FB89     		ldrh	r3, [r7, #14]	@ movhi
 596 01c6 23F44073 		bic	r3, r3, #768
 597 01ca FB81     		strh	r3, [r7, #14]	@ movhi
 306:App/STM32F4-Discovery/Libraries/STM32F4xx_StdPeriph_Driver/src/stm32f4xx_tim.c ****     tmpcr1 |= (uint32_t)TIM_TimeBaseInitStruct->TIM_ClockDivision;
 598              		.loc 1 306 0
 599 01cc 3B68     		ldr	r3, [r7, #0]
 600 01ce 1A89     		ldrh	r2, [r3, #8]
 601 01d0 FB89     		ldrh	r3, [r7, #14]	@ movhi
 602 01d2 1343     		orrs	r3, r3, r2
 603 01d4 FB81     		strh	r3, [r7, #14]	@ movhi
 604              	.L23:
 307:App/STM32F4-Discovery/Libraries/STM32F4xx_StdPeriph_Driver/src/stm32f4xx_tim.c ****   }
 308:App/STM32F4-Discovery/Libraries/STM32F4xx_StdPeriph_Driver/src/stm32f4xx_tim.c **** 
 309:App/STM32F4-Discovery/Libraries/STM32F4xx_StdPeriph_Driver/src/stm32f4xx_tim.c ****   TIMx->CR1 = tmpcr1;
 605              		.loc 1 309 0
 606 01d6 7B68     		ldr	r3, [r7, #4]
 607 01d8 FA89     		ldrh	r2, [r7, #14]	@ movhi
 608 01da 1A80     		strh	r2, [r3, #0]	@ movhi
 310:App/STM32F4-Discovery/Libraries/STM32F4xx_StdPeriph_Driver/src/stm32f4xx_tim.c **** 
 311:App/STM32F4-Discovery/Libraries/STM32F4xx_StdPeriph_Driver/src/stm32f4xx_tim.c ****   /* Set the Autoreload value */
 312:App/STM32F4-Discovery/Libraries/STM32F4xx_StdPeriph_Driver/src/stm32f4xx_tim.c ****   TIMx->ARR = TIM_TimeBaseInitStruct->TIM_Period ;
 609              		.loc 1 312 0
 610 01dc 3B68     		ldr	r3, [r7, #0]
 611 01de 5A68     		ldr	r2, [r3, #4]
 612 01e0 7B68     		ldr	r3, [r7, #4]
 613 01e2 DA62     		str	r2, [r3, #44]
 313:App/STM32F4-Discovery/Libraries/STM32F4xx_StdPeriph_Driver/src/stm32f4xx_tim.c ****  
 314:App/STM32F4-Discovery/Libraries/STM32F4xx_StdPeriph_Driver/src/stm32f4xx_tim.c ****   /* Set the Prescaler value */
 315:App/STM32F4-Discovery/Libraries/STM32F4xx_StdPeriph_Driver/src/stm32f4xx_tim.c ****   TIMx->PSC = TIM_TimeBaseInitStruct->TIM_Prescaler;
 614              		.loc 1 315 0
 615 01e4 3B68     		ldr	r3, [r7, #0]
 616 01e6 1A88     		ldrh	r2, [r3, #0]
 617 01e8 7B68     		ldr	r3, [r7, #4]
 618 01ea 1A85     		strh	r2, [r3, #40]	@ movhi
 316:App/STM32F4-Discovery/Libraries/STM32F4xx_StdPeriph_Driver/src/stm32f4xx_tim.c ****     
 317:App/STM32F4-Discovery/Libraries/STM32F4xx_StdPeriph_Driver/src/stm32f4xx_tim.c ****   if ((TIMx == TIM1) || (TIMx == TIM8))  
 619              		.loc 1 317 0
 620 01ec 7A68     		ldr	r2, [r7, #4]
 621 01ee 4FF00003 		mov	r3, #0
 622 01f2 C4F20103 		movt	r3, 16385
 623 01f6 9A42     		cmp	r2, r3
 624 01f8 06D0     		beq	.L24
 625              		.loc 1 317 0 is_stmt 0 discriminator 1
 626 01fa 7A68     		ldr	r2, [r7, #4]
 627 01fc 4FF48063 		mov	r3, #1024
 628 0200 C4F20103 		movt	r3, 16385
 629 0204 9A42     		cmp	r2, r3
 630 0206 04D1     		bne	.L25
 631              	.L24:
 318:App/STM32F4-Discovery/Libraries/STM32F4xx_StdPeriph_Driver/src/stm32f4xx_tim.c ****   {
 319:App/STM32F4-Discovery/Libraries/STM32F4xx_StdPeriph_Driver/src/stm32f4xx_tim.c ****     /* Set the Repetition Counter value */
 320:App/STM32F4-Discovery/Libraries/STM32F4xx_StdPeriph_Driver/src/stm32f4xx_tim.c ****     TIMx->RCR = TIM_TimeBaseInitStruct->TIM_RepetitionCounter;
 632              		.loc 1 320 0 is_stmt 1
 633 0208 3B68     		ldr	r3, [r7, #0]
 634 020a 9B7A     		ldrb	r3, [r3, #10]	@ zero_extendqisi2
 635 020c 1A46     		mov	r2, r3
 636 020e 7B68     		ldr	r3, [r7, #4]
 637 0210 1A86     		strh	r2, [r3, #48]	@ movhi
 638              	.L25:
 321:App/STM32F4-Discovery/Libraries/STM32F4xx_StdPeriph_Driver/src/stm32f4xx_tim.c ****   }
 322:App/STM32F4-Discovery/Libraries/STM32F4xx_StdPeriph_Driver/src/stm32f4xx_tim.c **** 
 323:App/STM32F4-Discovery/Libraries/STM32F4xx_StdPeriph_Driver/src/stm32f4xx_tim.c ****   /* Generate an update event to reload the Prescaler 
 324:App/STM32F4-Discovery/Libraries/STM32F4xx_StdPeriph_Driver/src/stm32f4xx_tim.c ****      and the repetition counter(only for TIM1 and TIM8) value immediatly */
 325:App/STM32F4-Discovery/Libraries/STM32F4xx_StdPeriph_Driver/src/stm32f4xx_tim.c ****   TIMx->EGR = TIM_PSCReloadMode_Immediate;          
 639              		.loc 1 325 0
 640 0212 7B68     		ldr	r3, [r7, #4]
 641 0214 4FF00102 		mov	r2, #1
 642 0218 9A82     		strh	r2, [r3, #20]	@ movhi
 326:App/STM32F4-Discovery/Libraries/STM32F4xx_StdPeriph_Driver/src/stm32f4xx_tim.c **** }
 643              		.loc 1 326 0
 644 021a 07F11007 		add	r7, r7, #16
 645 021e BD46     		mov	sp, r7
 646 0220 80BD     		pop	{r7, pc}
 647              		.cfi_endproc
 648              	.LFE111:
 650 0222 00BF     		.section	.text.TIM_TimeBaseStructInit,"ax",%progbits
 651              		.align	2
 652              		.global	TIM_TimeBaseStructInit
 653              		.thumb
 654              		.thumb_func
 656              	TIM_TimeBaseStructInit:
 657              	.LFB112:
 327:App/STM32F4-Discovery/Libraries/STM32F4xx_StdPeriph_Driver/src/stm32f4xx_tim.c **** 
 328:App/STM32F4-Discovery/Libraries/STM32F4xx_StdPeriph_Driver/src/stm32f4xx_tim.c **** /**
 329:App/STM32F4-Discovery/Libraries/STM32F4xx_StdPeriph_Driver/src/stm32f4xx_tim.c ****   * @brief  Fills each TIM_TimeBaseInitStruct member with its default value.
 330:App/STM32F4-Discovery/Libraries/STM32F4xx_StdPeriph_Driver/src/stm32f4xx_tim.c ****   * @param  TIM_TimeBaseInitStruct : pointer to a TIM_TimeBaseInitTypeDef
 331:App/STM32F4-Discovery/Libraries/STM32F4xx_StdPeriph_Driver/src/stm32f4xx_tim.c ****   *         structure which will be initialized.
 332:App/STM32F4-Discovery/Libraries/STM32F4xx_StdPeriph_Driver/src/stm32f4xx_tim.c ****   * @retval None
 333:App/STM32F4-Discovery/Libraries/STM32F4xx_StdPeriph_Driver/src/stm32f4xx_tim.c ****   */
 334:App/STM32F4-Discovery/Libraries/STM32F4xx_StdPeriph_Driver/src/stm32f4xx_tim.c **** void TIM_TimeBaseStructInit(TIM_TimeBaseInitTypeDef* TIM_TimeBaseInitStruct)
 335:App/STM32F4-Discovery/Libraries/STM32F4xx_StdPeriph_Driver/src/stm32f4xx_tim.c **** {
 658              		.loc 1 335 0
 659              		.cfi_startproc
 660              		@ args = 0, pretend = 0, frame = 8
 661              		@ frame_needed = 1, uses_anonymous_args = 0
 662              		@ link register save eliminated.
 663 0000 80B4     		push	{r7}
 664              	.LCFI6:
 665              		.cfi_def_cfa_offset 4
 666              		.cfi_offset 7, -4
 667 0002 83B0     		sub	sp, sp, #12
 668              	.LCFI7:
 669              		.cfi_def_cfa_offset 16
 670 0004 00AF     		add	r7, sp, #0
 671              	.LCFI8:
 672              		.cfi_def_cfa_register 7
 673 0006 7860     		str	r0, [r7, #4]
 336:App/STM32F4-Discovery/Libraries/STM32F4xx_StdPeriph_Driver/src/stm32f4xx_tim.c ****   /* Set the default configuration */
 337:App/STM32F4-Discovery/Libraries/STM32F4xx_StdPeriph_Driver/src/stm32f4xx_tim.c ****   TIM_TimeBaseInitStruct->TIM_Period = 0xFFFFFFFF;
 674              		.loc 1 337 0
 675 0008 7B68     		ldr	r3, [r7, #4]
 676 000a 4FF0FF32 		mov	r2, #-1
 677 000e 5A60     		str	r2, [r3, #4]
 338:App/STM32F4-Discovery/Libraries/STM32F4xx_StdPeriph_Driver/src/stm32f4xx_tim.c ****   TIM_TimeBaseInitStruct->TIM_Prescaler = 0x0000;
 678              		.loc 1 338 0
 679 0010 7B68     		ldr	r3, [r7, #4]
 680 0012 4FF00002 		mov	r2, #0
 681 0016 1A80     		strh	r2, [r3, #0]	@ movhi
 339:App/STM32F4-Discovery/Libraries/STM32F4xx_StdPeriph_Driver/src/stm32f4xx_tim.c ****   TIM_TimeBaseInitStruct->TIM_ClockDivision = TIM_CKD_DIV1;
 682              		.loc 1 339 0
 683 0018 7B68     		ldr	r3, [r7, #4]
 684 001a 4FF00002 		mov	r2, #0
 685 001e 1A81     		strh	r2, [r3, #8]	@ movhi
 340:App/STM32F4-Discovery/Libraries/STM32F4xx_StdPeriph_Driver/src/stm32f4xx_tim.c ****   TIM_TimeBaseInitStruct->TIM_CounterMode = TIM_CounterMode_Up;
 686              		.loc 1 340 0
 687 0020 7B68     		ldr	r3, [r7, #4]
 688 0022 4FF00002 		mov	r2, #0
 689 0026 5A80     		strh	r2, [r3, #2]	@ movhi
 341:App/STM32F4-Discovery/Libraries/STM32F4xx_StdPeriph_Driver/src/stm32f4xx_tim.c ****   TIM_TimeBaseInitStruct->TIM_RepetitionCounter = 0x0000;
 690              		.loc 1 341 0
 691 0028 7B68     		ldr	r3, [r7, #4]
 692 002a 4FF00002 		mov	r2, #0
 693 002e 9A72     		strb	r2, [r3, #10]
 342:App/STM32F4-Discovery/Libraries/STM32F4xx_StdPeriph_Driver/src/stm32f4xx_tim.c **** }
 694              		.loc 1 342 0
 695 0030 07F10C07 		add	r7, r7, #12
 696 0034 BD46     		mov	sp, r7
 697 0036 80BC     		pop	{r7}
 698 0038 7047     		bx	lr
 699              		.cfi_endproc
 700              	.LFE112:
 702 003a 00BF     		.section	.text.TIM_PrescalerConfig,"ax",%progbits
 703              		.align	2
 704              		.global	TIM_PrescalerConfig
 705              		.thumb
 706              		.thumb_func
 708              	TIM_PrescalerConfig:
 709              	.LFB113:
 343:App/STM32F4-Discovery/Libraries/STM32F4xx_StdPeriph_Driver/src/stm32f4xx_tim.c **** 
 344:App/STM32F4-Discovery/Libraries/STM32F4xx_StdPeriph_Driver/src/stm32f4xx_tim.c **** /**
 345:App/STM32F4-Discovery/Libraries/STM32F4xx_StdPeriph_Driver/src/stm32f4xx_tim.c ****   * @brief  Configures the TIMx Prescaler.
 346:App/STM32F4-Discovery/Libraries/STM32F4xx_StdPeriph_Driver/src/stm32f4xx_tim.c ****   * @param  TIMx: where x can be  1 to 14 to select the TIM peripheral.
 347:App/STM32F4-Discovery/Libraries/STM32F4xx_StdPeriph_Driver/src/stm32f4xx_tim.c ****   * @param  Prescaler: specifies the Prescaler Register value
 348:App/STM32F4-Discovery/Libraries/STM32F4xx_StdPeriph_Driver/src/stm32f4xx_tim.c ****   * @param  TIM_PSCReloadMode: specifies the TIM Prescaler Reload mode
 349:App/STM32F4-Discovery/Libraries/STM32F4xx_StdPeriph_Driver/src/stm32f4xx_tim.c ****   *          This parameter can be one of the following values:
 350:App/STM32F4-Discovery/Libraries/STM32F4xx_StdPeriph_Driver/src/stm32f4xx_tim.c ****   *            @arg TIM_PSCReloadMode_Update: The Prescaler is loaded at the update event.
 351:App/STM32F4-Discovery/Libraries/STM32F4xx_StdPeriph_Driver/src/stm32f4xx_tim.c ****   *            @arg TIM_PSCReloadMode_Immediate: The Prescaler is loaded immediatly.
 352:App/STM32F4-Discovery/Libraries/STM32F4xx_StdPeriph_Driver/src/stm32f4xx_tim.c ****   * @retval None
 353:App/STM32F4-Discovery/Libraries/STM32F4xx_StdPeriph_Driver/src/stm32f4xx_tim.c ****   */
 354:App/STM32F4-Discovery/Libraries/STM32F4xx_StdPeriph_Driver/src/stm32f4xx_tim.c **** void TIM_PrescalerConfig(TIM_TypeDef* TIMx, uint16_t Prescaler, uint16_t TIM_PSCReloadMode)
 355:App/STM32F4-Discovery/Libraries/STM32F4xx_StdPeriph_Driver/src/stm32f4xx_tim.c **** {
 710              		.loc 1 355 0
 711              		.cfi_startproc
 712              		@ args = 0, pretend = 0, frame = 8
 713              		@ frame_needed = 1, uses_anonymous_args = 0
 714 0000 80B5     		push	{r7, lr}
 715              	.LCFI9:
 716              		.cfi_def_cfa_offset 8
 717              		.cfi_offset 7, -8
 718              		.cfi_offset 14, -4
 719 0002 82B0     		sub	sp, sp, #8
 720              	.LCFI10:
 721              		.cfi_def_cfa_offset 16
 722 0004 00AF     		add	r7, sp, #0
 723              	.LCFI11:
 724              		.cfi_def_cfa_register 7
 725 0006 7860     		str	r0, [r7, #4]
 726 0008 1346     		mov	r3, r2
 727 000a 0A46     		mov	r2, r1	@ movhi
 728 000c 7A80     		strh	r2, [r7, #2]	@ movhi
 729 000e 3B80     		strh	r3, [r7, #0]	@ movhi
 356:App/STM32F4-Discovery/Libraries/STM32F4xx_StdPeriph_Driver/src/stm32f4xx_tim.c ****   /* Check the parameters */
 357:App/STM32F4-Discovery/Libraries/STM32F4xx_StdPeriph_Driver/src/stm32f4xx_tim.c ****   assert_param(IS_TIM_ALL_PERIPH(TIMx));
 730              		.loc 1 357 0
 731 0010 7A68     		ldr	r2, [r7, #4]
 732 0012 4FF00003 		mov	r3, #0
 733 0016 C4F20103 		movt	r3, 16385
 734 001a 9A42     		cmp	r2, r3
 735 001c 5FD0     		beq	.L28
 736              		.loc 1 357 0 is_stmt 0 discriminator 1
 737 001e 7B68     		ldr	r3, [r7, #4]
 738 0020 B3F1804F 		cmp	r3, #1073741824
 739 0024 5BD0     		beq	.L28
 740              		.loc 1 357 0 discriminator 2
 741 0026 7A68     		ldr	r2, [r7, #4]
 742 0028 4FF48063 		mov	r3, #1024
 743 002c C4F20003 		movt	r3, 16384
 744 0030 9A42     		cmp	r2, r3
 745 0032 54D0     		beq	.L28
 746              		.loc 1 357 0 discriminator 3
 747 0034 7A68     		ldr	r2, [r7, #4]
 748 0036 4FF40063 		mov	r3, #2048
 749 003a C4F20003 		movt	r3, 16384
 750 003e 9A42     		cmp	r2, r3
 751 0040 4DD0     		beq	.L28
 752              		.loc 1 357 0 discriminator 4
 753 0042 7A68     		ldr	r2, [r7, #4]
 754 0044 4FF44063 		mov	r3, #3072
 755 0048 C4F20003 		movt	r3, 16384
 756 004c 9A42     		cmp	r2, r3
 757 004e 46D0     		beq	.L28
 758              		.loc 1 357 0 discriminator 5
 759 0050 7A68     		ldr	r2, [r7, #4]
 760 0052 4FF48053 		mov	r3, #4096
 761 0056 C4F20003 		movt	r3, 16384
 762 005a 9A42     		cmp	r2, r3
 763 005c 3FD0     		beq	.L28
 764              		.loc 1 357 0 discriminator 6
 765 005e 7A68     		ldr	r2, [r7, #4]
 766 0060 4FF4A053 		mov	r3, #5120
 767 0064 C4F20003 		movt	r3, 16384
 768 0068 9A42     		cmp	r2, r3
 769 006a 38D0     		beq	.L28
 770              		.loc 1 357 0 discriminator 7
 771 006c 7A68     		ldr	r2, [r7, #4]
 772 006e 4FF48063 		mov	r3, #1024
 773 0072 C4F20103 		movt	r3, 16385
 774 0076 9A42     		cmp	r2, r3
 775 0078 31D0     		beq	.L28
 776              		.loc 1 357 0 discriminator 8
 777 007a 7A68     		ldr	r2, [r7, #4]
 778 007c 4FF48043 		mov	r3, #16384
 779 0080 C4F20103 		movt	r3, 16385
 780 0084 9A42     		cmp	r2, r3
 781 0086 2AD0     		beq	.L28
 782              		.loc 1 357 0 discriminator 9
 783 0088 7A68     		ldr	r2, [r7, #4]
 784 008a 4FF48843 		mov	r3, #17408
 785 008e C4F20103 		movt	r3, 16385
 786 0092 9A42     		cmp	r2, r3
 787 0094 23D0     		beq	.L28
 788              		.loc 1 357 0 discriminator 10
 789 0096 7A68     		ldr	r2, [r7, #4]
 790 0098 4FF49043 		mov	r3, #18432
 791 009c C4F20103 		movt	r3, 16385
 792 00a0 9A42     		cmp	r2, r3
 793 00a2 1CD0     		beq	.L28
 794              		.loc 1 357 0 discriminator 11
 795 00a4 7A68     		ldr	r2, [r7, #4]
 796 00a6 4FF4C053 		mov	r3, #6144
 797 00aa C4F20003 		movt	r3, 16384
 798 00ae 9A42     		cmp	r2, r3
 799 00b0 15D0     		beq	.L28
 800              		.loc 1 357 0 discriminator 12
 801 00b2 7A68     		ldr	r2, [r7, #4]
 802 00b4 4FF4E053 		mov	r3, #7168
 803 00b8 C4F20003 		movt	r3, 16384
 804 00bc 9A42     		cmp	r2, r3
 805 00be 0ED0     		beq	.L28
 806              		.loc 1 357 0 discriminator 13
 807 00c0 7A68     		ldr	r2, [r7, #4]
 808 00c2 4FF40053 		mov	r3, #8192
 809 00c6 C4F20003 		movt	r3, 16384
 810 00ca 9A42     		cmp	r2, r3
 811 00cc 07D0     		beq	.L28
 812              		.loc 1 357 0 discriminator 14
 813 00ce 40F20000 		movw	r0, #:lower16:.LC0
 814 00d2 C0F20000 		movt	r0, #:upper16:.LC0
 815 00d6 40F26511 		movw	r1, #357
 816 00da FFF7FEFF 		bl	assert_failed
 817              	.L28:
 358:App/STM32F4-Discovery/Libraries/STM32F4xx_StdPeriph_Driver/src/stm32f4xx_tim.c ****   assert_param(IS_TIM_PRESCALER_RELOAD(TIM_PSCReloadMode));
 818              		.loc 1 358 0 is_stmt 1
 819 00de 3B88     		ldrh	r3, [r7, #0]
 820 00e0 002B     		cmp	r3, #0
 821 00e2 0AD0     		beq	.L29
 822              		.loc 1 358 0 is_stmt 0 discriminator 1
 823 00e4 3B88     		ldrh	r3, [r7, #0]
 824 00e6 012B     		cmp	r3, #1
 825 00e8 07D0     		beq	.L29
 826              		.loc 1 358 0 discriminator 2
 827 00ea 40F20000 		movw	r0, #:lower16:.LC0
 828 00ee C0F20000 		movt	r0, #:upper16:.LC0
 829 00f2 4FF4B371 		mov	r1, #358
 830 00f6 FFF7FEFF 		bl	assert_failed
 831              	.L29:
 359:App/STM32F4-Discovery/Libraries/STM32F4xx_StdPeriph_Driver/src/stm32f4xx_tim.c ****   /* Set the Prescaler value */
 360:App/STM32F4-Discovery/Libraries/STM32F4xx_StdPeriph_Driver/src/stm32f4xx_tim.c ****   TIMx->PSC = Prescaler;
 832              		.loc 1 360 0 is_stmt 1
 833 00fa 7B68     		ldr	r3, [r7, #4]
 834 00fc 7A88     		ldrh	r2, [r7, #2]	@ movhi
 835 00fe 1A85     		strh	r2, [r3, #40]	@ movhi
 361:App/STM32F4-Discovery/Libraries/STM32F4xx_StdPeriph_Driver/src/stm32f4xx_tim.c ****   /* Set or reset the UG Bit */
 362:App/STM32F4-Discovery/Libraries/STM32F4xx_StdPeriph_Driver/src/stm32f4xx_tim.c ****   TIMx->EGR = TIM_PSCReloadMode;
 836              		.loc 1 362 0
 837 0100 7B68     		ldr	r3, [r7, #4]
 838 0102 3A88     		ldrh	r2, [r7, #0]	@ movhi
 839 0104 9A82     		strh	r2, [r3, #20]	@ movhi
 363:App/STM32F4-Discovery/Libraries/STM32F4xx_StdPeriph_Driver/src/stm32f4xx_tim.c **** }
 840              		.loc 1 363 0
 841 0106 07F10807 		add	r7, r7, #8
 842 010a BD46     		mov	sp, r7
 843 010c 80BD     		pop	{r7, pc}
 844              		.cfi_endproc
 845              	.LFE113:
 847 010e 00BF     		.section	.text.TIM_CounterModeConfig,"ax",%progbits
 848              		.align	2
 849              		.global	TIM_CounterModeConfig
 850              		.thumb
 851              		.thumb_func
 853              	TIM_CounterModeConfig:
 854              	.LFB114:
 364:App/STM32F4-Discovery/Libraries/STM32F4xx_StdPeriph_Driver/src/stm32f4xx_tim.c **** 
 365:App/STM32F4-Discovery/Libraries/STM32F4xx_StdPeriph_Driver/src/stm32f4xx_tim.c **** /**
 366:App/STM32F4-Discovery/Libraries/STM32F4xx_StdPeriph_Driver/src/stm32f4xx_tim.c ****   * @brief  Specifies the TIMx Counter Mode to be used.
 367:App/STM32F4-Discovery/Libraries/STM32F4xx_StdPeriph_Driver/src/stm32f4xx_tim.c ****   * @param  TIMx: where x can be  1, 2, 3, 4, 5 or 8 to select the TIM peripheral.
 368:App/STM32F4-Discovery/Libraries/STM32F4xx_StdPeriph_Driver/src/stm32f4xx_tim.c ****   * @param  TIM_CounterMode: specifies the Counter Mode to be used
 369:App/STM32F4-Discovery/Libraries/STM32F4xx_StdPeriph_Driver/src/stm32f4xx_tim.c ****   *          This parameter can be one of the following values:
 370:App/STM32F4-Discovery/Libraries/STM32F4xx_StdPeriph_Driver/src/stm32f4xx_tim.c ****   *            @arg TIM_CounterMode_Up: TIM Up Counting Mode
 371:App/STM32F4-Discovery/Libraries/STM32F4xx_StdPeriph_Driver/src/stm32f4xx_tim.c ****   *            @arg TIM_CounterMode_Down: TIM Down Counting Mode
 372:App/STM32F4-Discovery/Libraries/STM32F4xx_StdPeriph_Driver/src/stm32f4xx_tim.c ****   *            @arg TIM_CounterMode_CenterAligned1: TIM Center Aligned Mode1
 373:App/STM32F4-Discovery/Libraries/STM32F4xx_StdPeriph_Driver/src/stm32f4xx_tim.c ****   *            @arg TIM_CounterMode_CenterAligned2: TIM Center Aligned Mode2
 374:App/STM32F4-Discovery/Libraries/STM32F4xx_StdPeriph_Driver/src/stm32f4xx_tim.c ****   *            @arg TIM_CounterMode_CenterAligned3: TIM Center Aligned Mode3
 375:App/STM32F4-Discovery/Libraries/STM32F4xx_StdPeriph_Driver/src/stm32f4xx_tim.c ****   * @retval None
 376:App/STM32F4-Discovery/Libraries/STM32F4xx_StdPeriph_Driver/src/stm32f4xx_tim.c ****   */
 377:App/STM32F4-Discovery/Libraries/STM32F4xx_StdPeriph_Driver/src/stm32f4xx_tim.c **** void TIM_CounterModeConfig(TIM_TypeDef* TIMx, uint16_t TIM_CounterMode)
 378:App/STM32F4-Discovery/Libraries/STM32F4xx_StdPeriph_Driver/src/stm32f4xx_tim.c **** {
 855              		.loc 1 378 0
 856              		.cfi_startproc
 857              		@ args = 0, pretend = 0, frame = 16
 858              		@ frame_needed = 1, uses_anonymous_args = 0
 859 0000 80B5     		push	{r7, lr}
 860              	.LCFI12:
 861              		.cfi_def_cfa_offset 8
 862              		.cfi_offset 7, -8
 863              		.cfi_offset 14, -4
 864 0002 84B0     		sub	sp, sp, #16
 865              	.LCFI13:
 866              		.cfi_def_cfa_offset 24
 867 0004 00AF     		add	r7, sp, #0
 868              	.LCFI14:
 869              		.cfi_def_cfa_register 7
 870 0006 7860     		str	r0, [r7, #4]
 871 0008 0B46     		mov	r3, r1
 872 000a 7B80     		strh	r3, [r7, #2]	@ movhi
 379:App/STM32F4-Discovery/Libraries/STM32F4xx_StdPeriph_Driver/src/stm32f4xx_tim.c ****   uint16_t tmpcr1 = 0;
 873              		.loc 1 379 0
 874 000c 4FF00003 		mov	r3, #0
 875 0010 FB81     		strh	r3, [r7, #14]	@ movhi
 380:App/STM32F4-Discovery/Libraries/STM32F4xx_StdPeriph_Driver/src/stm32f4xx_tim.c **** 
 381:App/STM32F4-Discovery/Libraries/STM32F4xx_StdPeriph_Driver/src/stm32f4xx_tim.c ****   /* Check the parameters */
 382:App/STM32F4-Discovery/Libraries/STM32F4xx_StdPeriph_Driver/src/stm32f4xx_tim.c ****   assert_param(IS_TIM_LIST3_PERIPH(TIMx));
 876              		.loc 1 382 0
 877 0012 7A68     		ldr	r2, [r7, #4]
 878 0014 4FF00003 		mov	r3, #0
 879 0018 C4F20103 		movt	r3, 16385
 880 001c 9A42     		cmp	r2, r3
 881 001e 27D0     		beq	.L31
 882              		.loc 1 382 0 is_stmt 0 discriminator 1
 883 0020 7B68     		ldr	r3, [r7, #4]
 884 0022 B3F1804F 		cmp	r3, #1073741824
 885 0026 23D0     		beq	.L31
 886              		.loc 1 382 0 discriminator 2
 887 0028 7A68     		ldr	r2, [r7, #4]
 888 002a 4FF48063 		mov	r3, #1024
 889 002e C4F20003 		movt	r3, 16384
 890 0032 9A42     		cmp	r2, r3
 891 0034 1CD0     		beq	.L31
 892              		.loc 1 382 0 discriminator 3
 893 0036 7A68     		ldr	r2, [r7, #4]
 894 0038 4FF40063 		mov	r3, #2048
 895 003c C4F20003 		movt	r3, 16384
 896 0040 9A42     		cmp	r2, r3
 897 0042 15D0     		beq	.L31
 898              		.loc 1 382 0 discriminator 4
 899 0044 7A68     		ldr	r2, [r7, #4]
 900 0046 4FF44063 		mov	r3, #3072
 901 004a C4F20003 		movt	r3, 16384
 902 004e 9A42     		cmp	r2, r3
 903 0050 0ED0     		beq	.L31
 904              		.loc 1 382 0 discriminator 5
 905 0052 7A68     		ldr	r2, [r7, #4]
 906 0054 4FF48063 		mov	r3, #1024
 907 0058 C4F20103 		movt	r3, 16385
 908 005c 9A42     		cmp	r2, r3
 909 005e 07D0     		beq	.L31
 910              		.loc 1 382 0 discriminator 6
 911 0060 40F20000 		movw	r0, #:lower16:.LC0
 912 0064 C0F20000 		movt	r0, #:upper16:.LC0
 913 0068 4FF4BF71 		mov	r1, #382
 914 006c FFF7FEFF 		bl	assert_failed
 915              	.L31:
 383:App/STM32F4-Discovery/Libraries/STM32F4xx_StdPeriph_Driver/src/stm32f4xx_tim.c ****   assert_param(IS_TIM_COUNTER_MODE(TIM_CounterMode));
 916              		.loc 1 383 0 is_stmt 1
 917 0070 7B88     		ldrh	r3, [r7, #2]
 918 0072 002B     		cmp	r3, #0
 919 0074 13D0     		beq	.L32
 920              		.loc 1 383 0 is_stmt 0 discriminator 1
 921 0076 7B88     		ldrh	r3, [r7, #2]
 922 0078 102B     		cmp	r3, #16
 923 007a 10D0     		beq	.L32
 924              		.loc 1 383 0 discriminator 2
 925 007c 7B88     		ldrh	r3, [r7, #2]
 926 007e 202B     		cmp	r3, #32
 927 0080 0DD0     		beq	.L32
 928              		.loc 1 383 0 discriminator 3
 929 0082 7B88     		ldrh	r3, [r7, #2]
 930 0084 402B     		cmp	r3, #64
 931 0086 0AD0     		beq	.L32
 932              		.loc 1 383 0 discriminator 4
 933 0088 7B88     		ldrh	r3, [r7, #2]
 934 008a 602B     		cmp	r3, #96
 935 008c 07D0     		beq	.L32
 936              		.loc 1 383 0 discriminator 5
 937 008e 40F20000 		movw	r0, #:lower16:.LC0
 938 0092 C0F20000 		movt	r0, #:upper16:.LC0
 939 0096 40F27F11 		movw	r1, #383
 940 009a FFF7FEFF 		bl	assert_failed
 941              	.L32:
 384:App/STM32F4-Discovery/Libraries/STM32F4xx_StdPeriph_Driver/src/stm32f4xx_tim.c **** 
 385:App/STM32F4-Discovery/Libraries/STM32F4xx_StdPeriph_Driver/src/stm32f4xx_tim.c ****   tmpcr1 = TIMx->CR1;
 942              		.loc 1 385 0 is_stmt 1
 943 009e 7B68     		ldr	r3, [r7, #4]
 944 00a0 1B88     		ldrh	r3, [r3, #0]	@ movhi
 945 00a2 FB81     		strh	r3, [r7, #14]	@ movhi
 386:App/STM32F4-Discovery/Libraries/STM32F4xx_StdPeriph_Driver/src/stm32f4xx_tim.c **** 
 387:App/STM32F4-Discovery/Libraries/STM32F4xx_StdPeriph_Driver/src/stm32f4xx_tim.c ****   /* Reset the CMS and DIR Bits */
 388:App/STM32F4-Discovery/Libraries/STM32F4xx_StdPeriph_Driver/src/stm32f4xx_tim.c ****   tmpcr1 &= (uint16_t)~(TIM_CR1_DIR | TIM_CR1_CMS);
 946              		.loc 1 388 0
 947 00a4 FB89     		ldrh	r3, [r7, #14]	@ movhi
 948 00a6 23F07003 		bic	r3, r3, #112
 949 00aa FB81     		strh	r3, [r7, #14]	@ movhi
 389:App/STM32F4-Discovery/Libraries/STM32F4xx_StdPeriph_Driver/src/stm32f4xx_tim.c **** 
 390:App/STM32F4-Discovery/Libraries/STM32F4xx_StdPeriph_Driver/src/stm32f4xx_tim.c ****   /* Set the Counter Mode */
 391:App/STM32F4-Discovery/Libraries/STM32F4xx_StdPeriph_Driver/src/stm32f4xx_tim.c ****   tmpcr1 |= TIM_CounterMode;
 950              		.loc 1 391 0
 951 00ac FA89     		ldrh	r2, [r7, #14]	@ movhi
 952 00ae 7B88     		ldrh	r3, [r7, #2]	@ movhi
 953 00b0 1343     		orrs	r3, r3, r2
 954 00b2 FB81     		strh	r3, [r7, #14]	@ movhi
 392:App/STM32F4-Discovery/Libraries/STM32F4xx_StdPeriph_Driver/src/stm32f4xx_tim.c **** 
 393:App/STM32F4-Discovery/Libraries/STM32F4xx_StdPeriph_Driver/src/stm32f4xx_tim.c ****   /* Write to TIMx CR1 register */
 394:App/STM32F4-Discovery/Libraries/STM32F4xx_StdPeriph_Driver/src/stm32f4xx_tim.c ****   TIMx->CR1 = tmpcr1;
 955              		.loc 1 394 0
 956 00b4 7B68     		ldr	r3, [r7, #4]
 957 00b6 FA89     		ldrh	r2, [r7, #14]	@ movhi
 958 00b8 1A80     		strh	r2, [r3, #0]	@ movhi
 395:App/STM32F4-Discovery/Libraries/STM32F4xx_StdPeriph_Driver/src/stm32f4xx_tim.c **** }
 959              		.loc 1 395 0
 960 00ba 07F11007 		add	r7, r7, #16
 961 00be BD46     		mov	sp, r7
 962 00c0 80BD     		pop	{r7, pc}
 963              		.cfi_endproc
 964              	.LFE114:
 966 00c2 00BF     		.section	.text.TIM_SetCounter,"ax",%progbits
 967              		.align	2
 968              		.global	TIM_SetCounter
 969              		.thumb
 970              		.thumb_func
 972              	TIM_SetCounter:
 973              	.LFB115:
 396:App/STM32F4-Discovery/Libraries/STM32F4xx_StdPeriph_Driver/src/stm32f4xx_tim.c **** 
 397:App/STM32F4-Discovery/Libraries/STM32F4xx_StdPeriph_Driver/src/stm32f4xx_tim.c **** /**
 398:App/STM32F4-Discovery/Libraries/STM32F4xx_StdPeriph_Driver/src/stm32f4xx_tim.c ****   * @brief  Sets the TIMx Counter Register value
 399:App/STM32F4-Discovery/Libraries/STM32F4xx_StdPeriph_Driver/src/stm32f4xx_tim.c ****   * @param  TIMx: where x can be 1 to 14 to select the TIM peripheral.
 400:App/STM32F4-Discovery/Libraries/STM32F4xx_StdPeriph_Driver/src/stm32f4xx_tim.c ****   * @param  Counter: specifies the Counter register new value.
 401:App/STM32F4-Discovery/Libraries/STM32F4xx_StdPeriph_Driver/src/stm32f4xx_tim.c ****   * @retval None
 402:App/STM32F4-Discovery/Libraries/STM32F4xx_StdPeriph_Driver/src/stm32f4xx_tim.c ****   */
 403:App/STM32F4-Discovery/Libraries/STM32F4xx_StdPeriph_Driver/src/stm32f4xx_tim.c **** void TIM_SetCounter(TIM_TypeDef* TIMx, uint32_t Counter)
 404:App/STM32F4-Discovery/Libraries/STM32F4xx_StdPeriph_Driver/src/stm32f4xx_tim.c **** {
 974              		.loc 1 404 0
 975              		.cfi_startproc
 976              		@ args = 0, pretend = 0, frame = 8
 977              		@ frame_needed = 1, uses_anonymous_args = 0
 978 0000 80B5     		push	{r7, lr}
 979              	.LCFI15:
 980              		.cfi_def_cfa_offset 8
 981              		.cfi_offset 7, -8
 982              		.cfi_offset 14, -4
 983 0002 82B0     		sub	sp, sp, #8
 984              	.LCFI16:
 985              		.cfi_def_cfa_offset 16
 986 0004 00AF     		add	r7, sp, #0
 987              	.LCFI17:
 988              		.cfi_def_cfa_register 7
 989 0006 7860     		str	r0, [r7, #4]
 990 0008 3960     		str	r1, [r7, #0]
 405:App/STM32F4-Discovery/Libraries/STM32F4xx_StdPeriph_Driver/src/stm32f4xx_tim.c ****   /* Check the parameters */
 406:App/STM32F4-Discovery/Libraries/STM32F4xx_StdPeriph_Driver/src/stm32f4xx_tim.c ****    assert_param(IS_TIM_ALL_PERIPH(TIMx));
 991              		.loc 1 406 0
 992 000a 7A68     		ldr	r2, [r7, #4]
 993 000c 4FF00003 		mov	r3, #0
 994 0010 C4F20103 		movt	r3, 16385
 995 0014 9A42     		cmp	r2, r3
 996 0016 5FD0     		beq	.L34
 997              		.loc 1 406 0 is_stmt 0 discriminator 1
 998 0018 7B68     		ldr	r3, [r7, #4]
 999 001a B3F1804F 		cmp	r3, #1073741824
 1000 001e 5BD0     		beq	.L34
 1001              		.loc 1 406 0 discriminator 2
 1002 0020 7A68     		ldr	r2, [r7, #4]
 1003 0022 4FF48063 		mov	r3, #1024
 1004 0026 C4F20003 		movt	r3, 16384
 1005 002a 9A42     		cmp	r2, r3
 1006 002c 54D0     		beq	.L34
 1007              		.loc 1 406 0 discriminator 3
 1008 002e 7A68     		ldr	r2, [r7, #4]
 1009 0030 4FF40063 		mov	r3, #2048
 1010 0034 C4F20003 		movt	r3, 16384
 1011 0038 9A42     		cmp	r2, r3
 1012 003a 4DD0     		beq	.L34
 1013              		.loc 1 406 0 discriminator 4
 1014 003c 7A68     		ldr	r2, [r7, #4]
 1015 003e 4FF44063 		mov	r3, #3072
 1016 0042 C4F20003 		movt	r3, 16384
 1017 0046 9A42     		cmp	r2, r3
 1018 0048 46D0     		beq	.L34
 1019              		.loc 1 406 0 discriminator 5
 1020 004a 7A68     		ldr	r2, [r7, #4]
 1021 004c 4FF48053 		mov	r3, #4096
 1022 0050 C4F20003 		movt	r3, 16384
 1023 0054 9A42     		cmp	r2, r3
 1024 0056 3FD0     		beq	.L34
 1025              		.loc 1 406 0 discriminator 6
 1026 0058 7A68     		ldr	r2, [r7, #4]
 1027 005a 4FF4A053 		mov	r3, #5120
 1028 005e C4F20003 		movt	r3, 16384
 1029 0062 9A42     		cmp	r2, r3
 1030 0064 38D0     		beq	.L34
 1031              		.loc 1 406 0 discriminator 7
 1032 0066 7A68     		ldr	r2, [r7, #4]
 1033 0068 4FF48063 		mov	r3, #1024
 1034 006c C4F20103 		movt	r3, 16385
 1035 0070 9A42     		cmp	r2, r3
 1036 0072 31D0     		beq	.L34
 1037              		.loc 1 406 0 discriminator 8
 1038 0074 7A68     		ldr	r2, [r7, #4]
 1039 0076 4FF48043 		mov	r3, #16384
 1040 007a C4F20103 		movt	r3, 16385
 1041 007e 9A42     		cmp	r2, r3
 1042 0080 2AD0     		beq	.L34
 1043              		.loc 1 406 0 discriminator 9
 1044 0082 7A68     		ldr	r2, [r7, #4]
 1045 0084 4FF48843 		mov	r3, #17408
 1046 0088 C4F20103 		movt	r3, 16385
 1047 008c 9A42     		cmp	r2, r3
 1048 008e 23D0     		beq	.L34
 1049              		.loc 1 406 0 discriminator 10
 1050 0090 7A68     		ldr	r2, [r7, #4]
 1051 0092 4FF49043 		mov	r3, #18432
 1052 0096 C4F20103 		movt	r3, 16385
 1053 009a 9A42     		cmp	r2, r3
 1054 009c 1CD0     		beq	.L34
 1055              		.loc 1 406 0 discriminator 11
 1056 009e 7A68     		ldr	r2, [r7, #4]
 1057 00a0 4FF4C053 		mov	r3, #6144
 1058 00a4 C4F20003 		movt	r3, 16384
 1059 00a8 9A42     		cmp	r2, r3
 1060 00aa 15D0     		beq	.L34
 1061              		.loc 1 406 0 discriminator 12
 1062 00ac 7A68     		ldr	r2, [r7, #4]
 1063 00ae 4FF4E053 		mov	r3, #7168
 1064 00b2 C4F20003 		movt	r3, 16384
 1065 00b6 9A42     		cmp	r2, r3
 1066 00b8 0ED0     		beq	.L34
 1067              		.loc 1 406 0 discriminator 13
 1068 00ba 7A68     		ldr	r2, [r7, #4]
 1069 00bc 4FF40053 		mov	r3, #8192
 1070 00c0 C4F20003 		movt	r3, 16384
 1071 00c4 9A42     		cmp	r2, r3
 1072 00c6 07D0     		beq	.L34
 1073              		.loc 1 406 0 discriminator 14
 1074 00c8 40F20000 		movw	r0, #:lower16:.LC0
 1075 00cc C0F20000 		movt	r0, #:upper16:.LC0
 1076 00d0 4FF4CB71 		mov	r1, #406
 1077 00d4 FFF7FEFF 		bl	assert_failed
 1078              	.L34:
 407:App/STM32F4-Discovery/Libraries/STM32F4xx_StdPeriph_Driver/src/stm32f4xx_tim.c **** 
 408:App/STM32F4-Discovery/Libraries/STM32F4xx_StdPeriph_Driver/src/stm32f4xx_tim.c ****   /* Set the Counter Register value */
 409:App/STM32F4-Discovery/Libraries/STM32F4xx_StdPeriph_Driver/src/stm32f4xx_tim.c ****   TIMx->CNT = Counter;
 1079              		.loc 1 409 0 is_stmt 1
 1080 00d8 7B68     		ldr	r3, [r7, #4]
 1081 00da 3A68     		ldr	r2, [r7, #0]
 1082 00dc 5A62     		str	r2, [r3, #36]
 410:App/STM32F4-Discovery/Libraries/STM32F4xx_StdPeriph_Driver/src/stm32f4xx_tim.c **** }
 1083              		.loc 1 410 0
 1084 00de 07F10807 		add	r7, r7, #8
 1085 00e2 BD46     		mov	sp, r7
 1086 00e4 80BD     		pop	{r7, pc}
 1087              		.cfi_endproc
 1088              	.LFE115:
 1090 00e6 00BF     		.section	.text.TIM_SetAutoreload,"ax",%progbits
 1091              		.align	2
 1092              		.global	TIM_SetAutoreload
 1093              		.thumb
 1094              		.thumb_func
 1096              	TIM_SetAutoreload:
 1097              	.LFB116:
 411:App/STM32F4-Discovery/Libraries/STM32F4xx_StdPeriph_Driver/src/stm32f4xx_tim.c **** 
 412:App/STM32F4-Discovery/Libraries/STM32F4xx_StdPeriph_Driver/src/stm32f4xx_tim.c **** /**
 413:App/STM32F4-Discovery/Libraries/STM32F4xx_StdPeriph_Driver/src/stm32f4xx_tim.c ****   * @brief  Sets the TIMx Autoreload Register value
 414:App/STM32F4-Discovery/Libraries/STM32F4xx_StdPeriph_Driver/src/stm32f4xx_tim.c ****   * @param  TIMx: where x can be 1 to 14 to select the TIM peripheral.
 415:App/STM32F4-Discovery/Libraries/STM32F4xx_StdPeriph_Driver/src/stm32f4xx_tim.c ****   * @param  Autoreload: specifies the Autoreload register new value.
 416:App/STM32F4-Discovery/Libraries/STM32F4xx_StdPeriph_Driver/src/stm32f4xx_tim.c ****   * @retval None
 417:App/STM32F4-Discovery/Libraries/STM32F4xx_StdPeriph_Driver/src/stm32f4xx_tim.c ****   */
 418:App/STM32F4-Discovery/Libraries/STM32F4xx_StdPeriph_Driver/src/stm32f4xx_tim.c **** void TIM_SetAutoreload(TIM_TypeDef* TIMx, uint32_t Autoreload)
 419:App/STM32F4-Discovery/Libraries/STM32F4xx_StdPeriph_Driver/src/stm32f4xx_tim.c **** {
 1098              		.loc 1 419 0
 1099              		.cfi_startproc
 1100              		@ args = 0, pretend = 0, frame = 8
 1101              		@ frame_needed = 1, uses_anonymous_args = 0
 1102 0000 80B5     		push	{r7, lr}
 1103              	.LCFI18:
 1104              		.cfi_def_cfa_offset 8
 1105              		.cfi_offset 7, -8
 1106              		.cfi_offset 14, -4
 1107 0002 82B0     		sub	sp, sp, #8
 1108              	.LCFI19:
 1109              		.cfi_def_cfa_offset 16
 1110 0004 00AF     		add	r7, sp, #0
 1111              	.LCFI20:
 1112              		.cfi_def_cfa_register 7
 1113 0006 7860     		str	r0, [r7, #4]
 1114 0008 3960     		str	r1, [r7, #0]
 420:App/STM32F4-Discovery/Libraries/STM32F4xx_StdPeriph_Driver/src/stm32f4xx_tim.c ****   /* Check the parameters */
 421:App/STM32F4-Discovery/Libraries/STM32F4xx_StdPeriph_Driver/src/stm32f4xx_tim.c ****   assert_param(IS_TIM_ALL_PERIPH(TIMx));
 1115              		.loc 1 421 0
 1116 000a 7A68     		ldr	r2, [r7, #4]
 1117 000c 4FF00003 		mov	r3, #0
 1118 0010 C4F20103 		movt	r3, 16385
 1119 0014 9A42     		cmp	r2, r3
 1120 0016 5FD0     		beq	.L36
 1121              		.loc 1 421 0 is_stmt 0 discriminator 1
 1122 0018 7B68     		ldr	r3, [r7, #4]
 1123 001a B3F1804F 		cmp	r3, #1073741824
 1124 001e 5BD0     		beq	.L36
 1125              		.loc 1 421 0 discriminator 2
 1126 0020 7A68     		ldr	r2, [r7, #4]
 1127 0022 4FF48063 		mov	r3, #1024
 1128 0026 C4F20003 		movt	r3, 16384
 1129 002a 9A42     		cmp	r2, r3
 1130 002c 54D0     		beq	.L36
 1131              		.loc 1 421 0 discriminator 3
 1132 002e 7A68     		ldr	r2, [r7, #4]
 1133 0030 4FF40063 		mov	r3, #2048
 1134 0034 C4F20003 		movt	r3, 16384
 1135 0038 9A42     		cmp	r2, r3
 1136 003a 4DD0     		beq	.L36
 1137              		.loc 1 421 0 discriminator 4
 1138 003c 7A68     		ldr	r2, [r7, #4]
 1139 003e 4FF44063 		mov	r3, #3072
 1140 0042 C4F20003 		movt	r3, 16384
 1141 0046 9A42     		cmp	r2, r3
 1142 0048 46D0     		beq	.L36
 1143              		.loc 1 421 0 discriminator 5
 1144 004a 7A68     		ldr	r2, [r7, #4]
 1145 004c 4FF48053 		mov	r3, #4096
 1146 0050 C4F20003 		movt	r3, 16384
 1147 0054 9A42     		cmp	r2, r3
 1148 0056 3FD0     		beq	.L36
 1149              		.loc 1 421 0 discriminator 6
 1150 0058 7A68     		ldr	r2, [r7, #4]
 1151 005a 4FF4A053 		mov	r3, #5120
 1152 005e C4F20003 		movt	r3, 16384
 1153 0062 9A42     		cmp	r2, r3
 1154 0064 38D0     		beq	.L36
 1155              		.loc 1 421 0 discriminator 7
 1156 0066 7A68     		ldr	r2, [r7, #4]
 1157 0068 4FF48063 		mov	r3, #1024
 1158 006c C4F20103 		movt	r3, 16385
 1159 0070 9A42     		cmp	r2, r3
 1160 0072 31D0     		beq	.L36
 1161              		.loc 1 421 0 discriminator 8
 1162 0074 7A68     		ldr	r2, [r7, #4]
 1163 0076 4FF48043 		mov	r3, #16384
 1164 007a C4F20103 		movt	r3, 16385
 1165 007e 9A42     		cmp	r2, r3
 1166 0080 2AD0     		beq	.L36
 1167              		.loc 1 421 0 discriminator 9
 1168 0082 7A68     		ldr	r2, [r7, #4]
 1169 0084 4FF48843 		mov	r3, #17408
 1170 0088 C4F20103 		movt	r3, 16385
 1171 008c 9A42     		cmp	r2, r3
 1172 008e 23D0     		beq	.L36
 1173              		.loc 1 421 0 discriminator 10
 1174 0090 7A68     		ldr	r2, [r7, #4]
 1175 0092 4FF49043 		mov	r3, #18432
 1176 0096 C4F20103 		movt	r3, 16385
 1177 009a 9A42     		cmp	r2, r3
 1178 009c 1CD0     		beq	.L36
 1179              		.loc 1 421 0 discriminator 11
 1180 009e 7A68     		ldr	r2, [r7, #4]
 1181 00a0 4FF4C053 		mov	r3, #6144
 1182 00a4 C4F20003 		movt	r3, 16384
 1183 00a8 9A42     		cmp	r2, r3
 1184 00aa 15D0     		beq	.L36
 1185              		.loc 1 421 0 discriminator 12
 1186 00ac 7A68     		ldr	r2, [r7, #4]
 1187 00ae 4FF4E053 		mov	r3, #7168
 1188 00b2 C4F20003 		movt	r3, 16384
 1189 00b6 9A42     		cmp	r2, r3
 1190 00b8 0ED0     		beq	.L36
 1191              		.loc 1 421 0 discriminator 13
 1192 00ba 7A68     		ldr	r2, [r7, #4]
 1193 00bc 4FF40053 		mov	r3, #8192
 1194 00c0 C4F20003 		movt	r3, 16384
 1195 00c4 9A42     		cmp	r2, r3
 1196 00c6 07D0     		beq	.L36
 1197              		.loc 1 421 0 discriminator 14
 1198 00c8 40F20000 		movw	r0, #:lower16:.LC0
 1199 00cc C0F20000 		movt	r0, #:upper16:.LC0
 1200 00d0 40F2A511 		movw	r1, #421
 1201 00d4 FFF7FEFF 		bl	assert_failed
 1202              	.L36:
 422:App/STM32F4-Discovery/Libraries/STM32F4xx_StdPeriph_Driver/src/stm32f4xx_tim.c ****   
 423:App/STM32F4-Discovery/Libraries/STM32F4xx_StdPeriph_Driver/src/stm32f4xx_tim.c ****   /* Set the Autoreload Register value */
 424:App/STM32F4-Discovery/Libraries/STM32F4xx_StdPeriph_Driver/src/stm32f4xx_tim.c ****   TIMx->ARR = Autoreload;
 1203              		.loc 1 424 0 is_stmt 1
 1204 00d8 7B68     		ldr	r3, [r7, #4]
 1205 00da 3A68     		ldr	r2, [r7, #0]
 1206 00dc DA62     		str	r2, [r3, #44]
 425:App/STM32F4-Discovery/Libraries/STM32F4xx_StdPeriph_Driver/src/stm32f4xx_tim.c **** }
 1207              		.loc 1 425 0
 1208 00de 07F10807 		add	r7, r7, #8
 1209 00e2 BD46     		mov	sp, r7
 1210 00e4 80BD     		pop	{r7, pc}
 1211              		.cfi_endproc
 1212              	.LFE116:
 1214 00e6 00BF     		.section	.text.TIM_GetCounter,"ax",%progbits
 1215              		.align	2
 1216              		.global	TIM_GetCounter
 1217              		.thumb
 1218              		.thumb_func
 1220              	TIM_GetCounter:
 1221              	.LFB117:
 426:App/STM32F4-Discovery/Libraries/STM32F4xx_StdPeriph_Driver/src/stm32f4xx_tim.c **** 
 427:App/STM32F4-Discovery/Libraries/STM32F4xx_StdPeriph_Driver/src/stm32f4xx_tim.c **** /**
 428:App/STM32F4-Discovery/Libraries/STM32F4xx_StdPeriph_Driver/src/stm32f4xx_tim.c ****   * @brief  Gets the TIMx Counter value.
 429:App/STM32F4-Discovery/Libraries/STM32F4xx_StdPeriph_Driver/src/stm32f4xx_tim.c ****   * @param  TIMx: where x can be 1 to 14 to select the TIM peripheral.
 430:App/STM32F4-Discovery/Libraries/STM32F4xx_StdPeriph_Driver/src/stm32f4xx_tim.c ****   * @retval Counter Register value
 431:App/STM32F4-Discovery/Libraries/STM32F4xx_StdPeriph_Driver/src/stm32f4xx_tim.c ****   */
 432:App/STM32F4-Discovery/Libraries/STM32F4xx_StdPeriph_Driver/src/stm32f4xx_tim.c **** uint32_t TIM_GetCounter(TIM_TypeDef* TIMx)
 433:App/STM32F4-Discovery/Libraries/STM32F4xx_StdPeriph_Driver/src/stm32f4xx_tim.c **** {
 1222              		.loc 1 433 0
 1223              		.cfi_startproc
 1224              		@ args = 0, pretend = 0, frame = 8
 1225              		@ frame_needed = 1, uses_anonymous_args = 0
 1226 0000 80B5     		push	{r7, lr}
 1227              	.LCFI21:
 1228              		.cfi_def_cfa_offset 8
 1229              		.cfi_offset 7, -8
 1230              		.cfi_offset 14, -4
 1231 0002 82B0     		sub	sp, sp, #8
 1232              	.LCFI22:
 1233              		.cfi_def_cfa_offset 16
 1234 0004 00AF     		add	r7, sp, #0
 1235              	.LCFI23:
 1236              		.cfi_def_cfa_register 7
 1237 0006 7860     		str	r0, [r7, #4]
 434:App/STM32F4-Discovery/Libraries/STM32F4xx_StdPeriph_Driver/src/stm32f4xx_tim.c ****   /* Check the parameters */
 435:App/STM32F4-Discovery/Libraries/STM32F4xx_StdPeriph_Driver/src/stm32f4xx_tim.c ****   assert_param(IS_TIM_ALL_PERIPH(TIMx));
 1238              		.loc 1 435 0
 1239 0008 7A68     		ldr	r2, [r7, #4]
 1240 000a 4FF00003 		mov	r3, #0
 1241 000e C4F20103 		movt	r3, 16385
 1242 0012 9A42     		cmp	r2, r3
 1243 0014 5FD0     		beq	.L38
 1244              		.loc 1 435 0 is_stmt 0 discriminator 1
 1245 0016 7B68     		ldr	r3, [r7, #4]
 1246 0018 B3F1804F 		cmp	r3, #1073741824
 1247 001c 5BD0     		beq	.L38
 1248              		.loc 1 435 0 discriminator 2
 1249 001e 7A68     		ldr	r2, [r7, #4]
 1250 0020 4FF48063 		mov	r3, #1024
 1251 0024 C4F20003 		movt	r3, 16384
 1252 0028 9A42     		cmp	r2, r3
 1253 002a 54D0     		beq	.L38
 1254              		.loc 1 435 0 discriminator 3
 1255 002c 7A68     		ldr	r2, [r7, #4]
 1256 002e 4FF40063 		mov	r3, #2048
 1257 0032 C4F20003 		movt	r3, 16384
 1258 0036 9A42     		cmp	r2, r3
 1259 0038 4DD0     		beq	.L38
 1260              		.loc 1 435 0 discriminator 4
 1261 003a 7A68     		ldr	r2, [r7, #4]
 1262 003c 4FF44063 		mov	r3, #3072
 1263 0040 C4F20003 		movt	r3, 16384
 1264 0044 9A42     		cmp	r2, r3
 1265 0046 46D0     		beq	.L38
 1266              		.loc 1 435 0 discriminator 5
 1267 0048 7A68     		ldr	r2, [r7, #4]
 1268 004a 4FF48053 		mov	r3, #4096
 1269 004e C4F20003 		movt	r3, 16384
 1270 0052 9A42     		cmp	r2, r3
 1271 0054 3FD0     		beq	.L38
 1272              		.loc 1 435 0 discriminator 6
 1273 0056 7A68     		ldr	r2, [r7, #4]
 1274 0058 4FF4A053 		mov	r3, #5120
 1275 005c C4F20003 		movt	r3, 16384
 1276 0060 9A42     		cmp	r2, r3
 1277 0062 38D0     		beq	.L38
 1278              		.loc 1 435 0 discriminator 7
 1279 0064 7A68     		ldr	r2, [r7, #4]
 1280 0066 4FF48063 		mov	r3, #1024
 1281 006a C4F20103 		movt	r3, 16385
 1282 006e 9A42     		cmp	r2, r3
 1283 0070 31D0     		beq	.L38
 1284              		.loc 1 435 0 discriminator 8
 1285 0072 7A68     		ldr	r2, [r7, #4]
 1286 0074 4FF48043 		mov	r3, #16384
 1287 0078 C4F20103 		movt	r3, 16385
 1288 007c 9A42     		cmp	r2, r3
 1289 007e 2AD0     		beq	.L38
 1290              		.loc 1 435 0 discriminator 9
 1291 0080 7A68     		ldr	r2, [r7, #4]
 1292 0082 4FF48843 		mov	r3, #17408
 1293 0086 C4F20103 		movt	r3, 16385
 1294 008a 9A42     		cmp	r2, r3
 1295 008c 23D0     		beq	.L38
 1296              		.loc 1 435 0 discriminator 10
 1297 008e 7A68     		ldr	r2, [r7, #4]
 1298 0090 4FF49043 		mov	r3, #18432
 1299 0094 C4F20103 		movt	r3, 16385
 1300 0098 9A42     		cmp	r2, r3
 1301 009a 1CD0     		beq	.L38
 1302              		.loc 1 435 0 discriminator 11
 1303 009c 7A68     		ldr	r2, [r7, #4]
 1304 009e 4FF4C053 		mov	r3, #6144
 1305 00a2 C4F20003 		movt	r3, 16384
 1306 00a6 9A42     		cmp	r2, r3
 1307 00a8 15D0     		beq	.L38
 1308              		.loc 1 435 0 discriminator 12
 1309 00aa 7A68     		ldr	r2, [r7, #4]
 1310 00ac 4FF4E053 		mov	r3, #7168
 1311 00b0 C4F20003 		movt	r3, 16384
 1312 00b4 9A42     		cmp	r2, r3
 1313 00b6 0ED0     		beq	.L38
 1314              		.loc 1 435 0 discriminator 13
 1315 00b8 7A68     		ldr	r2, [r7, #4]
 1316 00ba 4FF40053 		mov	r3, #8192
 1317 00be C4F20003 		movt	r3, 16384
 1318 00c2 9A42     		cmp	r2, r3
 1319 00c4 07D0     		beq	.L38
 1320              		.loc 1 435 0 discriminator 14
 1321 00c6 40F20000 		movw	r0, #:lower16:.LC0
 1322 00ca C0F20000 		movt	r0, #:upper16:.LC0
 1323 00ce 40F2B311 		movw	r1, #435
 1324 00d2 FFF7FEFF 		bl	assert_failed
 1325              	.L38:
 436:App/STM32F4-Discovery/Libraries/STM32F4xx_StdPeriph_Driver/src/stm32f4xx_tim.c **** 
 437:App/STM32F4-Discovery/Libraries/STM32F4xx_StdPeriph_Driver/src/stm32f4xx_tim.c ****   /* Get the Counter Register value */
 438:App/STM32F4-Discovery/Libraries/STM32F4xx_StdPeriph_Driver/src/stm32f4xx_tim.c ****   return TIMx->CNT;
 1326              		.loc 1 438 0 is_stmt 1
 1327 00d6 7B68     		ldr	r3, [r7, #4]
 1328 00d8 5B6A     		ldr	r3, [r3, #36]
 439:App/STM32F4-Discovery/Libraries/STM32F4xx_StdPeriph_Driver/src/stm32f4xx_tim.c **** }
 1329              		.loc 1 439 0
 1330 00da 1846     		mov	r0, r3
 1331 00dc 07F10807 		add	r7, r7, #8
 1332 00e0 BD46     		mov	sp, r7
 1333 00e2 80BD     		pop	{r7, pc}
 1334              		.cfi_endproc
 1335              	.LFE117:
 1337              		.section	.text.TIM_GetPrescaler,"ax",%progbits
 1338              		.align	2
 1339              		.global	TIM_GetPrescaler
 1340              		.thumb
 1341              		.thumb_func
 1343              	TIM_GetPrescaler:
 1344              	.LFB118:
 440:App/STM32F4-Discovery/Libraries/STM32F4xx_StdPeriph_Driver/src/stm32f4xx_tim.c **** 
 441:App/STM32F4-Discovery/Libraries/STM32F4xx_StdPeriph_Driver/src/stm32f4xx_tim.c **** /**
 442:App/STM32F4-Discovery/Libraries/STM32F4xx_StdPeriph_Driver/src/stm32f4xx_tim.c ****   * @brief  Gets the TIMx Prescaler value.
 443:App/STM32F4-Discovery/Libraries/STM32F4xx_StdPeriph_Driver/src/stm32f4xx_tim.c ****   * @param  TIMx: where x can be 1 to 14 to select the TIM peripheral.
 444:App/STM32F4-Discovery/Libraries/STM32F4xx_StdPeriph_Driver/src/stm32f4xx_tim.c ****   * @retval Prescaler Register value.
 445:App/STM32F4-Discovery/Libraries/STM32F4xx_StdPeriph_Driver/src/stm32f4xx_tim.c ****   */
 446:App/STM32F4-Discovery/Libraries/STM32F4xx_StdPeriph_Driver/src/stm32f4xx_tim.c **** uint16_t TIM_GetPrescaler(TIM_TypeDef* TIMx)
 447:App/STM32F4-Discovery/Libraries/STM32F4xx_StdPeriph_Driver/src/stm32f4xx_tim.c **** {
 1345              		.loc 1 447 0
 1346              		.cfi_startproc
 1347              		@ args = 0, pretend = 0, frame = 8
 1348              		@ frame_needed = 1, uses_anonymous_args = 0
 1349 0000 80B5     		push	{r7, lr}
 1350              	.LCFI24:
 1351              		.cfi_def_cfa_offset 8
 1352              		.cfi_offset 7, -8
 1353              		.cfi_offset 14, -4
 1354 0002 82B0     		sub	sp, sp, #8
 1355              	.LCFI25:
 1356              		.cfi_def_cfa_offset 16
 1357 0004 00AF     		add	r7, sp, #0
 1358              	.LCFI26:
 1359              		.cfi_def_cfa_register 7
 1360 0006 7860     		str	r0, [r7, #4]
 448:App/STM32F4-Discovery/Libraries/STM32F4xx_StdPeriph_Driver/src/stm32f4xx_tim.c ****   /* Check the parameters */
 449:App/STM32F4-Discovery/Libraries/STM32F4xx_StdPeriph_Driver/src/stm32f4xx_tim.c ****   assert_param(IS_TIM_ALL_PERIPH(TIMx));
 1361              		.loc 1 449 0
 1362 0008 7A68     		ldr	r2, [r7, #4]
 1363 000a 4FF00003 		mov	r3, #0
 1364 000e C4F20103 		movt	r3, 16385
 1365 0012 9A42     		cmp	r2, r3
 1366 0014 5FD0     		beq	.L41
 1367              		.loc 1 449 0 is_stmt 0 discriminator 1
 1368 0016 7B68     		ldr	r3, [r7, #4]
 1369 0018 B3F1804F 		cmp	r3, #1073741824
 1370 001c 5BD0     		beq	.L41
 1371              		.loc 1 449 0 discriminator 2
 1372 001e 7A68     		ldr	r2, [r7, #4]
 1373 0020 4FF48063 		mov	r3, #1024
 1374 0024 C4F20003 		movt	r3, 16384
 1375 0028 9A42     		cmp	r2, r3
 1376 002a 54D0     		beq	.L41
 1377              		.loc 1 449 0 discriminator 3
 1378 002c 7A68     		ldr	r2, [r7, #4]
 1379 002e 4FF40063 		mov	r3, #2048
 1380 0032 C4F20003 		movt	r3, 16384
 1381 0036 9A42     		cmp	r2, r3
 1382 0038 4DD0     		beq	.L41
 1383              		.loc 1 449 0 discriminator 4
 1384 003a 7A68     		ldr	r2, [r7, #4]
 1385 003c 4FF44063 		mov	r3, #3072
 1386 0040 C4F20003 		movt	r3, 16384
 1387 0044 9A42     		cmp	r2, r3
 1388 0046 46D0     		beq	.L41
 1389              		.loc 1 449 0 discriminator 5
 1390 0048 7A68     		ldr	r2, [r7, #4]
 1391 004a 4FF48053 		mov	r3, #4096
 1392 004e C4F20003 		movt	r3, 16384
 1393 0052 9A42     		cmp	r2, r3
 1394 0054 3FD0     		beq	.L41
 1395              		.loc 1 449 0 discriminator 6
 1396 0056 7A68     		ldr	r2, [r7, #4]
 1397 0058 4FF4A053 		mov	r3, #5120
 1398 005c C4F20003 		movt	r3, 16384
 1399 0060 9A42     		cmp	r2, r3
 1400 0062 38D0     		beq	.L41
 1401              		.loc 1 449 0 discriminator 7
 1402 0064 7A68     		ldr	r2, [r7, #4]
 1403 0066 4FF48063 		mov	r3, #1024
 1404 006a C4F20103 		movt	r3, 16385
 1405 006e 9A42     		cmp	r2, r3
 1406 0070 31D0     		beq	.L41
 1407              		.loc 1 449 0 discriminator 8
 1408 0072 7A68     		ldr	r2, [r7, #4]
 1409 0074 4FF48043 		mov	r3, #16384
 1410 0078 C4F20103 		movt	r3, 16385
 1411 007c 9A42     		cmp	r2, r3
 1412 007e 2AD0     		beq	.L41
 1413              		.loc 1 449 0 discriminator 9
 1414 0080 7A68     		ldr	r2, [r7, #4]
 1415 0082 4FF48843 		mov	r3, #17408
 1416 0086 C4F20103 		movt	r3, 16385
 1417 008a 9A42     		cmp	r2, r3
 1418 008c 23D0     		beq	.L41
 1419              		.loc 1 449 0 discriminator 10
 1420 008e 7A68     		ldr	r2, [r7, #4]
 1421 0090 4FF49043 		mov	r3, #18432
 1422 0094 C4F20103 		movt	r3, 16385
 1423 0098 9A42     		cmp	r2, r3
 1424 009a 1CD0     		beq	.L41
 1425              		.loc 1 449 0 discriminator 11
 1426 009c 7A68     		ldr	r2, [r7, #4]
 1427 009e 4FF4C053 		mov	r3, #6144
 1428 00a2 C4F20003 		movt	r3, 16384
 1429 00a6 9A42     		cmp	r2, r3
 1430 00a8 15D0     		beq	.L41
 1431              		.loc 1 449 0 discriminator 12
 1432 00aa 7A68     		ldr	r2, [r7, #4]
 1433 00ac 4FF4E053 		mov	r3, #7168
 1434 00b0 C4F20003 		movt	r3, 16384
 1435 00b4 9A42     		cmp	r2, r3
 1436 00b6 0ED0     		beq	.L41
 1437              		.loc 1 449 0 discriminator 13
 1438 00b8 7A68     		ldr	r2, [r7, #4]
 1439 00ba 4FF40053 		mov	r3, #8192
 1440 00be C4F20003 		movt	r3, 16384
 1441 00c2 9A42     		cmp	r2, r3
 1442 00c4 07D0     		beq	.L41
 1443              		.loc 1 449 0 discriminator 14
 1444 00c6 40F20000 		movw	r0, #:lower16:.LC0
 1445 00ca C0F20000 		movt	r0, #:upper16:.LC0
 1446 00ce 40F2C111 		movw	r1, #449
 1447 00d2 FFF7FEFF 		bl	assert_failed
 1448              	.L41:
 450:App/STM32F4-Discovery/Libraries/STM32F4xx_StdPeriph_Driver/src/stm32f4xx_tim.c **** 
 451:App/STM32F4-Discovery/Libraries/STM32F4xx_StdPeriph_Driver/src/stm32f4xx_tim.c ****   /* Get the Prescaler Register value */
 452:App/STM32F4-Discovery/Libraries/STM32F4xx_StdPeriph_Driver/src/stm32f4xx_tim.c ****   return TIMx->PSC;
 1449              		.loc 1 452 0 is_stmt 1
 1450 00d6 7B68     		ldr	r3, [r7, #4]
 1451 00d8 1B8D     		ldrh	r3, [r3, #40]	@ movhi
 1452 00da 9BB2     		uxth	r3, r3
 453:App/STM32F4-Discovery/Libraries/STM32F4xx_StdPeriph_Driver/src/stm32f4xx_tim.c **** }
 1453              		.loc 1 453 0
 1454 00dc 1846     		mov	r0, r3
 1455 00de 07F10807 		add	r7, r7, #8
 1456 00e2 BD46     		mov	sp, r7
 1457 00e4 80BD     		pop	{r7, pc}
 1458              		.cfi_endproc
 1459              	.LFE118:
 1461 00e6 00BF     		.section	.text.TIM_UpdateDisableConfig,"ax",%progbits
 1462              		.align	2
 1463              		.global	TIM_UpdateDisableConfig
 1464              		.thumb
 1465              		.thumb_func
 1467              	TIM_UpdateDisableConfig:
 1468              	.LFB119:
 454:App/STM32F4-Discovery/Libraries/STM32F4xx_StdPeriph_Driver/src/stm32f4xx_tim.c **** 
 455:App/STM32F4-Discovery/Libraries/STM32F4xx_StdPeriph_Driver/src/stm32f4xx_tim.c **** /**
 456:App/STM32F4-Discovery/Libraries/STM32F4xx_StdPeriph_Driver/src/stm32f4xx_tim.c ****   * @brief  Enables or Disables the TIMx Update event.
 457:App/STM32F4-Discovery/Libraries/STM32F4xx_StdPeriph_Driver/src/stm32f4xx_tim.c ****   * @param  TIMx: where x can be 1 to 14 to select the TIM peripheral.
 458:App/STM32F4-Discovery/Libraries/STM32F4xx_StdPeriph_Driver/src/stm32f4xx_tim.c ****   * @param  NewState: new state of the TIMx UDIS bit
 459:App/STM32F4-Discovery/Libraries/STM32F4xx_StdPeriph_Driver/src/stm32f4xx_tim.c ****   *          This parameter can be: ENABLE or DISABLE.
 460:App/STM32F4-Discovery/Libraries/STM32F4xx_StdPeriph_Driver/src/stm32f4xx_tim.c ****   * @retval None
 461:App/STM32F4-Discovery/Libraries/STM32F4xx_StdPeriph_Driver/src/stm32f4xx_tim.c ****   */
 462:App/STM32F4-Discovery/Libraries/STM32F4xx_StdPeriph_Driver/src/stm32f4xx_tim.c **** void TIM_UpdateDisableConfig(TIM_TypeDef* TIMx, FunctionalState NewState)
 463:App/STM32F4-Discovery/Libraries/STM32F4xx_StdPeriph_Driver/src/stm32f4xx_tim.c **** {
 1469              		.loc 1 463 0
 1470              		.cfi_startproc
 1471              		@ args = 0, pretend = 0, frame = 8
 1472              		@ frame_needed = 1, uses_anonymous_args = 0
 1473 0000 80B5     		push	{r7, lr}
 1474              	.LCFI27:
 1475              		.cfi_def_cfa_offset 8
 1476              		.cfi_offset 7, -8
 1477              		.cfi_offset 14, -4
 1478 0002 82B0     		sub	sp, sp, #8
 1479              	.LCFI28:
 1480              		.cfi_def_cfa_offset 16
 1481 0004 00AF     		add	r7, sp, #0
 1482              	.LCFI29:
 1483              		.cfi_def_cfa_register 7
 1484 0006 7860     		str	r0, [r7, #4]
 1485 0008 0B46     		mov	r3, r1
 1486 000a FB70     		strb	r3, [r7, #3]
 464:App/STM32F4-Discovery/Libraries/STM32F4xx_StdPeriph_Driver/src/stm32f4xx_tim.c ****   /* Check the parameters */
 465:App/STM32F4-Discovery/Libraries/STM32F4xx_StdPeriph_Driver/src/stm32f4xx_tim.c ****   assert_param(IS_TIM_ALL_PERIPH(TIMx));
 1487              		.loc 1 465 0
 1488 000c 7A68     		ldr	r2, [r7, #4]
 1489 000e 4FF00003 		mov	r3, #0
 1490 0012 C4F20103 		movt	r3, 16385
 1491 0016 9A42     		cmp	r2, r3
 1492 0018 5FD0     		beq	.L44
 1493              		.loc 1 465 0 is_stmt 0 discriminator 1
 1494 001a 7B68     		ldr	r3, [r7, #4]
 1495 001c B3F1804F 		cmp	r3, #1073741824
 1496 0020 5BD0     		beq	.L44
 1497              		.loc 1 465 0 discriminator 2
 1498 0022 7A68     		ldr	r2, [r7, #4]
 1499 0024 4FF48063 		mov	r3, #1024
 1500 0028 C4F20003 		movt	r3, 16384
 1501 002c 9A42     		cmp	r2, r3
 1502 002e 54D0     		beq	.L44
 1503              		.loc 1 465 0 discriminator 3
 1504 0030 7A68     		ldr	r2, [r7, #4]
 1505 0032 4FF40063 		mov	r3, #2048
 1506 0036 C4F20003 		movt	r3, 16384
 1507 003a 9A42     		cmp	r2, r3
 1508 003c 4DD0     		beq	.L44
 1509              		.loc 1 465 0 discriminator 4
 1510 003e 7A68     		ldr	r2, [r7, #4]
 1511 0040 4FF44063 		mov	r3, #3072
 1512 0044 C4F20003 		movt	r3, 16384
 1513 0048 9A42     		cmp	r2, r3
 1514 004a 46D0     		beq	.L44
 1515              		.loc 1 465 0 discriminator 5
 1516 004c 7A68     		ldr	r2, [r7, #4]
 1517 004e 4FF48053 		mov	r3, #4096
 1518 0052 C4F20003 		movt	r3, 16384
 1519 0056 9A42     		cmp	r2, r3
 1520 0058 3FD0     		beq	.L44
 1521              		.loc 1 465 0 discriminator 6
 1522 005a 7A68     		ldr	r2, [r7, #4]
 1523 005c 4FF4A053 		mov	r3, #5120
 1524 0060 C4F20003 		movt	r3, 16384
 1525 0064 9A42     		cmp	r2, r3
 1526 0066 38D0     		beq	.L44
 1527              		.loc 1 465 0 discriminator 7
 1528 0068 7A68     		ldr	r2, [r7, #4]
 1529 006a 4FF48063 		mov	r3, #1024
 1530 006e C4F20103 		movt	r3, 16385
 1531 0072 9A42     		cmp	r2, r3
 1532 0074 31D0     		beq	.L44
 1533              		.loc 1 465 0 discriminator 8
 1534 0076 7A68     		ldr	r2, [r7, #4]
 1535 0078 4FF48043 		mov	r3, #16384
 1536 007c C4F20103 		movt	r3, 16385
 1537 0080 9A42     		cmp	r2, r3
 1538 0082 2AD0     		beq	.L44
 1539              		.loc 1 465 0 discriminator 9
 1540 0084 7A68     		ldr	r2, [r7, #4]
 1541 0086 4FF48843 		mov	r3, #17408
 1542 008a C4F20103 		movt	r3, 16385
 1543 008e 9A42     		cmp	r2, r3
 1544 0090 23D0     		beq	.L44
 1545              		.loc 1 465 0 discriminator 10
 1546 0092 7A68     		ldr	r2, [r7, #4]
 1547 0094 4FF49043 		mov	r3, #18432
 1548 0098 C4F20103 		movt	r3, 16385
 1549 009c 9A42     		cmp	r2, r3
 1550 009e 1CD0     		beq	.L44
 1551              		.loc 1 465 0 discriminator 11
 1552 00a0 7A68     		ldr	r2, [r7, #4]
 1553 00a2 4FF4C053 		mov	r3, #6144
 1554 00a6 C4F20003 		movt	r3, 16384
 1555 00aa 9A42     		cmp	r2, r3
 1556 00ac 15D0     		beq	.L44
 1557              		.loc 1 465 0 discriminator 12
 1558 00ae 7A68     		ldr	r2, [r7, #4]
 1559 00b0 4FF4E053 		mov	r3, #7168
 1560 00b4 C4F20003 		movt	r3, 16384
 1561 00b8 9A42     		cmp	r2, r3
 1562 00ba 0ED0     		beq	.L44
 1563              		.loc 1 465 0 discriminator 13
 1564 00bc 7A68     		ldr	r2, [r7, #4]
 1565 00be 4FF40053 		mov	r3, #8192
 1566 00c2 C4F20003 		movt	r3, 16384
 1567 00c6 9A42     		cmp	r2, r3
 1568 00c8 07D0     		beq	.L44
 1569              		.loc 1 465 0 discriminator 14
 1570 00ca 40F20000 		movw	r0, #:lower16:.LC0
 1571 00ce C0F20000 		movt	r0, #:upper16:.LC0
 1572 00d2 40F2D111 		movw	r1, #465
 1573 00d6 FFF7FEFF 		bl	assert_failed
 1574              	.L44:
 466:App/STM32F4-Discovery/Libraries/STM32F4xx_StdPeriph_Driver/src/stm32f4xx_tim.c ****   assert_param(IS_FUNCTIONAL_STATE(NewState));
 1575              		.loc 1 466 0 is_stmt 1
 1576 00da FB78     		ldrb	r3, [r7, #3]	@ zero_extendqisi2
 1577 00dc 002B     		cmp	r3, #0
 1578 00de 0AD0     		beq	.L45
 1579              		.loc 1 466 0 is_stmt 0 discriminator 1
 1580 00e0 FB78     		ldrb	r3, [r7, #3]	@ zero_extendqisi2
 1581 00e2 012B     		cmp	r3, #1
 1582 00e4 07D0     		beq	.L45
 1583              		.loc 1 466 0 discriminator 2
 1584 00e6 40F20000 		movw	r0, #:lower16:.LC0
 1585 00ea C0F20000 		movt	r0, #:upper16:.LC0
 1586 00ee 4FF4E971 		mov	r1, #466
 1587 00f2 FFF7FEFF 		bl	assert_failed
 1588              	.L45:
 467:App/STM32F4-Discovery/Libraries/STM32F4xx_StdPeriph_Driver/src/stm32f4xx_tim.c **** 
 468:App/STM32F4-Discovery/Libraries/STM32F4xx_StdPeriph_Driver/src/stm32f4xx_tim.c ****   if (NewState != DISABLE)
 1589              		.loc 1 468 0 is_stmt 1
 1590 00f6 FB78     		ldrb	r3, [r7, #3]	@ zero_extendqisi2
 1591 00f8 002B     		cmp	r3, #0
 1592 00fa 08D0     		beq	.L46
 469:App/STM32F4-Discovery/Libraries/STM32F4xx_StdPeriph_Driver/src/stm32f4xx_tim.c ****   {
 470:App/STM32F4-Discovery/Libraries/STM32F4xx_StdPeriph_Driver/src/stm32f4xx_tim.c ****     /* Set the Update Disable Bit */
 471:App/STM32F4-Discovery/Libraries/STM32F4xx_StdPeriph_Driver/src/stm32f4xx_tim.c ****     TIMx->CR1 |= TIM_CR1_UDIS;
 1593              		.loc 1 471 0
 1594 00fc 7B68     		ldr	r3, [r7, #4]
 1595 00fe 1B88     		ldrh	r3, [r3, #0]	@ movhi
 1596 0100 9BB2     		uxth	r3, r3
 1597 0102 43F00203 		orr	r3, r3, #2
 1598 0106 9AB2     		uxth	r2, r3
 1599 0108 7B68     		ldr	r3, [r7, #4]
 1600 010a 1A80     		strh	r2, [r3, #0]	@ movhi
 1601 010c 07E0     		b	.L43
 1602              	.L46:
 472:App/STM32F4-Discovery/Libraries/STM32F4xx_StdPeriph_Driver/src/stm32f4xx_tim.c ****   }
 473:App/STM32F4-Discovery/Libraries/STM32F4xx_StdPeriph_Driver/src/stm32f4xx_tim.c ****   else
 474:App/STM32F4-Discovery/Libraries/STM32F4xx_StdPeriph_Driver/src/stm32f4xx_tim.c ****   {
 475:App/STM32F4-Discovery/Libraries/STM32F4xx_StdPeriph_Driver/src/stm32f4xx_tim.c ****     /* Reset the Update Disable Bit */
 476:App/STM32F4-Discovery/Libraries/STM32F4xx_StdPeriph_Driver/src/stm32f4xx_tim.c ****     TIMx->CR1 &= (uint16_t)~TIM_CR1_UDIS;
 1603              		.loc 1 476 0
 1604 010e 7B68     		ldr	r3, [r7, #4]
 1605 0110 1B88     		ldrh	r3, [r3, #0]	@ movhi
 1606 0112 9BB2     		uxth	r3, r3
 1607 0114 23F00203 		bic	r3, r3, #2
 1608 0118 9AB2     		uxth	r2, r3
 1609 011a 7B68     		ldr	r3, [r7, #4]
 1610 011c 1A80     		strh	r2, [r3, #0]	@ movhi
 1611              	.L43:
 477:App/STM32F4-Discovery/Libraries/STM32F4xx_StdPeriph_Driver/src/stm32f4xx_tim.c ****   }
 478:App/STM32F4-Discovery/Libraries/STM32F4xx_StdPeriph_Driver/src/stm32f4xx_tim.c **** }
 1612              		.loc 1 478 0
 1613 011e 07F10807 		add	r7, r7, #8
 1614 0122 BD46     		mov	sp, r7
 1615 0124 80BD     		pop	{r7, pc}
 1616              		.cfi_endproc
 1617              	.LFE119:
 1619 0126 00BF     		.section	.text.TIM_UpdateRequestConfig,"ax",%progbits
 1620              		.align	2
 1621              		.global	TIM_UpdateRequestConfig
 1622              		.thumb
 1623              		.thumb_func
 1625              	TIM_UpdateRequestConfig:
 1626              	.LFB120:
 479:App/STM32F4-Discovery/Libraries/STM32F4xx_StdPeriph_Driver/src/stm32f4xx_tim.c **** 
 480:App/STM32F4-Discovery/Libraries/STM32F4xx_StdPeriph_Driver/src/stm32f4xx_tim.c **** /**
 481:App/STM32F4-Discovery/Libraries/STM32F4xx_StdPeriph_Driver/src/stm32f4xx_tim.c ****   * @brief  Configures the TIMx Update Request Interrupt source.
 482:App/STM32F4-Discovery/Libraries/STM32F4xx_StdPeriph_Driver/src/stm32f4xx_tim.c ****   * @param  TIMx: where x can be 1 to 14 to select the TIM peripheral.
 483:App/STM32F4-Discovery/Libraries/STM32F4xx_StdPeriph_Driver/src/stm32f4xx_tim.c ****   * @param  TIM_UpdateSource: specifies the Update source.
 484:App/STM32F4-Discovery/Libraries/STM32F4xx_StdPeriph_Driver/src/stm32f4xx_tim.c ****   *          This parameter can be one of the following values:
 485:App/STM32F4-Discovery/Libraries/STM32F4xx_StdPeriph_Driver/src/stm32f4xx_tim.c ****   *            @arg TIM_UpdateSource_Global: Source of update is the counter
 486:App/STM32F4-Discovery/Libraries/STM32F4xx_StdPeriph_Driver/src/stm32f4xx_tim.c ****   *                 overflow/underflow or the setting of UG bit, or an update
 487:App/STM32F4-Discovery/Libraries/STM32F4xx_StdPeriph_Driver/src/stm32f4xx_tim.c ****   *                 generation through the slave mode controller.
 488:App/STM32F4-Discovery/Libraries/STM32F4xx_StdPeriph_Driver/src/stm32f4xx_tim.c ****   *            @arg TIM_UpdateSource_Regular: Source of update is counter overflow/underflow.
 489:App/STM32F4-Discovery/Libraries/STM32F4xx_StdPeriph_Driver/src/stm32f4xx_tim.c ****   * @retval None
 490:App/STM32F4-Discovery/Libraries/STM32F4xx_StdPeriph_Driver/src/stm32f4xx_tim.c ****   */
 491:App/STM32F4-Discovery/Libraries/STM32F4xx_StdPeriph_Driver/src/stm32f4xx_tim.c **** void TIM_UpdateRequestConfig(TIM_TypeDef* TIMx, uint16_t TIM_UpdateSource)
 492:App/STM32F4-Discovery/Libraries/STM32F4xx_StdPeriph_Driver/src/stm32f4xx_tim.c **** {
 1627              		.loc 1 492 0
 1628              		.cfi_startproc
 1629              		@ args = 0, pretend = 0, frame = 8
 1630              		@ frame_needed = 1, uses_anonymous_args = 0
 1631 0000 80B5     		push	{r7, lr}
 1632              	.LCFI30:
 1633              		.cfi_def_cfa_offset 8
 1634              		.cfi_offset 7, -8
 1635              		.cfi_offset 14, -4
 1636 0002 82B0     		sub	sp, sp, #8
 1637              	.LCFI31:
 1638              		.cfi_def_cfa_offset 16
 1639 0004 00AF     		add	r7, sp, #0
 1640              	.LCFI32:
 1641              		.cfi_def_cfa_register 7
 1642 0006 7860     		str	r0, [r7, #4]
 1643 0008 0B46     		mov	r3, r1
 1644 000a 7B80     		strh	r3, [r7, #2]	@ movhi
 493:App/STM32F4-Discovery/Libraries/STM32F4xx_StdPeriph_Driver/src/stm32f4xx_tim.c ****   /* Check the parameters */
 494:App/STM32F4-Discovery/Libraries/STM32F4xx_StdPeriph_Driver/src/stm32f4xx_tim.c ****   assert_param(IS_TIM_ALL_PERIPH(TIMx));
 1645              		.loc 1 494 0
 1646 000c 7A68     		ldr	r2, [r7, #4]
 1647 000e 4FF00003 		mov	r3, #0
 1648 0012 C4F20103 		movt	r3, 16385
 1649 0016 9A42     		cmp	r2, r3
 1650 0018 5FD0     		beq	.L49
 1651              		.loc 1 494 0 is_stmt 0 discriminator 1
 1652 001a 7B68     		ldr	r3, [r7, #4]
 1653 001c B3F1804F 		cmp	r3, #1073741824
 1654 0020 5BD0     		beq	.L49
 1655              		.loc 1 494 0 discriminator 2
 1656 0022 7A68     		ldr	r2, [r7, #4]
 1657 0024 4FF48063 		mov	r3, #1024
 1658 0028 C4F20003 		movt	r3, 16384
 1659 002c 9A42     		cmp	r2, r3
 1660 002e 54D0     		beq	.L49
 1661              		.loc 1 494 0 discriminator 3
 1662 0030 7A68     		ldr	r2, [r7, #4]
 1663 0032 4FF40063 		mov	r3, #2048
 1664 0036 C4F20003 		movt	r3, 16384
 1665 003a 9A42     		cmp	r2, r3
 1666 003c 4DD0     		beq	.L49
 1667              		.loc 1 494 0 discriminator 4
 1668 003e 7A68     		ldr	r2, [r7, #4]
 1669 0040 4FF44063 		mov	r3, #3072
 1670 0044 C4F20003 		movt	r3, 16384
 1671 0048 9A42     		cmp	r2, r3
 1672 004a 46D0     		beq	.L49
 1673              		.loc 1 494 0 discriminator 5
 1674 004c 7A68     		ldr	r2, [r7, #4]
 1675 004e 4FF48053 		mov	r3, #4096
 1676 0052 C4F20003 		movt	r3, 16384
 1677 0056 9A42     		cmp	r2, r3
 1678 0058 3FD0     		beq	.L49
 1679              		.loc 1 494 0 discriminator 6
 1680 005a 7A68     		ldr	r2, [r7, #4]
 1681 005c 4FF4A053 		mov	r3, #5120
 1682 0060 C4F20003 		movt	r3, 16384
 1683 0064 9A42     		cmp	r2, r3
 1684 0066 38D0     		beq	.L49
 1685              		.loc 1 494 0 discriminator 7
 1686 0068 7A68     		ldr	r2, [r7, #4]
 1687 006a 4FF48063 		mov	r3, #1024
 1688 006e C4F20103 		movt	r3, 16385
 1689 0072 9A42     		cmp	r2, r3
 1690 0074 31D0     		beq	.L49
 1691              		.loc 1 494 0 discriminator 8
 1692 0076 7A68     		ldr	r2, [r7, #4]
 1693 0078 4FF48043 		mov	r3, #16384
 1694 007c C4F20103 		movt	r3, 16385
 1695 0080 9A42     		cmp	r2, r3
 1696 0082 2AD0     		beq	.L49
 1697              		.loc 1 494 0 discriminator 9
 1698 0084 7A68     		ldr	r2, [r7, #4]
 1699 0086 4FF48843 		mov	r3, #17408
 1700 008a C4F20103 		movt	r3, 16385
 1701 008e 9A42     		cmp	r2, r3
 1702 0090 23D0     		beq	.L49
 1703              		.loc 1 494 0 discriminator 10
 1704 0092 7A68     		ldr	r2, [r7, #4]
 1705 0094 4FF49043 		mov	r3, #18432
 1706 0098 C4F20103 		movt	r3, 16385
 1707 009c 9A42     		cmp	r2, r3
 1708 009e 1CD0     		beq	.L49
 1709              		.loc 1 494 0 discriminator 11
 1710 00a0 7A68     		ldr	r2, [r7, #4]
 1711 00a2 4FF4C053 		mov	r3, #6144
 1712 00a6 C4F20003 		movt	r3, 16384
 1713 00aa 9A42     		cmp	r2, r3
 1714 00ac 15D0     		beq	.L49
 1715              		.loc 1 494 0 discriminator 12
 1716 00ae 7A68     		ldr	r2, [r7, #4]
 1717 00b0 4FF4E053 		mov	r3, #7168
 1718 00b4 C4F20003 		movt	r3, 16384
 1719 00b8 9A42     		cmp	r2, r3
 1720 00ba 0ED0     		beq	.L49
 1721              		.loc 1 494 0 discriminator 13
 1722 00bc 7A68     		ldr	r2, [r7, #4]
 1723 00be 4FF40053 		mov	r3, #8192
 1724 00c2 C4F20003 		movt	r3, 16384
 1725 00c6 9A42     		cmp	r2, r3
 1726 00c8 07D0     		beq	.L49
 1727              		.loc 1 494 0 discriminator 14
 1728 00ca 40F20000 		movw	r0, #:lower16:.LC0
 1729 00ce C0F20000 		movt	r0, #:upper16:.LC0
 1730 00d2 4FF4F771 		mov	r1, #494
 1731 00d6 FFF7FEFF 		bl	assert_failed
 1732              	.L49:
 495:App/STM32F4-Discovery/Libraries/STM32F4xx_StdPeriph_Driver/src/stm32f4xx_tim.c ****   assert_param(IS_TIM_UPDATE_SOURCE(TIM_UpdateSource));
 1733              		.loc 1 495 0 is_stmt 1
 1734 00da 7B88     		ldrh	r3, [r7, #2]
 1735 00dc 002B     		cmp	r3, #0
 1736 00de 0AD0     		beq	.L50
 1737              		.loc 1 495 0 is_stmt 0 discriminator 1
 1738 00e0 7B88     		ldrh	r3, [r7, #2]
 1739 00e2 012B     		cmp	r3, #1
 1740 00e4 07D0     		beq	.L50
 1741              		.loc 1 495 0 discriminator 2
 1742 00e6 40F20000 		movw	r0, #:lower16:.LC0
 1743 00ea C0F20000 		movt	r0, #:upper16:.LC0
 1744 00ee 40F2EF11 		movw	r1, #495
 1745 00f2 FFF7FEFF 		bl	assert_failed
 1746              	.L50:
 496:App/STM32F4-Discovery/Libraries/STM32F4xx_StdPeriph_Driver/src/stm32f4xx_tim.c **** 
 497:App/STM32F4-Discovery/Libraries/STM32F4xx_StdPeriph_Driver/src/stm32f4xx_tim.c ****   if (TIM_UpdateSource != TIM_UpdateSource_Global)
 1747              		.loc 1 497 0 is_stmt 1
 1748 00f6 7B88     		ldrh	r3, [r7, #2]
 1749 00f8 002B     		cmp	r3, #0
 1750 00fa 08D0     		beq	.L51
 498:App/STM32F4-Discovery/Libraries/STM32F4xx_StdPeriph_Driver/src/stm32f4xx_tim.c ****   {
 499:App/STM32F4-Discovery/Libraries/STM32F4xx_StdPeriph_Driver/src/stm32f4xx_tim.c ****     /* Set the URS Bit */
 500:App/STM32F4-Discovery/Libraries/STM32F4xx_StdPeriph_Driver/src/stm32f4xx_tim.c ****     TIMx->CR1 |= TIM_CR1_URS;
 1751              		.loc 1 500 0
 1752 00fc 7B68     		ldr	r3, [r7, #4]
 1753 00fe 1B88     		ldrh	r3, [r3, #0]	@ movhi
 1754 0100 9BB2     		uxth	r3, r3
 1755 0102 43F00403 		orr	r3, r3, #4
 1756 0106 9AB2     		uxth	r2, r3
 1757 0108 7B68     		ldr	r3, [r7, #4]
 1758 010a 1A80     		strh	r2, [r3, #0]	@ movhi
 1759 010c 07E0     		b	.L48
 1760              	.L51:
 501:App/STM32F4-Discovery/Libraries/STM32F4xx_StdPeriph_Driver/src/stm32f4xx_tim.c ****   }
 502:App/STM32F4-Discovery/Libraries/STM32F4xx_StdPeriph_Driver/src/stm32f4xx_tim.c ****   else
 503:App/STM32F4-Discovery/Libraries/STM32F4xx_StdPeriph_Driver/src/stm32f4xx_tim.c ****   {
 504:App/STM32F4-Discovery/Libraries/STM32F4xx_StdPeriph_Driver/src/stm32f4xx_tim.c ****     /* Reset the URS Bit */
 505:App/STM32F4-Discovery/Libraries/STM32F4xx_StdPeriph_Driver/src/stm32f4xx_tim.c ****     TIMx->CR1 &= (uint16_t)~TIM_CR1_URS;
 1761              		.loc 1 505 0
 1762 010e 7B68     		ldr	r3, [r7, #4]
 1763 0110 1B88     		ldrh	r3, [r3, #0]	@ movhi
 1764 0112 9BB2     		uxth	r3, r3
 1765 0114 23F00403 		bic	r3, r3, #4
 1766 0118 9AB2     		uxth	r2, r3
 1767 011a 7B68     		ldr	r3, [r7, #4]
 1768 011c 1A80     		strh	r2, [r3, #0]	@ movhi
 1769              	.L48:
 506:App/STM32F4-Discovery/Libraries/STM32F4xx_StdPeriph_Driver/src/stm32f4xx_tim.c ****   }
 507:App/STM32F4-Discovery/Libraries/STM32F4xx_StdPeriph_Driver/src/stm32f4xx_tim.c **** }
 1770              		.loc 1 507 0
 1771 011e 07F10807 		add	r7, r7, #8
 1772 0122 BD46     		mov	sp, r7
 1773 0124 80BD     		pop	{r7, pc}
 1774              		.cfi_endproc
 1775              	.LFE120:
 1777 0126 00BF     		.section	.text.TIM_ARRPreloadConfig,"ax",%progbits
 1778              		.align	2
 1779              		.global	TIM_ARRPreloadConfig
 1780              		.thumb
 1781              		.thumb_func
 1783              	TIM_ARRPreloadConfig:
 1784              	.LFB121:
 508:App/STM32F4-Discovery/Libraries/STM32F4xx_StdPeriph_Driver/src/stm32f4xx_tim.c **** 
 509:App/STM32F4-Discovery/Libraries/STM32F4xx_StdPeriph_Driver/src/stm32f4xx_tim.c **** /**
 510:App/STM32F4-Discovery/Libraries/STM32F4xx_StdPeriph_Driver/src/stm32f4xx_tim.c ****   * @brief  Enables or disables TIMx peripheral Preload register on ARR.
 511:App/STM32F4-Discovery/Libraries/STM32F4xx_StdPeriph_Driver/src/stm32f4xx_tim.c ****   * @param  TIMx: where x can be 1 to 14 to select the TIM peripheral.
 512:App/STM32F4-Discovery/Libraries/STM32F4xx_StdPeriph_Driver/src/stm32f4xx_tim.c ****   * @param  NewState: new state of the TIMx peripheral Preload register
 513:App/STM32F4-Discovery/Libraries/STM32F4xx_StdPeriph_Driver/src/stm32f4xx_tim.c ****   *          This parameter can be: ENABLE or DISABLE.
 514:App/STM32F4-Discovery/Libraries/STM32F4xx_StdPeriph_Driver/src/stm32f4xx_tim.c ****   * @retval None
 515:App/STM32F4-Discovery/Libraries/STM32F4xx_StdPeriph_Driver/src/stm32f4xx_tim.c ****   */
 516:App/STM32F4-Discovery/Libraries/STM32F4xx_StdPeriph_Driver/src/stm32f4xx_tim.c **** void TIM_ARRPreloadConfig(TIM_TypeDef* TIMx, FunctionalState NewState)
 517:App/STM32F4-Discovery/Libraries/STM32F4xx_StdPeriph_Driver/src/stm32f4xx_tim.c **** {
 1785              		.loc 1 517 0
 1786              		.cfi_startproc
 1787              		@ args = 0, pretend = 0, frame = 8
 1788              		@ frame_needed = 1, uses_anonymous_args = 0
 1789 0000 80B5     		push	{r7, lr}
 1790              	.LCFI33:
 1791              		.cfi_def_cfa_offset 8
 1792              		.cfi_offset 7, -8
 1793              		.cfi_offset 14, -4
 1794 0002 82B0     		sub	sp, sp, #8
 1795              	.LCFI34:
 1796              		.cfi_def_cfa_offset 16
 1797 0004 00AF     		add	r7, sp, #0
 1798              	.LCFI35:
 1799              		.cfi_def_cfa_register 7
 1800 0006 7860     		str	r0, [r7, #4]
 1801 0008 0B46     		mov	r3, r1
 1802 000a FB70     		strb	r3, [r7, #3]
 518:App/STM32F4-Discovery/Libraries/STM32F4xx_StdPeriph_Driver/src/stm32f4xx_tim.c ****   /* Check the parameters */
 519:App/STM32F4-Discovery/Libraries/STM32F4xx_StdPeriph_Driver/src/stm32f4xx_tim.c ****   assert_param(IS_TIM_ALL_PERIPH(TIMx));
 1803              		.loc 1 519 0
 1804 000c 7A68     		ldr	r2, [r7, #4]
 1805 000e 4FF00003 		mov	r3, #0
 1806 0012 C4F20103 		movt	r3, 16385
 1807 0016 9A42     		cmp	r2, r3
 1808 0018 5FD0     		beq	.L54
 1809              		.loc 1 519 0 is_stmt 0 discriminator 1
 1810 001a 7B68     		ldr	r3, [r7, #4]
 1811 001c B3F1804F 		cmp	r3, #1073741824
 1812 0020 5BD0     		beq	.L54
 1813              		.loc 1 519 0 discriminator 2
 1814 0022 7A68     		ldr	r2, [r7, #4]
 1815 0024 4FF48063 		mov	r3, #1024
 1816 0028 C4F20003 		movt	r3, 16384
 1817 002c 9A42     		cmp	r2, r3
 1818 002e 54D0     		beq	.L54
 1819              		.loc 1 519 0 discriminator 3
 1820 0030 7A68     		ldr	r2, [r7, #4]
 1821 0032 4FF40063 		mov	r3, #2048
 1822 0036 C4F20003 		movt	r3, 16384
 1823 003a 9A42     		cmp	r2, r3
 1824 003c 4DD0     		beq	.L54
 1825              		.loc 1 519 0 discriminator 4
 1826 003e 7A68     		ldr	r2, [r7, #4]
 1827 0040 4FF44063 		mov	r3, #3072
 1828 0044 C4F20003 		movt	r3, 16384
 1829 0048 9A42     		cmp	r2, r3
 1830 004a 46D0     		beq	.L54
 1831              		.loc 1 519 0 discriminator 5
 1832 004c 7A68     		ldr	r2, [r7, #4]
 1833 004e 4FF48053 		mov	r3, #4096
 1834 0052 C4F20003 		movt	r3, 16384
 1835 0056 9A42     		cmp	r2, r3
 1836 0058 3FD0     		beq	.L54
 1837              		.loc 1 519 0 discriminator 6
 1838 005a 7A68     		ldr	r2, [r7, #4]
 1839 005c 4FF4A053 		mov	r3, #5120
 1840 0060 C4F20003 		movt	r3, 16384
 1841 0064 9A42     		cmp	r2, r3
 1842 0066 38D0     		beq	.L54
 1843              		.loc 1 519 0 discriminator 7
 1844 0068 7A68     		ldr	r2, [r7, #4]
 1845 006a 4FF48063 		mov	r3, #1024
 1846 006e C4F20103 		movt	r3, 16385
 1847 0072 9A42     		cmp	r2, r3
 1848 0074 31D0     		beq	.L54
 1849              		.loc 1 519 0 discriminator 8
 1850 0076 7A68     		ldr	r2, [r7, #4]
 1851 0078 4FF48043 		mov	r3, #16384
 1852 007c C4F20103 		movt	r3, 16385
 1853 0080 9A42     		cmp	r2, r3
 1854 0082 2AD0     		beq	.L54
 1855              		.loc 1 519 0 discriminator 9
 1856 0084 7A68     		ldr	r2, [r7, #4]
 1857 0086 4FF48843 		mov	r3, #17408
 1858 008a C4F20103 		movt	r3, 16385
 1859 008e 9A42     		cmp	r2, r3
 1860 0090 23D0     		beq	.L54
 1861              		.loc 1 519 0 discriminator 10
 1862 0092 7A68     		ldr	r2, [r7, #4]
 1863 0094 4FF49043 		mov	r3, #18432
 1864 0098 C4F20103 		movt	r3, 16385
 1865 009c 9A42     		cmp	r2, r3
 1866 009e 1CD0     		beq	.L54
 1867              		.loc 1 519 0 discriminator 11
 1868 00a0 7A68     		ldr	r2, [r7, #4]
 1869 00a2 4FF4C053 		mov	r3, #6144
 1870 00a6 C4F20003 		movt	r3, 16384
 1871 00aa 9A42     		cmp	r2, r3
 1872 00ac 15D0     		beq	.L54
 1873              		.loc 1 519 0 discriminator 12
 1874 00ae 7A68     		ldr	r2, [r7, #4]
 1875 00b0 4FF4E053 		mov	r3, #7168
 1876 00b4 C4F20003 		movt	r3, 16384
 1877 00b8 9A42     		cmp	r2, r3
 1878 00ba 0ED0     		beq	.L54
 1879              		.loc 1 519 0 discriminator 13
 1880 00bc 7A68     		ldr	r2, [r7, #4]
 1881 00be 4FF40053 		mov	r3, #8192
 1882 00c2 C4F20003 		movt	r3, 16384
 1883 00c6 9A42     		cmp	r2, r3
 1884 00c8 07D0     		beq	.L54
 1885              		.loc 1 519 0 discriminator 14
 1886 00ca 40F20000 		movw	r0, #:lower16:.LC0
 1887 00ce C0F20000 		movt	r0, #:upper16:.LC0
 1888 00d2 40F20721 		movw	r1, #519
 1889 00d6 FFF7FEFF 		bl	assert_failed
 1890              	.L54:
 520:App/STM32F4-Discovery/Libraries/STM32F4xx_StdPeriph_Driver/src/stm32f4xx_tim.c ****   assert_param(IS_FUNCTIONAL_STATE(NewState));
 1891              		.loc 1 520 0 is_stmt 1
 1892 00da FB78     		ldrb	r3, [r7, #3]	@ zero_extendqisi2
 1893 00dc 002B     		cmp	r3, #0
 1894 00de 0AD0     		beq	.L55
 1895              		.loc 1 520 0 is_stmt 0 discriminator 1
 1896 00e0 FB78     		ldrb	r3, [r7, #3]	@ zero_extendqisi2
 1897 00e2 012B     		cmp	r3, #1
 1898 00e4 07D0     		beq	.L55
 1899              		.loc 1 520 0 discriminator 2
 1900 00e6 40F20000 		movw	r0, #:lower16:.LC0
 1901 00ea C0F20000 		movt	r0, #:upper16:.LC0
 1902 00ee 4FF40271 		mov	r1, #520
 1903 00f2 FFF7FEFF 		bl	assert_failed
 1904              	.L55:
 521:App/STM32F4-Discovery/Libraries/STM32F4xx_StdPeriph_Driver/src/stm32f4xx_tim.c **** 
 522:App/STM32F4-Discovery/Libraries/STM32F4xx_StdPeriph_Driver/src/stm32f4xx_tim.c ****   if (NewState != DISABLE)
 1905              		.loc 1 522 0 is_stmt 1
 1906 00f6 FB78     		ldrb	r3, [r7, #3]	@ zero_extendqisi2
 1907 00f8 002B     		cmp	r3, #0
 1908 00fa 08D0     		beq	.L56
 523:App/STM32F4-Discovery/Libraries/STM32F4xx_StdPeriph_Driver/src/stm32f4xx_tim.c ****   {
 524:App/STM32F4-Discovery/Libraries/STM32F4xx_StdPeriph_Driver/src/stm32f4xx_tim.c ****     /* Set the ARR Preload Bit */
 525:App/STM32F4-Discovery/Libraries/STM32F4xx_StdPeriph_Driver/src/stm32f4xx_tim.c ****     TIMx->CR1 |= TIM_CR1_ARPE;
 1909              		.loc 1 525 0
 1910 00fc 7B68     		ldr	r3, [r7, #4]
 1911 00fe 1B88     		ldrh	r3, [r3, #0]	@ movhi
 1912 0100 9BB2     		uxth	r3, r3
 1913 0102 43F08003 		orr	r3, r3, #128
 1914 0106 9AB2     		uxth	r2, r3
 1915 0108 7B68     		ldr	r3, [r7, #4]
 1916 010a 1A80     		strh	r2, [r3, #0]	@ movhi
 1917 010c 07E0     		b	.L53
 1918              	.L56:
 526:App/STM32F4-Discovery/Libraries/STM32F4xx_StdPeriph_Driver/src/stm32f4xx_tim.c ****   }
 527:App/STM32F4-Discovery/Libraries/STM32F4xx_StdPeriph_Driver/src/stm32f4xx_tim.c ****   else
 528:App/STM32F4-Discovery/Libraries/STM32F4xx_StdPeriph_Driver/src/stm32f4xx_tim.c ****   {
 529:App/STM32F4-Discovery/Libraries/STM32F4xx_StdPeriph_Driver/src/stm32f4xx_tim.c ****     /* Reset the ARR Preload Bit */
 530:App/STM32F4-Discovery/Libraries/STM32F4xx_StdPeriph_Driver/src/stm32f4xx_tim.c ****     TIMx->CR1 &= (uint16_t)~TIM_CR1_ARPE;
 1919              		.loc 1 530 0
 1920 010e 7B68     		ldr	r3, [r7, #4]
 1921 0110 1B88     		ldrh	r3, [r3, #0]	@ movhi
 1922 0112 9BB2     		uxth	r3, r3
 1923 0114 23F08003 		bic	r3, r3, #128
 1924 0118 9AB2     		uxth	r2, r3
 1925 011a 7B68     		ldr	r3, [r7, #4]
 1926 011c 1A80     		strh	r2, [r3, #0]	@ movhi
 1927              	.L53:
 531:App/STM32F4-Discovery/Libraries/STM32F4xx_StdPeriph_Driver/src/stm32f4xx_tim.c ****   }
 532:App/STM32F4-Discovery/Libraries/STM32F4xx_StdPeriph_Driver/src/stm32f4xx_tim.c **** }
 1928              		.loc 1 532 0
 1929 011e 07F10807 		add	r7, r7, #8
 1930 0122 BD46     		mov	sp, r7
 1931 0124 80BD     		pop	{r7, pc}
 1932              		.cfi_endproc
 1933              	.LFE121:
 1935 0126 00BF     		.section	.text.TIM_SelectOnePulseMode,"ax",%progbits
 1936              		.align	2
 1937              		.global	TIM_SelectOnePulseMode
 1938              		.thumb
 1939              		.thumb_func
 1941              	TIM_SelectOnePulseMode:
 1942              	.LFB122:
 533:App/STM32F4-Discovery/Libraries/STM32F4xx_StdPeriph_Driver/src/stm32f4xx_tim.c **** 
 534:App/STM32F4-Discovery/Libraries/STM32F4xx_StdPeriph_Driver/src/stm32f4xx_tim.c **** /**
 535:App/STM32F4-Discovery/Libraries/STM32F4xx_StdPeriph_Driver/src/stm32f4xx_tim.c ****   * @brief  Selects the TIMx's One Pulse Mode.
 536:App/STM32F4-Discovery/Libraries/STM32F4xx_StdPeriph_Driver/src/stm32f4xx_tim.c ****   * @param  TIMx: where x can be 1 to 14 to select the TIM peripheral.
 537:App/STM32F4-Discovery/Libraries/STM32F4xx_StdPeriph_Driver/src/stm32f4xx_tim.c ****   * @param  TIM_OPMode: specifies the OPM Mode to be used.
 538:App/STM32F4-Discovery/Libraries/STM32F4xx_StdPeriph_Driver/src/stm32f4xx_tim.c ****   *          This parameter can be one of the following values:
 539:App/STM32F4-Discovery/Libraries/STM32F4xx_StdPeriph_Driver/src/stm32f4xx_tim.c ****   *            @arg TIM_OPMode_Single
 540:App/STM32F4-Discovery/Libraries/STM32F4xx_StdPeriph_Driver/src/stm32f4xx_tim.c ****   *            @arg TIM_OPMode_Repetitive
 541:App/STM32F4-Discovery/Libraries/STM32F4xx_StdPeriph_Driver/src/stm32f4xx_tim.c ****   * @retval None
 542:App/STM32F4-Discovery/Libraries/STM32F4xx_StdPeriph_Driver/src/stm32f4xx_tim.c ****   */
 543:App/STM32F4-Discovery/Libraries/STM32F4xx_StdPeriph_Driver/src/stm32f4xx_tim.c **** void TIM_SelectOnePulseMode(TIM_TypeDef* TIMx, uint16_t TIM_OPMode)
 544:App/STM32F4-Discovery/Libraries/STM32F4xx_StdPeriph_Driver/src/stm32f4xx_tim.c **** {
 1943              		.loc 1 544 0
 1944              		.cfi_startproc
 1945              		@ args = 0, pretend = 0, frame = 8
 1946              		@ frame_needed = 1, uses_anonymous_args = 0
 1947 0000 80B5     		push	{r7, lr}
 1948              	.LCFI36:
 1949              		.cfi_def_cfa_offset 8
 1950              		.cfi_offset 7, -8
 1951              		.cfi_offset 14, -4
 1952 0002 82B0     		sub	sp, sp, #8
 1953              	.LCFI37:
 1954              		.cfi_def_cfa_offset 16
 1955 0004 00AF     		add	r7, sp, #0
 1956              	.LCFI38:
 1957              		.cfi_def_cfa_register 7
 1958 0006 7860     		str	r0, [r7, #4]
 1959 0008 0B46     		mov	r3, r1
 1960 000a 7B80     		strh	r3, [r7, #2]	@ movhi
 545:App/STM32F4-Discovery/Libraries/STM32F4xx_StdPeriph_Driver/src/stm32f4xx_tim.c ****   /* Check the parameters */
 546:App/STM32F4-Discovery/Libraries/STM32F4xx_StdPeriph_Driver/src/stm32f4xx_tim.c ****   assert_param(IS_TIM_ALL_PERIPH(TIMx));
 1961              		.loc 1 546 0
 1962 000c 7A68     		ldr	r2, [r7, #4]
 1963 000e 4FF00003 		mov	r3, #0
 1964 0012 C4F20103 		movt	r3, 16385
 1965 0016 9A42     		cmp	r2, r3
 1966 0018 5FD0     		beq	.L59
 1967              		.loc 1 546 0 is_stmt 0 discriminator 1
 1968 001a 7B68     		ldr	r3, [r7, #4]
 1969 001c B3F1804F 		cmp	r3, #1073741824
 1970 0020 5BD0     		beq	.L59
 1971              		.loc 1 546 0 discriminator 2
 1972 0022 7A68     		ldr	r2, [r7, #4]
 1973 0024 4FF48063 		mov	r3, #1024
 1974 0028 C4F20003 		movt	r3, 16384
 1975 002c 9A42     		cmp	r2, r3
 1976 002e 54D0     		beq	.L59
 1977              		.loc 1 546 0 discriminator 3
 1978 0030 7A68     		ldr	r2, [r7, #4]
 1979 0032 4FF40063 		mov	r3, #2048
 1980 0036 C4F20003 		movt	r3, 16384
 1981 003a 9A42     		cmp	r2, r3
 1982 003c 4DD0     		beq	.L59
 1983              		.loc 1 546 0 discriminator 4
 1984 003e 7A68     		ldr	r2, [r7, #4]
 1985 0040 4FF44063 		mov	r3, #3072
 1986 0044 C4F20003 		movt	r3, 16384
 1987 0048 9A42     		cmp	r2, r3
 1988 004a 46D0     		beq	.L59
 1989              		.loc 1 546 0 discriminator 5
 1990 004c 7A68     		ldr	r2, [r7, #4]
 1991 004e 4FF48053 		mov	r3, #4096
 1992 0052 C4F20003 		movt	r3, 16384
 1993 0056 9A42     		cmp	r2, r3
 1994 0058 3FD0     		beq	.L59
 1995              		.loc 1 546 0 discriminator 6
 1996 005a 7A68     		ldr	r2, [r7, #4]
 1997 005c 4FF4A053 		mov	r3, #5120
 1998 0060 C4F20003 		movt	r3, 16384
 1999 0064 9A42     		cmp	r2, r3
 2000 0066 38D0     		beq	.L59
 2001              		.loc 1 546 0 discriminator 7
 2002 0068 7A68     		ldr	r2, [r7, #4]
 2003 006a 4FF48063 		mov	r3, #1024
 2004 006e C4F20103 		movt	r3, 16385
 2005 0072 9A42     		cmp	r2, r3
 2006 0074 31D0     		beq	.L59
 2007              		.loc 1 546 0 discriminator 8
 2008 0076 7A68     		ldr	r2, [r7, #4]
 2009 0078 4FF48043 		mov	r3, #16384
 2010 007c C4F20103 		movt	r3, 16385
 2011 0080 9A42     		cmp	r2, r3
 2012 0082 2AD0     		beq	.L59
 2013              		.loc 1 546 0 discriminator 9
 2014 0084 7A68     		ldr	r2, [r7, #4]
 2015 0086 4FF48843 		mov	r3, #17408
 2016 008a C4F20103 		movt	r3, 16385
 2017 008e 9A42     		cmp	r2, r3
 2018 0090 23D0     		beq	.L59
 2019              		.loc 1 546 0 discriminator 10
 2020 0092 7A68     		ldr	r2, [r7, #4]
 2021 0094 4FF49043 		mov	r3, #18432
 2022 0098 C4F20103 		movt	r3, 16385
 2023 009c 9A42     		cmp	r2, r3
 2024 009e 1CD0     		beq	.L59
 2025              		.loc 1 546 0 discriminator 11
 2026 00a0 7A68     		ldr	r2, [r7, #4]
 2027 00a2 4FF4C053 		mov	r3, #6144
 2028 00a6 C4F20003 		movt	r3, 16384
 2029 00aa 9A42     		cmp	r2, r3
 2030 00ac 15D0     		beq	.L59
 2031              		.loc 1 546 0 discriminator 12
 2032 00ae 7A68     		ldr	r2, [r7, #4]
 2033 00b0 4FF4E053 		mov	r3, #7168
 2034 00b4 C4F20003 		movt	r3, 16384
 2035 00b8 9A42     		cmp	r2, r3
 2036 00ba 0ED0     		beq	.L59
 2037              		.loc 1 546 0 discriminator 13
 2038 00bc 7A68     		ldr	r2, [r7, #4]
 2039 00be 4FF40053 		mov	r3, #8192
 2040 00c2 C4F20003 		movt	r3, 16384
 2041 00c6 9A42     		cmp	r2, r3
 2042 00c8 07D0     		beq	.L59
 2043              		.loc 1 546 0 discriminator 14
 2044 00ca 40F20000 		movw	r0, #:lower16:.LC0
 2045 00ce C0F20000 		movt	r0, #:upper16:.LC0
 2046 00d2 40F22221 		movw	r1, #546
 2047 00d6 FFF7FEFF 		bl	assert_failed
 2048              	.L59:
 547:App/STM32F4-Discovery/Libraries/STM32F4xx_StdPeriph_Driver/src/stm32f4xx_tim.c ****   assert_param(IS_TIM_OPM_MODE(TIM_OPMode));
 2049              		.loc 1 547 0 is_stmt 1
 2050 00da 7B88     		ldrh	r3, [r7, #2]
 2051 00dc 082B     		cmp	r3, #8
 2052 00de 0AD0     		beq	.L60
 2053              		.loc 1 547 0 is_stmt 0 discriminator 1
 2054 00e0 7B88     		ldrh	r3, [r7, #2]
 2055 00e2 002B     		cmp	r3, #0
 2056 00e4 07D0     		beq	.L60
 2057              		.loc 1 547 0 discriminator 2
 2058 00e6 40F20000 		movw	r0, #:lower16:.LC0
 2059 00ea C0F20000 		movt	r0, #:upper16:.LC0
 2060 00ee 40F22321 		movw	r1, #547
 2061 00f2 FFF7FEFF 		bl	assert_failed
 2062              	.L60:
 548:App/STM32F4-Discovery/Libraries/STM32F4xx_StdPeriph_Driver/src/stm32f4xx_tim.c **** 
 549:App/STM32F4-Discovery/Libraries/STM32F4xx_StdPeriph_Driver/src/stm32f4xx_tim.c ****   /* Reset the OPM Bit */
 550:App/STM32F4-Discovery/Libraries/STM32F4xx_StdPeriph_Driver/src/stm32f4xx_tim.c ****   TIMx->CR1 &= (uint16_t)~TIM_CR1_OPM;
 2063              		.loc 1 550 0 is_stmt 1
 2064 00f6 7B68     		ldr	r3, [r7, #4]
 2065 00f8 1B88     		ldrh	r3, [r3, #0]	@ movhi
 2066 00fa 9BB2     		uxth	r3, r3
 2067 00fc 23F00803 		bic	r3, r3, #8
 2068 0100 9AB2     		uxth	r2, r3
 2069 0102 7B68     		ldr	r3, [r7, #4]
 2070 0104 1A80     		strh	r2, [r3, #0]	@ movhi
 551:App/STM32F4-Discovery/Libraries/STM32F4xx_StdPeriph_Driver/src/stm32f4xx_tim.c **** 
 552:App/STM32F4-Discovery/Libraries/STM32F4xx_StdPeriph_Driver/src/stm32f4xx_tim.c ****   /* Configure the OPM Mode */
 553:App/STM32F4-Discovery/Libraries/STM32F4xx_StdPeriph_Driver/src/stm32f4xx_tim.c ****   TIMx->CR1 |= TIM_OPMode;
 2071              		.loc 1 553 0
 2072 0106 7B68     		ldr	r3, [r7, #4]
 2073 0108 1B88     		ldrh	r3, [r3, #0]	@ movhi
 2074 010a 9AB2     		uxth	r2, r3
 2075 010c 7B88     		ldrh	r3, [r7, #2]	@ movhi
 2076 010e 1343     		orrs	r3, r3, r2
 2077 0110 9AB2     		uxth	r2, r3
 2078 0112 7B68     		ldr	r3, [r7, #4]
 2079 0114 1A80     		strh	r2, [r3, #0]	@ movhi
 554:App/STM32F4-Discovery/Libraries/STM32F4xx_StdPeriph_Driver/src/stm32f4xx_tim.c **** }
 2080              		.loc 1 554 0
 2081 0116 07F10807 		add	r7, r7, #8
 2082 011a BD46     		mov	sp, r7
 2083 011c 80BD     		pop	{r7, pc}
 2084              		.cfi_endproc
 2085              	.LFE122:
 2087 011e 00BF     		.section	.text.TIM_SetClockDivision,"ax",%progbits
 2088              		.align	2
 2089              		.global	TIM_SetClockDivision
 2090              		.thumb
 2091              		.thumb_func
 2093              	TIM_SetClockDivision:
 2094              	.LFB123:
 555:App/STM32F4-Discovery/Libraries/STM32F4xx_StdPeriph_Driver/src/stm32f4xx_tim.c **** 
 556:App/STM32F4-Discovery/Libraries/STM32F4xx_StdPeriph_Driver/src/stm32f4xx_tim.c **** /**
 557:App/STM32F4-Discovery/Libraries/STM32F4xx_StdPeriph_Driver/src/stm32f4xx_tim.c ****   * @brief  Sets the TIMx Clock Division value.
 558:App/STM32F4-Discovery/Libraries/STM32F4xx_StdPeriph_Driver/src/stm32f4xx_tim.c ****   * @param  TIMx: where x can be 1 to 14 except 6 and 7, to select the TIM peripheral.
 559:App/STM32F4-Discovery/Libraries/STM32F4xx_StdPeriph_Driver/src/stm32f4xx_tim.c ****   * @param  TIM_CKD: specifies the clock division value.
 560:App/STM32F4-Discovery/Libraries/STM32F4xx_StdPeriph_Driver/src/stm32f4xx_tim.c ****   *          This parameter can be one of the following value:
 561:App/STM32F4-Discovery/Libraries/STM32F4xx_StdPeriph_Driver/src/stm32f4xx_tim.c ****   *            @arg TIM_CKD_DIV1: TDTS = Tck_tim
 562:App/STM32F4-Discovery/Libraries/STM32F4xx_StdPeriph_Driver/src/stm32f4xx_tim.c ****   *            @arg TIM_CKD_DIV2: TDTS = 2*Tck_tim
 563:App/STM32F4-Discovery/Libraries/STM32F4xx_StdPeriph_Driver/src/stm32f4xx_tim.c ****   *            @arg TIM_CKD_DIV4: TDTS = 4*Tck_tim
 564:App/STM32F4-Discovery/Libraries/STM32F4xx_StdPeriph_Driver/src/stm32f4xx_tim.c ****   * @retval None
 565:App/STM32F4-Discovery/Libraries/STM32F4xx_StdPeriph_Driver/src/stm32f4xx_tim.c ****   */
 566:App/STM32F4-Discovery/Libraries/STM32F4xx_StdPeriph_Driver/src/stm32f4xx_tim.c **** void TIM_SetClockDivision(TIM_TypeDef* TIMx, uint16_t TIM_CKD)
 567:App/STM32F4-Discovery/Libraries/STM32F4xx_StdPeriph_Driver/src/stm32f4xx_tim.c **** {
 2095              		.loc 1 567 0
 2096              		.cfi_startproc
 2097              		@ args = 0, pretend = 0, frame = 8
 2098              		@ frame_needed = 1, uses_anonymous_args = 0
 2099 0000 80B5     		push	{r7, lr}
 2100              	.LCFI39:
 2101              		.cfi_def_cfa_offset 8
 2102              		.cfi_offset 7, -8
 2103              		.cfi_offset 14, -4
 2104 0002 82B0     		sub	sp, sp, #8
 2105              	.LCFI40:
 2106              		.cfi_def_cfa_offset 16
 2107 0004 00AF     		add	r7, sp, #0
 2108              	.LCFI41:
 2109              		.cfi_def_cfa_register 7
 2110 0006 7860     		str	r0, [r7, #4]
 2111 0008 0B46     		mov	r3, r1
 2112 000a 7B80     		strh	r3, [r7, #2]	@ movhi
 568:App/STM32F4-Discovery/Libraries/STM32F4xx_StdPeriph_Driver/src/stm32f4xx_tim.c ****   /* Check the parameters */
 569:App/STM32F4-Discovery/Libraries/STM32F4xx_StdPeriph_Driver/src/stm32f4xx_tim.c ****   assert_param(IS_TIM_LIST1_PERIPH(TIMx));
 2113              		.loc 1 569 0
 2114 000c 7A68     		ldr	r2, [r7, #4]
 2115 000e 4FF00003 		mov	r3, #0
 2116 0012 C4F20103 		movt	r3, 16385
 2117 0016 9A42     		cmp	r2, r3
 2118 0018 51D0     		beq	.L62
 2119              		.loc 1 569 0 is_stmt 0 discriminator 1
 2120 001a 7B68     		ldr	r3, [r7, #4]
 2121 001c B3F1804F 		cmp	r3, #1073741824
 2122 0020 4DD0     		beq	.L62
 2123              		.loc 1 569 0 discriminator 2
 2124 0022 7A68     		ldr	r2, [r7, #4]
 2125 0024 4FF48063 		mov	r3, #1024
 2126 0028 C4F20003 		movt	r3, 16384
 2127 002c 9A42     		cmp	r2, r3
 2128 002e 46D0     		beq	.L62
 2129              		.loc 1 569 0 discriminator 3
 2130 0030 7A68     		ldr	r2, [r7, #4]
 2131 0032 4FF40063 		mov	r3, #2048
 2132 0036 C4F20003 		movt	r3, 16384
 2133 003a 9A42     		cmp	r2, r3
 2134 003c 3FD0     		beq	.L62
 2135              		.loc 1 569 0 discriminator 4
 2136 003e 7A68     		ldr	r2, [r7, #4]
 2137 0040 4FF44063 		mov	r3, #3072
 2138 0044 C4F20003 		movt	r3, 16384
 2139 0048 9A42     		cmp	r2, r3
 2140 004a 38D0     		beq	.L62
 2141              		.loc 1 569 0 discriminator 5
 2142 004c 7A68     		ldr	r2, [r7, #4]
 2143 004e 4FF48063 		mov	r3, #1024
 2144 0052 C4F20103 		movt	r3, 16385
 2145 0056 9A42     		cmp	r2, r3
 2146 0058 31D0     		beq	.L62
 2147              		.loc 1 569 0 discriminator 6
 2148 005a 7A68     		ldr	r2, [r7, #4]
 2149 005c 4FF48043 		mov	r3, #16384
 2150 0060 C4F20103 		movt	r3, 16385
 2151 0064 9A42     		cmp	r2, r3
 2152 0066 2AD0     		beq	.L62
 2153              		.loc 1 569 0 discriminator 7
 2154 0068 7A68     		ldr	r2, [r7, #4]
 2155 006a 4FF48843 		mov	r3, #17408
 2156 006e C4F20103 		movt	r3, 16385
 2157 0072 9A42     		cmp	r2, r3
 2158 0074 23D0     		beq	.L62
 2159              		.loc 1 569 0 discriminator 8
 2160 0076 7A68     		ldr	r2, [r7, #4]
 2161 0078 4FF49043 		mov	r3, #18432
 2162 007c C4F20103 		movt	r3, 16385
 2163 0080 9A42     		cmp	r2, r3
 2164 0082 1CD0     		beq	.L62
 2165              		.loc 1 569 0 discriminator 9
 2166 0084 7A68     		ldr	r2, [r7, #4]
 2167 0086 4FF4C053 		mov	r3, #6144
 2168 008a C4F20003 		movt	r3, 16384
 2169 008e 9A42     		cmp	r2, r3
 2170 0090 15D0     		beq	.L62
 2171              		.loc 1 569 0 discriminator 10
 2172 0092 7A68     		ldr	r2, [r7, #4]
 2173 0094 4FF4E053 		mov	r3, #7168
 2174 0098 C4F20003 		movt	r3, 16384
 2175 009c 9A42     		cmp	r2, r3
 2176 009e 0ED0     		beq	.L62
 2177              		.loc 1 569 0 discriminator 11
 2178 00a0 7A68     		ldr	r2, [r7, #4]
 2179 00a2 4FF40053 		mov	r3, #8192
 2180 00a6 C4F20003 		movt	r3, 16384
 2181 00aa 9A42     		cmp	r2, r3
 2182 00ac 07D0     		beq	.L62
 2183              		.loc 1 569 0 discriminator 12
 2184 00ae 40F20000 		movw	r0, #:lower16:.LC0
 2185 00b2 C0F20000 		movt	r0, #:upper16:.LC0
 2186 00b6 40F23921 		movw	r1, #569
 2187 00ba FFF7FEFF 		bl	assert_failed
 2188              	.L62:
 570:App/STM32F4-Discovery/Libraries/STM32F4xx_StdPeriph_Driver/src/stm32f4xx_tim.c ****   assert_param(IS_TIM_CKD_DIV(TIM_CKD));
 2189              		.loc 1 570 0 is_stmt 1
 2190 00be 7B88     		ldrh	r3, [r7, #2]
 2191 00c0 002B     		cmp	r3, #0
 2192 00c2 0FD0     		beq	.L63
 2193              		.loc 1 570 0 is_stmt 0 discriminator 1
 2194 00c4 7B88     		ldrh	r3, [r7, #2]
 2195 00c6 B3F5807F 		cmp	r3, #256
 2196 00ca 0BD0     		beq	.L63
 2197              		.loc 1 570 0 discriminator 2
 2198 00cc 7B88     		ldrh	r3, [r7, #2]
 2199 00ce B3F5007F 		cmp	r3, #512
 2200 00d2 07D0     		beq	.L63
 2201              		.loc 1 570 0 discriminator 3
 2202 00d4 40F20000 		movw	r0, #:lower16:.LC0
 2203 00d8 C0F20000 		movt	r0, #:upper16:.LC0
 2204 00dc 40F23A21 		movw	r1, #570
 2205 00e0 FFF7FEFF 		bl	assert_failed
 2206              	.L63:
 571:App/STM32F4-Discovery/Libraries/STM32F4xx_StdPeriph_Driver/src/stm32f4xx_tim.c **** 
 572:App/STM32F4-Discovery/Libraries/STM32F4xx_StdPeriph_Driver/src/stm32f4xx_tim.c ****   /* Reset the CKD Bits */
 573:App/STM32F4-Discovery/Libraries/STM32F4xx_StdPeriph_Driver/src/stm32f4xx_tim.c ****   TIMx->CR1 &= (uint16_t)(~TIM_CR1_CKD);
 2207              		.loc 1 573 0 is_stmt 1
 2208 00e4 7B68     		ldr	r3, [r7, #4]
 2209 00e6 1B88     		ldrh	r3, [r3, #0]	@ movhi
 2210 00e8 9BB2     		uxth	r3, r3
 2211 00ea 23F44073 		bic	r3, r3, #768
 2212 00ee 9AB2     		uxth	r2, r3
 2213 00f0 7B68     		ldr	r3, [r7, #4]
 2214 00f2 1A80     		strh	r2, [r3, #0]	@ movhi
 574:App/STM32F4-Discovery/Libraries/STM32F4xx_StdPeriph_Driver/src/stm32f4xx_tim.c **** 
 575:App/STM32F4-Discovery/Libraries/STM32F4xx_StdPeriph_Driver/src/stm32f4xx_tim.c ****   /* Set the CKD value */
 576:App/STM32F4-Discovery/Libraries/STM32F4xx_StdPeriph_Driver/src/stm32f4xx_tim.c ****   TIMx->CR1 |= TIM_CKD;
 2215              		.loc 1 576 0
 2216 00f4 7B68     		ldr	r3, [r7, #4]
 2217 00f6 1B88     		ldrh	r3, [r3, #0]	@ movhi
 2218 00f8 9AB2     		uxth	r2, r3
 2219 00fa 7B88     		ldrh	r3, [r7, #2]	@ movhi
 2220 00fc 1343     		orrs	r3, r3, r2
 2221 00fe 9AB2     		uxth	r2, r3
 2222 0100 7B68     		ldr	r3, [r7, #4]
 2223 0102 1A80     		strh	r2, [r3, #0]	@ movhi
 577:App/STM32F4-Discovery/Libraries/STM32F4xx_StdPeriph_Driver/src/stm32f4xx_tim.c **** }
 2224              		.loc 1 577 0
 2225 0104 07F10807 		add	r7, r7, #8
 2226 0108 BD46     		mov	sp, r7
 2227 010a 80BD     		pop	{r7, pc}
 2228              		.cfi_endproc
 2229              	.LFE123:
 2231              		.section	.text.TIM_Cmd,"ax",%progbits
 2232              		.align	2
 2233              		.global	TIM_Cmd
 2234              		.thumb
 2235              		.thumb_func
 2237              	TIM_Cmd:
 2238              	.LFB124:
 578:App/STM32F4-Discovery/Libraries/STM32F4xx_StdPeriph_Driver/src/stm32f4xx_tim.c **** 
 579:App/STM32F4-Discovery/Libraries/STM32F4xx_StdPeriph_Driver/src/stm32f4xx_tim.c **** /**
 580:App/STM32F4-Discovery/Libraries/STM32F4xx_StdPeriph_Driver/src/stm32f4xx_tim.c ****   * @brief  Enables or disables the specified TIM peripheral.
 581:App/STM32F4-Discovery/Libraries/STM32F4xx_StdPeriph_Driver/src/stm32f4xx_tim.c ****   * @param  TIMx: where x can be 1 to 14 to select the TIMx peripheral.
 582:App/STM32F4-Discovery/Libraries/STM32F4xx_StdPeriph_Driver/src/stm32f4xx_tim.c ****   * @param  NewState: new state of the TIMx peripheral.
 583:App/STM32F4-Discovery/Libraries/STM32F4xx_StdPeriph_Driver/src/stm32f4xx_tim.c ****   *          This parameter can be: ENABLE or DISABLE.
 584:App/STM32F4-Discovery/Libraries/STM32F4xx_StdPeriph_Driver/src/stm32f4xx_tim.c ****   * @retval None
 585:App/STM32F4-Discovery/Libraries/STM32F4xx_StdPeriph_Driver/src/stm32f4xx_tim.c ****   */
 586:App/STM32F4-Discovery/Libraries/STM32F4xx_StdPeriph_Driver/src/stm32f4xx_tim.c **** void TIM_Cmd(TIM_TypeDef* TIMx, FunctionalState NewState)
 587:App/STM32F4-Discovery/Libraries/STM32F4xx_StdPeriph_Driver/src/stm32f4xx_tim.c **** {
 2239              		.loc 1 587 0
 2240              		.cfi_startproc
 2241              		@ args = 0, pretend = 0, frame = 8
 2242              		@ frame_needed = 1, uses_anonymous_args = 0
 2243 0000 80B5     		push	{r7, lr}
 2244              	.LCFI42:
 2245              		.cfi_def_cfa_offset 8
 2246              		.cfi_offset 7, -8
 2247              		.cfi_offset 14, -4
 2248 0002 82B0     		sub	sp, sp, #8
 2249              	.LCFI43:
 2250              		.cfi_def_cfa_offset 16
 2251 0004 00AF     		add	r7, sp, #0
 2252              	.LCFI44:
 2253              		.cfi_def_cfa_register 7
 2254 0006 7860     		str	r0, [r7, #4]
 2255 0008 0B46     		mov	r3, r1
 2256 000a FB70     		strb	r3, [r7, #3]
 588:App/STM32F4-Discovery/Libraries/STM32F4xx_StdPeriph_Driver/src/stm32f4xx_tim.c ****   /* Check the parameters */
 589:App/STM32F4-Discovery/Libraries/STM32F4xx_StdPeriph_Driver/src/stm32f4xx_tim.c ****   assert_param(IS_TIM_ALL_PERIPH(TIMx)); 
 2257              		.loc 1 589 0
 2258 000c 7A68     		ldr	r2, [r7, #4]
 2259 000e 4FF00003 		mov	r3, #0
 2260 0012 C4F20103 		movt	r3, 16385
 2261 0016 9A42     		cmp	r2, r3
 2262 0018 5FD0     		beq	.L65
 2263              		.loc 1 589 0 is_stmt 0 discriminator 1
 2264 001a 7B68     		ldr	r3, [r7, #4]
 2265 001c B3F1804F 		cmp	r3, #1073741824
 2266 0020 5BD0     		beq	.L65
 2267              		.loc 1 589 0 discriminator 2
 2268 0022 7A68     		ldr	r2, [r7, #4]
 2269 0024 4FF48063 		mov	r3, #1024
 2270 0028 C4F20003 		movt	r3, 16384
 2271 002c 9A42     		cmp	r2, r3
 2272 002e 54D0     		beq	.L65
 2273              		.loc 1 589 0 discriminator 3
 2274 0030 7A68     		ldr	r2, [r7, #4]
 2275 0032 4FF40063 		mov	r3, #2048
 2276 0036 C4F20003 		movt	r3, 16384
 2277 003a 9A42     		cmp	r2, r3
 2278 003c 4DD0     		beq	.L65
 2279              		.loc 1 589 0 discriminator 4
 2280 003e 7A68     		ldr	r2, [r7, #4]
 2281 0040 4FF44063 		mov	r3, #3072
 2282 0044 C4F20003 		movt	r3, 16384
 2283 0048 9A42     		cmp	r2, r3
 2284 004a 46D0     		beq	.L65
 2285              		.loc 1 589 0 discriminator 5
 2286 004c 7A68     		ldr	r2, [r7, #4]
 2287 004e 4FF48053 		mov	r3, #4096
 2288 0052 C4F20003 		movt	r3, 16384
 2289 0056 9A42     		cmp	r2, r3
 2290 0058 3FD0     		beq	.L65
 2291              		.loc 1 589 0 discriminator 6
 2292 005a 7A68     		ldr	r2, [r7, #4]
 2293 005c 4FF4A053 		mov	r3, #5120
 2294 0060 C4F20003 		movt	r3, 16384
 2295 0064 9A42     		cmp	r2, r3
 2296 0066 38D0     		beq	.L65
 2297              		.loc 1 589 0 discriminator 7
 2298 0068 7A68     		ldr	r2, [r7, #4]
 2299 006a 4FF48063 		mov	r3, #1024
 2300 006e C4F20103 		movt	r3, 16385
 2301 0072 9A42     		cmp	r2, r3
 2302 0074 31D0     		beq	.L65
 2303              		.loc 1 589 0 discriminator 8
 2304 0076 7A68     		ldr	r2, [r7, #4]
 2305 0078 4FF48043 		mov	r3, #16384
 2306 007c C4F20103 		movt	r3, 16385
 2307 0080 9A42     		cmp	r2, r3
 2308 0082 2AD0     		beq	.L65
 2309              		.loc 1 589 0 discriminator 9
 2310 0084 7A68     		ldr	r2, [r7, #4]
 2311 0086 4FF48843 		mov	r3, #17408
 2312 008a C4F20103 		movt	r3, 16385
 2313 008e 9A42     		cmp	r2, r3
 2314 0090 23D0     		beq	.L65
 2315              		.loc 1 589 0 discriminator 10
 2316 0092 7A68     		ldr	r2, [r7, #4]
 2317 0094 4FF49043 		mov	r3, #18432
 2318 0098 C4F20103 		movt	r3, 16385
 2319 009c 9A42     		cmp	r2, r3
 2320 009e 1CD0     		beq	.L65
 2321              		.loc 1 589 0 discriminator 11
 2322 00a0 7A68     		ldr	r2, [r7, #4]
 2323 00a2 4FF4C053 		mov	r3, #6144
 2324 00a6 C4F20003 		movt	r3, 16384
 2325 00aa 9A42     		cmp	r2, r3
 2326 00ac 15D0     		beq	.L65
 2327              		.loc 1 589 0 discriminator 12
 2328 00ae 7A68     		ldr	r2, [r7, #4]
 2329 00b0 4FF4E053 		mov	r3, #7168
 2330 00b4 C4F20003 		movt	r3, 16384
 2331 00b8 9A42     		cmp	r2, r3
 2332 00ba 0ED0     		beq	.L65
 2333              		.loc 1 589 0 discriminator 13
 2334 00bc 7A68     		ldr	r2, [r7, #4]
 2335 00be 4FF40053 		mov	r3, #8192
 2336 00c2 C4F20003 		movt	r3, 16384
 2337 00c6 9A42     		cmp	r2, r3
 2338 00c8 07D0     		beq	.L65
 2339              		.loc 1 589 0 discriminator 14
 2340 00ca 40F20000 		movw	r0, #:lower16:.LC0
 2341 00ce C0F20000 		movt	r0, #:upper16:.LC0
 2342 00d2 40F24D21 		movw	r1, #589
 2343 00d6 FFF7FEFF 		bl	assert_failed
 2344              	.L65:
 590:App/STM32F4-Discovery/Libraries/STM32F4xx_StdPeriph_Driver/src/stm32f4xx_tim.c ****   assert_param(IS_FUNCTIONAL_STATE(NewState));
 2345              		.loc 1 590 0 is_stmt 1
 2346 00da FB78     		ldrb	r3, [r7, #3]	@ zero_extendqisi2
 2347 00dc 002B     		cmp	r3, #0
 2348 00de 0AD0     		beq	.L66
 2349              		.loc 1 590 0 is_stmt 0 discriminator 1
 2350 00e0 FB78     		ldrb	r3, [r7, #3]	@ zero_extendqisi2
 2351 00e2 012B     		cmp	r3, #1
 2352 00e4 07D0     		beq	.L66
 2353              		.loc 1 590 0 discriminator 2
 2354 00e6 40F20000 		movw	r0, #:lower16:.LC0
 2355 00ea C0F20000 		movt	r0, #:upper16:.LC0
 2356 00ee 40F24E21 		movw	r1, #590
 2357 00f2 FFF7FEFF 		bl	assert_failed
 2358              	.L66:
 591:App/STM32F4-Discovery/Libraries/STM32F4xx_StdPeriph_Driver/src/stm32f4xx_tim.c ****   
 592:App/STM32F4-Discovery/Libraries/STM32F4xx_StdPeriph_Driver/src/stm32f4xx_tim.c ****   if (NewState != DISABLE)
 2359              		.loc 1 592 0 is_stmt 1
 2360 00f6 FB78     		ldrb	r3, [r7, #3]	@ zero_extendqisi2
 2361 00f8 002B     		cmp	r3, #0
 2362 00fa 08D0     		beq	.L67
 593:App/STM32F4-Discovery/Libraries/STM32F4xx_StdPeriph_Driver/src/stm32f4xx_tim.c ****   {
 594:App/STM32F4-Discovery/Libraries/STM32F4xx_StdPeriph_Driver/src/stm32f4xx_tim.c ****     /* Enable the TIM Counter */
 595:App/STM32F4-Discovery/Libraries/STM32F4xx_StdPeriph_Driver/src/stm32f4xx_tim.c ****     TIMx->CR1 |= TIM_CR1_CEN;
 2363              		.loc 1 595 0
 2364 00fc 7B68     		ldr	r3, [r7, #4]
 2365 00fe 1B88     		ldrh	r3, [r3, #0]	@ movhi
 2366 0100 9BB2     		uxth	r3, r3
 2367 0102 43F00103 		orr	r3, r3, #1
 2368 0106 9AB2     		uxth	r2, r3
 2369 0108 7B68     		ldr	r3, [r7, #4]
 2370 010a 1A80     		strh	r2, [r3, #0]	@ movhi
 2371 010c 07E0     		b	.L64
 2372              	.L67:
 596:App/STM32F4-Discovery/Libraries/STM32F4xx_StdPeriph_Driver/src/stm32f4xx_tim.c ****   }
 597:App/STM32F4-Discovery/Libraries/STM32F4xx_StdPeriph_Driver/src/stm32f4xx_tim.c ****   else
 598:App/STM32F4-Discovery/Libraries/STM32F4xx_StdPeriph_Driver/src/stm32f4xx_tim.c ****   {
 599:App/STM32F4-Discovery/Libraries/STM32F4xx_StdPeriph_Driver/src/stm32f4xx_tim.c ****     /* Disable the TIM Counter */
 600:App/STM32F4-Discovery/Libraries/STM32F4xx_StdPeriph_Driver/src/stm32f4xx_tim.c ****     TIMx->CR1 &= (uint16_t)~TIM_CR1_CEN;
 2373              		.loc 1 600 0
 2374 010e 7B68     		ldr	r3, [r7, #4]
 2375 0110 1B88     		ldrh	r3, [r3, #0]	@ movhi
 2376 0112 9BB2     		uxth	r3, r3
 2377 0114 23F00103 		bic	r3, r3, #1
 2378 0118 9AB2     		uxth	r2, r3
 2379 011a 7B68     		ldr	r3, [r7, #4]
 2380 011c 1A80     		strh	r2, [r3, #0]	@ movhi
 2381              	.L64:
 601:App/STM32F4-Discovery/Libraries/STM32F4xx_StdPeriph_Driver/src/stm32f4xx_tim.c ****   }
 602:App/STM32F4-Discovery/Libraries/STM32F4xx_StdPeriph_Driver/src/stm32f4xx_tim.c **** }
 2382              		.loc 1 602 0
 2383 011e 07F10807 		add	r7, r7, #8
 2384 0122 BD46     		mov	sp, r7
 2385 0124 80BD     		pop	{r7, pc}
 2386              		.cfi_endproc
 2387              	.LFE124:
 2389 0126 00BF     		.section	.text.TIM_OC1Init,"ax",%progbits
 2390              		.align	2
 2391              		.global	TIM_OC1Init
 2392              		.thumb
 2393              		.thumb_func
 2395              	TIM_OC1Init:
 2396              	.LFB125:
 603:App/STM32F4-Discovery/Libraries/STM32F4xx_StdPeriph_Driver/src/stm32f4xx_tim.c **** /**
 604:App/STM32F4-Discovery/Libraries/STM32F4xx_StdPeriph_Driver/src/stm32f4xx_tim.c ****   * @}
 605:App/STM32F4-Discovery/Libraries/STM32F4xx_StdPeriph_Driver/src/stm32f4xx_tim.c ****   */
 606:App/STM32F4-Discovery/Libraries/STM32F4xx_StdPeriph_Driver/src/stm32f4xx_tim.c **** 
 607:App/STM32F4-Discovery/Libraries/STM32F4xx_StdPeriph_Driver/src/stm32f4xx_tim.c **** /** @defgroup TIM_Group2 Output Compare management functions
 608:App/STM32F4-Discovery/Libraries/STM32F4xx_StdPeriph_Driver/src/stm32f4xx_tim.c ****  *  @brief    Output Compare management functions 
 609:App/STM32F4-Discovery/Libraries/STM32F4xx_StdPeriph_Driver/src/stm32f4xx_tim.c ****  *
 610:App/STM32F4-Discovery/Libraries/STM32F4xx_StdPeriph_Driver/src/stm32f4xx_tim.c **** @verbatim   
 611:App/STM32F4-Discovery/Libraries/STM32F4xx_StdPeriph_Driver/src/stm32f4xx_tim.c ****  ===============================================================================
 612:App/STM32F4-Discovery/Libraries/STM32F4xx_StdPeriph_Driver/src/stm32f4xx_tim.c ****                         Output Compare management functions
 613:App/STM32F4-Discovery/Libraries/STM32F4xx_StdPeriph_Driver/src/stm32f4xx_tim.c ****  ===============================================================================  
 614:App/STM32F4-Discovery/Libraries/STM32F4xx_StdPeriph_Driver/src/stm32f4xx_tim.c ****    
 615:App/STM32F4-Discovery/Libraries/STM32F4xx_StdPeriph_Driver/src/stm32f4xx_tim.c ****        ===================================================================      
 616:App/STM32F4-Discovery/Libraries/STM32F4xx_StdPeriph_Driver/src/stm32f4xx_tim.c ****               TIM Driver: how to use it in Output Compare Mode
 617:App/STM32F4-Discovery/Libraries/STM32F4xx_StdPeriph_Driver/src/stm32f4xx_tim.c ****        =================================================================== 
 618:App/STM32F4-Discovery/Libraries/STM32F4xx_StdPeriph_Driver/src/stm32f4xx_tim.c ****        To use the Timer in Output Compare mode, the following steps are mandatory:
 619:App/STM32F4-Discovery/Libraries/STM32F4xx_StdPeriph_Driver/src/stm32f4xx_tim.c ****        
 620:App/STM32F4-Discovery/Libraries/STM32F4xx_StdPeriph_Driver/src/stm32f4xx_tim.c ****        1. Enable TIM clock using RCC_APBxPeriphClockCmd(RCC_APBxPeriph_TIMx, ENABLE) function
 621:App/STM32F4-Discovery/Libraries/STM32F4xx_StdPeriph_Driver/src/stm32f4xx_tim.c ****        
 622:App/STM32F4-Discovery/Libraries/STM32F4xx_StdPeriph_Driver/src/stm32f4xx_tim.c ****        2. Configure the TIM pins by configuring the corresponding GPIO pins
 623:App/STM32F4-Discovery/Libraries/STM32F4xx_StdPeriph_Driver/src/stm32f4xx_tim.c ****        
 624:App/STM32F4-Discovery/Libraries/STM32F4xx_StdPeriph_Driver/src/stm32f4xx_tim.c ****        2. Configure the Time base unit as described in the first part of this driver, 
 625:App/STM32F4-Discovery/Libraries/STM32F4xx_StdPeriph_Driver/src/stm32f4xx_tim.c ****           if needed, else the Timer will run with the default configuration:
 626:App/STM32F4-Discovery/Libraries/STM32F4xx_StdPeriph_Driver/src/stm32f4xx_tim.c ****           - Autoreload value = 0xFFFF
 627:App/STM32F4-Discovery/Libraries/STM32F4xx_StdPeriph_Driver/src/stm32f4xx_tim.c ****           - Prescaler value = 0x0000
 628:App/STM32F4-Discovery/Libraries/STM32F4xx_StdPeriph_Driver/src/stm32f4xx_tim.c ****           - Counter mode = Up counting
 629:App/STM32F4-Discovery/Libraries/STM32F4xx_StdPeriph_Driver/src/stm32f4xx_tim.c ****           - Clock Division = TIM_CKD_DIV1
 630:App/STM32F4-Discovery/Libraries/STM32F4xx_StdPeriph_Driver/src/stm32f4xx_tim.c ****           
 631:App/STM32F4-Discovery/Libraries/STM32F4xx_StdPeriph_Driver/src/stm32f4xx_tim.c ****        3. Fill the TIM_OCInitStruct with the desired parameters including:
 632:App/STM32F4-Discovery/Libraries/STM32F4xx_StdPeriph_Driver/src/stm32f4xx_tim.c ****           - The TIM Output Compare mode: TIM_OCMode
 633:App/STM32F4-Discovery/Libraries/STM32F4xx_StdPeriph_Driver/src/stm32f4xx_tim.c ****           - TIM Output State: TIM_OutputState
 634:App/STM32F4-Discovery/Libraries/STM32F4xx_StdPeriph_Driver/src/stm32f4xx_tim.c ****           - TIM Pulse value: TIM_Pulse
 635:App/STM32F4-Discovery/Libraries/STM32F4xx_StdPeriph_Driver/src/stm32f4xx_tim.c ****           - TIM Output Compare Polarity : TIM_OCPolarity
 636:App/STM32F4-Discovery/Libraries/STM32F4xx_StdPeriph_Driver/src/stm32f4xx_tim.c ****        
 637:App/STM32F4-Discovery/Libraries/STM32F4xx_StdPeriph_Driver/src/stm32f4xx_tim.c ****        4. Call TIM_OCxInit(TIMx, &TIM_OCInitStruct) to configure the desired channel with the 
 638:App/STM32F4-Discovery/Libraries/STM32F4xx_StdPeriph_Driver/src/stm32f4xx_tim.c ****           corresponding configuration
 639:App/STM32F4-Discovery/Libraries/STM32F4xx_StdPeriph_Driver/src/stm32f4xx_tim.c ****        
 640:App/STM32F4-Discovery/Libraries/STM32F4xx_StdPeriph_Driver/src/stm32f4xx_tim.c ****        5. Call the TIM_Cmd(ENABLE) function to enable the TIM counter.
 641:App/STM32F4-Discovery/Libraries/STM32F4xx_StdPeriph_Driver/src/stm32f4xx_tim.c ****        
 642:App/STM32F4-Discovery/Libraries/STM32F4xx_StdPeriph_Driver/src/stm32f4xx_tim.c ****        Note1: All other functions can be used separately to modify, if needed,
 643:App/STM32F4-Discovery/Libraries/STM32F4xx_StdPeriph_Driver/src/stm32f4xx_tim.c ****               a specific feature of the Timer. 
 644:App/STM32F4-Discovery/Libraries/STM32F4xx_StdPeriph_Driver/src/stm32f4xx_tim.c ****           
 645:App/STM32F4-Discovery/Libraries/STM32F4xx_StdPeriph_Driver/src/stm32f4xx_tim.c ****        Note2: In case of PWM mode, this function is mandatory:
 646:App/STM32F4-Discovery/Libraries/STM32F4xx_StdPeriph_Driver/src/stm32f4xx_tim.c ****               TIM_OCxPreloadConfig(TIMx, TIM_OCPreload_ENABLE); 
 647:App/STM32F4-Discovery/Libraries/STM32F4xx_StdPeriph_Driver/src/stm32f4xx_tim.c ****               
 648:App/STM32F4-Discovery/Libraries/STM32F4xx_StdPeriph_Driver/src/stm32f4xx_tim.c ****        Note3: If the corresponding interrupt or DMA request are needed, the user should:
 649:App/STM32F4-Discovery/Libraries/STM32F4xx_StdPeriph_Driver/src/stm32f4xx_tim.c ****                 1. Enable the NVIC (or the DMA) to use the TIM interrupts (or DMA requests). 
 650:App/STM32F4-Discovery/Libraries/STM32F4xx_StdPeriph_Driver/src/stm32f4xx_tim.c ****                 2. Enable the corresponding interrupt (or DMA request) using the function 
 651:App/STM32F4-Discovery/Libraries/STM32F4xx_StdPeriph_Driver/src/stm32f4xx_tim.c ****                    TIM_ITConfig(TIMx, TIM_IT_CCx) (or TIM_DMA_Cmd(TIMx, TIM_DMA_CCx))   
 652:App/STM32F4-Discovery/Libraries/STM32F4xx_StdPeriph_Driver/src/stm32f4xx_tim.c **** 
 653:App/STM32F4-Discovery/Libraries/STM32F4xx_StdPeriph_Driver/src/stm32f4xx_tim.c **** @endverbatim
 654:App/STM32F4-Discovery/Libraries/STM32F4xx_StdPeriph_Driver/src/stm32f4xx_tim.c ****   * @{
 655:App/STM32F4-Discovery/Libraries/STM32F4xx_StdPeriph_Driver/src/stm32f4xx_tim.c ****   */
 656:App/STM32F4-Discovery/Libraries/STM32F4xx_StdPeriph_Driver/src/stm32f4xx_tim.c **** 
 657:App/STM32F4-Discovery/Libraries/STM32F4xx_StdPeriph_Driver/src/stm32f4xx_tim.c **** /**
 658:App/STM32F4-Discovery/Libraries/STM32F4xx_StdPeriph_Driver/src/stm32f4xx_tim.c ****   * @brief  Initializes the TIMx Channel1 according to the specified parameters in
 659:App/STM32F4-Discovery/Libraries/STM32F4xx_StdPeriph_Driver/src/stm32f4xx_tim.c ****   *         the TIM_OCInitStruct.
 660:App/STM32F4-Discovery/Libraries/STM32F4xx_StdPeriph_Driver/src/stm32f4xx_tim.c ****   * @param  TIMx: where x can be 1 to 14 except 6 and 7, to select the TIM peripheral.
 661:App/STM32F4-Discovery/Libraries/STM32F4xx_StdPeriph_Driver/src/stm32f4xx_tim.c ****   * @param  TIM_OCInitStruct: pointer to a TIM_OCInitTypeDef structure that contains
 662:App/STM32F4-Discovery/Libraries/STM32F4xx_StdPeriph_Driver/src/stm32f4xx_tim.c ****   *         the configuration information for the specified TIM peripheral.
 663:App/STM32F4-Discovery/Libraries/STM32F4xx_StdPeriph_Driver/src/stm32f4xx_tim.c ****   * @retval None
 664:App/STM32F4-Discovery/Libraries/STM32F4xx_StdPeriph_Driver/src/stm32f4xx_tim.c ****   */
 665:App/STM32F4-Discovery/Libraries/STM32F4xx_StdPeriph_Driver/src/stm32f4xx_tim.c **** void TIM_OC1Init(TIM_TypeDef* TIMx, TIM_OCInitTypeDef* TIM_OCInitStruct)
 666:App/STM32F4-Discovery/Libraries/STM32F4xx_StdPeriph_Driver/src/stm32f4xx_tim.c **** {
 2397              		.loc 1 666 0
 2398              		.cfi_startproc
 2399              		@ args = 0, pretend = 0, frame = 16
 2400              		@ frame_needed = 1, uses_anonymous_args = 0
 2401 0000 80B5     		push	{r7, lr}
 2402              	.LCFI45:
 2403              		.cfi_def_cfa_offset 8
 2404              		.cfi_offset 7, -8
 2405              		.cfi_offset 14, -4
 2406 0002 84B0     		sub	sp, sp, #16
 2407              	.LCFI46:
 2408              		.cfi_def_cfa_offset 24
 2409 0004 00AF     		add	r7, sp, #0
 2410              	.LCFI47:
 2411              		.cfi_def_cfa_register 7
 2412 0006 7860     		str	r0, [r7, #4]
 2413 0008 3960     		str	r1, [r7, #0]
 667:App/STM32F4-Discovery/Libraries/STM32F4xx_StdPeriph_Driver/src/stm32f4xx_tim.c ****   uint16_t tmpccmrx = 0, tmpccer = 0, tmpcr2 = 0;
 2414              		.loc 1 667 0
 2415 000a 4FF00003 		mov	r3, #0
 2416 000e 7B81     		strh	r3, [r7, #10]	@ movhi
 2417 0010 4FF00003 		mov	r3, #0
 2418 0014 FB81     		strh	r3, [r7, #14]	@ movhi
 2419 0016 4FF00003 		mov	r3, #0
 2420 001a BB81     		strh	r3, [r7, #12]	@ movhi
 668:App/STM32F4-Discovery/Libraries/STM32F4xx_StdPeriph_Driver/src/stm32f4xx_tim.c ****    
 669:App/STM32F4-Discovery/Libraries/STM32F4xx_StdPeriph_Driver/src/stm32f4xx_tim.c ****   /* Check the parameters */
 670:App/STM32F4-Discovery/Libraries/STM32F4xx_StdPeriph_Driver/src/stm32f4xx_tim.c ****   assert_param(IS_TIM_LIST1_PERIPH(TIMx)); 
 2421              		.loc 1 670 0
 2422 001c 7A68     		ldr	r2, [r7, #4]
 2423 001e 4FF00003 		mov	r3, #0
 2424 0022 C4F20103 		movt	r3, 16385
 2425 0026 9A42     		cmp	r2, r3
 2426 0028 51D0     		beq	.L70
 2427              		.loc 1 670 0 is_stmt 0 discriminator 1
 2428 002a 7B68     		ldr	r3, [r7, #4]
 2429 002c B3F1804F 		cmp	r3, #1073741824
 2430 0030 4DD0     		beq	.L70
 2431              		.loc 1 670 0 discriminator 2
 2432 0032 7A68     		ldr	r2, [r7, #4]
 2433 0034 4FF48063 		mov	r3, #1024
 2434 0038 C4F20003 		movt	r3, 16384
 2435 003c 9A42     		cmp	r2, r3
 2436 003e 46D0     		beq	.L70
 2437              		.loc 1 670 0 discriminator 3
 2438 0040 7A68     		ldr	r2, [r7, #4]
 2439 0042 4FF40063 		mov	r3, #2048
 2440 0046 C4F20003 		movt	r3, 16384
 2441 004a 9A42     		cmp	r2, r3
 2442 004c 3FD0     		beq	.L70
 2443              		.loc 1 670 0 discriminator 4
 2444 004e 7A68     		ldr	r2, [r7, #4]
 2445 0050 4FF44063 		mov	r3, #3072
 2446 0054 C4F20003 		movt	r3, 16384
 2447 0058 9A42     		cmp	r2, r3
 2448 005a 38D0     		beq	.L70
 2449              		.loc 1 670 0 discriminator 5
 2450 005c 7A68     		ldr	r2, [r7, #4]
 2451 005e 4FF48063 		mov	r3, #1024
 2452 0062 C4F20103 		movt	r3, 16385
 2453 0066 9A42     		cmp	r2, r3
 2454 0068 31D0     		beq	.L70
 2455              		.loc 1 670 0 discriminator 6
 2456 006a 7A68     		ldr	r2, [r7, #4]
 2457 006c 4FF48043 		mov	r3, #16384
 2458 0070 C4F20103 		movt	r3, 16385
 2459 0074 9A42     		cmp	r2, r3
 2460 0076 2AD0     		beq	.L70
 2461              		.loc 1 670 0 discriminator 7
 2462 0078 7A68     		ldr	r2, [r7, #4]
 2463 007a 4FF48843 		mov	r3, #17408
 2464 007e C4F20103 		movt	r3, 16385
 2465 0082 9A42     		cmp	r2, r3
 2466 0084 23D0     		beq	.L70
 2467              		.loc 1 670 0 discriminator 8
 2468 0086 7A68     		ldr	r2, [r7, #4]
 2469 0088 4FF49043 		mov	r3, #18432
 2470 008c C4F20103 		movt	r3, 16385
 2471 0090 9A42     		cmp	r2, r3
 2472 0092 1CD0     		beq	.L70
 2473              		.loc 1 670 0 discriminator 9
 2474 0094 7A68     		ldr	r2, [r7, #4]
 2475 0096 4FF4C053 		mov	r3, #6144
 2476 009a C4F20003 		movt	r3, 16384
 2477 009e 9A42     		cmp	r2, r3
 2478 00a0 15D0     		beq	.L70
 2479              		.loc 1 670 0 discriminator 10
 2480 00a2 7A68     		ldr	r2, [r7, #4]
 2481 00a4 4FF4E053 		mov	r3, #7168
 2482 00a8 C4F20003 		movt	r3, 16384
 2483 00ac 9A42     		cmp	r2, r3
 2484 00ae 0ED0     		beq	.L70
 2485              		.loc 1 670 0 discriminator 11
 2486 00b0 7A68     		ldr	r2, [r7, #4]
 2487 00b2 4FF40053 		mov	r3, #8192
 2488 00b6 C4F20003 		movt	r3, 16384
 2489 00ba 9A42     		cmp	r2, r3
 2490 00bc 07D0     		beq	.L70
 2491              		.loc 1 670 0 discriminator 12
 2492 00be 40F20000 		movw	r0, #:lower16:.LC0
 2493 00c2 C0F20000 		movt	r0, #:upper16:.LC0
 2494 00c6 40F29E21 		movw	r1, #670
 2495 00ca FFF7FEFF 		bl	assert_failed
 2496              	.L70:
 671:App/STM32F4-Discovery/Libraries/STM32F4xx_StdPeriph_Driver/src/stm32f4xx_tim.c ****   assert_param(IS_TIM_OC_MODE(TIM_OCInitStruct->TIM_OCMode));
 2497              		.loc 1 671 0 is_stmt 1
 2498 00ce 3B68     		ldr	r3, [r7, #0]
 2499 00d0 1B88     		ldrh	r3, [r3, #0]
 2500 00d2 002B     		cmp	r3, #0
 2501 00d4 1BD0     		beq	.L71
 2502              		.loc 1 671 0 is_stmt 0 discriminator 1
 2503 00d6 3B68     		ldr	r3, [r7, #0]
 2504 00d8 1B88     		ldrh	r3, [r3, #0]
 2505 00da 102B     		cmp	r3, #16
 2506 00dc 17D0     		beq	.L71
 2507              		.loc 1 671 0 discriminator 2
 2508 00de 3B68     		ldr	r3, [r7, #0]
 2509 00e0 1B88     		ldrh	r3, [r3, #0]
 2510 00e2 202B     		cmp	r3, #32
 2511 00e4 13D0     		beq	.L71
 2512              		.loc 1 671 0 discriminator 3
 2513 00e6 3B68     		ldr	r3, [r7, #0]
 2514 00e8 1B88     		ldrh	r3, [r3, #0]
 2515 00ea 302B     		cmp	r3, #48
 2516 00ec 0FD0     		beq	.L71
 2517              		.loc 1 671 0 discriminator 4
 2518 00ee 3B68     		ldr	r3, [r7, #0]
 2519 00f0 1B88     		ldrh	r3, [r3, #0]
 2520 00f2 602B     		cmp	r3, #96
 2521 00f4 0BD0     		beq	.L71
 2522              		.loc 1 671 0 discriminator 5
 2523 00f6 3B68     		ldr	r3, [r7, #0]
 2524 00f8 1B88     		ldrh	r3, [r3, #0]
 2525 00fa 702B     		cmp	r3, #112
 2526 00fc 07D0     		beq	.L71
 2527              		.loc 1 671 0 discriminator 6
 2528 00fe 40F20000 		movw	r0, #:lower16:.LC0
 2529 0102 C0F20000 		movt	r0, #:upper16:.LC0
 2530 0106 40F29F21 		movw	r1, #671
 2531 010a FFF7FEFF 		bl	assert_failed
 2532              	.L71:
 672:App/STM32F4-Discovery/Libraries/STM32F4xx_StdPeriph_Driver/src/stm32f4xx_tim.c ****   assert_param(IS_TIM_OUTPUT_STATE(TIM_OCInitStruct->TIM_OutputState));
 2533              		.loc 1 672 0 is_stmt 1
 2534 010e 3B68     		ldr	r3, [r7, #0]
 2535 0110 5B88     		ldrh	r3, [r3, #2]
 2536 0112 002B     		cmp	r3, #0
 2537 0114 0BD0     		beq	.L72
 2538              		.loc 1 672 0 is_stmt 0 discriminator 1
 2539 0116 3B68     		ldr	r3, [r7, #0]
 2540 0118 5B88     		ldrh	r3, [r3, #2]
 2541 011a 012B     		cmp	r3, #1
 2542 011c 07D0     		beq	.L72
 2543              		.loc 1 672 0 discriminator 2
 2544 011e 40F20000 		movw	r0, #:lower16:.LC0
 2545 0122 C0F20000 		movt	r0, #:upper16:.LC0
 2546 0126 4FF42871 		mov	r1, #672
 2547 012a FFF7FEFF 		bl	assert_failed
 2548              	.L72:
 673:App/STM32F4-Discovery/Libraries/STM32F4xx_StdPeriph_Driver/src/stm32f4xx_tim.c ****   assert_param(IS_TIM_OC_POLARITY(TIM_OCInitStruct->TIM_OCPolarity));   
 2549              		.loc 1 673 0 is_stmt 1
 2550 012e 3B68     		ldr	r3, [r7, #0]
 2551 0130 9B89     		ldrh	r3, [r3, #12]
 2552 0132 002B     		cmp	r3, #0
 2553 0134 0BD0     		beq	.L73
 2554              		.loc 1 673 0 is_stmt 0 discriminator 1
 2555 0136 3B68     		ldr	r3, [r7, #0]
 2556 0138 9B89     		ldrh	r3, [r3, #12]
 2557 013a 022B     		cmp	r3, #2
 2558 013c 07D0     		beq	.L73
 2559              		.loc 1 673 0 discriminator 2
 2560 013e 40F20000 		movw	r0, #:lower16:.LC0
 2561 0142 C0F20000 		movt	r0, #:upper16:.LC0
 2562 0146 40F2A121 		movw	r1, #673
 2563 014a FFF7FEFF 		bl	assert_failed
 2564              	.L73:
 674:App/STM32F4-Discovery/Libraries/STM32F4xx_StdPeriph_Driver/src/stm32f4xx_tim.c **** 
 675:App/STM32F4-Discovery/Libraries/STM32F4xx_StdPeriph_Driver/src/stm32f4xx_tim.c ****   /* Disable the Channel 1: Reset the CC1E Bit */
 676:App/STM32F4-Discovery/Libraries/STM32F4xx_StdPeriph_Driver/src/stm32f4xx_tim.c ****   TIMx->CCER &= (uint16_t)~TIM_CCER_CC1E;
 2565              		.loc 1 676 0 is_stmt 1
 2566 014e 7B68     		ldr	r3, [r7, #4]
 2567 0150 1B8C     		ldrh	r3, [r3, #32]	@ movhi
 2568 0152 9BB2     		uxth	r3, r3
 2569 0154 23F00103 		bic	r3, r3, #1
 2570 0158 9AB2     		uxth	r2, r3
 2571 015a 7B68     		ldr	r3, [r7, #4]
 2572 015c 1A84     		strh	r2, [r3, #32]	@ movhi
 677:App/STM32F4-Discovery/Libraries/STM32F4xx_StdPeriph_Driver/src/stm32f4xx_tim.c ****   
 678:App/STM32F4-Discovery/Libraries/STM32F4xx_StdPeriph_Driver/src/stm32f4xx_tim.c ****   /* Get the TIMx CCER register value */
 679:App/STM32F4-Discovery/Libraries/STM32F4xx_StdPeriph_Driver/src/stm32f4xx_tim.c ****   tmpccer = TIMx->CCER;
 2573              		.loc 1 679 0
 2574 015e 7B68     		ldr	r3, [r7, #4]
 2575 0160 1B8C     		ldrh	r3, [r3, #32]	@ movhi
 2576 0162 FB81     		strh	r3, [r7, #14]	@ movhi
 680:App/STM32F4-Discovery/Libraries/STM32F4xx_StdPeriph_Driver/src/stm32f4xx_tim.c ****   /* Get the TIMx CR2 register value */
 681:App/STM32F4-Discovery/Libraries/STM32F4xx_StdPeriph_Driver/src/stm32f4xx_tim.c ****   tmpcr2 =  TIMx->CR2;
 2577              		.loc 1 681 0
 2578 0164 7B68     		ldr	r3, [r7, #4]
 2579 0166 9B88     		ldrh	r3, [r3, #4]	@ movhi
 2580 0168 BB81     		strh	r3, [r7, #12]	@ movhi
 682:App/STM32F4-Discovery/Libraries/STM32F4xx_StdPeriph_Driver/src/stm32f4xx_tim.c ****   
 683:App/STM32F4-Discovery/Libraries/STM32F4xx_StdPeriph_Driver/src/stm32f4xx_tim.c ****   /* Get the TIMx CCMR1 register value */
 684:App/STM32F4-Discovery/Libraries/STM32F4xx_StdPeriph_Driver/src/stm32f4xx_tim.c ****   tmpccmrx = TIMx->CCMR1;
 2581              		.loc 1 684 0
 2582 016a 7B68     		ldr	r3, [r7, #4]
 2583 016c 1B8B     		ldrh	r3, [r3, #24]	@ movhi
 2584 016e 7B81     		strh	r3, [r7, #10]	@ movhi
 685:App/STM32F4-Discovery/Libraries/STM32F4xx_StdPeriph_Driver/src/stm32f4xx_tim.c ****     
 686:App/STM32F4-Discovery/Libraries/STM32F4xx_StdPeriph_Driver/src/stm32f4xx_tim.c ****   /* Reset the Output Compare Mode Bits */
 687:App/STM32F4-Discovery/Libraries/STM32F4xx_StdPeriph_Driver/src/stm32f4xx_tim.c ****   tmpccmrx &= (uint16_t)~TIM_CCMR1_OC1M;
 2585              		.loc 1 687 0
 2586 0170 7B89     		ldrh	r3, [r7, #10]	@ movhi
 2587 0172 23F07003 		bic	r3, r3, #112
 2588 0176 7B81     		strh	r3, [r7, #10]	@ movhi
 688:App/STM32F4-Discovery/Libraries/STM32F4xx_StdPeriph_Driver/src/stm32f4xx_tim.c ****   tmpccmrx &= (uint16_t)~TIM_CCMR1_CC1S;
 2589              		.loc 1 688 0
 2590 0178 7B89     		ldrh	r3, [r7, #10]	@ movhi
 2591 017a 23F00303 		bic	r3, r3, #3
 2592 017e 7B81     		strh	r3, [r7, #10]	@ movhi
 689:App/STM32F4-Discovery/Libraries/STM32F4xx_StdPeriph_Driver/src/stm32f4xx_tim.c ****   /* Select the Output Compare Mode */
 690:App/STM32F4-Discovery/Libraries/STM32F4xx_StdPeriph_Driver/src/stm32f4xx_tim.c ****   tmpccmrx |= TIM_OCInitStruct->TIM_OCMode;
 2593              		.loc 1 690 0
 2594 0180 3B68     		ldr	r3, [r7, #0]
 2595 0182 1A88     		ldrh	r2, [r3, #0]
 2596 0184 7B89     		ldrh	r3, [r7, #10]	@ movhi
 2597 0186 1343     		orrs	r3, r3, r2
 2598 0188 7B81     		strh	r3, [r7, #10]	@ movhi
 691:App/STM32F4-Discovery/Libraries/STM32F4xx_StdPeriph_Driver/src/stm32f4xx_tim.c ****   
 692:App/STM32F4-Discovery/Libraries/STM32F4xx_StdPeriph_Driver/src/stm32f4xx_tim.c ****   /* Reset the Output Polarity level */
 693:App/STM32F4-Discovery/Libraries/STM32F4xx_StdPeriph_Driver/src/stm32f4xx_tim.c ****   tmpccer &= (uint16_t)~TIM_CCER_CC1P;
 2599              		.loc 1 693 0
 2600 018a FB89     		ldrh	r3, [r7, #14]	@ movhi
 2601 018c 23F00203 		bic	r3, r3, #2
 2602 0190 FB81     		strh	r3, [r7, #14]	@ movhi
 694:App/STM32F4-Discovery/Libraries/STM32F4xx_StdPeriph_Driver/src/stm32f4xx_tim.c ****   /* Set the Output Compare Polarity */
 695:App/STM32F4-Discovery/Libraries/STM32F4xx_StdPeriph_Driver/src/stm32f4xx_tim.c ****   tmpccer |= TIM_OCInitStruct->TIM_OCPolarity;
 2603              		.loc 1 695 0
 2604 0192 3B68     		ldr	r3, [r7, #0]
 2605 0194 9A89     		ldrh	r2, [r3, #12]
 2606 0196 FB89     		ldrh	r3, [r7, #14]	@ movhi
 2607 0198 1343     		orrs	r3, r3, r2
 2608 019a FB81     		strh	r3, [r7, #14]	@ movhi
 696:App/STM32F4-Discovery/Libraries/STM32F4xx_StdPeriph_Driver/src/stm32f4xx_tim.c ****   
 697:App/STM32F4-Discovery/Libraries/STM32F4xx_StdPeriph_Driver/src/stm32f4xx_tim.c ****   /* Set the Output State */
 698:App/STM32F4-Discovery/Libraries/STM32F4xx_StdPeriph_Driver/src/stm32f4xx_tim.c ****   tmpccer |= TIM_OCInitStruct->TIM_OutputState;
 2609              		.loc 1 698 0
 2610 019c 3B68     		ldr	r3, [r7, #0]
 2611 019e 5A88     		ldrh	r2, [r3, #2]
 2612 01a0 FB89     		ldrh	r3, [r7, #14]	@ movhi
 2613 01a2 1343     		orrs	r3, r3, r2
 2614 01a4 FB81     		strh	r3, [r7, #14]	@ movhi
 699:App/STM32F4-Discovery/Libraries/STM32F4xx_StdPeriph_Driver/src/stm32f4xx_tim.c ****     
 700:App/STM32F4-Discovery/Libraries/STM32F4xx_StdPeriph_Driver/src/stm32f4xx_tim.c ****   if((TIMx == TIM1) || (TIMx == TIM8))
 2615              		.loc 1 700 0
 2616 01a6 7A68     		ldr	r2, [r7, #4]
 2617 01a8 4FF00003 		mov	r3, #0
 2618 01ac C4F20103 		movt	r3, 16385
 2619 01b0 9A42     		cmp	r2, r3
 2620 01b2 06D0     		beq	.L74
 2621              		.loc 1 700 0 is_stmt 0 discriminator 1
 2622 01b4 7A68     		ldr	r2, [r7, #4]
 2623 01b6 4FF48063 		mov	r3, #1024
 2624 01ba C4F20103 		movt	r3, 16385
 2625 01be 9A42     		cmp	r2, r3
 2626 01c0 65D1     		bne	.L75
 2627              	.L74:
 701:App/STM32F4-Discovery/Libraries/STM32F4xx_StdPeriph_Driver/src/stm32f4xx_tim.c ****   {
 702:App/STM32F4-Discovery/Libraries/STM32F4xx_StdPeriph_Driver/src/stm32f4xx_tim.c ****     assert_param(IS_TIM_OUTPUTN_STATE(TIM_OCInitStruct->TIM_OutputNState));
 2628              		.loc 1 702 0 is_stmt 1
 2629 01c2 3B68     		ldr	r3, [r7, #0]
 2630 01c4 9B88     		ldrh	r3, [r3, #4]
 2631 01c6 002B     		cmp	r3, #0
 2632 01c8 0BD0     		beq	.L76
 2633              		.loc 1 702 0 is_stmt 0 discriminator 1
 2634 01ca 3B68     		ldr	r3, [r7, #0]
 2635 01cc 9B88     		ldrh	r3, [r3, #4]
 2636 01ce 042B     		cmp	r3, #4
 2637 01d0 07D0     		beq	.L76
 2638              		.loc 1 702 0 discriminator 2
 2639 01d2 40F20000 		movw	r0, #:lower16:.LC0
 2640 01d6 C0F20000 		movt	r0, #:upper16:.LC0
 2641 01da 40F2BE21 		movw	r1, #702
 2642 01de FFF7FEFF 		bl	assert_failed
 2643              	.L76:
 703:App/STM32F4-Discovery/Libraries/STM32F4xx_StdPeriph_Driver/src/stm32f4xx_tim.c ****     assert_param(IS_TIM_OCN_POLARITY(TIM_OCInitStruct->TIM_OCNPolarity));
 2644              		.loc 1 703 0 is_stmt 1
 2645 01e2 3B68     		ldr	r3, [r7, #0]
 2646 01e4 DB89     		ldrh	r3, [r3, #14]
 2647 01e6 002B     		cmp	r3, #0
 2648 01e8 0BD0     		beq	.L77
 2649              		.loc 1 703 0 is_stmt 0 discriminator 1
 2650 01ea 3B68     		ldr	r3, [r7, #0]
 2651 01ec DB89     		ldrh	r3, [r3, #14]
 2652 01ee 082B     		cmp	r3, #8
 2653 01f0 07D0     		beq	.L77
 2654              		.loc 1 703 0 discriminator 2
 2655 01f2 40F20000 		movw	r0, #:lower16:.LC0
 2656 01f6 C0F20000 		movt	r0, #:upper16:.LC0
 2657 01fa 40F2BF21 		movw	r1, #703
 2658 01fe FFF7FEFF 		bl	assert_failed
 2659              	.L77:
 704:App/STM32F4-Discovery/Libraries/STM32F4xx_StdPeriph_Driver/src/stm32f4xx_tim.c ****     assert_param(IS_TIM_OCNIDLE_STATE(TIM_OCInitStruct->TIM_OCNIdleState));
 2660              		.loc 1 704 0 is_stmt 1
 2661 0202 3B68     		ldr	r3, [r7, #0]
 2662 0204 5B8A     		ldrh	r3, [r3, #18]
 2663 0206 B3F5007F 		cmp	r3, #512
 2664 020a 0BD0     		beq	.L78
 2665              		.loc 1 704 0 is_stmt 0 discriminator 1
 2666 020c 3B68     		ldr	r3, [r7, #0]
 2667 020e 5B8A     		ldrh	r3, [r3, #18]
 2668 0210 002B     		cmp	r3, #0
 2669 0212 07D0     		beq	.L78
 2670              		.loc 1 704 0 discriminator 2
 2671 0214 40F20000 		movw	r0, #:lower16:.LC0
 2672 0218 C0F20000 		movt	r0, #:upper16:.LC0
 2673 021c 4FF43071 		mov	r1, #704
 2674 0220 FFF7FEFF 		bl	assert_failed
 2675              	.L78:
 705:App/STM32F4-Discovery/Libraries/STM32F4xx_StdPeriph_Driver/src/stm32f4xx_tim.c ****     assert_param(IS_TIM_OCIDLE_STATE(TIM_OCInitStruct->TIM_OCIdleState));
 2676              		.loc 1 705 0 is_stmt 1
 2677 0224 3B68     		ldr	r3, [r7, #0]
 2678 0226 1B8A     		ldrh	r3, [r3, #16]
 2679 0228 B3F5807F 		cmp	r3, #256
 2680 022c 0BD0     		beq	.L79
 2681              		.loc 1 705 0 is_stmt 0 discriminator 1
 2682 022e 3B68     		ldr	r3, [r7, #0]
 2683 0230 1B8A     		ldrh	r3, [r3, #16]
 2684 0232 002B     		cmp	r3, #0
 2685 0234 07D0     		beq	.L79
 2686              		.loc 1 705 0 discriminator 2
 2687 0236 40F20000 		movw	r0, #:lower16:.LC0
 2688 023a C0F20000 		movt	r0, #:upper16:.LC0
 2689 023e 40F2C121 		movw	r1, #705
 2690 0242 FFF7FEFF 		bl	assert_failed
 2691              	.L79:
 706:App/STM32F4-Discovery/Libraries/STM32F4xx_StdPeriph_Driver/src/stm32f4xx_tim.c ****     
 707:App/STM32F4-Discovery/Libraries/STM32F4xx_StdPeriph_Driver/src/stm32f4xx_tim.c ****     /* Reset the Output N Polarity level */
 708:App/STM32F4-Discovery/Libraries/STM32F4xx_StdPeriph_Driver/src/stm32f4xx_tim.c ****     tmpccer &= (uint16_t)~TIM_CCER_CC1NP;
 2692              		.loc 1 708 0 is_stmt 1
 2693 0246 FB89     		ldrh	r3, [r7, #14]	@ movhi
 2694 0248 23F00803 		bic	r3, r3, #8
 2695 024c FB81     		strh	r3, [r7, #14]	@ movhi
 709:App/STM32F4-Discovery/Libraries/STM32F4xx_StdPeriph_Driver/src/stm32f4xx_tim.c ****     /* Set the Output N Polarity */
 710:App/STM32F4-Discovery/Libraries/STM32F4xx_StdPeriph_Driver/src/stm32f4xx_tim.c ****     tmpccer |= TIM_OCInitStruct->TIM_OCNPolarity;
 2696              		.loc 1 710 0
 2697 024e 3B68     		ldr	r3, [r7, #0]
 2698 0250 DA89     		ldrh	r2, [r3, #14]
 2699 0252 FB89     		ldrh	r3, [r7, #14]	@ movhi
 2700 0254 1343     		orrs	r3, r3, r2
 2701 0256 FB81     		strh	r3, [r7, #14]	@ movhi
 711:App/STM32F4-Discovery/Libraries/STM32F4xx_StdPeriph_Driver/src/stm32f4xx_tim.c ****     /* Reset the Output N State */
 712:App/STM32F4-Discovery/Libraries/STM32F4xx_StdPeriph_Driver/src/stm32f4xx_tim.c ****     tmpccer &= (uint16_t)~TIM_CCER_CC1NE;
 2702              		.loc 1 712 0
 2703 0258 FB89     		ldrh	r3, [r7, #14]	@ movhi
 2704 025a 23F00403 		bic	r3, r3, #4
 2705 025e FB81     		strh	r3, [r7, #14]	@ movhi
 713:App/STM32F4-Discovery/Libraries/STM32F4xx_StdPeriph_Driver/src/stm32f4xx_tim.c ****     
 714:App/STM32F4-Discovery/Libraries/STM32F4xx_StdPeriph_Driver/src/stm32f4xx_tim.c ****     /* Set the Output N State */
 715:App/STM32F4-Discovery/Libraries/STM32F4xx_StdPeriph_Driver/src/stm32f4xx_tim.c ****     tmpccer |= TIM_OCInitStruct->TIM_OutputNState;
 2706              		.loc 1 715 0
 2707 0260 3B68     		ldr	r3, [r7, #0]
 2708 0262 9A88     		ldrh	r2, [r3, #4]
 2709 0264 FB89     		ldrh	r3, [r7, #14]	@ movhi
 2710 0266 1343     		orrs	r3, r3, r2
 2711 0268 FB81     		strh	r3, [r7, #14]	@ movhi
 716:App/STM32F4-Discovery/Libraries/STM32F4xx_StdPeriph_Driver/src/stm32f4xx_tim.c ****     /* Reset the Output Compare and Output Compare N IDLE State */
 717:App/STM32F4-Discovery/Libraries/STM32F4xx_StdPeriph_Driver/src/stm32f4xx_tim.c ****     tmpcr2 &= (uint16_t)~TIM_CR2_OIS1;
 2712              		.loc 1 717 0
 2713 026a BB89     		ldrh	r3, [r7, #12]	@ movhi
 2714 026c 23F48073 		bic	r3, r3, #256
 2715 0270 BB81     		strh	r3, [r7, #12]	@ movhi
 718:App/STM32F4-Discovery/Libraries/STM32F4xx_StdPeriph_Driver/src/stm32f4xx_tim.c ****     tmpcr2 &= (uint16_t)~TIM_CR2_OIS1N;
 2716              		.loc 1 718 0
 2717 0272 BB89     		ldrh	r3, [r7, #12]	@ movhi
 2718 0274 23F40073 		bic	r3, r3, #512
 2719 0278 BB81     		strh	r3, [r7, #12]	@ movhi
 719:App/STM32F4-Discovery/Libraries/STM32F4xx_StdPeriph_Driver/src/stm32f4xx_tim.c ****     /* Set the Output Idle state */
 720:App/STM32F4-Discovery/Libraries/STM32F4xx_StdPeriph_Driver/src/stm32f4xx_tim.c ****     tmpcr2 |= TIM_OCInitStruct->TIM_OCIdleState;
 2720              		.loc 1 720 0
 2721 027a 3B68     		ldr	r3, [r7, #0]
 2722 027c 1A8A     		ldrh	r2, [r3, #16]
 2723 027e BB89     		ldrh	r3, [r7, #12]	@ movhi
 2724 0280 1343     		orrs	r3, r3, r2
 2725 0282 BB81     		strh	r3, [r7, #12]	@ movhi
 721:App/STM32F4-Discovery/Libraries/STM32F4xx_StdPeriph_Driver/src/stm32f4xx_tim.c ****     /* Set the Output N Idle state */
 722:App/STM32F4-Discovery/Libraries/STM32F4xx_StdPeriph_Driver/src/stm32f4xx_tim.c ****     tmpcr2 |= TIM_OCInitStruct->TIM_OCNIdleState;
 2726              		.loc 1 722 0
 2727 0284 3B68     		ldr	r3, [r7, #0]
 2728 0286 5A8A     		ldrh	r2, [r3, #18]
 2729 0288 BB89     		ldrh	r3, [r7, #12]	@ movhi
 2730 028a 1343     		orrs	r3, r3, r2
 2731 028c BB81     		strh	r3, [r7, #12]	@ movhi
 2732              	.L75:
 723:App/STM32F4-Discovery/Libraries/STM32F4xx_StdPeriph_Driver/src/stm32f4xx_tim.c ****   }
 724:App/STM32F4-Discovery/Libraries/STM32F4xx_StdPeriph_Driver/src/stm32f4xx_tim.c ****   /* Write to TIMx CR2 */
 725:App/STM32F4-Discovery/Libraries/STM32F4xx_StdPeriph_Driver/src/stm32f4xx_tim.c ****   TIMx->CR2 = tmpcr2;
 2733              		.loc 1 725 0
 2734 028e 7B68     		ldr	r3, [r7, #4]
 2735 0290 BA89     		ldrh	r2, [r7, #12]	@ movhi
 2736 0292 9A80     		strh	r2, [r3, #4]	@ movhi
 726:App/STM32F4-Discovery/Libraries/STM32F4xx_StdPeriph_Driver/src/stm32f4xx_tim.c ****   
 727:App/STM32F4-Discovery/Libraries/STM32F4xx_StdPeriph_Driver/src/stm32f4xx_tim.c ****   /* Write to TIMx CCMR1 */
 728:App/STM32F4-Discovery/Libraries/STM32F4xx_StdPeriph_Driver/src/stm32f4xx_tim.c ****   TIMx->CCMR1 = tmpccmrx;
 2737              		.loc 1 728 0
 2738 0294 7B68     		ldr	r3, [r7, #4]
 2739 0296 7A89     		ldrh	r2, [r7, #10]	@ movhi
 2740 0298 1A83     		strh	r2, [r3, #24]	@ movhi
 729:App/STM32F4-Discovery/Libraries/STM32F4xx_StdPeriph_Driver/src/stm32f4xx_tim.c ****   
 730:App/STM32F4-Discovery/Libraries/STM32F4xx_StdPeriph_Driver/src/stm32f4xx_tim.c ****   /* Set the Capture Compare Register value */
 731:App/STM32F4-Discovery/Libraries/STM32F4xx_StdPeriph_Driver/src/stm32f4xx_tim.c ****   TIMx->CCR1 = TIM_OCInitStruct->TIM_Pulse;
 2741              		.loc 1 731 0
 2742 029a 3B68     		ldr	r3, [r7, #0]
 2743 029c 9A68     		ldr	r2, [r3, #8]
 2744 029e 7B68     		ldr	r3, [r7, #4]
 2745 02a0 5A63     		str	r2, [r3, #52]
 732:App/STM32F4-Discovery/Libraries/STM32F4xx_StdPeriph_Driver/src/stm32f4xx_tim.c ****   
 733:App/STM32F4-Discovery/Libraries/STM32F4xx_StdPeriph_Driver/src/stm32f4xx_tim.c ****   /* Write to TIMx CCER */
 734:App/STM32F4-Discovery/Libraries/STM32F4xx_StdPeriph_Driver/src/stm32f4xx_tim.c ****   TIMx->CCER = tmpccer;
 2746              		.loc 1 734 0
 2747 02a2 7B68     		ldr	r3, [r7, #4]
 2748 02a4 FA89     		ldrh	r2, [r7, #14]	@ movhi
 2749 02a6 1A84     		strh	r2, [r3, #32]	@ movhi
 735:App/STM32F4-Discovery/Libraries/STM32F4xx_StdPeriph_Driver/src/stm32f4xx_tim.c **** }
 2750              		.loc 1 735 0
 2751 02a8 07F11007 		add	r7, r7, #16
 2752 02ac BD46     		mov	sp, r7
 2753 02ae 80BD     		pop	{r7, pc}
 2754              		.cfi_endproc
 2755              	.LFE125:
 2757              		.section	.text.TIM_OC2Init,"ax",%progbits
 2758              		.align	2
 2759              		.global	TIM_OC2Init
 2760              		.thumb
 2761              		.thumb_func
 2763              	TIM_OC2Init:
 2764              	.LFB126:
 736:App/STM32F4-Discovery/Libraries/STM32F4xx_StdPeriph_Driver/src/stm32f4xx_tim.c **** 
 737:App/STM32F4-Discovery/Libraries/STM32F4xx_StdPeriph_Driver/src/stm32f4xx_tim.c **** /**
 738:App/STM32F4-Discovery/Libraries/STM32F4xx_StdPeriph_Driver/src/stm32f4xx_tim.c ****   * @brief  Initializes the TIMx Channel2 according to the specified parameters 
 739:App/STM32F4-Discovery/Libraries/STM32F4xx_StdPeriph_Driver/src/stm32f4xx_tim.c ****   *         in the TIM_OCInitStruct.
 740:App/STM32F4-Discovery/Libraries/STM32F4xx_StdPeriph_Driver/src/stm32f4xx_tim.c ****   * @param  TIMx: where x can be 1, 2, 3, 4, 5, 8, 9 or 12 to select the TIM 
 741:App/STM32F4-Discovery/Libraries/STM32F4xx_StdPeriph_Driver/src/stm32f4xx_tim.c ****   *         peripheral.
 742:App/STM32F4-Discovery/Libraries/STM32F4xx_StdPeriph_Driver/src/stm32f4xx_tim.c ****   * @param  TIM_OCInitStruct: pointer to a TIM_OCInitTypeDef structure that contains
 743:App/STM32F4-Discovery/Libraries/STM32F4xx_StdPeriph_Driver/src/stm32f4xx_tim.c ****   *         the configuration information for the specified TIM peripheral.
 744:App/STM32F4-Discovery/Libraries/STM32F4xx_StdPeriph_Driver/src/stm32f4xx_tim.c ****   * @retval None
 745:App/STM32F4-Discovery/Libraries/STM32F4xx_StdPeriph_Driver/src/stm32f4xx_tim.c ****   */
 746:App/STM32F4-Discovery/Libraries/STM32F4xx_StdPeriph_Driver/src/stm32f4xx_tim.c **** void TIM_OC2Init(TIM_TypeDef* TIMx, TIM_OCInitTypeDef* TIM_OCInitStruct)
 747:App/STM32F4-Discovery/Libraries/STM32F4xx_StdPeriph_Driver/src/stm32f4xx_tim.c **** {
 2765              		.loc 1 747 0
 2766              		.cfi_startproc
 2767              		@ args = 0, pretend = 0, frame = 16
 2768              		@ frame_needed = 1, uses_anonymous_args = 0
 2769 0000 80B5     		push	{r7, lr}
 2770              	.LCFI48:
 2771              		.cfi_def_cfa_offset 8
 2772              		.cfi_offset 7, -8
 2773              		.cfi_offset 14, -4
 2774 0002 84B0     		sub	sp, sp, #16
 2775              	.LCFI49:
 2776              		.cfi_def_cfa_offset 24
 2777 0004 00AF     		add	r7, sp, #0
 2778              	.LCFI50:
 2779              		.cfi_def_cfa_register 7
 2780 0006 7860     		str	r0, [r7, #4]
 2781 0008 3960     		str	r1, [r7, #0]
 748:App/STM32F4-Discovery/Libraries/STM32F4xx_StdPeriph_Driver/src/stm32f4xx_tim.c ****   uint16_t tmpccmrx = 0, tmpccer = 0, tmpcr2 = 0;
 2782              		.loc 1 748 0
 2783 000a 4FF00003 		mov	r3, #0
 2784 000e 7B81     		strh	r3, [r7, #10]	@ movhi
 2785 0010 4FF00003 		mov	r3, #0
 2786 0014 FB81     		strh	r3, [r7, #14]	@ movhi
 2787 0016 4FF00003 		mov	r3, #0
 2788 001a BB81     		strh	r3, [r7, #12]	@ movhi
 749:App/STM32F4-Discovery/Libraries/STM32F4xx_StdPeriph_Driver/src/stm32f4xx_tim.c ****    
 750:App/STM32F4-Discovery/Libraries/STM32F4xx_StdPeriph_Driver/src/stm32f4xx_tim.c ****   /* Check the parameters */
 751:App/STM32F4-Discovery/Libraries/STM32F4xx_StdPeriph_Driver/src/stm32f4xx_tim.c ****   assert_param(IS_TIM_LIST2_PERIPH(TIMx)); 
 2789              		.loc 1 751 0
 2790 001c 7A68     		ldr	r2, [r7, #4]
 2791 001e 4FF00003 		mov	r3, #0
 2792 0022 C4F20103 		movt	r3, 16385
 2793 0026 9A42     		cmp	r2, r3
 2794 0028 35D0     		beq	.L81
 2795              		.loc 1 751 0 is_stmt 0 discriminator 1
 2796 002a 7B68     		ldr	r3, [r7, #4]
 2797 002c B3F1804F 		cmp	r3, #1073741824
 2798 0030 31D0     		beq	.L81
 2799              		.loc 1 751 0 discriminator 2
 2800 0032 7A68     		ldr	r2, [r7, #4]
 2801 0034 4FF48063 		mov	r3, #1024
 2802 0038 C4F20003 		movt	r3, 16384
 2803 003c 9A42     		cmp	r2, r3
 2804 003e 2AD0     		beq	.L81
 2805              		.loc 1 751 0 discriminator 3
 2806 0040 7A68     		ldr	r2, [r7, #4]
 2807 0042 4FF40063 		mov	r3, #2048
 2808 0046 C4F20003 		movt	r3, 16384
 2809 004a 9A42     		cmp	r2, r3
 2810 004c 23D0     		beq	.L81
 2811              		.loc 1 751 0 discriminator 4
 2812 004e 7A68     		ldr	r2, [r7, #4]
 2813 0050 4FF44063 		mov	r3, #3072
 2814 0054 C4F20003 		movt	r3, 16384
 2815 0058 9A42     		cmp	r2, r3
 2816 005a 1CD0     		beq	.L81
 2817              		.loc 1 751 0 discriminator 5
 2818 005c 7A68     		ldr	r2, [r7, #4]
 2819 005e 4FF48063 		mov	r3, #1024
 2820 0062 C4F20103 		movt	r3, 16385
 2821 0066 9A42     		cmp	r2, r3
 2822 0068 15D0     		beq	.L81
 2823              		.loc 1 751 0 discriminator 6
 2824 006a 7A68     		ldr	r2, [r7, #4]
 2825 006c 4FF48043 		mov	r3, #16384
 2826 0070 C4F20103 		movt	r3, 16385
 2827 0074 9A42     		cmp	r2, r3
 2828 0076 0ED0     		beq	.L81
 2829              		.loc 1 751 0 discriminator 7
 2830 0078 7A68     		ldr	r2, [r7, #4]
 2831 007a 4FF4C053 		mov	r3, #6144
 2832 007e C4F20003 		movt	r3, 16384
 2833 0082 9A42     		cmp	r2, r3
 2834 0084 07D0     		beq	.L81
 2835              		.loc 1 751 0 discriminator 8
 2836 0086 40F20000 		movw	r0, #:lower16:.LC0
 2837 008a C0F20000 		movt	r0, #:upper16:.LC0
 2838 008e 40F2EF21 		movw	r1, #751
 2839 0092 FFF7FEFF 		bl	assert_failed
 2840              	.L81:
 752:App/STM32F4-Discovery/Libraries/STM32F4xx_StdPeriph_Driver/src/stm32f4xx_tim.c ****   assert_param(IS_TIM_OC_MODE(TIM_OCInitStruct->TIM_OCMode));
 2841              		.loc 1 752 0 is_stmt 1
 2842 0096 3B68     		ldr	r3, [r7, #0]
 2843 0098 1B88     		ldrh	r3, [r3, #0]
 2844 009a 002B     		cmp	r3, #0
 2845 009c 1BD0     		beq	.L82
 2846              		.loc 1 752 0 is_stmt 0 discriminator 1
 2847 009e 3B68     		ldr	r3, [r7, #0]
 2848 00a0 1B88     		ldrh	r3, [r3, #0]
 2849 00a2 102B     		cmp	r3, #16
 2850 00a4 17D0     		beq	.L82
 2851              		.loc 1 752 0 discriminator 2
 2852 00a6 3B68     		ldr	r3, [r7, #0]
 2853 00a8 1B88     		ldrh	r3, [r3, #0]
 2854 00aa 202B     		cmp	r3, #32
 2855 00ac 13D0     		beq	.L82
 2856              		.loc 1 752 0 discriminator 3
 2857 00ae 3B68     		ldr	r3, [r7, #0]
 2858 00b0 1B88     		ldrh	r3, [r3, #0]
 2859 00b2 302B     		cmp	r3, #48
 2860 00b4 0FD0     		beq	.L82
 2861              		.loc 1 752 0 discriminator 4
 2862 00b6 3B68     		ldr	r3, [r7, #0]
 2863 00b8 1B88     		ldrh	r3, [r3, #0]
 2864 00ba 602B     		cmp	r3, #96
 2865 00bc 0BD0     		beq	.L82
 2866              		.loc 1 752 0 discriminator 5
 2867 00be 3B68     		ldr	r3, [r7, #0]
 2868 00c0 1B88     		ldrh	r3, [r3, #0]
 2869 00c2 702B     		cmp	r3, #112
 2870 00c4 07D0     		beq	.L82
 2871              		.loc 1 752 0 discriminator 6
 2872 00c6 40F20000 		movw	r0, #:lower16:.LC0
 2873 00ca C0F20000 		movt	r0, #:upper16:.LC0
 2874 00ce 4FF43C71 		mov	r1, #752
 2875 00d2 FFF7FEFF 		bl	assert_failed
 2876              	.L82:
 753:App/STM32F4-Discovery/Libraries/STM32F4xx_StdPeriph_Driver/src/stm32f4xx_tim.c ****   assert_param(IS_TIM_OUTPUT_STATE(TIM_OCInitStruct->TIM_OutputState));
 2877              		.loc 1 753 0 is_stmt 1
 2878 00d6 3B68     		ldr	r3, [r7, #0]
 2879 00d8 5B88     		ldrh	r3, [r3, #2]
 2880 00da 002B     		cmp	r3, #0
 2881 00dc 0BD0     		beq	.L83
 2882              		.loc 1 753 0 is_stmt 0 discriminator 1
 2883 00de 3B68     		ldr	r3, [r7, #0]
 2884 00e0 5B88     		ldrh	r3, [r3, #2]
 2885 00e2 012B     		cmp	r3, #1
 2886 00e4 07D0     		beq	.L83
 2887              		.loc 1 753 0 discriminator 2
 2888 00e6 40F20000 		movw	r0, #:lower16:.LC0
 2889 00ea C0F20000 		movt	r0, #:upper16:.LC0
 2890 00ee 40F2F121 		movw	r1, #753
 2891 00f2 FFF7FEFF 		bl	assert_failed
 2892              	.L83:
 754:App/STM32F4-Discovery/Libraries/STM32F4xx_StdPeriph_Driver/src/stm32f4xx_tim.c ****   assert_param(IS_TIM_OC_POLARITY(TIM_OCInitStruct->TIM_OCPolarity));   
 2893              		.loc 1 754 0 is_stmt 1
 2894 00f6 3B68     		ldr	r3, [r7, #0]
 2895 00f8 9B89     		ldrh	r3, [r3, #12]
 2896 00fa 002B     		cmp	r3, #0
 2897 00fc 0BD0     		beq	.L84
 2898              		.loc 1 754 0 is_stmt 0 discriminator 1
 2899 00fe 3B68     		ldr	r3, [r7, #0]
 2900 0100 9B89     		ldrh	r3, [r3, #12]
 2901 0102 022B     		cmp	r3, #2
 2902 0104 07D0     		beq	.L84
 2903              		.loc 1 754 0 discriminator 2
 2904 0106 40F20000 		movw	r0, #:lower16:.LC0
 2905 010a C0F20000 		movt	r0, #:upper16:.LC0
 2906 010e 40F2F221 		movw	r1, #754
 2907 0112 FFF7FEFF 		bl	assert_failed
 2908              	.L84:
 755:App/STM32F4-Discovery/Libraries/STM32F4xx_StdPeriph_Driver/src/stm32f4xx_tim.c **** 
 756:App/STM32F4-Discovery/Libraries/STM32F4xx_StdPeriph_Driver/src/stm32f4xx_tim.c ****   /* Disable the Channel 2: Reset the CC2E Bit */
 757:App/STM32F4-Discovery/Libraries/STM32F4xx_StdPeriph_Driver/src/stm32f4xx_tim.c ****   TIMx->CCER &= (uint16_t)~TIM_CCER_CC2E;
 2909              		.loc 1 757 0 is_stmt 1
 2910 0116 7B68     		ldr	r3, [r7, #4]
 2911 0118 1B8C     		ldrh	r3, [r3, #32]	@ movhi
 2912 011a 9BB2     		uxth	r3, r3
 2913 011c 23F01003 		bic	r3, r3, #16
 2914 0120 9AB2     		uxth	r2, r3
 2915 0122 7B68     		ldr	r3, [r7, #4]
 2916 0124 1A84     		strh	r2, [r3, #32]	@ movhi
 758:App/STM32F4-Discovery/Libraries/STM32F4xx_StdPeriph_Driver/src/stm32f4xx_tim.c ****   
 759:App/STM32F4-Discovery/Libraries/STM32F4xx_StdPeriph_Driver/src/stm32f4xx_tim.c ****   /* Get the TIMx CCER register value */  
 760:App/STM32F4-Discovery/Libraries/STM32F4xx_StdPeriph_Driver/src/stm32f4xx_tim.c ****   tmpccer = TIMx->CCER;
 2917              		.loc 1 760 0
 2918 0126 7B68     		ldr	r3, [r7, #4]
 2919 0128 1B8C     		ldrh	r3, [r3, #32]	@ movhi
 2920 012a FB81     		strh	r3, [r7, #14]	@ movhi
 761:App/STM32F4-Discovery/Libraries/STM32F4xx_StdPeriph_Driver/src/stm32f4xx_tim.c ****   /* Get the TIMx CR2 register value */
 762:App/STM32F4-Discovery/Libraries/STM32F4xx_StdPeriph_Driver/src/stm32f4xx_tim.c ****   tmpcr2 =  TIMx->CR2;
 2921              		.loc 1 762 0
 2922 012c 7B68     		ldr	r3, [r7, #4]
 2923 012e 9B88     		ldrh	r3, [r3, #4]	@ movhi
 2924 0130 BB81     		strh	r3, [r7, #12]	@ movhi
 763:App/STM32F4-Discovery/Libraries/STM32F4xx_StdPeriph_Driver/src/stm32f4xx_tim.c ****   
 764:App/STM32F4-Discovery/Libraries/STM32F4xx_StdPeriph_Driver/src/stm32f4xx_tim.c ****   /* Get the TIMx CCMR1 register value */
 765:App/STM32F4-Discovery/Libraries/STM32F4xx_StdPeriph_Driver/src/stm32f4xx_tim.c ****   tmpccmrx = TIMx->CCMR1;
 2925              		.loc 1 765 0
 2926 0132 7B68     		ldr	r3, [r7, #4]
 2927 0134 1B8B     		ldrh	r3, [r3, #24]	@ movhi
 2928 0136 7B81     		strh	r3, [r7, #10]	@ movhi
 766:App/STM32F4-Discovery/Libraries/STM32F4xx_StdPeriph_Driver/src/stm32f4xx_tim.c ****     
 767:App/STM32F4-Discovery/Libraries/STM32F4xx_StdPeriph_Driver/src/stm32f4xx_tim.c ****   /* Reset the Output Compare mode and Capture/Compare selection Bits */
 768:App/STM32F4-Discovery/Libraries/STM32F4xx_StdPeriph_Driver/src/stm32f4xx_tim.c ****   tmpccmrx &= (uint16_t)~TIM_CCMR1_OC2M;
 2929              		.loc 1 768 0
 2930 0138 7B89     		ldrh	r3, [r7, #10]	@ movhi
 2931 013a 23F4E043 		bic	r3, r3, #28672
 2932 013e 7B81     		strh	r3, [r7, #10]	@ movhi
 769:App/STM32F4-Discovery/Libraries/STM32F4xx_StdPeriph_Driver/src/stm32f4xx_tim.c ****   tmpccmrx &= (uint16_t)~TIM_CCMR1_CC2S;
 2933              		.loc 1 769 0
 2934 0140 7B89     		ldrh	r3, [r7, #10]	@ movhi
 2935 0142 23F44073 		bic	r3, r3, #768
 2936 0146 7B81     		strh	r3, [r7, #10]	@ movhi
 770:App/STM32F4-Discovery/Libraries/STM32F4xx_StdPeriph_Driver/src/stm32f4xx_tim.c ****   
 771:App/STM32F4-Discovery/Libraries/STM32F4xx_StdPeriph_Driver/src/stm32f4xx_tim.c ****   /* Select the Output Compare Mode */
 772:App/STM32F4-Discovery/Libraries/STM32F4xx_StdPeriph_Driver/src/stm32f4xx_tim.c ****   tmpccmrx |= (uint16_t)(TIM_OCInitStruct->TIM_OCMode << 8);
 2937              		.loc 1 772 0
 2938 0148 3B68     		ldr	r3, [r7, #0]
 2939 014a 1B88     		ldrh	r3, [r3, #0]
 2940 014c 4FEA0323 		lsl	r3, r3, #8
 2941 0150 9AB2     		uxth	r2, r3
 2942 0152 7B89     		ldrh	r3, [r7, #10]	@ movhi
 2943 0154 1343     		orrs	r3, r3, r2
 2944 0156 7B81     		strh	r3, [r7, #10]	@ movhi
 773:App/STM32F4-Discovery/Libraries/STM32F4xx_StdPeriph_Driver/src/stm32f4xx_tim.c ****   
 774:App/STM32F4-Discovery/Libraries/STM32F4xx_StdPeriph_Driver/src/stm32f4xx_tim.c ****   /* Reset the Output Polarity level */
 775:App/STM32F4-Discovery/Libraries/STM32F4xx_StdPeriph_Driver/src/stm32f4xx_tim.c ****   tmpccer &= (uint16_t)~TIM_CCER_CC2P;
 2945              		.loc 1 775 0
 2946 0158 FB89     		ldrh	r3, [r7, #14]	@ movhi
 2947 015a 23F02003 		bic	r3, r3, #32
 2948 015e FB81     		strh	r3, [r7, #14]	@ movhi
 776:App/STM32F4-Discovery/Libraries/STM32F4xx_StdPeriph_Driver/src/stm32f4xx_tim.c ****   /* Set the Output Compare Polarity */
 777:App/STM32F4-Discovery/Libraries/STM32F4xx_StdPeriph_Driver/src/stm32f4xx_tim.c ****   tmpccer |= (uint16_t)(TIM_OCInitStruct->TIM_OCPolarity << 4);
 2949              		.loc 1 777 0
 2950 0160 3B68     		ldr	r3, [r7, #0]
 2951 0162 9B89     		ldrh	r3, [r3, #12]
 2952 0164 4FEA0313 		lsl	r3, r3, #4
 2953 0168 9AB2     		uxth	r2, r3
 2954 016a FB89     		ldrh	r3, [r7, #14]	@ movhi
 2955 016c 1343     		orrs	r3, r3, r2
 2956 016e FB81     		strh	r3, [r7, #14]	@ movhi
 778:App/STM32F4-Discovery/Libraries/STM32F4xx_StdPeriph_Driver/src/stm32f4xx_tim.c ****   
 779:App/STM32F4-Discovery/Libraries/STM32F4xx_StdPeriph_Driver/src/stm32f4xx_tim.c ****   /* Set the Output State */
 780:App/STM32F4-Discovery/Libraries/STM32F4xx_StdPeriph_Driver/src/stm32f4xx_tim.c ****   tmpccer |= (uint16_t)(TIM_OCInitStruct->TIM_OutputState << 4);
 2957              		.loc 1 780 0
 2958 0170 3B68     		ldr	r3, [r7, #0]
 2959 0172 5B88     		ldrh	r3, [r3, #2]
 2960 0174 4FEA0313 		lsl	r3, r3, #4
 2961 0178 9AB2     		uxth	r2, r3
 2962 017a FB89     		ldrh	r3, [r7, #14]	@ movhi
 2963 017c 1343     		orrs	r3, r3, r2
 2964 017e FB81     		strh	r3, [r7, #14]	@ movhi
 781:App/STM32F4-Discovery/Libraries/STM32F4xx_StdPeriph_Driver/src/stm32f4xx_tim.c ****     
 782:App/STM32F4-Discovery/Libraries/STM32F4xx_StdPeriph_Driver/src/stm32f4xx_tim.c ****   if((TIMx == TIM1) || (TIMx == TIM8))
 2965              		.loc 1 782 0
 2966 0180 7A68     		ldr	r2, [r7, #4]
 2967 0182 4FF00003 		mov	r3, #0
 2968 0186 C4F20103 		movt	r3, 16385
 2969 018a 9A42     		cmp	r2, r3
 2970 018c 06D0     		beq	.L85
 2971              		.loc 1 782 0 is_stmt 0 discriminator 1
 2972 018e 7A68     		ldr	r2, [r7, #4]
 2973 0190 4FF48063 		mov	r3, #1024
 2974 0194 C4F20103 		movt	r3, 16385
 2975 0198 9A42     		cmp	r2, r3
 2976 019a 71D1     		bne	.L86
 2977              	.L85:
 783:App/STM32F4-Discovery/Libraries/STM32F4xx_StdPeriph_Driver/src/stm32f4xx_tim.c ****   {
 784:App/STM32F4-Discovery/Libraries/STM32F4xx_StdPeriph_Driver/src/stm32f4xx_tim.c ****     assert_param(IS_TIM_OUTPUTN_STATE(TIM_OCInitStruct->TIM_OutputNState));
 2978              		.loc 1 784 0 is_stmt 1
 2979 019c 3B68     		ldr	r3, [r7, #0]
 2980 019e 9B88     		ldrh	r3, [r3, #4]
 2981 01a0 002B     		cmp	r3, #0
 2982 01a2 0BD0     		beq	.L87
 2983              		.loc 1 784 0 is_stmt 0 discriminator 1
 2984 01a4 3B68     		ldr	r3, [r7, #0]
 2985 01a6 9B88     		ldrh	r3, [r3, #4]
 2986 01a8 042B     		cmp	r3, #4
 2987 01aa 07D0     		beq	.L87
 2988              		.loc 1 784 0 discriminator 2
 2989 01ac 40F20000 		movw	r0, #:lower16:.LC0
 2990 01b0 C0F20000 		movt	r0, #:upper16:.LC0
 2991 01b4 4FF44471 		mov	r1, #784
 2992 01b8 FFF7FEFF 		bl	assert_failed
 2993              	.L87:
 785:App/STM32F4-Discovery/Libraries/STM32F4xx_StdPeriph_Driver/src/stm32f4xx_tim.c ****     assert_param(IS_TIM_OCN_POLARITY(TIM_OCInitStruct->TIM_OCNPolarity));
 2994              		.loc 1 785 0 is_stmt 1
 2995 01bc 3B68     		ldr	r3, [r7, #0]
 2996 01be DB89     		ldrh	r3, [r3, #14]
 2997 01c0 002B     		cmp	r3, #0
 2998 01c2 0BD0     		beq	.L88
 2999              		.loc 1 785 0 is_stmt 0 discriminator 1
 3000 01c4 3B68     		ldr	r3, [r7, #0]
 3001 01c6 DB89     		ldrh	r3, [r3, #14]
 3002 01c8 082B     		cmp	r3, #8
 3003 01ca 07D0     		beq	.L88
 3004              		.loc 1 785 0 discriminator 2
 3005 01cc 40F20000 		movw	r0, #:lower16:.LC0
 3006 01d0 C0F20000 		movt	r0, #:upper16:.LC0
 3007 01d4 40F21131 		movw	r1, #785
 3008 01d8 FFF7FEFF 		bl	assert_failed
 3009              	.L88:
 786:App/STM32F4-Discovery/Libraries/STM32F4xx_StdPeriph_Driver/src/stm32f4xx_tim.c ****     assert_param(IS_TIM_OCNIDLE_STATE(TIM_OCInitStruct->TIM_OCNIdleState));
 3010              		.loc 1 786 0 is_stmt 1
 3011 01dc 3B68     		ldr	r3, [r7, #0]
 3012 01de 5B8A     		ldrh	r3, [r3, #18]
 3013 01e0 B3F5007F 		cmp	r3, #512
 3014 01e4 0BD0     		beq	.L89
 3015              		.loc 1 786 0 is_stmt 0 discriminator 1
 3016 01e6 3B68     		ldr	r3, [r7, #0]
 3017 01e8 5B8A     		ldrh	r3, [r3, #18]
 3018 01ea 002B     		cmp	r3, #0
 3019 01ec 07D0     		beq	.L89
 3020              		.loc 1 786 0 discriminator 2
 3021 01ee 40F20000 		movw	r0, #:lower16:.LC0
 3022 01f2 C0F20000 		movt	r0, #:upper16:.LC0
 3023 01f6 40F21231 		movw	r1, #786
 3024 01fa FFF7FEFF 		bl	assert_failed
 3025              	.L89:
 787:App/STM32F4-Discovery/Libraries/STM32F4xx_StdPeriph_Driver/src/stm32f4xx_tim.c ****     assert_param(IS_TIM_OCIDLE_STATE(TIM_OCInitStruct->TIM_OCIdleState));
 3026              		.loc 1 787 0 is_stmt 1
 3027 01fe 3B68     		ldr	r3, [r7, #0]
 3028 0200 1B8A     		ldrh	r3, [r3, #16]
 3029 0202 B3F5807F 		cmp	r3, #256
 3030 0206 0BD0     		beq	.L90
 3031              		.loc 1 787 0 is_stmt 0 discriminator 1
 3032 0208 3B68     		ldr	r3, [r7, #0]
 3033 020a 1B8A     		ldrh	r3, [r3, #16]
 3034 020c 002B     		cmp	r3, #0
 3035 020e 07D0     		beq	.L90
 3036              		.loc 1 787 0 discriminator 2
 3037 0210 40F20000 		movw	r0, #:lower16:.LC0
 3038 0214 C0F20000 		movt	r0, #:upper16:.LC0
 3039 0218 40F21331 		movw	r1, #787
 3040 021c FFF7FEFF 		bl	assert_failed
 3041              	.L90:
 788:App/STM32F4-Discovery/Libraries/STM32F4xx_StdPeriph_Driver/src/stm32f4xx_tim.c ****     
 789:App/STM32F4-Discovery/Libraries/STM32F4xx_StdPeriph_Driver/src/stm32f4xx_tim.c ****     /* Reset the Output N Polarity level */
 790:App/STM32F4-Discovery/Libraries/STM32F4xx_StdPeriph_Driver/src/stm32f4xx_tim.c ****     tmpccer &= (uint16_t)~TIM_CCER_CC2NP;
 3042              		.loc 1 790 0 is_stmt 1
 3043 0220 FB89     		ldrh	r3, [r7, #14]	@ movhi
 3044 0222 23F08003 		bic	r3, r3, #128
 3045 0226 FB81     		strh	r3, [r7, #14]	@ movhi
 791:App/STM32F4-Discovery/Libraries/STM32F4xx_StdPeriph_Driver/src/stm32f4xx_tim.c ****     /* Set the Output N Polarity */
 792:App/STM32F4-Discovery/Libraries/STM32F4xx_StdPeriph_Driver/src/stm32f4xx_tim.c ****     tmpccer |= (uint16_t)(TIM_OCInitStruct->TIM_OCNPolarity << 4);
 3046              		.loc 1 792 0
 3047 0228 3B68     		ldr	r3, [r7, #0]
 3048 022a DB89     		ldrh	r3, [r3, #14]
 3049 022c 4FEA0313 		lsl	r3, r3, #4
 3050 0230 9AB2     		uxth	r2, r3
 3051 0232 FB89     		ldrh	r3, [r7, #14]	@ movhi
 3052 0234 1343     		orrs	r3, r3, r2
 3053 0236 FB81     		strh	r3, [r7, #14]	@ movhi
 793:App/STM32F4-Discovery/Libraries/STM32F4xx_StdPeriph_Driver/src/stm32f4xx_tim.c ****     /* Reset the Output N State */
 794:App/STM32F4-Discovery/Libraries/STM32F4xx_StdPeriph_Driver/src/stm32f4xx_tim.c ****     tmpccer &= (uint16_t)~TIM_CCER_CC2NE;
 3054              		.loc 1 794 0
 3055 0238 FB89     		ldrh	r3, [r7, #14]	@ movhi
 3056 023a 23F04003 		bic	r3, r3, #64
 3057 023e FB81     		strh	r3, [r7, #14]	@ movhi
 795:App/STM32F4-Discovery/Libraries/STM32F4xx_StdPeriph_Driver/src/stm32f4xx_tim.c ****     
 796:App/STM32F4-Discovery/Libraries/STM32F4xx_StdPeriph_Driver/src/stm32f4xx_tim.c ****     /* Set the Output N State */
 797:App/STM32F4-Discovery/Libraries/STM32F4xx_StdPeriph_Driver/src/stm32f4xx_tim.c ****     tmpccer |= (uint16_t)(TIM_OCInitStruct->TIM_OutputNState << 4);
 3058              		.loc 1 797 0
 3059 0240 3B68     		ldr	r3, [r7, #0]
 3060 0242 9B88     		ldrh	r3, [r3, #4]
 3061 0244 4FEA0313 		lsl	r3, r3, #4
 3062 0248 9AB2     		uxth	r2, r3
 3063 024a FB89     		ldrh	r3, [r7, #14]	@ movhi
 3064 024c 1343     		orrs	r3, r3, r2
 3065 024e FB81     		strh	r3, [r7, #14]	@ movhi
 798:App/STM32F4-Discovery/Libraries/STM32F4xx_StdPeriph_Driver/src/stm32f4xx_tim.c ****     /* Reset the Output Compare and Output Compare N IDLE State */
 799:App/STM32F4-Discovery/Libraries/STM32F4xx_StdPeriph_Driver/src/stm32f4xx_tim.c ****     tmpcr2 &= (uint16_t)~TIM_CR2_OIS2;
 3066              		.loc 1 799 0
 3067 0250 BB89     		ldrh	r3, [r7, #12]	@ movhi
 3068 0252 23F48063 		bic	r3, r3, #1024
 3069 0256 BB81     		strh	r3, [r7, #12]	@ movhi
 800:App/STM32F4-Discovery/Libraries/STM32F4xx_StdPeriph_Driver/src/stm32f4xx_tim.c ****     tmpcr2 &= (uint16_t)~TIM_CR2_OIS2N;
 3070              		.loc 1 800 0
 3071 0258 BB89     		ldrh	r3, [r7, #12]	@ movhi
 3072 025a 23F40063 		bic	r3, r3, #2048
 3073 025e BB81     		strh	r3, [r7, #12]	@ movhi
 801:App/STM32F4-Discovery/Libraries/STM32F4xx_StdPeriph_Driver/src/stm32f4xx_tim.c ****     /* Set the Output Idle state */
 802:App/STM32F4-Discovery/Libraries/STM32F4xx_StdPeriph_Driver/src/stm32f4xx_tim.c ****     tmpcr2 |= (uint16_t)(TIM_OCInitStruct->TIM_OCIdleState << 2);
 3074              		.loc 1 802 0
 3075 0260 3B68     		ldr	r3, [r7, #0]
 3076 0262 1B8A     		ldrh	r3, [r3, #16]
 3077 0264 4FEA8303 		lsl	r3, r3, #2
 3078 0268 9AB2     		uxth	r2, r3
 3079 026a BB89     		ldrh	r3, [r7, #12]	@ movhi
 3080 026c 1343     		orrs	r3, r3, r2
 3081 026e BB81     		strh	r3, [r7, #12]	@ movhi
 803:App/STM32F4-Discovery/Libraries/STM32F4xx_StdPeriph_Driver/src/stm32f4xx_tim.c ****     /* Set the Output N Idle state */
 804:App/STM32F4-Discovery/Libraries/STM32F4xx_StdPeriph_Driver/src/stm32f4xx_tim.c ****     tmpcr2 |= (uint16_t)(TIM_OCInitStruct->TIM_OCNIdleState << 2);
 3082              		.loc 1 804 0
 3083 0270 3B68     		ldr	r3, [r7, #0]
 3084 0272 5B8A     		ldrh	r3, [r3, #18]
 3085 0274 4FEA8303 		lsl	r3, r3, #2
 3086 0278 9AB2     		uxth	r2, r3
 3087 027a BB89     		ldrh	r3, [r7, #12]	@ movhi
 3088 027c 1343     		orrs	r3, r3, r2
 3089 027e BB81     		strh	r3, [r7, #12]	@ movhi
 3090              	.L86:
 805:App/STM32F4-Discovery/Libraries/STM32F4xx_StdPeriph_Driver/src/stm32f4xx_tim.c ****   }
 806:App/STM32F4-Discovery/Libraries/STM32F4xx_StdPeriph_Driver/src/stm32f4xx_tim.c ****   /* Write to TIMx CR2 */
 807:App/STM32F4-Discovery/Libraries/STM32F4xx_StdPeriph_Driver/src/stm32f4xx_tim.c ****   TIMx->CR2 = tmpcr2;
 3091              		.loc 1 807 0
 3092 0280 7B68     		ldr	r3, [r7, #4]
 3093 0282 BA89     		ldrh	r2, [r7, #12]	@ movhi
 3094 0284 9A80     		strh	r2, [r3, #4]	@ movhi
 808:App/STM32F4-Discovery/Libraries/STM32F4xx_StdPeriph_Driver/src/stm32f4xx_tim.c ****   
 809:App/STM32F4-Discovery/Libraries/STM32F4xx_StdPeriph_Driver/src/stm32f4xx_tim.c ****   /* Write to TIMx CCMR1 */
 810:App/STM32F4-Discovery/Libraries/STM32F4xx_StdPeriph_Driver/src/stm32f4xx_tim.c ****   TIMx->CCMR1 = tmpccmrx;
 3095              		.loc 1 810 0
 3096 0286 7B68     		ldr	r3, [r7, #4]
 3097 0288 7A89     		ldrh	r2, [r7, #10]	@ movhi
 3098 028a 1A83     		strh	r2, [r3, #24]	@ movhi
 811:App/STM32F4-Discovery/Libraries/STM32F4xx_StdPeriph_Driver/src/stm32f4xx_tim.c ****   
 812:App/STM32F4-Discovery/Libraries/STM32F4xx_StdPeriph_Driver/src/stm32f4xx_tim.c ****   /* Set the Capture Compare Register value */
 813:App/STM32F4-Discovery/Libraries/STM32F4xx_StdPeriph_Driver/src/stm32f4xx_tim.c ****   TIMx->CCR2 = TIM_OCInitStruct->TIM_Pulse;
 3099              		.loc 1 813 0
 3100 028c 3B68     		ldr	r3, [r7, #0]
 3101 028e 9A68     		ldr	r2, [r3, #8]
 3102 0290 7B68     		ldr	r3, [r7, #4]
 3103 0292 9A63     		str	r2, [r3, #56]
 814:App/STM32F4-Discovery/Libraries/STM32F4xx_StdPeriph_Driver/src/stm32f4xx_tim.c ****   
 815:App/STM32F4-Discovery/Libraries/STM32F4xx_StdPeriph_Driver/src/stm32f4xx_tim.c ****   /* Write to TIMx CCER */
 816:App/STM32F4-Discovery/Libraries/STM32F4xx_StdPeriph_Driver/src/stm32f4xx_tim.c ****   TIMx->CCER = tmpccer;
 3104              		.loc 1 816 0
 3105 0294 7B68     		ldr	r3, [r7, #4]
 3106 0296 FA89     		ldrh	r2, [r7, #14]	@ movhi
 3107 0298 1A84     		strh	r2, [r3, #32]	@ movhi
 817:App/STM32F4-Discovery/Libraries/STM32F4xx_StdPeriph_Driver/src/stm32f4xx_tim.c **** }
 3108              		.loc 1 817 0
 3109 029a 07F11007 		add	r7, r7, #16
 3110 029e BD46     		mov	sp, r7
 3111 02a0 80BD     		pop	{r7, pc}
 3112              		.cfi_endproc
 3113              	.LFE126:
 3115 02a2 00BF     		.section	.text.TIM_OC3Init,"ax",%progbits
 3116              		.align	2
 3117              		.global	TIM_OC3Init
 3118              		.thumb
 3119              		.thumb_func
 3121              	TIM_OC3Init:
 3122              	.LFB127:
 818:App/STM32F4-Discovery/Libraries/STM32F4xx_StdPeriph_Driver/src/stm32f4xx_tim.c **** 
 819:App/STM32F4-Discovery/Libraries/STM32F4xx_StdPeriph_Driver/src/stm32f4xx_tim.c **** /**
 820:App/STM32F4-Discovery/Libraries/STM32F4xx_StdPeriph_Driver/src/stm32f4xx_tim.c ****   * @brief  Initializes the TIMx Channel3 according to the specified parameters
 821:App/STM32F4-Discovery/Libraries/STM32F4xx_StdPeriph_Driver/src/stm32f4xx_tim.c ****   *         in the TIM_OCInitStruct.
 822:App/STM32F4-Discovery/Libraries/STM32F4xx_StdPeriph_Driver/src/stm32f4xx_tim.c ****   * @param  TIMx: where x can be 1, 2, 3, 4, 5 or 8 to select the TIM peripheral.
 823:App/STM32F4-Discovery/Libraries/STM32F4xx_StdPeriph_Driver/src/stm32f4xx_tim.c ****   * @param  TIM_OCInitStruct: pointer to a TIM_OCInitTypeDef structure that contains
 824:App/STM32F4-Discovery/Libraries/STM32F4xx_StdPeriph_Driver/src/stm32f4xx_tim.c ****   *         the configuration information for the specified TIM peripheral.
 825:App/STM32F4-Discovery/Libraries/STM32F4xx_StdPeriph_Driver/src/stm32f4xx_tim.c ****   * @retval None
 826:App/STM32F4-Discovery/Libraries/STM32F4xx_StdPeriph_Driver/src/stm32f4xx_tim.c ****   */
 827:App/STM32F4-Discovery/Libraries/STM32F4xx_StdPeriph_Driver/src/stm32f4xx_tim.c **** void TIM_OC3Init(TIM_TypeDef* TIMx, TIM_OCInitTypeDef* TIM_OCInitStruct)
 828:App/STM32F4-Discovery/Libraries/STM32F4xx_StdPeriph_Driver/src/stm32f4xx_tim.c **** {
 3123              		.loc 1 828 0
 3124              		.cfi_startproc
 3125              		@ args = 0, pretend = 0, frame = 16
 3126              		@ frame_needed = 1, uses_anonymous_args = 0
 3127 0000 80B5     		push	{r7, lr}
 3128              	.LCFI51:
 3129              		.cfi_def_cfa_offset 8
 3130              		.cfi_offset 7, -8
 3131              		.cfi_offset 14, -4
 3132 0002 84B0     		sub	sp, sp, #16
 3133              	.LCFI52:
 3134              		.cfi_def_cfa_offset 24
 3135 0004 00AF     		add	r7, sp, #0
 3136              	.LCFI53:
 3137              		.cfi_def_cfa_register 7
 3138 0006 7860     		str	r0, [r7, #4]
 3139 0008 3960     		str	r1, [r7, #0]
 829:App/STM32F4-Discovery/Libraries/STM32F4xx_StdPeriph_Driver/src/stm32f4xx_tim.c ****   uint16_t tmpccmrx = 0, tmpccer = 0, tmpcr2 = 0;
 3140              		.loc 1 829 0
 3141 000a 4FF00003 		mov	r3, #0
 3142 000e 7B81     		strh	r3, [r7, #10]	@ movhi
 3143 0010 4FF00003 		mov	r3, #0
 3144 0014 FB81     		strh	r3, [r7, #14]	@ movhi
 3145 0016 4FF00003 		mov	r3, #0
 3146 001a BB81     		strh	r3, [r7, #12]	@ movhi
 830:App/STM32F4-Discovery/Libraries/STM32F4xx_StdPeriph_Driver/src/stm32f4xx_tim.c ****    
 831:App/STM32F4-Discovery/Libraries/STM32F4xx_StdPeriph_Driver/src/stm32f4xx_tim.c ****   /* Check the parameters */
 832:App/STM32F4-Discovery/Libraries/STM32F4xx_StdPeriph_Driver/src/stm32f4xx_tim.c ****   assert_param(IS_TIM_LIST3_PERIPH(TIMx)); 
 3147              		.loc 1 832 0
 3148 001c 7A68     		ldr	r2, [r7, #4]
 3149 001e 4FF00003 		mov	r3, #0
 3150 0022 C4F20103 		movt	r3, 16385
 3151 0026 9A42     		cmp	r2, r3
 3152 0028 27D0     		beq	.L92
 3153              		.loc 1 832 0 is_stmt 0 discriminator 1
 3154 002a 7B68     		ldr	r3, [r7, #4]
 3155 002c B3F1804F 		cmp	r3, #1073741824
 3156 0030 23D0     		beq	.L92
 3157              		.loc 1 832 0 discriminator 2
 3158 0032 7A68     		ldr	r2, [r7, #4]
 3159 0034 4FF48063 		mov	r3, #1024
 3160 0038 C4F20003 		movt	r3, 16384
 3161 003c 9A42     		cmp	r2, r3
 3162 003e 1CD0     		beq	.L92
 3163              		.loc 1 832 0 discriminator 3
 3164 0040 7A68     		ldr	r2, [r7, #4]
 3165 0042 4FF40063 		mov	r3, #2048
 3166 0046 C4F20003 		movt	r3, 16384
 3167 004a 9A42     		cmp	r2, r3
 3168 004c 15D0     		beq	.L92
 3169              		.loc 1 832 0 discriminator 4
 3170 004e 7A68     		ldr	r2, [r7, #4]
 3171 0050 4FF44063 		mov	r3, #3072
 3172 0054 C4F20003 		movt	r3, 16384
 3173 0058 9A42     		cmp	r2, r3
 3174 005a 0ED0     		beq	.L92
 3175              		.loc 1 832 0 discriminator 5
 3176 005c 7A68     		ldr	r2, [r7, #4]
 3177 005e 4FF48063 		mov	r3, #1024
 3178 0062 C4F20103 		movt	r3, 16385
 3179 0066 9A42     		cmp	r2, r3
 3180 0068 07D0     		beq	.L92
 3181              		.loc 1 832 0 discriminator 6
 3182 006a 40F20000 		movw	r0, #:lower16:.LC0
 3183 006e C0F20000 		movt	r0, #:upper16:.LC0
 3184 0072 4FF45071 		mov	r1, #832
 3185 0076 FFF7FEFF 		bl	assert_failed
 3186              	.L92:
 833:App/STM32F4-Discovery/Libraries/STM32F4xx_StdPeriph_Driver/src/stm32f4xx_tim.c ****   assert_param(IS_TIM_OC_MODE(TIM_OCInitStruct->TIM_OCMode));
 3187              		.loc 1 833 0 is_stmt 1
 3188 007a 3B68     		ldr	r3, [r7, #0]
 3189 007c 1B88     		ldrh	r3, [r3, #0]
 3190 007e 002B     		cmp	r3, #0
 3191 0080 1BD0     		beq	.L93
 3192              		.loc 1 833 0 is_stmt 0 discriminator 1
 3193 0082 3B68     		ldr	r3, [r7, #0]
 3194 0084 1B88     		ldrh	r3, [r3, #0]
 3195 0086 102B     		cmp	r3, #16
 3196 0088 17D0     		beq	.L93
 3197              		.loc 1 833 0 discriminator 2
 3198 008a 3B68     		ldr	r3, [r7, #0]
 3199 008c 1B88     		ldrh	r3, [r3, #0]
 3200 008e 202B     		cmp	r3, #32
 3201 0090 13D0     		beq	.L93
 3202              		.loc 1 833 0 discriminator 3
 3203 0092 3B68     		ldr	r3, [r7, #0]
 3204 0094 1B88     		ldrh	r3, [r3, #0]
 3205 0096 302B     		cmp	r3, #48
 3206 0098 0FD0     		beq	.L93
 3207              		.loc 1 833 0 discriminator 4
 3208 009a 3B68     		ldr	r3, [r7, #0]
 3209 009c 1B88     		ldrh	r3, [r3, #0]
 3210 009e 602B     		cmp	r3, #96
 3211 00a0 0BD0     		beq	.L93
 3212              		.loc 1 833 0 discriminator 5
 3213 00a2 3B68     		ldr	r3, [r7, #0]
 3214 00a4 1B88     		ldrh	r3, [r3, #0]
 3215 00a6 702B     		cmp	r3, #112
 3216 00a8 07D0     		beq	.L93
 3217              		.loc 1 833 0 discriminator 6
 3218 00aa 40F20000 		movw	r0, #:lower16:.LC0
 3219 00ae C0F20000 		movt	r0, #:upper16:.LC0
 3220 00b2 40F24131 		movw	r1, #833
 3221 00b6 FFF7FEFF 		bl	assert_failed
 3222              	.L93:
 834:App/STM32F4-Discovery/Libraries/STM32F4xx_StdPeriph_Driver/src/stm32f4xx_tim.c ****   assert_param(IS_TIM_OUTPUT_STATE(TIM_OCInitStruct->TIM_OutputState));
 3223              		.loc 1 834 0 is_stmt 1
 3224 00ba 3B68     		ldr	r3, [r7, #0]
 3225 00bc 5B88     		ldrh	r3, [r3, #2]
 3226 00be 002B     		cmp	r3, #0
 3227 00c0 0BD0     		beq	.L94
 3228              		.loc 1 834 0 is_stmt 0 discriminator 1
 3229 00c2 3B68     		ldr	r3, [r7, #0]
 3230 00c4 5B88     		ldrh	r3, [r3, #2]
 3231 00c6 012B     		cmp	r3, #1
 3232 00c8 07D0     		beq	.L94
 3233              		.loc 1 834 0 discriminator 2
 3234 00ca 40F20000 		movw	r0, #:lower16:.LC0
 3235 00ce C0F20000 		movt	r0, #:upper16:.LC0
 3236 00d2 40F24231 		movw	r1, #834
 3237 00d6 FFF7FEFF 		bl	assert_failed
 3238              	.L94:
 835:App/STM32F4-Discovery/Libraries/STM32F4xx_StdPeriph_Driver/src/stm32f4xx_tim.c ****   assert_param(IS_TIM_OC_POLARITY(TIM_OCInitStruct->TIM_OCPolarity));   
 3239              		.loc 1 835 0 is_stmt 1
 3240 00da 3B68     		ldr	r3, [r7, #0]
 3241 00dc 9B89     		ldrh	r3, [r3, #12]
 3242 00de 002B     		cmp	r3, #0
 3243 00e0 0BD0     		beq	.L95
 3244              		.loc 1 835 0 is_stmt 0 discriminator 1
 3245 00e2 3B68     		ldr	r3, [r7, #0]
 3246 00e4 9B89     		ldrh	r3, [r3, #12]
 3247 00e6 022B     		cmp	r3, #2
 3248 00e8 07D0     		beq	.L95
 3249              		.loc 1 835 0 discriminator 2
 3250 00ea 40F20000 		movw	r0, #:lower16:.LC0
 3251 00ee C0F20000 		movt	r0, #:upper16:.LC0
 3252 00f2 40F24331 		movw	r1, #835
 3253 00f6 FFF7FEFF 		bl	assert_failed
 3254              	.L95:
 836:App/STM32F4-Discovery/Libraries/STM32F4xx_StdPeriph_Driver/src/stm32f4xx_tim.c **** 
 837:App/STM32F4-Discovery/Libraries/STM32F4xx_StdPeriph_Driver/src/stm32f4xx_tim.c ****   /* Disable the Channel 3: Reset the CC2E Bit */
 838:App/STM32F4-Discovery/Libraries/STM32F4xx_StdPeriph_Driver/src/stm32f4xx_tim.c ****   TIMx->CCER &= (uint16_t)~TIM_CCER_CC3E;
 3255              		.loc 1 838 0 is_stmt 1
 3256 00fa 7B68     		ldr	r3, [r7, #4]
 3257 00fc 1B8C     		ldrh	r3, [r3, #32]	@ movhi
 3258 00fe 9BB2     		uxth	r3, r3
 3259 0100 23F48073 		bic	r3, r3, #256
 3260 0104 9AB2     		uxth	r2, r3
 3261 0106 7B68     		ldr	r3, [r7, #4]
 3262 0108 1A84     		strh	r2, [r3, #32]	@ movhi
 839:App/STM32F4-Discovery/Libraries/STM32F4xx_StdPeriph_Driver/src/stm32f4xx_tim.c ****   
 840:App/STM32F4-Discovery/Libraries/STM32F4xx_StdPeriph_Driver/src/stm32f4xx_tim.c ****   /* Get the TIMx CCER register value */
 841:App/STM32F4-Discovery/Libraries/STM32F4xx_StdPeriph_Driver/src/stm32f4xx_tim.c ****   tmpccer = TIMx->CCER;
 3263              		.loc 1 841 0
 3264 010a 7B68     		ldr	r3, [r7, #4]
 3265 010c 1B8C     		ldrh	r3, [r3, #32]	@ movhi
 3266 010e FB81     		strh	r3, [r7, #14]	@ movhi
 842:App/STM32F4-Discovery/Libraries/STM32F4xx_StdPeriph_Driver/src/stm32f4xx_tim.c ****   /* Get the TIMx CR2 register value */
 843:App/STM32F4-Discovery/Libraries/STM32F4xx_StdPeriph_Driver/src/stm32f4xx_tim.c ****   tmpcr2 =  TIMx->CR2;
 3267              		.loc 1 843 0
 3268 0110 7B68     		ldr	r3, [r7, #4]
 3269 0112 9B88     		ldrh	r3, [r3, #4]	@ movhi
 3270 0114 BB81     		strh	r3, [r7, #12]	@ movhi
 844:App/STM32F4-Discovery/Libraries/STM32F4xx_StdPeriph_Driver/src/stm32f4xx_tim.c ****   
 845:App/STM32F4-Discovery/Libraries/STM32F4xx_StdPeriph_Driver/src/stm32f4xx_tim.c ****   /* Get the TIMx CCMR2 register value */
 846:App/STM32F4-Discovery/Libraries/STM32F4xx_StdPeriph_Driver/src/stm32f4xx_tim.c ****   tmpccmrx = TIMx->CCMR2;
 3271              		.loc 1 846 0
 3272 0116 7B68     		ldr	r3, [r7, #4]
 3273 0118 9B8B     		ldrh	r3, [r3, #28]	@ movhi
 3274 011a 7B81     		strh	r3, [r7, #10]	@ movhi
 847:App/STM32F4-Discovery/Libraries/STM32F4xx_StdPeriph_Driver/src/stm32f4xx_tim.c ****     
 848:App/STM32F4-Discovery/Libraries/STM32F4xx_StdPeriph_Driver/src/stm32f4xx_tim.c ****   /* Reset the Output Compare mode and Capture/Compare selection Bits */
 849:App/STM32F4-Discovery/Libraries/STM32F4xx_StdPeriph_Driver/src/stm32f4xx_tim.c ****   tmpccmrx &= (uint16_t)~TIM_CCMR2_OC3M;
 3275              		.loc 1 849 0
 3276 011c 7B89     		ldrh	r3, [r7, #10]	@ movhi
 3277 011e 23F07003 		bic	r3, r3, #112
 3278 0122 7B81     		strh	r3, [r7, #10]	@ movhi
 850:App/STM32F4-Discovery/Libraries/STM32F4xx_StdPeriph_Driver/src/stm32f4xx_tim.c ****   tmpccmrx &= (uint16_t)~TIM_CCMR2_CC3S;  
 3279              		.loc 1 850 0
 3280 0124 7B89     		ldrh	r3, [r7, #10]	@ movhi
 3281 0126 23F00303 		bic	r3, r3, #3
 3282 012a 7B81     		strh	r3, [r7, #10]	@ movhi
 851:App/STM32F4-Discovery/Libraries/STM32F4xx_StdPeriph_Driver/src/stm32f4xx_tim.c ****   /* Select the Output Compare Mode */
 852:App/STM32F4-Discovery/Libraries/STM32F4xx_StdPeriph_Driver/src/stm32f4xx_tim.c ****   tmpccmrx |= TIM_OCInitStruct->TIM_OCMode;
 3283              		.loc 1 852 0
 3284 012c 3B68     		ldr	r3, [r7, #0]
 3285 012e 1A88     		ldrh	r2, [r3, #0]
 3286 0130 7B89     		ldrh	r3, [r7, #10]	@ movhi
 3287 0132 1343     		orrs	r3, r3, r2
 3288 0134 7B81     		strh	r3, [r7, #10]	@ movhi
 853:App/STM32F4-Discovery/Libraries/STM32F4xx_StdPeriph_Driver/src/stm32f4xx_tim.c ****   
 854:App/STM32F4-Discovery/Libraries/STM32F4xx_StdPeriph_Driver/src/stm32f4xx_tim.c ****   /* Reset the Output Polarity level */
 855:App/STM32F4-Discovery/Libraries/STM32F4xx_StdPeriph_Driver/src/stm32f4xx_tim.c ****   tmpccer &= (uint16_t)~TIM_CCER_CC3P;
 3289              		.loc 1 855 0
 3290 0136 FB89     		ldrh	r3, [r7, #14]	@ movhi
 3291 0138 23F40073 		bic	r3, r3, #512
 3292 013c FB81     		strh	r3, [r7, #14]	@ movhi
 856:App/STM32F4-Discovery/Libraries/STM32F4xx_StdPeriph_Driver/src/stm32f4xx_tim.c ****   /* Set the Output Compare Polarity */
 857:App/STM32F4-Discovery/Libraries/STM32F4xx_StdPeriph_Driver/src/stm32f4xx_tim.c ****   tmpccer |= (uint16_t)(TIM_OCInitStruct->TIM_OCPolarity << 8);
 3293              		.loc 1 857 0
 3294 013e 3B68     		ldr	r3, [r7, #0]
 3295 0140 9B89     		ldrh	r3, [r3, #12]
 3296 0142 4FEA0323 		lsl	r3, r3, #8
 3297 0146 9AB2     		uxth	r2, r3
 3298 0148 FB89     		ldrh	r3, [r7, #14]	@ movhi
 3299 014a 1343     		orrs	r3, r3, r2
 3300 014c FB81     		strh	r3, [r7, #14]	@ movhi
 858:App/STM32F4-Discovery/Libraries/STM32F4xx_StdPeriph_Driver/src/stm32f4xx_tim.c ****   
 859:App/STM32F4-Discovery/Libraries/STM32F4xx_StdPeriph_Driver/src/stm32f4xx_tim.c ****   /* Set the Output State */
 860:App/STM32F4-Discovery/Libraries/STM32F4xx_StdPeriph_Driver/src/stm32f4xx_tim.c ****   tmpccer |= (uint16_t)(TIM_OCInitStruct->TIM_OutputState << 8);
 3301              		.loc 1 860 0
 3302 014e 3B68     		ldr	r3, [r7, #0]
 3303 0150 5B88     		ldrh	r3, [r3, #2]
 3304 0152 4FEA0323 		lsl	r3, r3, #8
 3305 0156 9AB2     		uxth	r2, r3
 3306 0158 FB89     		ldrh	r3, [r7, #14]	@ movhi
 3307 015a 1343     		orrs	r3, r3, r2
 3308 015c FB81     		strh	r3, [r7, #14]	@ movhi
 861:App/STM32F4-Discovery/Libraries/STM32F4xx_StdPeriph_Driver/src/stm32f4xx_tim.c ****     
 862:App/STM32F4-Discovery/Libraries/STM32F4xx_StdPeriph_Driver/src/stm32f4xx_tim.c ****   if((TIMx == TIM1) || (TIMx == TIM8))
 3309              		.loc 1 862 0
 3310 015e 7A68     		ldr	r2, [r7, #4]
 3311 0160 4FF00003 		mov	r3, #0
 3312 0164 C4F20103 		movt	r3, 16385
 3313 0168 9A42     		cmp	r2, r3
 3314 016a 06D0     		beq	.L96
 3315              		.loc 1 862 0 is_stmt 0 discriminator 1
 3316 016c 7A68     		ldr	r2, [r7, #4]
 3317 016e 4FF48063 		mov	r3, #1024
 3318 0172 C4F20103 		movt	r3, 16385
 3319 0176 9A42     		cmp	r2, r3
 3320 0178 71D1     		bne	.L97
 3321              	.L96:
 863:App/STM32F4-Discovery/Libraries/STM32F4xx_StdPeriph_Driver/src/stm32f4xx_tim.c ****   {
 864:App/STM32F4-Discovery/Libraries/STM32F4xx_StdPeriph_Driver/src/stm32f4xx_tim.c ****     assert_param(IS_TIM_OUTPUTN_STATE(TIM_OCInitStruct->TIM_OutputNState));
 3322              		.loc 1 864 0 is_stmt 1
 3323 017a 3B68     		ldr	r3, [r7, #0]
 3324 017c 9B88     		ldrh	r3, [r3, #4]
 3325 017e 002B     		cmp	r3, #0
 3326 0180 0BD0     		beq	.L98
 3327              		.loc 1 864 0 is_stmt 0 discriminator 1
 3328 0182 3B68     		ldr	r3, [r7, #0]
 3329 0184 9B88     		ldrh	r3, [r3, #4]
 3330 0186 042B     		cmp	r3, #4
 3331 0188 07D0     		beq	.L98
 3332              		.loc 1 864 0 discriminator 2
 3333 018a 40F20000 		movw	r0, #:lower16:.LC0
 3334 018e C0F20000 		movt	r0, #:upper16:.LC0
 3335 0192 4FF45871 		mov	r1, #864
 3336 0196 FFF7FEFF 		bl	assert_failed
 3337              	.L98:
 865:App/STM32F4-Discovery/Libraries/STM32F4xx_StdPeriph_Driver/src/stm32f4xx_tim.c ****     assert_param(IS_TIM_OCN_POLARITY(TIM_OCInitStruct->TIM_OCNPolarity));
 3338              		.loc 1 865 0 is_stmt 1
 3339 019a 3B68     		ldr	r3, [r7, #0]
 3340 019c DB89     		ldrh	r3, [r3, #14]
 3341 019e 002B     		cmp	r3, #0
 3342 01a0 0BD0     		beq	.L99
 3343              		.loc 1 865 0 is_stmt 0 discriminator 1
 3344 01a2 3B68     		ldr	r3, [r7, #0]
 3345 01a4 DB89     		ldrh	r3, [r3, #14]
 3346 01a6 082B     		cmp	r3, #8
 3347 01a8 07D0     		beq	.L99
 3348              		.loc 1 865 0 discriminator 2
 3349 01aa 40F20000 		movw	r0, #:lower16:.LC0
 3350 01ae C0F20000 		movt	r0, #:upper16:.LC0
 3351 01b2 40F26131 		movw	r1, #865
 3352 01b6 FFF7FEFF 		bl	assert_failed
 3353              	.L99:
 866:App/STM32F4-Discovery/Libraries/STM32F4xx_StdPeriph_Driver/src/stm32f4xx_tim.c ****     assert_param(IS_TIM_OCNIDLE_STATE(TIM_OCInitStruct->TIM_OCNIdleState));
 3354              		.loc 1 866 0 is_stmt 1
 3355 01ba 3B68     		ldr	r3, [r7, #0]
 3356 01bc 5B8A     		ldrh	r3, [r3, #18]
 3357 01be B3F5007F 		cmp	r3, #512
 3358 01c2 0BD0     		beq	.L100
 3359              		.loc 1 866 0 is_stmt 0 discriminator 1
 3360 01c4 3B68     		ldr	r3, [r7, #0]
 3361 01c6 5B8A     		ldrh	r3, [r3, #18]
 3362 01c8 002B     		cmp	r3, #0
 3363 01ca 07D0     		beq	.L100
 3364              		.loc 1 866 0 discriminator 2
 3365 01cc 40F20000 		movw	r0, #:lower16:.LC0
 3366 01d0 C0F20000 		movt	r0, #:upper16:.LC0
 3367 01d4 40F26231 		movw	r1, #866
 3368 01d8 FFF7FEFF 		bl	assert_failed
 3369              	.L100:
 867:App/STM32F4-Discovery/Libraries/STM32F4xx_StdPeriph_Driver/src/stm32f4xx_tim.c ****     assert_param(IS_TIM_OCIDLE_STATE(TIM_OCInitStruct->TIM_OCIdleState));
 3370              		.loc 1 867 0 is_stmt 1
 3371 01dc 3B68     		ldr	r3, [r7, #0]
 3372 01de 1B8A     		ldrh	r3, [r3, #16]
 3373 01e0 B3F5807F 		cmp	r3, #256
 3374 01e4 0BD0     		beq	.L101
 3375              		.loc 1 867 0 is_stmt 0 discriminator 1
 3376 01e6 3B68     		ldr	r3, [r7, #0]
 3377 01e8 1B8A     		ldrh	r3, [r3, #16]
 3378 01ea 002B     		cmp	r3, #0
 3379 01ec 07D0     		beq	.L101
 3380              		.loc 1 867 0 discriminator 2
 3381 01ee 40F20000 		movw	r0, #:lower16:.LC0
 3382 01f2 C0F20000 		movt	r0, #:upper16:.LC0
 3383 01f6 40F26331 		movw	r1, #867
 3384 01fa FFF7FEFF 		bl	assert_failed
 3385              	.L101:
 868:App/STM32F4-Discovery/Libraries/STM32F4xx_StdPeriph_Driver/src/stm32f4xx_tim.c ****     
 869:App/STM32F4-Discovery/Libraries/STM32F4xx_StdPeriph_Driver/src/stm32f4xx_tim.c ****     /* Reset the Output N Polarity level */
 870:App/STM32F4-Discovery/Libraries/STM32F4xx_StdPeriph_Driver/src/stm32f4xx_tim.c ****     tmpccer &= (uint16_t)~TIM_CCER_CC3NP;
 3386              		.loc 1 870 0 is_stmt 1
 3387 01fe FB89     		ldrh	r3, [r7, #14]	@ movhi
 3388 0200 23F40063 		bic	r3, r3, #2048
 3389 0204 FB81     		strh	r3, [r7, #14]	@ movhi
 871:App/STM32F4-Discovery/Libraries/STM32F4xx_StdPeriph_Driver/src/stm32f4xx_tim.c ****     /* Set the Output N Polarity */
 872:App/STM32F4-Discovery/Libraries/STM32F4xx_StdPeriph_Driver/src/stm32f4xx_tim.c ****     tmpccer |= (uint16_t)(TIM_OCInitStruct->TIM_OCNPolarity << 8);
 3390              		.loc 1 872 0
 3391 0206 3B68     		ldr	r3, [r7, #0]
 3392 0208 DB89     		ldrh	r3, [r3, #14]
 3393 020a 4FEA0323 		lsl	r3, r3, #8
 3394 020e 9AB2     		uxth	r2, r3
 3395 0210 FB89     		ldrh	r3, [r7, #14]	@ movhi
 3396 0212 1343     		orrs	r3, r3, r2
 3397 0214 FB81     		strh	r3, [r7, #14]	@ movhi
 873:App/STM32F4-Discovery/Libraries/STM32F4xx_StdPeriph_Driver/src/stm32f4xx_tim.c ****     /* Reset the Output N State */
 874:App/STM32F4-Discovery/Libraries/STM32F4xx_StdPeriph_Driver/src/stm32f4xx_tim.c ****     tmpccer &= (uint16_t)~TIM_CCER_CC3NE;
 3398              		.loc 1 874 0
 3399 0216 FB89     		ldrh	r3, [r7, #14]	@ movhi
 3400 0218 23F48063 		bic	r3, r3, #1024
 3401 021c FB81     		strh	r3, [r7, #14]	@ movhi
 875:App/STM32F4-Discovery/Libraries/STM32F4xx_StdPeriph_Driver/src/stm32f4xx_tim.c ****     
 876:App/STM32F4-Discovery/Libraries/STM32F4xx_StdPeriph_Driver/src/stm32f4xx_tim.c ****     /* Set the Output N State */
 877:App/STM32F4-Discovery/Libraries/STM32F4xx_StdPeriph_Driver/src/stm32f4xx_tim.c ****     tmpccer |= (uint16_t)(TIM_OCInitStruct->TIM_OutputNState << 8);
 3402              		.loc 1 877 0
 3403 021e 3B68     		ldr	r3, [r7, #0]
 3404 0220 9B88     		ldrh	r3, [r3, #4]
 3405 0222 4FEA0323 		lsl	r3, r3, #8
 3406 0226 9AB2     		uxth	r2, r3
 3407 0228 FB89     		ldrh	r3, [r7, #14]	@ movhi
 3408 022a 1343     		orrs	r3, r3, r2
 3409 022c FB81     		strh	r3, [r7, #14]	@ movhi
 878:App/STM32F4-Discovery/Libraries/STM32F4xx_StdPeriph_Driver/src/stm32f4xx_tim.c ****     /* Reset the Output Compare and Output Compare N IDLE State */
 879:App/STM32F4-Discovery/Libraries/STM32F4xx_StdPeriph_Driver/src/stm32f4xx_tim.c ****     tmpcr2 &= (uint16_t)~TIM_CR2_OIS3;
 3410              		.loc 1 879 0
 3411 022e BB89     		ldrh	r3, [r7, #12]	@ movhi
 3412 0230 23F48053 		bic	r3, r3, #4096
 3413 0234 BB81     		strh	r3, [r7, #12]	@ movhi
 880:App/STM32F4-Discovery/Libraries/STM32F4xx_StdPeriph_Driver/src/stm32f4xx_tim.c ****     tmpcr2 &= (uint16_t)~TIM_CR2_OIS3N;
 3414              		.loc 1 880 0
 3415 0236 BB89     		ldrh	r3, [r7, #12]	@ movhi
 3416 0238 23F40053 		bic	r3, r3, #8192
 3417 023c BB81     		strh	r3, [r7, #12]	@ movhi
 881:App/STM32F4-Discovery/Libraries/STM32F4xx_StdPeriph_Driver/src/stm32f4xx_tim.c ****     /* Set the Output Idle state */
 882:App/STM32F4-Discovery/Libraries/STM32F4xx_StdPeriph_Driver/src/stm32f4xx_tim.c ****     tmpcr2 |= (uint16_t)(TIM_OCInitStruct->TIM_OCIdleState << 4);
 3418              		.loc 1 882 0
 3419 023e 3B68     		ldr	r3, [r7, #0]
 3420 0240 1B8A     		ldrh	r3, [r3, #16]
 3421 0242 4FEA0313 		lsl	r3, r3, #4
 3422 0246 9AB2     		uxth	r2, r3
 3423 0248 BB89     		ldrh	r3, [r7, #12]	@ movhi
 3424 024a 1343     		orrs	r3, r3, r2
 3425 024c BB81     		strh	r3, [r7, #12]	@ movhi
 883:App/STM32F4-Discovery/Libraries/STM32F4xx_StdPeriph_Driver/src/stm32f4xx_tim.c ****     /* Set the Output N Idle state */
 884:App/STM32F4-Discovery/Libraries/STM32F4xx_StdPeriph_Driver/src/stm32f4xx_tim.c ****     tmpcr2 |= (uint16_t)(TIM_OCInitStruct->TIM_OCNIdleState << 4);
 3426              		.loc 1 884 0
 3427 024e 3B68     		ldr	r3, [r7, #0]
 3428 0250 5B8A     		ldrh	r3, [r3, #18]
 3429 0252 4FEA0313 		lsl	r3, r3, #4
 3430 0256 9AB2     		uxth	r2, r3
 3431 0258 BB89     		ldrh	r3, [r7, #12]	@ movhi
 3432 025a 1343     		orrs	r3, r3, r2
 3433 025c BB81     		strh	r3, [r7, #12]	@ movhi
 3434              	.L97:
 885:App/STM32F4-Discovery/Libraries/STM32F4xx_StdPeriph_Driver/src/stm32f4xx_tim.c ****   }
 886:App/STM32F4-Discovery/Libraries/STM32F4xx_StdPeriph_Driver/src/stm32f4xx_tim.c ****   /* Write to TIMx CR2 */
 887:App/STM32F4-Discovery/Libraries/STM32F4xx_StdPeriph_Driver/src/stm32f4xx_tim.c ****   TIMx->CR2 = tmpcr2;
 3435              		.loc 1 887 0
 3436 025e 7B68     		ldr	r3, [r7, #4]
 3437 0260 BA89     		ldrh	r2, [r7, #12]	@ movhi
 3438 0262 9A80     		strh	r2, [r3, #4]	@ movhi
 888:App/STM32F4-Discovery/Libraries/STM32F4xx_StdPeriph_Driver/src/stm32f4xx_tim.c ****   
 889:App/STM32F4-Discovery/Libraries/STM32F4xx_StdPeriph_Driver/src/stm32f4xx_tim.c ****   /* Write to TIMx CCMR2 */
 890:App/STM32F4-Discovery/Libraries/STM32F4xx_StdPeriph_Driver/src/stm32f4xx_tim.c ****   TIMx->CCMR2 = tmpccmrx;
 3439              		.loc 1 890 0
 3440 0264 7B68     		ldr	r3, [r7, #4]
 3441 0266 7A89     		ldrh	r2, [r7, #10]	@ movhi
 3442 0268 9A83     		strh	r2, [r3, #28]	@ movhi
 891:App/STM32F4-Discovery/Libraries/STM32F4xx_StdPeriph_Driver/src/stm32f4xx_tim.c ****   
 892:App/STM32F4-Discovery/Libraries/STM32F4xx_StdPeriph_Driver/src/stm32f4xx_tim.c ****   /* Set the Capture Compare Register value */
 893:App/STM32F4-Discovery/Libraries/STM32F4xx_StdPeriph_Driver/src/stm32f4xx_tim.c ****   TIMx->CCR3 = TIM_OCInitStruct->TIM_Pulse;
 3443              		.loc 1 893 0
 3444 026a 3B68     		ldr	r3, [r7, #0]
 3445 026c 9A68     		ldr	r2, [r3, #8]
 3446 026e 7B68     		ldr	r3, [r7, #4]
 3447 0270 DA63     		str	r2, [r3, #60]
 894:App/STM32F4-Discovery/Libraries/STM32F4xx_StdPeriph_Driver/src/stm32f4xx_tim.c ****   
 895:App/STM32F4-Discovery/Libraries/STM32F4xx_StdPeriph_Driver/src/stm32f4xx_tim.c ****   /* Write to TIMx CCER */
 896:App/STM32F4-Discovery/Libraries/STM32F4xx_StdPeriph_Driver/src/stm32f4xx_tim.c ****   TIMx->CCER = tmpccer;
 3448              		.loc 1 896 0
 3449 0272 7B68     		ldr	r3, [r7, #4]
 3450 0274 FA89     		ldrh	r2, [r7, #14]	@ movhi
 3451 0276 1A84     		strh	r2, [r3, #32]	@ movhi
 897:App/STM32F4-Discovery/Libraries/STM32F4xx_StdPeriph_Driver/src/stm32f4xx_tim.c **** }
 3452              		.loc 1 897 0
 3453 0278 07F11007 		add	r7, r7, #16
 3454 027c BD46     		mov	sp, r7
 3455 027e 80BD     		pop	{r7, pc}
 3456              		.cfi_endproc
 3457              	.LFE127:
 3459              		.section	.text.TIM_OC4Init,"ax",%progbits
 3460              		.align	2
 3461              		.global	TIM_OC4Init
 3462              		.thumb
 3463              		.thumb_func
 3465              	TIM_OC4Init:
 3466              	.LFB128:
 898:App/STM32F4-Discovery/Libraries/STM32F4xx_StdPeriph_Driver/src/stm32f4xx_tim.c **** 
 899:App/STM32F4-Discovery/Libraries/STM32F4xx_StdPeriph_Driver/src/stm32f4xx_tim.c **** /**
 900:App/STM32F4-Discovery/Libraries/STM32F4xx_StdPeriph_Driver/src/stm32f4xx_tim.c ****   * @brief  Initializes the TIMx Channel4 according to the specified parameters
 901:App/STM32F4-Discovery/Libraries/STM32F4xx_StdPeriph_Driver/src/stm32f4xx_tim.c ****   *         in the TIM_OCInitStruct.
 902:App/STM32F4-Discovery/Libraries/STM32F4xx_StdPeriph_Driver/src/stm32f4xx_tim.c ****   * @param  TIMx: where x can be 1, 2, 3, 4, 5 or 8 to select the TIM peripheral.
 903:App/STM32F4-Discovery/Libraries/STM32F4xx_StdPeriph_Driver/src/stm32f4xx_tim.c ****   * @param  TIM_OCInitStruct: pointer to a TIM_OCInitTypeDef structure that contains
 904:App/STM32F4-Discovery/Libraries/STM32F4xx_StdPeriph_Driver/src/stm32f4xx_tim.c ****   *         the configuration information for the specified TIM peripheral.
 905:App/STM32F4-Discovery/Libraries/STM32F4xx_StdPeriph_Driver/src/stm32f4xx_tim.c ****   * @retval None
 906:App/STM32F4-Discovery/Libraries/STM32F4xx_StdPeriph_Driver/src/stm32f4xx_tim.c ****   */
 907:App/STM32F4-Discovery/Libraries/STM32F4xx_StdPeriph_Driver/src/stm32f4xx_tim.c **** void TIM_OC4Init(TIM_TypeDef* TIMx, TIM_OCInitTypeDef* TIM_OCInitStruct)
 908:App/STM32F4-Discovery/Libraries/STM32F4xx_StdPeriph_Driver/src/stm32f4xx_tim.c **** {
 3467              		.loc 1 908 0
 3468              		.cfi_startproc
 3469              		@ args = 0, pretend = 0, frame = 16
 3470              		@ frame_needed = 1, uses_anonymous_args = 0
 3471 0000 80B5     		push	{r7, lr}
 3472              	.LCFI54:
 3473              		.cfi_def_cfa_offset 8
 3474              		.cfi_offset 7, -8
 3475              		.cfi_offset 14, -4
 3476 0002 84B0     		sub	sp, sp, #16
 3477              	.LCFI55:
 3478              		.cfi_def_cfa_offset 24
 3479 0004 00AF     		add	r7, sp, #0
 3480              	.LCFI56:
 3481              		.cfi_def_cfa_register 7
 3482 0006 7860     		str	r0, [r7, #4]
 3483 0008 3960     		str	r1, [r7, #0]
 909:App/STM32F4-Discovery/Libraries/STM32F4xx_StdPeriph_Driver/src/stm32f4xx_tim.c ****   uint16_t tmpccmrx = 0, tmpccer = 0, tmpcr2 = 0;
 3484              		.loc 1 909 0
 3485 000a 4FF00003 		mov	r3, #0
 3486 000e BB81     		strh	r3, [r7, #12]	@ movhi
 3487 0010 4FF00003 		mov	r3, #0
 3488 0014 7B81     		strh	r3, [r7, #10]	@ movhi
 3489 0016 4FF00003 		mov	r3, #0
 3490 001a FB81     		strh	r3, [r7, #14]	@ movhi
 910:App/STM32F4-Discovery/Libraries/STM32F4xx_StdPeriph_Driver/src/stm32f4xx_tim.c ****    
 911:App/STM32F4-Discovery/Libraries/STM32F4xx_StdPeriph_Driver/src/stm32f4xx_tim.c ****   /* Check the parameters */
 912:App/STM32F4-Discovery/Libraries/STM32F4xx_StdPeriph_Driver/src/stm32f4xx_tim.c ****   assert_param(IS_TIM_LIST3_PERIPH(TIMx)); 
 3491              		.loc 1 912 0
 3492 001c 7A68     		ldr	r2, [r7, #4]
 3493 001e 4FF00003 		mov	r3, #0
 3494 0022 C4F20103 		movt	r3, 16385
 3495 0026 9A42     		cmp	r2, r3
 3496 0028 27D0     		beq	.L103
 3497              		.loc 1 912 0 is_stmt 0 discriminator 1
 3498 002a 7B68     		ldr	r3, [r7, #4]
 3499 002c B3F1804F 		cmp	r3, #1073741824
 3500 0030 23D0     		beq	.L103
 3501              		.loc 1 912 0 discriminator 2
 3502 0032 7A68     		ldr	r2, [r7, #4]
 3503 0034 4FF48063 		mov	r3, #1024
 3504 0038 C4F20003 		movt	r3, 16384
 3505 003c 9A42     		cmp	r2, r3
 3506 003e 1CD0     		beq	.L103
 3507              		.loc 1 912 0 discriminator 3
 3508 0040 7A68     		ldr	r2, [r7, #4]
 3509 0042 4FF40063 		mov	r3, #2048
 3510 0046 C4F20003 		movt	r3, 16384
 3511 004a 9A42     		cmp	r2, r3
 3512 004c 15D0     		beq	.L103
 3513              		.loc 1 912 0 discriminator 4
 3514 004e 7A68     		ldr	r2, [r7, #4]
 3515 0050 4FF44063 		mov	r3, #3072
 3516 0054 C4F20003 		movt	r3, 16384
 3517 0058 9A42     		cmp	r2, r3
 3518 005a 0ED0     		beq	.L103
 3519              		.loc 1 912 0 discriminator 5
 3520 005c 7A68     		ldr	r2, [r7, #4]
 3521 005e 4FF48063 		mov	r3, #1024
 3522 0062 C4F20103 		movt	r3, 16385
 3523 0066 9A42     		cmp	r2, r3
 3524 0068 07D0     		beq	.L103
 3525              		.loc 1 912 0 discriminator 6
 3526 006a 40F20000 		movw	r0, #:lower16:.LC0
 3527 006e C0F20000 		movt	r0, #:upper16:.LC0
 3528 0072 4FF46471 		mov	r1, #912
 3529 0076 FFF7FEFF 		bl	assert_failed
 3530              	.L103:
 913:App/STM32F4-Discovery/Libraries/STM32F4xx_StdPeriph_Driver/src/stm32f4xx_tim.c ****   assert_param(IS_TIM_OC_MODE(TIM_OCInitStruct->TIM_OCMode));
 3531              		.loc 1 913 0 is_stmt 1
 3532 007a 3B68     		ldr	r3, [r7, #0]
 3533 007c 1B88     		ldrh	r3, [r3, #0]
 3534 007e 002B     		cmp	r3, #0
 3535 0080 1BD0     		beq	.L104
 3536              		.loc 1 913 0 is_stmt 0 discriminator 1
 3537 0082 3B68     		ldr	r3, [r7, #0]
 3538 0084 1B88     		ldrh	r3, [r3, #0]
 3539 0086 102B     		cmp	r3, #16
 3540 0088 17D0     		beq	.L104
 3541              		.loc 1 913 0 discriminator 2
 3542 008a 3B68     		ldr	r3, [r7, #0]
 3543 008c 1B88     		ldrh	r3, [r3, #0]
 3544 008e 202B     		cmp	r3, #32
 3545 0090 13D0     		beq	.L104
 3546              		.loc 1 913 0 discriminator 3
 3547 0092 3B68     		ldr	r3, [r7, #0]
 3548 0094 1B88     		ldrh	r3, [r3, #0]
 3549 0096 302B     		cmp	r3, #48
 3550 0098 0FD0     		beq	.L104
 3551              		.loc 1 913 0 discriminator 4
 3552 009a 3B68     		ldr	r3, [r7, #0]
 3553 009c 1B88     		ldrh	r3, [r3, #0]
 3554 009e 602B     		cmp	r3, #96
 3555 00a0 0BD0     		beq	.L104
