   1              		.syntax unified
   2              		.cpu cortex-m4
   3              		.eabi_attribute 27, 3
   4              		.fpu fpv4-sp-d16
   5              		.eabi_attribute 20, 1
   6              		.eabi_attribute 21, 1
   7              		.eabi_attribute 23, 3
   8              		.eabi_attribute 24, 1
   9              		.eabi_attribute 25, 1
  10              		.eabi_attribute 26, 1
  11              		.eabi_attribute 30, 6
  12              		.eabi_attribute 34, 1
  13              		.eabi_attribute 18, 4
  14              		.thumb
  15              		.file	"system_stm32f4xx.c"
  16              		.text
  17              	.Ltext0:
  18              		.cfi_sections	.debug_frame
  19              		.global	SystemCoreClock
  20              		.section	.data.SystemCoreClock,"aw",%progbits
  21              		.align	2
  24              	SystemCoreClock:
  25 0000 80D1F008 		.word	150000000
  26              		.global	AHBPrescTable
  27              		.section	.data.AHBPrescTable,"aw",%progbits
  28              		.align	2
  31              	AHBPrescTable:
  32 0000 00       		.byte	0
  33 0001 00       		.byte	0
  34 0002 00       		.byte	0
  35 0003 00       		.byte	0
  36 0004 00       		.byte	0
  37 0005 00       		.byte	0
  38 0006 00       		.byte	0
  39 0007 00       		.byte	0
  40 0008 01       		.byte	1
  41 0009 02       		.byte	2
  42 000a 03       		.byte	3
  43 000b 04       		.byte	4
  44 000c 06       		.byte	6
  45 000d 07       		.byte	7
  46 000e 08       		.byte	8
  47 000f 09       		.byte	9
  48              		.section	.text.SystemInit,"ax",%progbits
  49              		.align	2
  50              		.global	SystemInit
  51              		.thumb
  52              		.thumb_func
  54              	SystemInit:
  55              	.LFB110:
  56              		.file 1 "App/STM32F4-Discovery/startup/system_stm32f4xx.c"
   1:App/STM32F4-Discovery/startup/system_stm32f4xx.c **** /**
   2:App/STM32F4-Discovery/startup/system_stm32f4xx.c ****   ******************************************************************************
   3:App/STM32F4-Discovery/startup/system_stm32f4xx.c ****   * @file    system_stm32f4xx.c
   4:App/STM32F4-Discovery/startup/system_stm32f4xx.c ****   * @author  MCD Application Team
   5:App/STM32F4-Discovery/startup/system_stm32f4xx.c ****   * @version V1.0.0
   6:App/STM32F4-Discovery/startup/system_stm32f4xx.c ****   * @date    24-October-2011
   7:App/STM32F4-Discovery/startup/system_stm32f4xx.c ****   * @brief   CMSIS Cortex-M4 Device Peripheral Access Layer System Source File.
   8:App/STM32F4-Discovery/startup/system_stm32f4xx.c ****   *          This file contains the system clock configuration for STM32F4xx devices,
   9:App/STM32F4-Discovery/startup/system_stm32f4xx.c ****   *          and is generated by the clock configuration tool
  10:App/STM32F4-Discovery/startup/system_stm32f4xx.c ****   *          stm32f4xx_Clock_Configuration_V1.0.0.xls
  11:App/STM32F4-Discovery/startup/system_stm32f4xx.c ****   *             
  12:App/STM32F4-Discovery/startup/system_stm32f4xx.c ****   * 1.  This file provides two functions and one global variable to be called from 
  13:App/STM32F4-Discovery/startup/system_stm32f4xx.c ****   *     user application:
  14:App/STM32F4-Discovery/startup/system_stm32f4xx.c ****   *      - SystemInit(): Setups the system clock (System clock source, PLL Multiplier
  15:App/STM32F4-Discovery/startup/system_stm32f4xx.c ****   *                      and Divider factors, AHB/APBx prescalers and Flash settings),
  16:App/STM32F4-Discovery/startup/system_stm32f4xx.c ****   *                      depending on the configuration made in the clock xls tool. 
  17:App/STM32F4-Discovery/startup/system_stm32f4xx.c ****   *                      This function is called at startup just after reset and 
  18:App/STM32F4-Discovery/startup/system_stm32f4xx.c ****   *                      before branch to main program. This call is made inside
  19:App/STM32F4-Discovery/startup/system_stm32f4xx.c ****   *                      the "startup_stm32f4xx.s" file.
  20:App/STM32F4-Discovery/startup/system_stm32f4xx.c ****   *
  21:App/STM32F4-Discovery/startup/system_stm32f4xx.c ****   *      - SystemCoreClock variable: Contains the core clock (HCLK), it can be used
  22:App/STM32F4-Discovery/startup/system_stm32f4xx.c ****   *                                  by the user application to setup the SysTick 
  23:App/STM32F4-Discovery/startup/system_stm32f4xx.c ****   *                                  timer or configure other parameters.
  24:App/STM32F4-Discovery/startup/system_stm32f4xx.c ****   *                                     
  25:App/STM32F4-Discovery/startup/system_stm32f4xx.c ****   *      - SystemCoreClockUpdate(): Updates the variable SystemCoreClock and must
  26:App/STM32F4-Discovery/startup/system_stm32f4xx.c ****   *                                 be called whenever the core clock is changed
  27:App/STM32F4-Discovery/startup/system_stm32f4xx.c ****   *                                 during program execution.
  28:App/STM32F4-Discovery/startup/system_stm32f4xx.c ****   *
  29:App/STM32F4-Discovery/startup/system_stm32f4xx.c ****   * 2. After each device reset the HSI (16 MHz) is used as system clock source.
  30:App/STM32F4-Discovery/startup/system_stm32f4xx.c ****   *    Then SystemInit() function is called, in "startup_stm32f4xx.s" file, to
  31:App/STM32F4-Discovery/startup/system_stm32f4xx.c ****   *    configure the system clock before to branch to main program.
  32:App/STM32F4-Discovery/startup/system_stm32f4xx.c ****   *
  33:App/STM32F4-Discovery/startup/system_stm32f4xx.c ****   * 3. If the system clock source selected by user fails to startup, the SystemInit()
  34:App/STM32F4-Discovery/startup/system_stm32f4xx.c ****   *    function will do nothing and HSI still used as system clock source. User can 
  35:App/STM32F4-Discovery/startup/system_stm32f4xx.c ****   *    add some code to deal with this issue inside the SetSysClock() function.
  36:App/STM32F4-Discovery/startup/system_stm32f4xx.c ****   *
  37:App/STM32F4-Discovery/startup/system_stm32f4xx.c ****   * 4. The default value of HSE crystal is set to 25MHz, refer to "HSE_VALUE" define
  38:App/STM32F4-Discovery/startup/system_stm32f4xx.c ****   *    in "stm32f4xx.h" file. When HSE is used as system clock source, directly or
  39:App/STM32F4-Discovery/startup/system_stm32f4xx.c ****   *    through PLL, and you are using different crystal you have to adapt the HSE
  40:App/STM32F4-Discovery/startup/system_stm32f4xx.c ****   *    value to your own configuration.
  41:App/STM32F4-Discovery/startup/system_stm32f4xx.c ****   *
  42:App/STM32F4-Discovery/startup/system_stm32f4xx.c ****   * 5. This file configures the system clock as follows:
  43:App/STM32F4-Discovery/startup/system_stm32f4xx.c ****   *=============================================================================
  44:App/STM32F4-Discovery/startup/system_stm32f4xx.c ****   *=============================================================================
  45:App/STM32F4-Discovery/startup/system_stm32f4xx.c ****   *        Supported STM32F4xx device revision    | Rev A
  46:App/STM32F4-Discovery/startup/system_stm32f4xx.c ****   *-----------------------------------------------------------------------------
  47:App/STM32F4-Discovery/startup/system_stm32f4xx.c ****   *        System Clock source                    | PLL (HSE)
  48:App/STM32F4-Discovery/startup/system_stm32f4xx.c ****   *-----------------------------------------------------------------------------
  49:App/STM32F4-Discovery/startup/system_stm32f4xx.c ****   *        SYSCLK(Hz)                             | 150000000
  50:App/STM32F4-Discovery/startup/system_stm32f4xx.c ****   *-----------------------------------------------------------------------------
  51:App/STM32F4-Discovery/startup/system_stm32f4xx.c ****   *        HCLK(Hz)                               | 150000000
  52:App/STM32F4-Discovery/startup/system_stm32f4xx.c ****   *-----------------------------------------------------------------------------
  53:App/STM32F4-Discovery/startup/system_stm32f4xx.c ****   *        AHB Prescaler                          | 1
  54:App/STM32F4-Discovery/startup/system_stm32f4xx.c ****   *-----------------------------------------------------------------------------
  55:App/STM32F4-Discovery/startup/system_stm32f4xx.c ****   *        APB1 Prescaler                         | 4
  56:App/STM32F4-Discovery/startup/system_stm32f4xx.c ****   *-----------------------------------------------------------------------------
  57:App/STM32F4-Discovery/startup/system_stm32f4xx.c ****   *        APB2 Prescaler                         | 2
  58:App/STM32F4-Discovery/startup/system_stm32f4xx.c ****   *-----------------------------------------------------------------------------
  59:App/STM32F4-Discovery/startup/system_stm32f4xx.c ****   *        HSE Frequency(Hz)                      | 25000000
  60:App/STM32F4-Discovery/startup/system_stm32f4xx.c ****   *-----------------------------------------------------------------------------
  61:App/STM32F4-Discovery/startup/system_stm32f4xx.c ****   *        PLL_M                                  | 25
  62:App/STM32F4-Discovery/startup/system_stm32f4xx.c ****   *-----------------------------------------------------------------------------
  63:App/STM32F4-Discovery/startup/system_stm32f4xx.c ****   *        PLL_N                                  | 300
  64:App/STM32F4-Discovery/startup/system_stm32f4xx.c ****   *-----------------------------------------------------------------------------
  65:App/STM32F4-Discovery/startup/system_stm32f4xx.c ****   *        PLL_P                                  | 2
  66:App/STM32F4-Discovery/startup/system_stm32f4xx.c ****   *-----------------------------------------------------------------------------
  67:App/STM32F4-Discovery/startup/system_stm32f4xx.c ****   *        PLL_Q                                  | 7
  68:App/STM32F4-Discovery/startup/system_stm32f4xx.c ****   *-----------------------------------------------------------------------------
  69:App/STM32F4-Discovery/startup/system_stm32f4xx.c ****   *        PLLI2S_N                               | NA
  70:App/STM32F4-Discovery/startup/system_stm32f4xx.c ****   *-----------------------------------------------------------------------------
  71:App/STM32F4-Discovery/startup/system_stm32f4xx.c ****   *        PLLI2S_R                               | NA
  72:App/STM32F4-Discovery/startup/system_stm32f4xx.c ****   *-----------------------------------------------------------------------------
  73:App/STM32F4-Discovery/startup/system_stm32f4xx.c ****   *        I2S input clock                        | NA
  74:App/STM32F4-Discovery/startup/system_stm32f4xx.c ****   *-----------------------------------------------------------------------------
  75:App/STM32F4-Discovery/startup/system_stm32f4xx.c ****   *        VDD(V)                                 | 3.3
  76:App/STM32F4-Discovery/startup/system_stm32f4xx.c ****   *-----------------------------------------------------------------------------
  77:App/STM32F4-Discovery/startup/system_stm32f4xx.c ****   *        Main regulator output voltage          | Scale1 mode
  78:App/STM32F4-Discovery/startup/system_stm32f4xx.c ****   *-----------------------------------------------------------------------------
  79:App/STM32F4-Discovery/startup/system_stm32f4xx.c ****   *        Flash Latency(WS)                      | 4
  80:App/STM32F4-Discovery/startup/system_stm32f4xx.c ****   *-----------------------------------------------------------------------------
  81:App/STM32F4-Discovery/startup/system_stm32f4xx.c ****   *        Prefetch Buffer                        | OFF
  82:App/STM32F4-Discovery/startup/system_stm32f4xx.c ****   *-----------------------------------------------------------------------------
  83:App/STM32F4-Discovery/startup/system_stm32f4xx.c ****   *        Instruction cache                      | ON
  84:App/STM32F4-Discovery/startup/system_stm32f4xx.c ****   *-----------------------------------------------------------------------------
  85:App/STM32F4-Discovery/startup/system_stm32f4xx.c ****   *        Data cache                             | ON
  86:App/STM32F4-Discovery/startup/system_stm32f4xx.c ****   *-----------------------------------------------------------------------------
  87:App/STM32F4-Discovery/startup/system_stm32f4xx.c ****   *        Require 48MHz for USB OTG FS,          | Disabled
  88:App/STM32F4-Discovery/startup/system_stm32f4xx.c ****   *        SDIO and RNG clock                     |
  89:App/STM32F4-Discovery/startup/system_stm32f4xx.c ****   *-----------------------------------------------------------------------------
  90:App/STM32F4-Discovery/startup/system_stm32f4xx.c ****   *=============================================================================
  91:App/STM32F4-Discovery/startup/system_stm32f4xx.c ****   ****************************************************************************** 
  92:App/STM32F4-Discovery/startup/system_stm32f4xx.c ****   * @attention
  93:App/STM32F4-Discovery/startup/system_stm32f4xx.c ****   *
  94:App/STM32F4-Discovery/startup/system_stm32f4xx.c ****   * THE PRESENT FIRMWARE WHICH IS FOR GUIDANCE ONLY AIMS AT PROVIDING CUSTOMERS
  95:App/STM32F4-Discovery/startup/system_stm32f4xx.c ****   * WITH CODING INFORMATION REGARDING THEIR PRODUCTS IN ORDER FOR THEM TO SAVE
  96:App/STM32F4-Discovery/startup/system_stm32f4xx.c ****   * TIME. AS A RESULT, STMICROELECTRONICS SHALL NOT BE HELD LIABLE FOR ANY
  97:App/STM32F4-Discovery/startup/system_stm32f4xx.c ****   * DIRECT, INDIRECT OR CONSEQUENTIAL DAMAGES WITH RESPECT TO ANY CLAIMS ARISING
  98:App/STM32F4-Discovery/startup/system_stm32f4xx.c ****   * FROM THE CONTENT OF SUCH FIRMWARE AND/OR THE USE MADE BY CUSTOMERS OF THE
  99:App/STM32F4-Discovery/startup/system_stm32f4xx.c ****   * CODING INFORMATION CONTAINED HEREIN IN CONNECTION WITH THEIR PRODUCTS.
 100:App/STM32F4-Discovery/startup/system_stm32f4xx.c ****   *
 101:App/STM32F4-Discovery/startup/system_stm32f4xx.c ****   * <h2><center>&copy; COPYRIGHT 2011 STMicroelectronics</center></h2>
 102:App/STM32F4-Discovery/startup/system_stm32f4xx.c ****   ******************************************************************************
 103:App/STM32F4-Discovery/startup/system_stm32f4xx.c ****   */
 104:App/STM32F4-Discovery/startup/system_stm32f4xx.c **** 
 105:App/STM32F4-Discovery/startup/system_stm32f4xx.c **** /** @addtogroup CMSIS
 106:App/STM32F4-Discovery/startup/system_stm32f4xx.c ****   * @{
 107:App/STM32F4-Discovery/startup/system_stm32f4xx.c ****   */
 108:App/STM32F4-Discovery/startup/system_stm32f4xx.c **** 
 109:App/STM32F4-Discovery/startup/system_stm32f4xx.c **** /** @addtogroup stm32f4xx_system
 110:App/STM32F4-Discovery/startup/system_stm32f4xx.c ****   * @{
 111:App/STM32F4-Discovery/startup/system_stm32f4xx.c ****   */  
 112:App/STM32F4-Discovery/startup/system_stm32f4xx.c ****   
 113:App/STM32F4-Discovery/startup/system_stm32f4xx.c **** /** @addtogroup STM32F4xx_System_Private_Includes
 114:App/STM32F4-Discovery/startup/system_stm32f4xx.c ****   * @{
 115:App/STM32F4-Discovery/startup/system_stm32f4xx.c ****   */
 116:App/STM32F4-Discovery/startup/system_stm32f4xx.c **** 
 117:App/STM32F4-Discovery/startup/system_stm32f4xx.c **** #include "stm32f4xx.h"
 118:App/STM32F4-Discovery/startup/system_stm32f4xx.c **** 
 119:App/STM32F4-Discovery/startup/system_stm32f4xx.c **** /**
 120:App/STM32F4-Discovery/startup/system_stm32f4xx.c ****   * @}
 121:App/STM32F4-Discovery/startup/system_stm32f4xx.c ****   */
 122:App/STM32F4-Discovery/startup/system_stm32f4xx.c **** 
 123:App/STM32F4-Discovery/startup/system_stm32f4xx.c **** /** @addtogroup STM32F4xx_System_Private_TypesDefinitions
 124:App/STM32F4-Discovery/startup/system_stm32f4xx.c ****   * @{
 125:App/STM32F4-Discovery/startup/system_stm32f4xx.c ****   */
 126:App/STM32F4-Discovery/startup/system_stm32f4xx.c **** 
 127:App/STM32F4-Discovery/startup/system_stm32f4xx.c **** /**
 128:App/STM32F4-Discovery/startup/system_stm32f4xx.c ****   * @}
 129:App/STM32F4-Discovery/startup/system_stm32f4xx.c ****   */
 130:App/STM32F4-Discovery/startup/system_stm32f4xx.c **** 
 131:App/STM32F4-Discovery/startup/system_stm32f4xx.c **** /** @addtogroup STM32F4xx_System_Private_Defines
 132:App/STM32F4-Discovery/startup/system_stm32f4xx.c ****   * @{
 133:App/STM32F4-Discovery/startup/system_stm32f4xx.c ****   */
 134:App/STM32F4-Discovery/startup/system_stm32f4xx.c **** 
 135:App/STM32F4-Discovery/startup/system_stm32f4xx.c **** /************************* Miscellaneous Configuration ************************/
 136:App/STM32F4-Discovery/startup/system_stm32f4xx.c **** /*!< Uncomment the following line if you need to use external SRAM mounted
 137:App/STM32F4-Discovery/startup/system_stm32f4xx.c ****      on STM324xG_EVAL board as data memory  */
 138:App/STM32F4-Discovery/startup/system_stm32f4xx.c **** /* #define DATA_IN_ExtSRAM */
 139:App/STM32F4-Discovery/startup/system_stm32f4xx.c **** 
 140:App/STM32F4-Discovery/startup/system_stm32f4xx.c **** /*!< Uncomment the following line if you need to relocate your vector Table in
 141:App/STM32F4-Discovery/startup/system_stm32f4xx.c ****      Internal SRAM. */
 142:App/STM32F4-Discovery/startup/system_stm32f4xx.c **** /* #define VECT_TAB_SRAM */
 143:App/STM32F4-Discovery/startup/system_stm32f4xx.c **** #define VECT_TAB_OFFSET  0x00 /*!< Vector Table base offset field. 
 144:App/STM32F4-Discovery/startup/system_stm32f4xx.c ****                                    This value must be a multiple of 0x200. */
 145:App/STM32F4-Discovery/startup/system_stm32f4xx.c **** /******************************************************************************/
 146:App/STM32F4-Discovery/startup/system_stm32f4xx.c **** 
 147:App/STM32F4-Discovery/startup/system_stm32f4xx.c **** /************************* PLL Parameters *************************************/
 148:App/STM32F4-Discovery/startup/system_stm32f4xx.c **** /* PLL_VCO = (HSE_VALUE or HSI_VALUE / PLL_M) * PLL_N */
 149:App/STM32F4-Discovery/startup/system_stm32f4xx.c **** #define PLL_M      25
 150:App/STM32F4-Discovery/startup/system_stm32f4xx.c **** #define PLL_N      300
 151:App/STM32F4-Discovery/startup/system_stm32f4xx.c **** 
 152:App/STM32F4-Discovery/startup/system_stm32f4xx.c **** /* SYSCLK = PLL_VCO / PLL_P */
 153:App/STM32F4-Discovery/startup/system_stm32f4xx.c **** #define PLL_P      2
 154:App/STM32F4-Discovery/startup/system_stm32f4xx.c **** 
 155:App/STM32F4-Discovery/startup/system_stm32f4xx.c **** /* USB OTG FS, SDIO and RNG Clock =  PLL_VCO / PLLQ */
 156:App/STM32F4-Discovery/startup/system_stm32f4xx.c **** #define PLL_Q      7
 157:App/STM32F4-Discovery/startup/system_stm32f4xx.c **** 
 158:App/STM32F4-Discovery/startup/system_stm32f4xx.c **** /******************************************************************************/
 159:App/STM32F4-Discovery/startup/system_stm32f4xx.c **** 
 160:App/STM32F4-Discovery/startup/system_stm32f4xx.c **** /**
 161:App/STM32F4-Discovery/startup/system_stm32f4xx.c ****   * @}
 162:App/STM32F4-Discovery/startup/system_stm32f4xx.c ****   */
 163:App/STM32F4-Discovery/startup/system_stm32f4xx.c **** 
 164:App/STM32F4-Discovery/startup/system_stm32f4xx.c **** /** @addtogroup STM32F4xx_System_Private_Macros
 165:App/STM32F4-Discovery/startup/system_stm32f4xx.c ****   * @{
 166:App/STM32F4-Discovery/startup/system_stm32f4xx.c ****   */
 167:App/STM32F4-Discovery/startup/system_stm32f4xx.c **** 
 168:App/STM32F4-Discovery/startup/system_stm32f4xx.c **** /**
 169:App/STM32F4-Discovery/startup/system_stm32f4xx.c ****   * @}
 170:App/STM32F4-Discovery/startup/system_stm32f4xx.c ****   */
 171:App/STM32F4-Discovery/startup/system_stm32f4xx.c **** 
 172:App/STM32F4-Discovery/startup/system_stm32f4xx.c **** /** @addtogroup STM32F4xx_System_Private_Variables
 173:App/STM32F4-Discovery/startup/system_stm32f4xx.c ****   * @{
 174:App/STM32F4-Discovery/startup/system_stm32f4xx.c ****   */
 175:App/STM32F4-Discovery/startup/system_stm32f4xx.c **** 
 176:App/STM32F4-Discovery/startup/system_stm32f4xx.c ****   uint32_t SystemCoreClock = 150000000;
 177:App/STM32F4-Discovery/startup/system_stm32f4xx.c **** 
 178:App/STM32F4-Discovery/startup/system_stm32f4xx.c ****   __I uint8_t AHBPrescTable[16] = {0, 0, 0, 0, 0, 0, 0, 0, 1, 2, 3, 4, 6, 7, 8, 9};
 179:App/STM32F4-Discovery/startup/system_stm32f4xx.c **** 
 180:App/STM32F4-Discovery/startup/system_stm32f4xx.c **** /**
 181:App/STM32F4-Discovery/startup/system_stm32f4xx.c ****   * @}
 182:App/STM32F4-Discovery/startup/system_stm32f4xx.c ****   */
 183:App/STM32F4-Discovery/startup/system_stm32f4xx.c **** 
 184:App/STM32F4-Discovery/startup/system_stm32f4xx.c **** /** @addtogroup STM32F4xx_System_Private_FunctionPrototypes
 185:App/STM32F4-Discovery/startup/system_stm32f4xx.c ****   * @{
 186:App/STM32F4-Discovery/startup/system_stm32f4xx.c ****   */
 187:App/STM32F4-Discovery/startup/system_stm32f4xx.c **** 
 188:App/STM32F4-Discovery/startup/system_stm32f4xx.c **** static void SetSysClock(void);
 189:App/STM32F4-Discovery/startup/system_stm32f4xx.c **** #ifdef DATA_IN_ExtSRAM
 190:App/STM32F4-Discovery/startup/system_stm32f4xx.c ****   static void SystemInit_ExtMemCtl(void); 
 191:App/STM32F4-Discovery/startup/system_stm32f4xx.c **** #endif /* DATA_IN_ExtSRAM */
 192:App/STM32F4-Discovery/startup/system_stm32f4xx.c **** 
 193:App/STM32F4-Discovery/startup/system_stm32f4xx.c **** /**
 194:App/STM32F4-Discovery/startup/system_stm32f4xx.c ****   * @}
 195:App/STM32F4-Discovery/startup/system_stm32f4xx.c ****   */
 196:App/STM32F4-Discovery/startup/system_stm32f4xx.c **** 
 197:App/STM32F4-Discovery/startup/system_stm32f4xx.c **** /** @addtogroup STM32F4xx_System_Private_Functions
 198:App/STM32F4-Discovery/startup/system_stm32f4xx.c ****   * @{
 199:App/STM32F4-Discovery/startup/system_stm32f4xx.c ****   */
 200:App/STM32F4-Discovery/startup/system_stm32f4xx.c **** 
 201:App/STM32F4-Discovery/startup/system_stm32f4xx.c **** /**
 202:App/STM32F4-Discovery/startup/system_stm32f4xx.c ****   * @brief  Setup the microcontroller system
 203:App/STM32F4-Discovery/startup/system_stm32f4xx.c ****   *         Initialize the Embedded Flash Interface, the PLL and update the 
 204:App/STM32F4-Discovery/startup/system_stm32f4xx.c ****   *         SystemFrequency variable.
 205:App/STM32F4-Discovery/startup/system_stm32f4xx.c ****   * @param  None
 206:App/STM32F4-Discovery/startup/system_stm32f4xx.c ****   * @retval None
 207:App/STM32F4-Discovery/startup/system_stm32f4xx.c ****   */
 208:App/STM32F4-Discovery/startup/system_stm32f4xx.c **** void SystemInit(void)
 209:App/STM32F4-Discovery/startup/system_stm32f4xx.c **** {
  57              		.loc 1 209 0
  58              		.cfi_startproc
  59              		@ args = 0, pretend = 0, frame = 0
  60              		@ frame_needed = 1, uses_anonymous_args = 0
  61 0000 80B5     		push	{r7, lr}
  62              	.LCFI0:
  63              		.cfi_def_cfa_offset 8
  64              		.cfi_offset 7, -8
  65              		.cfi_offset 14, -4
  66 0002 00AF     		add	r7, sp, #0
  67              	.LCFI1:
  68              		.cfi_def_cfa_register 7
 210:App/STM32F4-Discovery/startup/system_stm32f4xx.c ****   /* FPU settings ------------------------------------------------------------*/
 211:App/STM32F4-Discovery/startup/system_stm32f4xx.c ****   #if (__FPU_PRESENT == 1) && (__FPU_USED == 1)
 212:App/STM32F4-Discovery/startup/system_stm32f4xx.c ****     SCB->CPACR |= ((3UL << 10*2)|(3UL << 11*2));  /* set CP10 and CP11 Full Access */
  69              		.loc 1 212 0
  70 0004 4FF46D43 		mov	r3, #60672
  71 0008 CEF20003 		movt	r3, 57344
  72 000c 4FF46D42 		mov	r2, #60672
  73 0010 CEF20002 		movt	r2, 57344
  74 0014 D2F88820 		ldr	r2, [r2, #136]
  75 0018 42F47002 		orr	r2, r2, #15728640
  76 001c C3F88820 		str	r2, [r3, #136]
 213:App/STM32F4-Discovery/startup/system_stm32f4xx.c ****   #endif
 214:App/STM32F4-Discovery/startup/system_stm32f4xx.c ****   /* Reset the RCC clock configuration to the default reset state ------------*/
 215:App/STM32F4-Discovery/startup/system_stm32f4xx.c ****   /* Set HSION bit */
 216:App/STM32F4-Discovery/startup/system_stm32f4xx.c ****   RCC->CR |= (uint32_t)0x00000001;
  77              		.loc 1 216 0
  78 0020 4FF46053 		mov	r3, #14336
  79 0024 C4F20203 		movt	r3, 16386
  80 0028 4FF46052 		mov	r2, #14336
  81 002c C4F20202 		movt	r2, 16386
  82 0030 1268     		ldr	r2, [r2, #0]
  83 0032 42F00102 		orr	r2, r2, #1
  84 0036 1A60     		str	r2, [r3, #0]
 217:App/STM32F4-Discovery/startup/system_stm32f4xx.c **** 
 218:App/STM32F4-Discovery/startup/system_stm32f4xx.c ****   /* Reset CFGR register */
 219:App/STM32F4-Discovery/startup/system_stm32f4xx.c ****   RCC->CFGR = 0x00000000;
  85              		.loc 1 219 0
  86 0038 4FF46053 		mov	r3, #14336
  87 003c C4F20203 		movt	r3, 16386
  88 0040 4FF00002 		mov	r2, #0
  89 0044 9A60     		str	r2, [r3, #8]
 220:App/STM32F4-Discovery/startup/system_stm32f4xx.c **** 
 221:App/STM32F4-Discovery/startup/system_stm32f4xx.c ****   /* Reset HSEON, CSSON and PLLON bits */
 222:App/STM32F4-Discovery/startup/system_stm32f4xx.c ****   RCC->CR &= (uint32_t)0xFEF6FFFF;
  90              		.loc 1 222 0
  91 0046 4FF46053 		mov	r3, #14336
  92 004a C4F20203 		movt	r3, 16386
  93 004e 4FF46052 		mov	r2, #14336
  94 0052 C4F20202 		movt	r2, 16386
  95 0056 1268     		ldr	r2, [r2, #0]
  96 0058 22F08472 		bic	r2, r2, #17301504
  97 005c 22F48032 		bic	r2, r2, #65536
  98 0060 1A60     		str	r2, [r3, #0]
 223:App/STM32F4-Discovery/startup/system_stm32f4xx.c **** 
 224:App/STM32F4-Discovery/startup/system_stm32f4xx.c ****   /* Reset PLLCFGR register */
 225:App/STM32F4-Discovery/startup/system_stm32f4xx.c ****   RCC->PLLCFGR = 0x24003010;
  99              		.loc 1 225 0
 100 0062 4FF46053 		mov	r3, #14336
 101 0066 C4F20203 		movt	r3, 16386
 102 006a 43F21002 		movw	r2, #12304
 103 006e C2F20042 		movt	r2, 9216
 104 0072 5A60     		str	r2, [r3, #4]
 226:App/STM32F4-Discovery/startup/system_stm32f4xx.c **** 
 227:App/STM32F4-Discovery/startup/system_stm32f4xx.c ****   /* Reset HSEBYP bit */
 228:App/STM32F4-Discovery/startup/system_stm32f4xx.c ****   RCC->CR &= (uint32_t)0xFFFBFFFF;
 105              		.loc 1 228 0
 106 0074 4FF46053 		mov	r3, #14336
 107 0078 C4F20203 		movt	r3, 16386
 108 007c 4FF46052 		mov	r2, #14336
 109 0080 C4F20202 		movt	r2, 16386
 110 0084 1268     		ldr	r2, [r2, #0]
 111 0086 22F48022 		bic	r2, r2, #262144
 112 008a 1A60     		str	r2, [r3, #0]
 229:App/STM32F4-Discovery/startup/system_stm32f4xx.c **** 
 230:App/STM32F4-Discovery/startup/system_stm32f4xx.c ****   /* Disable all interrupts */
 231:App/STM32F4-Discovery/startup/system_stm32f4xx.c ****   RCC->CIR = 0x00000000;
 113              		.loc 1 231 0
 114 008c 4FF46053 		mov	r3, #14336
 115 0090 C4F20203 		movt	r3, 16386
 116 0094 4FF00002 		mov	r2, #0
 117 0098 DA60     		str	r2, [r3, #12]
 232:App/STM32F4-Discovery/startup/system_stm32f4xx.c **** 
 233:App/STM32F4-Discovery/startup/system_stm32f4xx.c **** #ifdef DATA_IN_ExtSRAM
 234:App/STM32F4-Discovery/startup/system_stm32f4xx.c ****   SystemInit_ExtMemCtl(); 
 235:App/STM32F4-Discovery/startup/system_stm32f4xx.c **** #endif /* DATA_IN_ExtSRAM */
 236:App/STM32F4-Discovery/startup/system_stm32f4xx.c ****          
 237:App/STM32F4-Discovery/startup/system_stm32f4xx.c ****   /* Configure the System clock source, PLL Multiplier and Divider factors, 
 238:App/STM32F4-Discovery/startup/system_stm32f4xx.c ****      AHB/APBx prescalers and Flash settings ----------------------------------*/
 239:App/STM32F4-Discovery/startup/system_stm32f4xx.c ****   SetSysClock();
 118              		.loc 1 239 0
 119 009a FFF7FEFF 		bl	SetSysClock
 240:App/STM32F4-Discovery/startup/system_stm32f4xx.c **** 
 241:App/STM32F4-Discovery/startup/system_stm32f4xx.c ****   /* Configure the Vector Table location add offset address ------------------*/
 242:App/STM32F4-Discovery/startup/system_stm32f4xx.c **** #ifdef VECT_TAB_SRAM
 243:App/STM32F4-Discovery/startup/system_stm32f4xx.c ****   SCB->VTOR = SRAM_BASE | VECT_TAB_OFFSET; /* Vector Table Relocation in Internal SRAM */
 244:App/STM32F4-Discovery/startup/system_stm32f4xx.c **** #else
 245:App/STM32F4-Discovery/startup/system_stm32f4xx.c ****   SCB->VTOR = FLASH_BASE | VECT_TAB_OFFSET; /* Vector Table Relocation in Internal FLASH */
 120              		.loc 1 245 0
 121 009e 4FF46D43 		mov	r3, #60672
 122 00a2 CEF20003 		movt	r3, 57344
 123 00a6 4FF00062 		mov	r2, #134217728
 124 00aa 9A60     		str	r2, [r3, #8]
 246:App/STM32F4-Discovery/startup/system_stm32f4xx.c **** #endif
 247:App/STM32F4-Discovery/startup/system_stm32f4xx.c **** }
 125              		.loc 1 247 0
 126 00ac 80BD     		pop	{r7, pc}
 127              		.cfi_endproc
 128              	.LFE110:
 130 00ae 00BF     		.section	.text.SystemCoreClockUpdate,"ax",%progbits
 131              		.align	2
 132              		.global	SystemCoreClockUpdate
 133              		.thumb
 134              		.thumb_func
 136              	SystemCoreClockUpdate:
 137              	.LFB111:
 248:App/STM32F4-Discovery/startup/system_stm32f4xx.c **** 
 249:App/STM32F4-Discovery/startup/system_stm32f4xx.c **** /**
 250:App/STM32F4-Discovery/startup/system_stm32f4xx.c ****    * @brief  Update SystemCoreClock variable according to Clock Register Values.
 251:App/STM32F4-Discovery/startup/system_stm32f4xx.c ****   *         The SystemCoreClock variable contains the core clock (HCLK), it can
 252:App/STM32F4-Discovery/startup/system_stm32f4xx.c ****   *         be used by the user application to setup the SysTick timer or configure
 253:App/STM32F4-Discovery/startup/system_stm32f4xx.c ****   *         other parameters.
 254:App/STM32F4-Discovery/startup/system_stm32f4xx.c ****   *           
 255:App/STM32F4-Discovery/startup/system_stm32f4xx.c ****   * @note   Each time the core clock (HCLK) changes, this function must be called
 256:App/STM32F4-Discovery/startup/system_stm32f4xx.c ****   *         to update SystemCoreClock variable value. Otherwise, any configuration
 257:App/STM32F4-Discovery/startup/system_stm32f4xx.c ****   *         based on this variable will be incorrect.         
 258:App/STM32F4-Discovery/startup/system_stm32f4xx.c ****   *     
 259:App/STM32F4-Discovery/startup/system_stm32f4xx.c ****   * @note   - The system frequency computed by this function is not the real 
 260:App/STM32F4-Discovery/startup/system_stm32f4xx.c ****   *           frequency in the chip. It is calculated based on the predefined 
 261:App/STM32F4-Discovery/startup/system_stm32f4xx.c ****   *           constant and the selected clock source:
 262:App/STM32F4-Discovery/startup/system_stm32f4xx.c ****   *             
 263:App/STM32F4-Discovery/startup/system_stm32f4xx.c ****   *           - If SYSCLK source is HSI, SystemCoreClock will contain the HSI_VALUE(*)
 264:App/STM32F4-Discovery/startup/system_stm32f4xx.c ****   *                                              
 265:App/STM32F4-Discovery/startup/system_stm32f4xx.c ****   *           - If SYSCLK source is HSE, SystemCoreClock will contain the HSE_VALUE(**)
 266:App/STM32F4-Discovery/startup/system_stm32f4xx.c ****   *                          
 267:App/STM32F4-Discovery/startup/system_stm32f4xx.c ****   *           - If SYSCLK source is PLL, SystemCoreClock will contain the HSE_VALUE(**) 
 268:App/STM32F4-Discovery/startup/system_stm32f4xx.c ****   *             or HSI_VALUE(*) multiplied/divided by the PLL factors.
 269:App/STM32F4-Discovery/startup/system_stm32f4xx.c ****   *         
 270:App/STM32F4-Discovery/startup/system_stm32f4xx.c ****   *         (*) HSI_VALUE is a constant defined in stm32f4xx.h file (default value
 271:App/STM32F4-Discovery/startup/system_stm32f4xx.c ****   *             16 MHz) but the real value may vary depending on the variations
 272:App/STM32F4-Discovery/startup/system_stm32f4xx.c ****   *             in voltage and temperature.   
 273:App/STM32F4-Discovery/startup/system_stm32f4xx.c ****   *    
 274:App/STM32F4-Discovery/startup/system_stm32f4xx.c ****   *         (**) HSE_VALUE is a constant defined in stm32f4xx.h file (default value
 275:App/STM32F4-Discovery/startup/system_stm32f4xx.c ****   *              25 MHz), user has to ensure that HSE_VALUE is same as the real
 276:App/STM32F4-Discovery/startup/system_stm32f4xx.c ****   *              frequency of the crystal used. Otherwise, this function may
 277:App/STM32F4-Discovery/startup/system_stm32f4xx.c ****   *              have wrong result.
 278:App/STM32F4-Discovery/startup/system_stm32f4xx.c ****   *                
 279:App/STM32F4-Discovery/startup/system_stm32f4xx.c ****   *         - The result of this function could be not correct when using fractional
 280:App/STM32F4-Discovery/startup/system_stm32f4xx.c ****   *           value for HSE crystal.
 281:App/STM32F4-Discovery/startup/system_stm32f4xx.c ****   *     
 282:App/STM32F4-Discovery/startup/system_stm32f4xx.c ****   * @param  None
 283:App/STM32F4-Discovery/startup/system_stm32f4xx.c ****   * @retval None
 284:App/STM32F4-Discovery/startup/system_stm32f4xx.c ****   */
 285:App/STM32F4-Discovery/startup/system_stm32f4xx.c **** void SystemCoreClockUpdate(void)
 286:App/STM32F4-Discovery/startup/system_stm32f4xx.c **** {
 138              		.loc 1 286 0
 139              		.cfi_startproc
 140              		@ args = 0, pretend = 0, frame = 24
 141              		@ frame_needed = 1, uses_anonymous_args = 0
 142              		@ link register save eliminated.
 143 0000 80B4     		push	{r7}
 144              	.LCFI2:
 145              		.cfi_def_cfa_offset 4
 146              		.cfi_offset 7, -4
 147 0002 87B0     		sub	sp, sp, #28
 148              	.LCFI3:
 149              		.cfi_def_cfa_offset 32
 150 0004 00AF     		add	r7, sp, #0
 151              	.LCFI4:
 152              		.cfi_def_cfa_register 7
 287:App/STM32F4-Discovery/startup/system_stm32f4xx.c ****   uint32_t tmp = 0, pllvco = 0, pllp = 2, pllsource = 0, pllm = 2;
 153              		.loc 1 287 0
 154 0006 4FF00003 		mov	r3, #0
 155 000a 3B61     		str	r3, [r7, #16]
 156 000c 4FF00003 		mov	r3, #0
 157 0010 7B61     		str	r3, [r7, #20]
 158 0012 4FF00203 		mov	r3, #2
 159 0016 FB60     		str	r3, [r7, #12]
 160 0018 4FF00003 		mov	r3, #0
 161 001c BB60     		str	r3, [r7, #8]
 162 001e 4FF00203 		mov	r3, #2
 163 0022 7B60     		str	r3, [r7, #4]
 288:App/STM32F4-Discovery/startup/system_stm32f4xx.c ****   
 289:App/STM32F4-Discovery/startup/system_stm32f4xx.c ****   /* Get SYSCLK source -------------------------------------------------------*/
 290:App/STM32F4-Discovery/startup/system_stm32f4xx.c ****   tmp = RCC->CFGR & RCC_CFGR_SWS;
 164              		.loc 1 290 0
 165 0024 4FF46053 		mov	r3, #14336
 166 0028 C4F20203 		movt	r3, 16386
 167 002c 9B68     		ldr	r3, [r3, #8]
 168 002e 03F00C03 		and	r3, r3, #12
 169 0032 3B61     		str	r3, [r7, #16]
 291:App/STM32F4-Discovery/startup/system_stm32f4xx.c **** 
 292:App/STM32F4-Discovery/startup/system_stm32f4xx.c ****   switch (tmp)
 170              		.loc 1 292 0
 171 0034 3B69     		ldr	r3, [r7, #16]
 172 0036 042B     		cmp	r3, #4
 173 0038 0DD0     		beq	.L5
 174 003a 082B     		cmp	r3, #8
 175 003c 15D0     		beq	.L6
 176 003e 002B     		cmp	r3, #0
 177 0040 69D1     		bne	.L10
 178              	.L4:
 293:App/STM32F4-Discovery/startup/system_stm32f4xx.c ****   {
 294:App/STM32F4-Discovery/startup/system_stm32f4xx.c ****     case 0x00:  /* HSI used as system clock source */
 295:App/STM32F4-Discovery/startup/system_stm32f4xx.c ****       SystemCoreClock = HSI_VALUE;
 179              		.loc 1 295 0
 180 0042 40F20003 		movw	r3, #:lower16:SystemCoreClock
 181 0046 C0F20003 		movt	r3, #:upper16:SystemCoreClock
 182 004a 4FF41052 		mov	r2, #9216
 183 004e C0F2F402 		movt	r2, 244
 184 0052 1A60     		str	r2, [r3, #0]
 296:App/STM32F4-Discovery/startup/system_stm32f4xx.c ****       break;
 185              		.loc 1 296 0
 186 0054 69E0     		b	.L7
 187              	.L5:
 297:App/STM32F4-Discovery/startup/system_stm32f4xx.c ****     case 0x04:  /* HSE used as system clock source */
 298:App/STM32F4-Discovery/startup/system_stm32f4xx.c ****       SystemCoreClock = HSE_VALUE;
 188              		.loc 1 298 0
 189 0056 40F20003 		movw	r3, #:lower16:SystemCoreClock
 190 005a C0F20003 		movt	r3, #:upper16:SystemCoreClock
 191 005e 47F64002 		movw	r2, #30784
 192 0062 C0F27D12 		movt	r2, 381
 193 0066 1A60     		str	r2, [r3, #0]
 299:App/STM32F4-Discovery/startup/system_stm32f4xx.c ****       break;
 194              		.loc 1 299 0
 195 0068 5FE0     		b	.L7
 196              	.L6:
 300:App/STM32F4-Discovery/startup/system_stm32f4xx.c ****     case 0x08:  /* PLL used as system clock source */
 301:App/STM32F4-Discovery/startup/system_stm32f4xx.c **** 
 302:App/STM32F4-Discovery/startup/system_stm32f4xx.c ****       /* PLL_VCO = (HSE_VALUE or HSI_VALUE / PLL_M) * PLL_N
 303:App/STM32F4-Discovery/startup/system_stm32f4xx.c ****          SYSCLK = PLL_VCO / PLL_P
 304:App/STM32F4-Discovery/startup/system_stm32f4xx.c ****          */    
 305:App/STM32F4-Discovery/startup/system_stm32f4xx.c ****       pllsource = (RCC->PLLCFGR & RCC_PLLCFGR_PLLSRC) >> 22;
 197              		.loc 1 305 0
 198 006a 4FF46053 		mov	r3, #14336
 199 006e C4F20203 		movt	r3, 16386
 200 0072 5B68     		ldr	r3, [r3, #4]
 201 0074 03F48003 		and	r3, r3, #4194304
 202 0078 4FEA9353 		lsr	r3, r3, #22
 203 007c BB60     		str	r3, [r7, #8]
 306:App/STM32F4-Discovery/startup/system_stm32f4xx.c ****       pllm = RCC->PLLCFGR & RCC_PLLCFGR_PLLM;
 204              		.loc 1 306 0
 205 007e 4FF46053 		mov	r3, #14336
 206 0082 C4F20203 		movt	r3, 16386
 207 0086 5B68     		ldr	r3, [r3, #4]
 208 0088 03F03F03 		and	r3, r3, #63
 209 008c 7B60     		str	r3, [r7, #4]
 307:App/STM32F4-Discovery/startup/system_stm32f4xx.c ****       
 308:App/STM32F4-Discovery/startup/system_stm32f4xx.c ****       if (pllsource != 0)
 210              		.loc 1 308 0
 211 008e BB68     		ldr	r3, [r7, #8]
 212 0090 002B     		cmp	r3, #0
 213 0092 14D0     		beq	.L8
 309:App/STM32F4-Discovery/startup/system_stm32f4xx.c ****       {
 310:App/STM32F4-Discovery/startup/system_stm32f4xx.c ****         /* HSE used as PLL clock source */
 311:App/STM32F4-Discovery/startup/system_stm32f4xx.c ****         pllvco = (HSE_VALUE / pllm) * ((RCC->PLLCFGR & RCC_PLLCFGR_PLLN) >> 6);
 214              		.loc 1 311 0
 215 0094 47F64003 		movw	r3, #30784
 216 0098 C0F27D13 		movt	r3, 381
 217 009c 7A68     		ldr	r2, [r7, #4]
 218 009e B3FBF2F2 		udiv	r2, r3, r2
 219 00a2 4FF46053 		mov	r3, #14336
 220 00a6 C4F20203 		movt	r3, 16386
 221 00aa 5968     		ldr	r1, [r3, #4]
 222 00ac 47F6C073 		movw	r3, #32704
 223 00b0 0B40     		ands	r3, r3, r1
 224 00b2 4FEA9313 		lsr	r3, r3, #6
 225 00b6 03FB02F3 		mul	r3, r3, r2
 226 00ba 7B61     		str	r3, [r7, #20]
 227 00bc 13E0     		b	.L9
 228              	.L8:
 312:App/STM32F4-Discovery/startup/system_stm32f4xx.c ****       }
 313:App/STM32F4-Discovery/startup/system_stm32f4xx.c ****       else
 314:App/STM32F4-Discovery/startup/system_stm32f4xx.c ****       {
 315:App/STM32F4-Discovery/startup/system_stm32f4xx.c ****         /* HSI used as PLL clock source */
 316:App/STM32F4-Discovery/startup/system_stm32f4xx.c ****         pllvco = (HSI_VALUE / pllm) * ((RCC->PLLCFGR & RCC_PLLCFGR_PLLN) >> 6);      
 229              		.loc 1 316 0
 230 00be 4FF41053 		mov	r3, #9216
 231 00c2 C0F2F403 		movt	r3, 244
 232 00c6 7A68     		ldr	r2, [r7, #4]
 233 00c8 B3FBF2F2 		udiv	r2, r3, r2
 234 00cc 4FF46053 		mov	r3, #14336
 235 00d0 C4F20203 		movt	r3, 16386
 236 00d4 5968     		ldr	r1, [r3, #4]
 237 00d6 47F6C073 		movw	r3, #32704
 238 00da 0B40     		ands	r3, r3, r1
 239 00dc 4FEA9313 		lsr	r3, r3, #6
 240 00e0 03FB02F3 		mul	r3, r3, r2
 241 00e4 7B61     		str	r3, [r7, #20]
 242              	.L9:
 317:App/STM32F4-Discovery/startup/system_stm32f4xx.c ****       }
 318:App/STM32F4-Discovery/startup/system_stm32f4xx.c **** 
 319:App/STM32F4-Discovery/startup/system_stm32f4xx.c ****       pllp = (((RCC->PLLCFGR & RCC_PLLCFGR_PLLP) >>16) + 1 ) *2;
 243              		.loc 1 319 0
 244 00e6 4FF46053 		mov	r3, #14336
 245 00ea C4F20203 		movt	r3, 16386
 246 00ee 5B68     		ldr	r3, [r3, #4]
 247 00f0 03F44033 		and	r3, r3, #196608
 248 00f4 4FEA1343 		lsr	r3, r3, #16
 249 00f8 03F10103 		add	r3, r3, #1
 250 00fc 4FEA4303 		lsl	r3, r3, #1
 251 0100 FB60     		str	r3, [r7, #12]
 320:App/STM32F4-Discovery/startup/system_stm32f4xx.c ****       SystemCoreClock = pllvco/pllp;
 252              		.loc 1 320 0
 253 0102 7A69     		ldr	r2, [r7, #20]
 254 0104 FB68     		ldr	r3, [r7, #12]
 255 0106 B2FBF3F2 		udiv	r2, r2, r3
 256 010a 40F20003 		movw	r3, #:lower16:SystemCoreClock
 257 010e C0F20003 		movt	r3, #:upper16:SystemCoreClock
 258 0112 1A60     		str	r2, [r3, #0]
 321:App/STM32F4-Discovery/startup/system_stm32f4xx.c ****       break;
 259              		.loc 1 321 0
 260 0114 09E0     		b	.L7
 261              	.L10:
 322:App/STM32F4-Discovery/startup/system_stm32f4xx.c ****     default:
 323:App/STM32F4-Discovery/startup/system_stm32f4xx.c ****       SystemCoreClock = HSI_VALUE;
 262              		.loc 1 323 0
 263 0116 40F20003 		movw	r3, #:lower16:SystemCoreClock
 264 011a C0F20003 		movt	r3, #:upper16:SystemCoreClock
 265 011e 4FF41052 		mov	r2, #9216
 266 0122 C0F2F402 		movt	r2, 244
 267 0126 1A60     		str	r2, [r3, #0]
 324:App/STM32F4-Discovery/startup/system_stm32f4xx.c ****       break;
 268              		.loc 1 324 0
 269 0128 00BF     		nop
 270              	.L7:
 325:App/STM32F4-Discovery/startup/system_stm32f4xx.c ****   }
 326:App/STM32F4-Discovery/startup/system_stm32f4xx.c ****   /* Compute HCLK frequency --------------------------------------------------*/
 327:App/STM32F4-Discovery/startup/system_stm32f4xx.c ****   /* Get HCLK prescaler */
 328:App/STM32F4-Discovery/startup/system_stm32f4xx.c ****   tmp = AHBPrescTable[((RCC->CFGR & RCC_CFGR_HPRE) >> 4)];
 271              		.loc 1 328 0
 272 012a 4FF46053 		mov	r3, #14336
 273 012e C4F20203 		movt	r3, 16386
 274 0132 9B68     		ldr	r3, [r3, #8]
 275 0134 03F0F003 		and	r3, r3, #240
 276 0138 4FEA1312 		lsr	r2, r3, #4
 277 013c 40F20003 		movw	r3, #:lower16:AHBPrescTable
 278 0140 C0F20003 		movt	r3, #:upper16:AHBPrescTable
 279 0144 9B5C     		ldrb	r3, [r3, r2]
 280 0146 DBB2     		uxtb	r3, r3
 281 0148 3B61     		str	r3, [r7, #16]
 329:App/STM32F4-Discovery/startup/system_stm32f4xx.c ****   /* HCLK frequency */
 330:App/STM32F4-Discovery/startup/system_stm32f4xx.c ****   SystemCoreClock >>= tmp;
 282              		.loc 1 330 0
 283 014a 40F20003 		movw	r3, #:lower16:SystemCoreClock
 284 014e C0F20003 		movt	r3, #:upper16:SystemCoreClock
 285 0152 1A68     		ldr	r2, [r3, #0]
 286 0154 3B69     		ldr	r3, [r7, #16]
 287 0156 22FA03F2 		lsr	r2, r2, r3
 288 015a 40F20003 		movw	r3, #:lower16:SystemCoreClock
 289 015e C0F20003 		movt	r3, #:upper16:SystemCoreClock
 290 0162 1A60     		str	r2, [r3, #0]
 331:App/STM32F4-Discovery/startup/system_stm32f4xx.c **** }
 291              		.loc 1 331 0
 292 0164 07F11C07 		add	r7, r7, #28
 293 0168 BD46     		mov	sp, r7
 294 016a 80BC     		pop	{r7}
 295 016c 7047     		bx	lr
 296              		.cfi_endproc
 297              	.LFE111:
 299 016e 00BF     		.section	.text.SetSysClock,"ax",%progbits
 300              		.align	2
 301              		.thumb
 302              		.thumb_func
 304              	SetSysClock:
 305              	.LFB112:
 332:App/STM32F4-Discovery/startup/system_stm32f4xx.c **** 
 333:App/STM32F4-Discovery/startup/system_stm32f4xx.c **** /**
 334:App/STM32F4-Discovery/startup/system_stm32f4xx.c ****   * @brief  Configures the System clock source, PLL Multiplier and Divider factors, 
 335:App/STM32F4-Discovery/startup/system_stm32f4xx.c ****   *         AHB/APBx prescalers and Flash settings
 336:App/STM32F4-Discovery/startup/system_stm32f4xx.c ****   * @Note   This function should be called only once the RCC clock configuration  
 337:App/STM32F4-Discovery/startup/system_stm32f4xx.c ****   *         is reset to the default reset state (done in SystemInit() function).   
 338:App/STM32F4-Discovery/startup/system_stm32f4xx.c ****   * @param  None
 339:App/STM32F4-Discovery/startup/system_stm32f4xx.c ****   * @retval None
 340:App/STM32F4-Discovery/startup/system_stm32f4xx.c ****   */
 341:App/STM32F4-Discovery/startup/system_stm32f4xx.c **** static void SetSysClock(void)
 342:App/STM32F4-Discovery/startup/system_stm32f4xx.c **** {
 306              		.loc 1 342 0
 307              		.cfi_startproc
 308              		@ args = 0, pretend = 0, frame = 8
 309              		@ frame_needed = 1, uses_anonymous_args = 0
 310              		@ link register save eliminated.
 311 0000 80B4     		push	{r7}
 312              	.LCFI5:
 313              		.cfi_def_cfa_offset 4
 314              		.cfi_offset 7, -4
 315 0002 83B0     		sub	sp, sp, #12
 316              	.LCFI6:
 317              		.cfi_def_cfa_offset 16
 318 0004 00AF     		add	r7, sp, #0
 319              	.LCFI7:
 320              		.cfi_def_cfa_register 7
 343:App/STM32F4-Discovery/startup/system_stm32f4xx.c **** /******************************************************************************/
 344:App/STM32F4-Discovery/startup/system_stm32f4xx.c **** /*            PLL (clocked by HSE) used as System clock source                */
 345:App/STM32F4-Discovery/startup/system_stm32f4xx.c **** /******************************************************************************/
 346:App/STM32F4-Discovery/startup/system_stm32f4xx.c ****   __IO uint32_t StartUpCounter = 0, HSEStatus = 0;
 321              		.loc 1 346 0
 322 0006 4FF00003 		mov	r3, #0
 323 000a 7B60     		str	r3, [r7, #4]
 324 000c 4FF00003 		mov	r3, #0
 325 0010 3B60     		str	r3, [r7, #0]
 347:App/STM32F4-Discovery/startup/system_stm32f4xx.c ****   
 348:App/STM32F4-Discovery/startup/system_stm32f4xx.c ****   /* Enable HSE */
 349:App/STM32F4-Discovery/startup/system_stm32f4xx.c ****   RCC->CR |= ((uint32_t)RCC_CR_HSEON);
 326              		.loc 1 349 0
 327 0012 4FF46053 		mov	r3, #14336
 328 0016 C4F20203 		movt	r3, 16386
 329 001a 4FF46052 		mov	r2, #14336
 330 001e C4F20202 		movt	r2, 16386
 331 0022 1268     		ldr	r2, [r2, #0]
 332 0024 42F48032 		orr	r2, r2, #65536
 333 0028 1A60     		str	r2, [r3, #0]
 334              	.L13:
 350:App/STM32F4-Discovery/startup/system_stm32f4xx.c ****  
 351:App/STM32F4-Discovery/startup/system_stm32f4xx.c ****   /* Wait till HSE is ready and if Time out is reached exit */
 352:App/STM32F4-Discovery/startup/system_stm32f4xx.c ****   do
 353:App/STM32F4-Discovery/startup/system_stm32f4xx.c ****   {
 354:App/STM32F4-Discovery/startup/system_stm32f4xx.c ****     HSEStatus = RCC->CR & RCC_CR_HSERDY;
 335              		.loc 1 354 0 discriminator 1
 336 002a 4FF46053 		mov	r3, #14336
 337 002e C4F20203 		movt	r3, 16386
 338 0032 1B68     		ldr	r3, [r3, #0]
 339 0034 03F40033 		and	r3, r3, #131072
 340 0038 3B60     		str	r3, [r7, #0]
 355:App/STM32F4-Discovery/startup/system_stm32f4xx.c ****     StartUpCounter++;
 341              		.loc 1 355 0 discriminator 1
 342 003a 7B68     		ldr	r3, [r7, #4]
 343 003c 03F10103 		add	r3, r3, #1
 344 0040 7B60     		str	r3, [r7, #4]
 356:App/STM32F4-Discovery/startup/system_stm32f4xx.c ****   } while((HSEStatus == 0) && (StartUpCounter != HSE_STARTUP_TIMEOUT));
 345              		.loc 1 356 0 discriminator 1
 346 0042 3B68     		ldr	r3, [r7, #0]
 347 0044 002B     		cmp	r3, #0
 348 0046 03D1     		bne	.L12
 349 0048 7B68     		ldr	r3, [r7, #4]
 350 004a B3F5A06F 		cmp	r3, #1280
 351 004e ECD1     		bne	.L13
 352              	.L12:
 357:App/STM32F4-Discovery/startup/system_stm32f4xx.c **** 
 358:App/STM32F4-Discovery/startup/system_stm32f4xx.c ****   if ((RCC->CR & RCC_CR_HSERDY) != RESET)
 353              		.loc 1 358 0
 354 0050 4FF46053 		mov	r3, #14336
 355 0054 C4F20203 		movt	r3, 16386
 356 0058 1B68     		ldr	r3, [r3, #0]
 357 005a 03F40033 		and	r3, r3, #131072
 358 005e 002B     		cmp	r3, #0
 359 0060 03D0     		beq	.L14
 359:App/STM32F4-Discovery/startup/system_stm32f4xx.c ****   {
 360:App/STM32F4-Discovery/startup/system_stm32f4xx.c ****     HSEStatus = (uint32_t)0x01;
 360              		.loc 1 360 0
 361 0062 4FF00103 		mov	r3, #1
 362 0066 3B60     		str	r3, [r7, #0]
 363 0068 02E0     		b	.L15
 364              	.L14:
 361:App/STM32F4-Discovery/startup/system_stm32f4xx.c ****   }
 362:App/STM32F4-Discovery/startup/system_stm32f4xx.c ****   else
 363:App/STM32F4-Discovery/startup/system_stm32f4xx.c ****   {
 364:App/STM32F4-Discovery/startup/system_stm32f4xx.c ****     HSEStatus = (uint32_t)0x00;
 365              		.loc 1 364 0
 366 006a 4FF00003 		mov	r3, #0
 367 006e 3B60     		str	r3, [r7, #0]
 368              	.L15:
 365:App/STM32F4-Discovery/startup/system_stm32f4xx.c ****   }
 366:App/STM32F4-Discovery/startup/system_stm32f4xx.c **** 
 367:App/STM32F4-Discovery/startup/system_stm32f4xx.c ****   if (HSEStatus == (uint32_t)0x01)
 369              		.loc 1 367 0
 370 0070 3B68     		ldr	r3, [r7, #0]
 371 0072 012B     		cmp	r3, #1
 372 0074 40F08280 		bne	.L11
 368:App/STM32F4-Discovery/startup/system_stm32f4xx.c ****   {
 369:App/STM32F4-Discovery/startup/system_stm32f4xx.c ****     /* Select regulator voltage output Scale 1 mode, System frequency up to 168 MHz */
 370:App/STM32F4-Discovery/startup/system_stm32f4xx.c ****     RCC->APB1ENR |= RCC_APB1ENR_PWREN;
 373              		.loc 1 370 0
 374 0078 4FF46053 		mov	r3, #14336
 375 007c C4F20203 		movt	r3, 16386
 376 0080 4FF46052 		mov	r2, #14336
 377 0084 C4F20202 		movt	r2, 16386
 378 0088 126C     		ldr	r2, [r2, #64]
 379 008a 42F08052 		orr	r2, r2, #268435456
 380 008e 1A64     		str	r2, [r3, #64]
 371:App/STM32F4-Discovery/startup/system_stm32f4xx.c ****     PWR->CR |= PWR_CR_VOS;
 381              		.loc 1 371 0
 382 0090 4FF4E043 		mov	r3, #28672
 383 0094 C4F20003 		movt	r3, 16384
 384 0098 4FF4E042 		mov	r2, #28672
 385 009c C4F20002 		movt	r2, 16384
 386 00a0 1268     		ldr	r2, [r2, #0]
 387 00a2 42F48042 		orr	r2, r2, #16384
 388 00a6 1A60     		str	r2, [r3, #0]
 372:App/STM32F4-Discovery/startup/system_stm32f4xx.c **** 
 373:App/STM32F4-Discovery/startup/system_stm32f4xx.c ****     /* HCLK = SYSCLK / 1*/
 374:App/STM32F4-Discovery/startup/system_stm32f4xx.c ****     RCC->CFGR |= RCC_CFGR_HPRE_DIV1;
 389              		.loc 1 374 0
 390 00a8 4FF46053 		mov	r3, #14336
 391 00ac C4F20203 		movt	r3, 16386
 392 00b0 4FF46052 		mov	r2, #14336
 393 00b4 C4F20202 		movt	r2, 16386
 394 00b8 9268     		ldr	r2, [r2, #8]
 395 00ba 9A60     		str	r2, [r3, #8]
 375:App/STM32F4-Discovery/startup/system_stm32f4xx.c ****       
 376:App/STM32F4-Discovery/startup/system_stm32f4xx.c ****     /* PCLK2 = HCLK / 2*/
 377:App/STM32F4-Discovery/startup/system_stm32f4xx.c ****     RCC->CFGR |= RCC_CFGR_PPRE2_DIV2;
 396              		.loc 1 377 0
 397 00bc 4FF46053 		mov	r3, #14336
 398 00c0 C4F20203 		movt	r3, 16386
 399 00c4 4FF46052 		mov	r2, #14336
 400 00c8 C4F20202 		movt	r2, 16386
 401 00cc 9268     		ldr	r2, [r2, #8]
 402 00ce 42F40042 		orr	r2, r2, #32768
 403 00d2 9A60     		str	r2, [r3, #8]
 378:App/STM32F4-Discovery/startup/system_stm32f4xx.c ****     
 379:App/STM32F4-Discovery/startup/system_stm32f4xx.c ****     /* PCLK1 = HCLK / 4*/
 380:App/STM32F4-Discovery/startup/system_stm32f4xx.c ****     RCC->CFGR |= RCC_CFGR_PPRE1_DIV4;
 404              		.loc 1 380 0
 405 00d4 4FF46053 		mov	r3, #14336
 406 00d8 C4F20203 		movt	r3, 16386
 407 00dc 4FF46052 		mov	r2, #14336
 408 00e0 C4F20202 		movt	r2, 16386
 409 00e4 9268     		ldr	r2, [r2, #8]
 410 00e6 42F4A052 		orr	r2, r2, #5120
 411 00ea 9A60     		str	r2, [r3, #8]
 381:App/STM32F4-Discovery/startup/system_stm32f4xx.c **** 
 382:App/STM32F4-Discovery/startup/system_stm32f4xx.c ****     /* Configure the main PLL */
 383:App/STM32F4-Discovery/startup/system_stm32f4xx.c ****     RCC->PLLCFGR = PLL_M | (PLL_N << 6) | (((PLL_P >> 1) -1) << 16) |
 412              		.loc 1 383 0
 413 00ec 4FF46053 		mov	r3, #14336
 414 00f0 C4F20203 		movt	r3, 16386
 415 00f4 44F61932 		movw	r2, #19225
 416 00f8 C0F24072 		movt	r2, 1856
 417 00fc 5A60     		str	r2, [r3, #4]
 384:App/STM32F4-Discovery/startup/system_stm32f4xx.c ****                    (RCC_PLLCFGR_PLLSRC_HSE) | (PLL_Q << 24);
 385:App/STM32F4-Discovery/startup/system_stm32f4xx.c **** 
 386:App/STM32F4-Discovery/startup/system_stm32f4xx.c ****     /* Enable the main PLL */
 387:App/STM32F4-Discovery/startup/system_stm32f4xx.c ****     RCC->CR |= RCC_CR_PLLON;
 418              		.loc 1 387 0
 419 00fe 4FF46053 		mov	r3, #14336
 420 0102 C4F20203 		movt	r3, 16386
 421 0106 4FF46052 		mov	r2, #14336
 422 010a C4F20202 		movt	r2, 16386
 423 010e 1268     		ldr	r2, [r2, #0]
 424 0110 42F08072 		orr	r2, r2, #16777216
 425 0114 1A60     		str	r2, [r3, #0]
 388:App/STM32F4-Discovery/startup/system_stm32f4xx.c **** 
 389:App/STM32F4-Discovery/startup/system_stm32f4xx.c ****     /* Wait till the main PLL is ready */
 390:App/STM32F4-Discovery/startup/system_stm32f4xx.c ****     while((RCC->CR & RCC_CR_PLLRDY) == 0)
 426              		.loc 1 390 0
 427 0116 00BF     		nop
 428              	.L17:
 429              		.loc 1 390 0 is_stmt 0 discriminator 1
 430 0118 4FF46053 		mov	r3, #14336
 431 011c C4F20203 		movt	r3, 16386
 432 0120 1B68     		ldr	r3, [r3, #0]
 433 0122 03F00073 		and	r3, r3, #33554432
 434 0126 002B     		cmp	r3, #0
 435 0128 F6D0     		beq	.L17
 391:App/STM32F4-Discovery/startup/system_stm32f4xx.c ****     {
 392:App/STM32F4-Discovery/startup/system_stm32f4xx.c ****     }
 393:App/STM32F4-Discovery/startup/system_stm32f4xx.c ****    
 394:App/STM32F4-Discovery/startup/system_stm32f4xx.c ****     /* Configure Flash prefetch, Instruction cache, Data cache and wait state */
 395:App/STM32F4-Discovery/startup/system_stm32f4xx.c ****     FLASH->ACR = FLASH_ACR_ICEN |FLASH_ACR_DCEN |FLASH_ACR_LATENCY_4WS;
 436              		.loc 1 395 0 is_stmt 1
 437 012a 4FF47053 		mov	r3, #15360
 438 012e C4F20203 		movt	r3, 16386
 439 0132 40F20462 		movw	r2, #1540
 440 0136 1A60     		str	r2, [r3, #0]
 396:App/STM32F4-Discovery/startup/system_stm32f4xx.c **** 
 397:App/STM32F4-Discovery/startup/system_stm32f4xx.c ****     /* Select the main PLL as system clock source */
 398:App/STM32F4-Discovery/startup/system_stm32f4xx.c ****     RCC->CFGR &= (uint32_t)((uint32_t)~(RCC_CFGR_SW));
 441              		.loc 1 398 0
 442 0138 4FF46053 		mov	r3, #14336
 443 013c C4F20203 		movt	r3, 16386
 444 0140 4FF46052 		mov	r2, #14336
 445 0144 C4F20202 		movt	r2, 16386
 446 0148 9268     		ldr	r2, [r2, #8]
 447 014a 22F00302 		bic	r2, r2, #3
 448 014e 9A60     		str	r2, [r3, #8]
 399:App/STM32F4-Discovery/startup/system_stm32f4xx.c ****     RCC->CFGR |= RCC_CFGR_SW_PLL;
 449              		.loc 1 399 0
 450 0150 4FF46053 		mov	r3, #14336
 451 0154 C4F20203 		movt	r3, 16386
 452 0158 4FF46052 		mov	r2, #14336
 453 015c C4F20202 		movt	r2, 16386
 454 0160 9268     		ldr	r2, [r2, #8]
 455 0162 42F00202 		orr	r2, r2, #2
 456 0166 9A60     		str	r2, [r3, #8]
 400:App/STM32F4-Discovery/startup/system_stm32f4xx.c **** 
 401:App/STM32F4-Discovery/startup/system_stm32f4xx.c ****     /* Wait till the main PLL is used as system clock source */
 402:App/STM32F4-Discovery/startup/system_stm32f4xx.c ****     while ((RCC->CFGR & (uint32_t)RCC_CFGR_SWS ) != RCC_CFGR_SWS_PLL);
 457              		.loc 1 402 0
 458 0168 00BF     		nop
 459              	.L18:
 460              		.loc 1 402 0 is_stmt 0 discriminator 1
 461 016a 4FF46053 		mov	r3, #14336
 462 016e C4F20203 		movt	r3, 16386
 463 0172 9B68     		ldr	r3, [r3, #8]
 464 0174 03F00C03 		and	r3, r3, #12
 465 0178 082B     		cmp	r3, #8
 466 017a F6D1     		bne	.L18
 467              	.L11:
 403:App/STM32F4-Discovery/startup/system_stm32f4xx.c ****     {
 404:App/STM32F4-Discovery/startup/system_stm32f4xx.c ****     }
 405:App/STM32F4-Discovery/startup/system_stm32f4xx.c ****   }
 406:App/STM32F4-Discovery/startup/system_stm32f4xx.c ****   else
 407:App/STM32F4-Discovery/startup/system_stm32f4xx.c ****   { /* If HSE fails to start-up, the application will have wrong clock
 408:App/STM32F4-Discovery/startup/system_stm32f4xx.c ****          configuration. User can add here some code to deal with this error */
 409:App/STM32F4-Discovery/startup/system_stm32f4xx.c ****   }
 410:App/STM32F4-Discovery/startup/system_stm32f4xx.c **** 
 411:App/STM32F4-Discovery/startup/system_stm32f4xx.c **** }
 468              		.loc 1 411 0 is_stmt 1
 469 017c 07F10C07 		add	r7, r7, #12
 470 0180 BD46     		mov	sp, r7
 471 0182 80BC     		pop	{r7}
 472 0184 7047     		bx	lr
 473              		.cfi_endproc
 474              	.LFE112:
 476 0186 00BF     		.text
 477              	.Letext0:
 478              		.file 2 "/home/thanhtruong/embedded-development/toolchain/gcc-arm-none-eabi-4_7-2013q1/bin/../lib/
 479              		.file 3 "App/STM32F4-Discovery/Libraries/CMSIS/Include/core_cm4.h"
 480              		.file 4 "App/STM32F4-Discovery/Libraries/CMSIS/ST/STM32F4xx/Include/stm32f4xx.h"